   1              		.file	"main_ap.c"
   2              		.global	ac_ident
   3              		.section	.data.ac_ident,"aw",%progbits
   6              	ac_ident:
   7 0000 04       		.byte	4
   8              		.global	gps_lost
   9              		.section	.data.gps_lost,"aw",%progbits
  12              	gps_lost:
  13 0000 00       		.byte	0
  14              		.global	launch
  15              		.section	.data.launch,"aw",%progbits
  18              	launch:
  19 0000 00       		.byte	0
  20              		.global	kill_throttle
  21              		.section	.data.kill_throttle,"aw",%progbits
  24              	kill_throttle:
  25 0000 00       		.byte	0
  26              		.global	lateral_mode
  27              		.section	.data.lateral_mode,"aw",%progbits
  30              	lateral_mode:
  31 0000 00       		.byte	0
  32              		.global	pprz_mode
  33              		.section	.data.pprz_mode,"aw",%progbits
  36              	pprz_mode:
  37 0000 02       		.byte	2
  38              		.global	fatal_error_nb
  39              		.section	.data.fatal_error_nb,"aw",%progbits
  42              	fatal_error_nb:
  43 0000 00       		.byte	0
  44              		.global	rc_settings_mode
  45              		.section	.data.rc_settings_mode,"aw",%progbits
  48              	rc_settings_mode:
  49 0000 00       		.byte	0
  50              		.section	.rodata.version,"a",%progbits
  51              		.align	1
  54              	version:
  55 0000 0100     		.short	1
  56              		.section	.bss.last_pprz_mode.55,"aw",%nobits
  59              	last_pprz_mode.55:
  60 0000 00       		.space	1
  61              		.global	__extendsfdf2
  62              		.global	__divdf3
  63              		.global	__fixunsdfsi
  64              		.global	__floatsidf
  65              		.global	__gtdf2
  66              		.global	__floatsisf
  67              		.global	__addsf3
  68              		.global	__muldf3
  69              		.global	__fixdfsi
  70              		.global	__gtsf2
  71              		.global	__ltsf2
  72              		.global	__divsf3
  73              		.global	__mulsf3
  74              		.section	.text.navigation_task,"ax",%progbits
  75              		.align	2
  77              	navigation_task:
  78              		@ Function supports interworking.
  79              		@ args = 0, pretend = 0, frame = 4
  80              		@ frame_needed = 1, uses_anonymous_args = 0
  81 0000 0DC0A0E1 		mov	ip, sp
  82 0004 F0D92DE9 		stmfd	sp!, {r4, r5, r6, r7, r8, fp, ip, lr, pc}
  83 0008 04B04CE2 		sub	fp, ip, #4
  84 000c 04D04DE2 		sub	sp, sp, #4
  85 0010 CC839FE5 		ldr	r8, .L35
  86 0014 0030D8E5 		ldrb	r3, [r8, #0]	@ zero_extendqisi2
  87 0018 000053E3 		cmp	r3, #0
  88 001c EC00000A 		beq	.L2
  89 0020 C0339FE5 		ldr	r3, .L35+4
  90 0024 C0239FE5 		ldr	r2, .L35+8
  91 0028 B030D3E1 		ldrh	r3, [r3, #0]
  92 002c B020D2E1 		ldrh	r2, [r2, #0]
  93 0030 033062E0 		rsb	r3, r2, r3
  94 0034 020053E3 		cmp	r3, #2
  95 0038 7E0000DA 		ble	.L3
  96 003c AC639FE5 		ldr	r6, .L35+12
  97 0040 0020D6E5 		ldrb	r2, [r6, #0]	@ zero_extendqisi2
  98 0044 023042E2 		sub	r3, r2, #2
  99 0048 010053E3 		cmp	r3, #1
 100 004c EC00008A 		bhi	.L2
 101 0050 9C339FE5 		ldr	r3, .L35+16
 102 0054 0470A0E3 		mov	r7, #4
 103 0058 0020C3E5 		strb	r2, [r3, #0]
 104 005c 0C00A0E3 		mov	r0, #12
 105 0060 0070C6E5 		strb	r7, [r6, #0]
 106 0064 FEFFFFEB 		bl	uart1_check_free_space
 107 0068 FF0010E3 		tst	r0, #255
 108 006c 98239F05 		ldreq	r2, .L35+40
 109 0070 0030D205 		ldreqb	r3, [r2, #0]	@ zero_extendqisi2
 110 0074 01308302 		addeq	r3, r3, #1
 111 0078 0030C205 		streqb	r3, [r2, #0]
 112 007c 7A00000A 		beq	.L6
 113 0080 88139FE5 		ldr	r1, .L35+44
 114 0084 88C39FE5 		ldr	ip, .L35+48
 115 0088 B030D1E1 		ldrh	r3, [r1, #0]
 116 008c B020DCE1 		ldrh	r2, [ip, #0]
 117 0090 0C3083E2 		add	r3, r3, #12
 118 0094 012082E2 		add	r2, r2, #1
 119 0098 B030C1E1 		strh	r3, [r1, #0]	@ movhi 
 120 009c B020CCE1 		strh	r2, [ip, #0]	@ movhi 
 121 00a0 9900A0E3 		mov	r0, #153
 122 00a4 6C439FE5 		ldr	r4, .L35+52
 123 00a8 FEFFFFEB 		bl	uart1_transmit
 124 00ac 0C00A0E3 		mov	r0, #12
 125 00b0 64539FE5 		ldr	r5, .L35+56
 126 00b4 FEFFFFEB 		bl	uart1_transmit
 127 00b8 1030A0E3 		mov	r3, #16
 128 00bc 0030C4E5 		strb	r3, [r4, #0]
 129 00c0 0C3083E2 		add	r3, r3, #12
 130 00c4 0700A0E1 		mov	r0, r7
 131 00c8 0030C5E5 		strb	r3, [r5, #0]
 132 00cc FEFFFFEB 		bl	uart1_transmit
 133 00d0 0030D4E5 		ldrb	r3, [r4, #0]	@ zero_extendqisi2
 134 00d4 0B3083E2 		add	r3, r3, #11
 135 00d8 0030C4E5 		strb	r3, [r4, #0]
 136 00dc 0030D5E5 		ldrb	r3, [r5, #0]	@ zero_extendqisi2
 137 00e0 0020D4E5 		ldrb	r2, [r4, #0]	@ zero_extendqisi2
 138 00e4 023083E0 		add	r3, r3, r2
 139 00e8 0B00A0E3 		mov	r0, #11
 140 00ec 0030C5E5 		strb	r3, [r5, #0]
 141 00f0 FEFFFFEB 		bl	uart1_transmit
 142 00f4 0000D6E5 		ldrb	r0, [r6, #0]	@ zero_extendqisi2
 143 00f8 0030D4E5 		ldrb	r3, [r4, #0]	@ zero_extendqisi2
 144 00fc 033080E0 		add	r3, r0, r3
 145 0100 0030C4E5 		strb	r3, [r4, #0]
 146 0104 0030D5E5 		ldrb	r3, [r5, #0]	@ zero_extendqisi2
 147 0108 0020D4E5 		ldrb	r2, [r4, #0]	@ zero_extendqisi2
 148 010c 023083E0 		add	r3, r3, r2
 149 0110 0030C5E5 		strb	r3, [r5, #0]
 150 0114 FEFFFFEB 		bl	uart1_transmit
 151 0118 1C339FE5 		ldr	r3, .L35+88
 152 011c 0000D3E5 		ldrb	r0, [r3, #0]	@ zero_extendqisi2
 153 0120 0030D4E5 		ldrb	r3, [r4, #0]	@ zero_extendqisi2
 154 0124 033080E0 		add	r3, r0, r3
 155 0128 0030C4E5 		strb	r3, [r4, #0]
 156 012c 0030D5E5 		ldrb	r3, [r5, #0]	@ zero_extendqisi2
 157 0130 0020D4E5 		ldrb	r2, [r4, #0]	@ zero_extendqisi2
 158 0134 023083E0 		add	r3, r3, r2
 159 0138 0030C5E5 		strb	r3, [r5, #0]
 160 013c FEFFFFEB 		bl	uart1_transmit
 161 0140 F8329FE5 		ldr	r3, .L35+92
 162 0144 0000D3E5 		ldrb	r0, [r3, #0]	@ zero_extendqisi2
 163 0148 0030D4E5 		ldrb	r3, [r4, #0]	@ zero_extendqisi2
 164 014c 033080E0 		add	r3, r0, r3
 165 0150 0030C4E5 		strb	r3, [r4, #0]
 166 0154 0030D5E5 		ldrb	r3, [r5, #0]	@ zero_extendqisi2
 167 0158 0020D4E5 		ldrb	r2, [r4, #0]	@ zero_extendqisi2
 168 015c 023083E0 		add	r3, r3, r2
 169 0160 0030C5E5 		strb	r3, [r5, #0]
 170 0164 FEFFFFEB 		bl	uart1_transmit
 171 0168 88329FE5 		ldr	r3, .L35+20
 172 016c 0000D3E5 		ldrb	r0, [r3, #0]	@ zero_extendqisi2
 173 0170 0030D4E5 		ldrb	r3, [r4, #0]	@ zero_extendqisi2
 174 0174 033080E0 		add	r3, r0, r3
 175 0178 0030C4E5 		strb	r3, [r4, #0]
 176 017c 0030D5E5 		ldrb	r3, [r5, #0]	@ zero_extendqisi2
 177 0180 0020D4E5 		ldrb	r2, [r4, #0]	@ zero_extendqisi2
 178 0184 023083E0 		add	r3, r3, r2
 179 0188 0030C5E5 		strb	r3, [r5, #0]
 180 018c FEFFFFEB 		bl	uart1_transmit
 181 0190 64329FE5 		ldr	r3, .L35+24
 182 0194 0000D3E5 		ldrb	r0, [r3, #0]	@ zero_extendqisi2
 183 0198 0030D4E5 		ldrb	r3, [r4, #0]	@ zero_extendqisi2
 184 019c 033080E0 		add	r3, r0, r3
 185 01a0 0030C4E5 		strb	r3, [r4, #0]
 186 01a4 0030D5E5 		ldrb	r3, [r5, #0]	@ zero_extendqisi2
 187 01a8 0020D4E5 		ldrb	r2, [r4, #0]	@ zero_extendqisi2
 188 01ac 023083E0 		add	r3, r3, r2
 189 01b0 0030C5E5 		strb	r3, [r5, #0]
 190 01b4 FEFFFFEB 		bl	uart1_transmit
 191 01b8 40329FE5 		ldr	r3, .L35+28
 192 01bc 0000D3E5 		ldrb	r0, [r3, #0]	@ zero_extendqisi2
 193 01c0 0030D4E5 		ldrb	r3, [r4, #0]	@ zero_extendqisi2
 194 01c4 033080E0 		add	r3, r0, r3
 195 01c8 0030C4E5 		strb	r3, [r4, #0]
 196 01cc 0030D5E5 		ldrb	r3, [r5, #0]	@ zero_extendqisi2
 197 01d0 0020D4E5 		ldrb	r2, [r4, #0]	@ zero_extendqisi2
 198 01d4 023083E0 		add	r3, r3, r2
 199 01d8 0030C5E5 		strb	r3, [r5, #0]
 200 01dc FEFFFFEB 		bl	uart1_transmit
 201 01e0 0000D4E5 		ldrb	r0, [r4, #0]	@ zero_extendqisi2
 202 01e4 FEFFFFEB 		bl	uart1_transmit
 203 01e8 0000D5E5 		ldrb	r0, [r5, #0]	@ zero_extendqisi2
 204 01ec FEFFFFEB 		bl	uart1_transmit
 205              	.L6:
 206 01f0 0C329FE5 		ldr	r3, .L35+32
 207 01f4 0120A0E3 		mov	r2, #1
 208 01f8 0020C3E5 		strb	r2, [r3, #0]
 209 01fc EC0000EA 		b	.L2
 210              	.L3:
 211 0200 FC119FE5 		ldr	r1, .L35+32
 212 0204 0030D1E5 		ldrb	r3, [r1, #0]	@ zero_extendqisi2
 213 0208 000053E3 		cmp	r3, #0
 214 020c EC00000A 		beq	.L2
 215 0210 DC319FE5 		ldr	r3, .L35+16
 216 0214 D4619FE5 		ldr	r6, .L35+12
 217 0218 0020D3E5 		ldrb	r2, [r3, #0]	@ zero_extendqisi2
 218 021c 0030A0E3 		mov	r3, #0
 219 0220 0030C1E5 		strb	r3, [r1, #0]
 220 0224 0020C6E5 		strb	r2, [r6, #0]
 221 0228 0C00A0E3 		mov	r0, #12
 222 022c FEFFFFEB 		bl	uart1_check_free_space
 223 0230 FF0010E3 		tst	r0, #255
 224 0234 D0219F05 		ldreq	r2, .L35+40
 225 0238 0030D205 		ldreqb	r3, [r2, #0]	@ zero_extendqisi2
 226 023c 01308302 		addeq	r3, r3, #1
 227 0240 0030C205 		streqb	r3, [r2, #0]
 228 0244 EC00000A 		beq	.L2
 229 0248 C0119FE5 		ldr	r1, .L35+44
 230 024c C0C19FE5 		ldr	ip, .L35+48
 231 0250 B030D1E1 		ldrh	r3, [r1, #0]
 232 0254 B020DCE1 		ldrh	r2, [ip, #0]
 233 0258 0C3083E2 		add	r3, r3, #12
 234 025c 012082E2 		add	r2, r2, #1
 235 0260 B030C1E1 		strh	r3, [r1, #0]	@ movhi 
 236 0264 B020CCE1 		strh	r2, [ip, #0]	@ movhi 
 237 0268 9900A0E3 		mov	r0, #153
 238 026c A4419FE5 		ldr	r4, .L35+52
 239 0270 FEFFFFEB 		bl	uart1_transmit
 240 0274 0C00A0E3 		mov	r0, #12
 241 0278 9C519FE5 		ldr	r5, .L35+56
 242 027c FEFFFFEB 		bl	uart1_transmit
 243 0280 1030A0E3 		mov	r3, #16
 244 0284 0030C4E5 		strb	r3, [r4, #0]
 245 0288 0C3083E2 		add	r3, r3, #12
 246 028c 0400A0E3 		mov	r0, #4
 247 0290 0030C5E5 		strb	r3, [r5, #0]
 248 0294 FEFFFFEB 		bl	uart1_transmit
 249 0298 0030D4E5 		ldrb	r3, [r4, #0]	@ zero_extendqisi2
 250 029c 0B3083E2 		add	r3, r3, #11
 251 02a0 0030C4E5 		strb	r3, [r4, #0]
 252 02a4 0030D5E5 		ldrb	r3, [r5, #0]	@ zero_extendqisi2
 253 02a8 0020D4E5 		ldrb	r2, [r4, #0]	@ zero_extendqisi2
 254 02ac 023083E0 		add	r3, r3, r2
 255 02b0 0B00A0E3 		mov	r0, #11
 256 02b4 0030C5E5 		strb	r3, [r5, #0]
 257 02b8 FEFFFFEB 		bl	uart1_transmit
 258 02bc 0000D6E5 		ldrb	r0, [r6, #0]	@ zero_extendqisi2
 259 02c0 0030D4E5 		ldrb	r3, [r4, #0]	@ zero_extendqisi2
 260 02c4 033080E0 		add	r3, r0, r3
 261 02c8 0030C4E5 		strb	r3, [r4, #0]
 262 02cc 0030D5E5 		ldrb	r3, [r5, #0]	@ zero_extendqisi2
 263 02d0 0020D4E5 		ldrb	r2, [r4, #0]	@ zero_extendqisi2
 264 02d4 023083E0 		add	r3, r3, r2
 265 02d8 0030C5E5 		strb	r3, [r5, #0]
 266 02dc FEFFFFEB 		bl	uart1_transmit
 267 02e0 54319FE5 		ldr	r3, .L35+88
 268 02e4 0000D3E5 		ldrb	r0, [r3, #0]	@ zero_extendqisi2
 269 02e8 0030D4E5 		ldrb	r3, [r4, #0]	@ zero_extendqisi2
 270 02ec 033080E0 		add	r3, r0, r3
 271 02f0 0030C4E5 		strb	r3, [r4, #0]
 272 02f4 0030D5E5 		ldrb	r3, [r5, #0]	@ zero_extendqisi2
 273 02f8 0020D4E5 		ldrb	r2, [r4, #0]	@ zero_extendqisi2
 274 02fc 023083E0 		add	r3, r3, r2
 275 0300 0030C5E5 		strb	r3, [r5, #0]
 276 0304 FEFFFFEB 		bl	uart1_transmit
 277 0308 30319FE5 		ldr	r3, .L35+92
 278 030c 0000D3E5 		ldrb	r0, [r3, #0]	@ zero_extendqisi2
 279 0310 0030D4E5 		ldrb	r3, [r4, #0]	@ zero_extendqisi2
 280 0314 033080E0 		add	r3, r0, r3
 281 0318 0030C4E5 		strb	r3, [r4, #0]
 282 031c 0030D5E5 		ldrb	r3, [r5, #0]	@ zero_extendqisi2
 283 0320 0020D4E5 		ldrb	r2, [r4, #0]	@ zero_extendqisi2
 284 0324 023083E0 		add	r3, r3, r2
 285 0328 0030C5E5 		strb	r3, [r5, #0]
 286 032c FEFFFFEB 		bl	uart1_transmit
 287 0330 C0309FE5 		ldr	r3, .L35+20
 288 0334 0000D3E5 		ldrb	r0, [r3, #0]	@ zero_extendqisi2
 289 0338 0030D4E5 		ldrb	r3, [r4, #0]	@ zero_extendqisi2
 290 033c 033080E0 		add	r3, r0, r3
 291 0340 0030C4E5 		strb	r3, [r4, #0]
 292 0344 0030D5E5 		ldrb	r3, [r5, #0]	@ zero_extendqisi2
 293 0348 0020D4E5 		ldrb	r2, [r4, #0]	@ zero_extendqisi2
 294 034c 023083E0 		add	r3, r3, r2
 295 0350 0030C5E5 		strb	r3, [r5, #0]
 296 0354 FEFFFFEB 		bl	uart1_transmit
 297 0358 9C309FE5 		ldr	r3, .L35+24
 298 035c 0000D3E5 		ldrb	r0, [r3, #0]	@ zero_extendqisi2
 299 0360 0030D4E5 		ldrb	r3, [r4, #0]	@ zero_extendqisi2
 300 0364 033080E0 		add	r3, r0, r3
 301 0368 0030C4E5 		strb	r3, [r4, #0]
 302 036c 0030D5E5 		ldrb	r3, [r5, #0]	@ zero_extendqisi2
 303 0370 0020D4E5 		ldrb	r2, [r4, #0]	@ zero_extendqisi2
 304 0374 023083E0 		add	r3, r3, r2
 305 0378 0030C5E5 		strb	r3, [r5, #0]
 306 037c FEFFFFEB 		bl	uart1_transmit
 307 0380 78309FE5 		ldr	r3, .L35+28
 308 0384 0000D3E5 		ldrb	r0, [r3, #0]	@ zero_extendqisi2
 309 0388 0030D4E5 		ldrb	r3, [r4, #0]	@ zero_extendqisi2
 310 038c 033080E0 		add	r3, r0, r3
 311 0390 0030C4E5 		strb	r3, [r4, #0]
 312 0394 0030D5E5 		ldrb	r3, [r5, #0]	@ zero_extendqisi2
 313 0398 0020D4E5 		ldrb	r2, [r4, #0]	@ zero_extendqisi2
 314 039c 023083E0 		add	r3, r3, r2
 315 03a0 0030C5E5 		strb	r3, [r5, #0]
 316 03a4 FEFFFFEB 		bl	uart1_transmit
 317 03a8 0000D4E5 		ldrb	r0, [r4, #0]	@ zero_extendqisi2
 318 03ac FEFFFFEB 		bl	uart1_transmit
 319 03b0 0000D5E5 		ldrb	r0, [r5, #0]	@ zero_extendqisi2
 320 03b4 FEFFFFEB 		bl	uart1_transmit
 321              	.L2:
 322 03b8 30709FE5 		ldr	r7, .L35+12
 323 03bc FEFFFFEB 		bl	common_nav_periodic_task_4Hz
 324 03c0 0030D7E5 		ldrb	r3, [r7, #0]	@ zero_extendqisi2
 325 03c4 030053E3 		cmp	r3, #3
 326 03c8 F300001A 		bne	.L11
 327 03cc FEFFFFEB 		bl	nav_home
 328 03d0 150100EA 		b	.L12
 329              	.L11:
 330 03d4 040053E3 		cmp	r3, #4
 331 03d8 1401001A 		bne	.L13
 332 03dc FEFFFFEB 		bl	nav_without_gps
 333 03e0 150100EA 		b	.L12
 334              	.L36:
 335              		.align	2
 336              	.L35:
 337 03e4 00000000 		.word	launch
 338 03e8 00000000 		.word	cpu_time_sec
 339 03ec 00000000 		.word	last_gps_msg_t
 340 03f0 00000000 		.word	pprz_mode
 341 03f4 00000000 		.word	last_pprz_mode.55
 342 03f8 00000000 		.word	horizontal_mode
 343 03fc 00000000 		.word	rc_settings_mode
 344 0400 00000000 		.word	mcu1_status
 345 0404 00000000 		.word	gps_lost
 346 0408 00000000 		.word	nav_circle_radians
 347 040c 00000000 		.word	downlink_nb_ovrn
 348 0410 00000000 		.word	downlink_nb_bytes
 349 0414 00000000 		.word	downlink_nb_msgs
 350 0418 00000000 		.word	ck_a
 351 041c 00000000 		.word	ck_b
 352 0420 00000000 		.word	nav_block
 353 0424 00000000 		.word	nav_stage
 354 0428 00000000 		.word	estimator_x
 355 042c 00000000 		.word	estimator_y
 356 0430 00000000 		.word	dist2_to_wp
 357 0434 00000000 		.word	dist2_to_home
 358 0438 00000000 		.word	nav_oval_count
 359 043c 00000000 		.word	v_ctl_mode
 360 0440 00000000 		.word	lateral_mode
 361 0444 00000000 		.word	nav_throttle_setpoint
 362 0448 00000000 		.word	v_ctl_throttle_setpoint
 363 044c 00000000 		.word	vsupply
 364 0450 FB211940 		.word	1075388923
 365 0454 182D4454 		.word	1413754136
 366              	.L13:
 367 0458 FEFFFFEB 		bl	nav_periodic_task
 368              	.L12:
 369 045c 5C301FE5 		ldr	r3, .L35+36
 370 0460 003093E5 		ldr	r3, [r3, #0]
 371 0464 0201C3E3 		bic	r0, r3, #-2147483648
 372 0468 FEFFFFEB 		bl	__extendsfdf2
 373 046c 24204FE2 		adr	r2, .L35+108
 374 0470 0C0092E8 		ldmia	r2, {r2-r3}
 375 0474 FEFFFFEB 		bl	__divdf3
 376 0478 FEFFFFEB 		bl	__fixunsdfsi
 377 047c 21004BE5 		strb	r0, [fp, #-33]
 378 0480 1A00A0E3 		mov	r0, #26
 379 0484 FEFFFFEB 		bl	uart1_check_free_space
 380 0488 FF0010E3 		tst	r0, #255
 381 048c 88201F05 		ldreq	r2, .L35+40
 382 0490 0030D205 		ldreqb	r3, [r2, #0]	@ zero_extendqisi2
 383 0494 01308302 		addeq	r3, r3, #1
 384 0498 0030C205 		streqb	r3, [r2, #0]
 385 049c 0202000A 		beq	.L16
 386 04a0 98101FE5 		ldr	r1, .L35+44
 387 04a4 98C01FE5 		ldr	ip, .L35+48
 388 04a8 B030D1E1 		ldrh	r3, [r1, #0]
 389 04ac B020DCE1 		ldrh	r2, [ip, #0]
 390 04b0 1A3083E2 		add	r3, r3, #26
 391 04b4 012082E2 		add	r2, r2, #1
 392 04b8 B030C1E1 		strh	r3, [r1, #0]	@ movhi 
 393 04bc B020CCE1 		strh	r2, [ip, #0]	@ movhi 
 394 04c0 9900A0E3 		mov	r0, #153
 395 04c4 B4401FE5 		ldr	r4, .L35+52
 396 04c8 FEFFFFEB 		bl	uart1_transmit
 397 04cc 1A00A0E3 		mov	r0, #26
 398 04d0 BC501FE5 		ldr	r5, .L35+56
 399 04d4 FEFFFFEB 		bl	uart1_transmit
 400 04d8 1E30A0E3 		mov	r3, #30
 401 04dc 0030C4E5 		strb	r3, [r4, #0]
 402 04e0 1A3083E2 		add	r3, r3, #26
 403 04e4 0400A0E3 		mov	r0, #4
 404 04e8 0030C5E5 		strb	r3, [r5, #0]
 405 04ec FEFFFFEB 		bl	uart1_transmit
 406 04f0 0030D4E5 		ldrb	r3, [r4, #0]	@ zero_extendqisi2
 407 04f4 0A3083E2 		add	r3, r3, #10
 408 04f8 0030C4E5 		strb	r3, [r4, #0]
 409 04fc 0030D5E5 		ldrb	r3, [r5, #0]	@ zero_extendqisi2
 410 0500 0020D4E5 		ldrb	r2, [r4, #0]	@ zero_extendqisi2
 411 0504 023083E0 		add	r3, r3, r2
 412 0508 0A00A0E3 		mov	r0, #10
 413 050c 0030C5E5 		strb	r3, [r5, #0]
 414 0510 FEFFFFEB 		bl	uart1_transmit
 415 0514 FC301FE5 		ldr	r3, .L35+60
 416 0518 0000D3E5 		ldrb	r0, [r3, #0]	@ zero_extendqisi2
 417 051c 0030D4E5 		ldrb	r3, [r4, #0]	@ zero_extendqisi2
 418 0520 033080E0 		add	r3, r0, r3
 419 0524 0030C4E5 		strb	r3, [r4, #0]
 420 0528 0030D5E5 		ldrb	r3, [r5, #0]	@ zero_extendqisi2
 421 052c 0020D4E5 		ldrb	r2, [r4, #0]	@ zero_extendqisi2
 422 0530 023083E0 		add	r3, r3, r2
 423 0534 0030C5E5 		strb	r3, [r5, #0]
 424 0538 FEFFFFEB 		bl	uart1_transmit
 425 053c 20311FE5 		ldr	r3, .L35+64
 426 0540 0000D3E5 		ldrb	r0, [r3, #0]	@ zero_extendqisi2
 427 0544 0030D4E5 		ldrb	r3, [r4, #0]	@ zero_extendqisi2
 428 0548 033080E0 		add	r3, r0, r3
 429 054c 0030C4E5 		strb	r3, [r4, #0]
 430 0550 0030D5E5 		ldrb	r3, [r5, #0]	@ zero_extendqisi2
 431 0554 0020D4E5 		ldrb	r2, [r4, #0]	@ zero_extendqisi2
 432 0558 38611FE5 		ldr	r6, .L35+68
 433 055c 023083E0 		add	r3, r3, r2
 434 0560 0030C5E5 		strb	r3, [r5, #0]
 435 0564 FEFFFFEB 		bl	uart1_transmit
 436 0568 0000D6E5 		ldrb	r0, [r6, #0]	@ zero_extendqisi2
 437 056c 0030D4E5 		ldrb	r3, [r4, #0]	@ zero_extendqisi2
 438 0570 033080E0 		add	r3, r0, r3
 439 0574 0030C4E5 		strb	r3, [r4, #0]
 440 0578 0030D5E5 		ldrb	r3, [r5, #0]	@ zero_extendqisi2
 441 057c 0020D4E5 		ldrb	r2, [r4, #0]	@ zero_extendqisi2
 442 0580 023083E0 		add	r3, r3, r2
 443 0584 0030C5E5 		strb	r3, [r5, #0]
 444 0588 FEFFFFEB 		bl	uart1_transmit
 445 058c 0100D6E5 		ldrb	r0, [r6, #1]	@ zero_extendqisi2
 446 0590 0030D4E5 		ldrb	r3, [r4, #0]	@ zero_extendqisi2
 447 0594 033080E0 		add	r3, r0, r3
 448 0598 0030C4E5 		strb	r3, [r4, #0]
 449 059c 0030D5E5 		ldrb	r3, [r5, #0]	@ zero_extendqisi2
 450 05a0 0020D4E5 		ldrb	r2, [r4, #0]	@ zero_extendqisi2
 451 05a4 023083E0 		add	r3, r3, r2
 452 05a8 0030C5E5 		strb	r3, [r5, #0]
 453 05ac FEFFFFEB 		bl	uart1_transmit
 454 05b0 0200D6E5 		ldrb	r0, [r6, #2]	@ zero_extendqisi2
 455 05b4 0030D4E5 		ldrb	r3, [r4, #0]	@ zero_extendqisi2
 456 05b8 033080E0 		add	r3, r0, r3
 457 05bc 0030C4E5 		strb	r3, [r4, #0]
 458 05c0 0030D5E5 		ldrb	r3, [r5, #0]	@ zero_extendqisi2
 459 05c4 0020D4E5 		ldrb	r2, [r4, #0]	@ zero_extendqisi2
 460 05c8 023083E0 		add	r3, r3, r2
 461 05cc 0030C5E5 		strb	r3, [r5, #0]
 462 05d0 FEFFFFEB 		bl	uart1_transmit
 463 05d4 0300D6E5 		ldrb	r0, [r6, #3]	@ zero_extendqisi2
 464 05d8 0030D4E5 		ldrb	r3, [r4, #0]	@ zero_extendqisi2
 465 05dc 033080E0 		add	r3, r0, r3
 466 05e0 0030C4E5 		strb	r3, [r4, #0]
 467 05e4 0030D5E5 		ldrb	r3, [r5, #0]	@ zero_extendqisi2
 468 05e8 0020D4E5 		ldrb	r2, [r4, #0]	@ zero_extendqisi2
 469 05ec C8611FE5 		ldr	r6, .L35+72
 470 05f0 023083E0 		add	r3, r3, r2
 471 05f4 0030C5E5 		strb	r3, [r5, #0]
 472 05f8 FEFFFFEB 		bl	uart1_transmit
 473 05fc 0000D6E5 		ldrb	r0, [r6, #0]	@ zero_extendqisi2
 474 0600 0030D4E5 		ldrb	r3, [r4, #0]	@ zero_extendqisi2
 475 0604 033080E0 		add	r3, r0, r3
 476 0608 0030C4E5 		strb	r3, [r4, #0]
 477 060c 0030D5E5 		ldrb	r3, [r5, #0]	@ zero_extendqisi2
 478 0610 0020D4E5 		ldrb	r2, [r4, #0]	@ zero_extendqisi2
 479 0614 023083E0 		add	r3, r3, r2
 480 0618 0030C5E5 		strb	r3, [r5, #0]
 481 061c FEFFFFEB 		bl	uart1_transmit
 482 0620 0100D6E5 		ldrb	r0, [r6, #1]	@ zero_extendqisi2
 483 0624 0030D4E5 		ldrb	r3, [r4, #0]	@ zero_extendqisi2
 484 0628 033080E0 		add	r3, r0, r3
 485 062c 0030C4E5 		strb	r3, [r4, #0]
 486 0630 0030D5E5 		ldrb	r3, [r5, #0]	@ zero_extendqisi2
 487 0634 0020D4E5 		ldrb	r2, [r4, #0]	@ zero_extendqisi2
 488 0638 023083E0 		add	r3, r3, r2
 489 063c 0030C5E5 		strb	r3, [r5, #0]
 490 0640 FEFFFFEB 		bl	uart1_transmit
 491 0644 0200D6E5 		ldrb	r0, [r6, #2]	@ zero_extendqisi2
 492 0648 0030D4E5 		ldrb	r3, [r4, #0]	@ zero_extendqisi2
 493 064c 033080E0 		add	r3, r0, r3
 494 0650 0030C4E5 		strb	r3, [r4, #0]
 495 0654 0030D5E5 		ldrb	r3, [r5, #0]	@ zero_extendqisi2
 496 0658 0020D4E5 		ldrb	r2, [r4, #0]	@ zero_extendqisi2
 497 065c 023083E0 		add	r3, r3, r2
 498 0660 0030C5E5 		strb	r3, [r5, #0]
 499 0664 FEFFFFEB 		bl	uart1_transmit
 500 0668 0300D6E5 		ldrb	r0, [r6, #3]	@ zero_extendqisi2
 501 066c 0030D4E5 		ldrb	r3, [r4, #0]	@ zero_extendqisi2
 502 0670 033080E0 		add	r3, r0, r3
 503 0674 0030C4E5 		strb	r3, [r4, #0]
 504 0678 0030D5E5 		ldrb	r3, [r5, #0]	@ zero_extendqisi2
 505 067c 0020D4E5 		ldrb	r2, [r4, #0]	@ zero_extendqisi2
 506 0680 58621FE5 		ldr	r6, .L35+76
 507 0684 023083E0 		add	r3, r3, r2
 508 0688 0030C5E5 		strb	r3, [r5, #0]
 509 068c FEFFFFEB 		bl	uart1_transmit
 510 0690 0000D6E5 		ldrb	r0, [r6, #0]	@ zero_extendqisi2
 511 0694 0030D4E5 		ldrb	r3, [r4, #0]	@ zero_extendqisi2
 512 0698 033080E0 		add	r3, r0, r3
 513 069c 0030C4E5 		strb	r3, [r4, #0]
 514 06a0 0030D5E5 		ldrb	r3, [r5, #0]	@ zero_extendqisi2
 515 06a4 0020D4E5 		ldrb	r2, [r4, #0]	@ zero_extendqisi2
 516 06a8 023083E0 		add	r3, r3, r2
 517 06ac 0030C5E5 		strb	r3, [r5, #0]
 518 06b0 FEFFFFEB 		bl	uart1_transmit
 519 06b4 0100D6E5 		ldrb	r0, [r6, #1]	@ zero_extendqisi2
 520 06b8 0030D4E5 		ldrb	r3, [r4, #0]	@ zero_extendqisi2
 521 06bc 033080E0 		add	r3, r0, r3
 522 06c0 0030C4E5 		strb	r3, [r4, #0]
 523 06c4 0030D5E5 		ldrb	r3, [r5, #0]	@ zero_extendqisi2
 524 06c8 0020D4E5 		ldrb	r2, [r4, #0]	@ zero_extendqisi2
 525 06cc 023083E0 		add	r3, r3, r2
 526 06d0 0030C5E5 		strb	r3, [r5, #0]
 527 06d4 FEFFFFEB 		bl	uart1_transmit
 528 06d8 0200D6E5 		ldrb	r0, [r6, #2]	@ zero_extendqisi2
 529 06dc 0030D4E5 		ldrb	r3, [r4, #0]	@ zero_extendqisi2
 530 06e0 033080E0 		add	r3, r0, r3
 531 06e4 0030C4E5 		strb	r3, [r4, #0]
 532 06e8 0030D5E5 		ldrb	r3, [r5, #0]	@ zero_extendqisi2
 533 06ec 0020D4E5 		ldrb	r2, [r4, #0]	@ zero_extendqisi2
 534 06f0 023083E0 		add	r3, r3, r2
 535 06f4 0030C5E5 		strb	r3, [r5, #0]
 536 06f8 FEFFFFEB 		bl	uart1_transmit
 537 06fc 0300D6E5 		ldrb	r0, [r6, #3]	@ zero_extendqisi2
 538 0700 0030D4E5 		ldrb	r3, [r4, #0]	@ zero_extendqisi2
 539 0704 033080E0 		add	r3, r0, r3
 540 0708 0030C4E5 		strb	r3, [r4, #0]
 541 070c 0030D5E5 		ldrb	r3, [r5, #0]	@ zero_extendqisi2
 542 0710 0020D4E5 		ldrb	r2, [r4, #0]	@ zero_extendqisi2
 543 0714 E8621FE5 		ldr	r6, .L35+80
 544 0718 023083E0 		add	r3, r3, r2
 545 071c 0030C5E5 		strb	r3, [r5, #0]
 546 0720 FEFFFFEB 		bl	uart1_transmit
 547 0724 0000D6E5 		ldrb	r0, [r6, #0]	@ zero_extendqisi2
 548 0728 0030D4E5 		ldrb	r3, [r4, #0]	@ zero_extendqisi2
 549 072c 033080E0 		add	r3, r0, r3
 550 0730 0030C4E5 		strb	r3, [r4, #0]
 551 0734 0030D5E5 		ldrb	r3, [r5, #0]	@ zero_extendqisi2
 552 0738 0020D4E5 		ldrb	r2, [r4, #0]	@ zero_extendqisi2
 553 073c 023083E0 		add	r3, r3, r2
 554 0740 0030C5E5 		strb	r3, [r5, #0]
 555 0744 FEFFFFEB 		bl	uart1_transmit
 556 0748 0100D6E5 		ldrb	r0, [r6, #1]	@ zero_extendqisi2
 557 074c 0030D4E5 		ldrb	r3, [r4, #0]	@ zero_extendqisi2
 558 0750 033080E0 		add	r3, r0, r3
 559 0754 0030C4E5 		strb	r3, [r4, #0]
 560 0758 0030D5E5 		ldrb	r3, [r5, #0]	@ zero_extendqisi2
 561 075c 0020D4E5 		ldrb	r2, [r4, #0]	@ zero_extendqisi2
 562 0760 023083E0 		add	r3, r3, r2
 563 0764 0030C5E5 		strb	r3, [r5, #0]
 564 0768 FEFFFFEB 		bl	uart1_transmit
 565 076c 0200D6E5 		ldrb	r0, [r6, #2]	@ zero_extendqisi2
 566 0770 0030D4E5 		ldrb	r3, [r4, #0]	@ zero_extendqisi2
 567 0774 033080E0 		add	r3, r0, r3
 568 0778 0030C4E5 		strb	r3, [r4, #0]
 569 077c 0030D5E5 		ldrb	r3, [r5, #0]	@ zero_extendqisi2
 570 0780 0020D4E5 		ldrb	r2, [r4, #0]	@ zero_extendqisi2
 571 0784 023083E0 		add	r3, r3, r2
 572 0788 0030C5E5 		strb	r3, [r5, #0]
 573 078c FEFFFFEB 		bl	uart1_transmit
 574 0790 0300D6E5 		ldrb	r0, [r6, #3]	@ zero_extendqisi2
 575 0794 0030D4E5 		ldrb	r3, [r4, #0]	@ zero_extendqisi2
 576 0798 033080E0 		add	r3, r0, r3
 577 079c 0030C4E5 		strb	r3, [r4, #0]
 578 07a0 0030D5E5 		ldrb	r3, [r5, #0]	@ zero_extendqisi2
 579 07a4 0020D4E5 		ldrb	r2, [r4, #0]	@ zero_extendqisi2
 580 07a8 023083E0 		add	r3, r3, r2
 581 07ac 0030C5E5 		strb	r3, [r5, #0]
 582 07b0 FEFFFFEB 		bl	uart1_transmit
 583 07b4 21005BE5 		ldrb	r0, [fp, #-33]	@ zero_extendqisi2
 584 07b8 0030D4E5 		ldrb	r3, [r4, #0]	@ zero_extendqisi2
 585 07bc 033080E0 		add	r3, r0, r3
 586 07c0 0030C4E5 		strb	r3, [r4, #0]
 587 07c4 0030D5E5 		ldrb	r3, [r5, #0]	@ zero_extendqisi2
 588 07c8 0020D4E5 		ldrb	r2, [r4, #0]	@ zero_extendqisi2
 589 07cc 023083E0 		add	r3, r3, r2
 590 07d0 0030C5E5 		strb	r3, [r5, #0]
 591 07d4 FEFFFFEB 		bl	uart1_transmit
 592 07d8 A8331FE5 		ldr	r3, .L35+84
 593 07dc 0000D3E5 		ldrb	r0, [r3, #0]	@ zero_extendqisi2
 594 07e0 0030D4E5 		ldrb	r3, [r4, #0]	@ zero_extendqisi2
 595 07e4 033080E0 		add	r3, r0, r3
 596 07e8 0030C4E5 		strb	r3, [r4, #0]
 597 07ec 0030D5E5 		ldrb	r3, [r5, #0]	@ zero_extendqisi2
 598 07f0 0020D4E5 		ldrb	r2, [r4, #0]	@ zero_extendqisi2
 599 07f4 023083E0 		add	r3, r3, r2
 600 07f8 0030C5E5 		strb	r3, [r5, #0]
 601 07fc FEFFFFEB 		bl	uart1_transmit
 602 0800 0000D4E5 		ldrb	r0, [r4, #0]	@ zero_extendqisi2
 603 0804 FEFFFFEB 		bl	uart1_transmit
 604 0808 0000D5E5 		ldrb	r0, [r5, #0]	@ zero_extendqisi2
 605 080c FEFFFFEB 		bl	uart1_transmit
 606              	.L16:
 607 0810 DC431FE5 		ldr	r4, .L35+88
 608 0814 0030D4E5 		ldrb	r3, [r4, #0]	@ zero_extendqisi2
 609 0818 030053E3 		cmp	r3, #3
 610 081c FEFFFF0B 		bleq	v_ctl_altitude_loop
 611              	.L17:
 612 0820 0030D7E5 		ldrb	r3, [r7, #0]	@ zero_extendqisi2
 613 0824 023043E2 		sub	r3, r3, #2
 614 0828 020053E3 		cmp	r3, #2
 615 082c 6002008A 		bhi	.L18
 616 0830 F8331FE5 		ldr	r3, .L35+92
 617 0834 0030D3E5 		ldrb	r3, [r3, #0]	@ zero_extendqisi2
 618 0838 020053E3 		cmp	r3, #2
 619 083c FEFFFF8B 		blhi	h_ctl_course_loop
 620              	.L19:
 621 0840 0030D4E5 		ldrb	r3, [r4, #0]	@ zero_extendqisi2
 622 0844 010053E3 		cmp	r3, #1
 623 0848 FEFFFF8B 		blhi	v_ctl_climb_loop
 624              	.L20:
 625 084c 0030D4E5 		ldrb	r3, [r4, #0]	@ zero_extendqisi2
 626 0850 010053E3 		cmp	r3, #1
 627 0854 18241F05 		ldreq	r2, .L35+96
 628 0858 18341F05 		ldreq	r3, .L35+100
 629 085c B020D201 		ldreqh	r2, [r2, #0]
 630 0860 B020C301 		streqh	r2, [r3, #0]	@ movhi 
 631 0864 20341FE5 		ldr	r3, .L35+104
 632 0868 0040D3E5 		ldrb	r4, [r3, #0]	@ zero_extendqisi2
 633 086c 0400A0E1 		mov	r0, r4
 634 0870 FEFFFFEB 		bl	__floatsidf
 635 0874 522F8FE2 		adr	r2, .L37
 636 0878 0C0092E8 		ldmia	r2, {r2-r3}
 637 087c FEFFFFEB 		bl	__gtdf2
 638 0880 000050E3 		cmp	r0, #0
 639 0884 410200DA 		ble	.L22
 640 0888 44719FE5 		ldr	r7, .L37+16
 641 088c F000D7E1 		ldrsh	r0, [r7, #0]
 642 0890 FEFFFFEB 		bl	__floatsidf
 643 0894 044CA0E1 		mov	r4, r4, asl #24
 644 0898 444CA0E1 		mov	r4, r4, asr #24
 645 089c 0160A0E1 		mov	r6, r1
 646 08a0 0050A0E1 		mov	r5, r0
 647 08a4 0400A0E1 		mov	r0, r4
 648 08a8 FEFFFFEB 		bl	__floatsisf
 649 08ac 000054E3 		cmp	r4, #0
 650 08b0 20119FB5 		ldrlt	r1, .L37+20
 651 08b4 FEFFFFBB 		bllt	__addsf3
 652              	.L24:
 653 08b8 FEFFFFEB 		bl	__extendsfdf2
 654 08bc 0130A0E1 		mov	r3, r1
 655 08c0 0020A0E1 		mov	r2, r0
 656 08c4 010C8FE2 		adr	r0, .L37+8
 657 08c8 030090E8 		ldmia	r0, {r0-r1}
 658 08cc FEFFFFEB 		bl	__divdf3
 659 08d0 0130A0E1 		mov	r3, r1
 660 08d4 0020A0E1 		mov	r2, r0
 661 08d8 0610A0E1 		mov	r1, r6
 662 08dc 0500A0E1 		mov	r0, r5
 663 08e0 FEFFFFEB 		bl	__muldf3
 664 08e4 FEFFFFEB 		bl	__fixdfsi
 665 08e8 B000C7E1 		strh	r0, [r7, #0]	@ movhi 
 666 08ec F030D7E1 		ldrsh	r3, [r7, #0]
 667 08f0 000053E3 		cmp	r3, #0
 668 08f4 0720A0E1 		mov	r2, r7
 669 08f8 0030A0B3 		movlt	r3, #0	@ movhi
 670 08fc 400200BA 		blt	.L26
 671 0900 960D53E3 		cmp	r3, #9600
 672 0904 963DA0A3 		movge	r3, #9600
 673              	.L26:
 674 0908 B030C2E1 		strh	r3, [r2, #0]	@ movhi 
 675              	.L22:
 676 090c C8309FE5 		ldr	r3, .L37+24
 677 0910 C8509FE5 		ldr	r5, .L37+28
 678 0914 004093E5 		ldr	r4, [r3, #0]	@ float
 679 0918 3F14A0E3 		mov	r1, #1056964608
 680 091c 0400A0E1 		mov	r0, r4
 681 0920 004085E5 		str	r4, [r5, #0]	@ float
 682 0924 FEFFFFEB 		bl	__gtsf2
 683 0928 000050E3 		cmp	r0, #0
 684 092c 3F34A0C3 		movgt	r3, #1056964608
 685 0930 510200CA 		bgt	.L34
 686 0934 0400A0E1 		mov	r0, r4
 687 0938 BF14A0E3 		mov	r1, #-1090519040
 688 093c FEFFFFEB 		bl	__ltsf2
 689 0940 000050E3 		cmp	r0, #0
 690 0944 520200AA 		bge	.L29
 691 0948 BF34A0E3 		mov	r3, #-1090519040
 692              	.L34:
 693 094c 003085E5 		str	r3, [r5, #0]	@ float
 694              	.L29:
 695 0950 8C309FE5 		ldr	r3, .L37+32
 696 0954 0030D3E5 		ldrb	r3, [r3, #0]	@ zero_extendqisi2
 697 0958 000053E3 		cmp	r3, #0
 698 095c 5D02001A 		bne	.L33
 699 0960 80309FE5 		ldr	r3, .L37+36
 700 0964 B030D3E1 		ldrh	r3, [r3, #0]
 701 0968 000053E3 		cmp	r3, #0
 702 096c 6002001A 		bne	.L18
 703 0970 0030D8E5 		ldrb	r3, [r8, #0]	@ zero_extendqisi2
 704 0974 000053E3 		cmp	r3, #0
 705 0978 6002001A 		bne	.L18
 706              	.L33:
 707 097c 50309FE5 		ldr	r3, .L37+16
 708 0980 0020A0E3 		mov	r2, #0	@ movhi
 709 0984 B020C3E1 		strh	r2, [r3, #0]	@ movhi 
 710              	.L18:
 711 0988 5C309FE5 		ldr	r3, .L37+40
 712 098c 000093E5 		ldr	r0, [r3, #0]
 713 0990 FEFFFFEB 		bl	__floatsisf
 714 0994 54109FE5 		ldr	r1, .L37+44
 715 0998 FEFFFFEB 		bl	__divsf3
 716 099c FA15A0E3 		mov	r1, #1048576000
 717 09a0 FEFFFFEB 		bl	__mulsf3
 718 09a4 48409FE5 		ldr	r4, .L37+48
 719 09a8 0010A0E1 		mov	r1, r0
 720 09ac 000094E5 		ldr	r0, [r4, #0]	@ float
 721 09b0 FEFFFFEB 		bl	__addsf3
 722 09b4 000084E5 		str	r0, [r4, #0]	@ float
 723 09b8 20D04BE2 		sub	sp, fp, #32
 724 09bc F0699DE8 		ldmfd	sp, {r4, r5, r6, r7, r8, fp, sp, lr}
 725 09c0 1EFF2FE1 		bx	lr
 726              	.L38:
 727              		.align	2
 728              	.L37:
 729 09c4 00000000 		.word	0
 730 09c8 00000000 		.word	0
 731 09cc 00C05B40 		.word	1079754752
 732 09d0 00000000 		.word	0
 733 09d4 00000000 		.word	v_ctl_throttle_setpoint
 734 09d8 00008043 		.word	1132462080
 735 09dc 00000000 		.word	nav_pitch
 736 09e0 00000000 		.word	h_ctl_pitch_setpoint
 737 09e4 00000000 		.word	kill_throttle
 738 09e8 00000000 		.word	estimator_flight_time
 739 09ec 00000000 		.word	current
 740 09f0 00006145 		.word	1163984896
 741 09f4 00000000 		.word	energy
 743              		.section	.data._60Hz.4,"aw",%progbits
 746              	_60Hz.4:
 747 0000 00       		.byte	0
 748              		.section	.data._20Hz.5,"aw",%progbits
 751              	_20Hz.5:
 752 0000 00       		.byte	0
 753              		.section	.data._10Hz.6,"aw",%progbits
 756              	_10Hz.6:
 757 0000 00       		.byte	0
 758              		.section	.data._4Hz.7,"aw",%progbits
 761              	_4Hz.7:
 762 0000 00       		.byte	0
 763              		.section	.data._1Hz.8,"aw",%progbits
 766              	_1Hz.8:
 767 0000 00       		.byte	0
 768              		.section	.data.boot.10,"aw",%progbits
 771              	boot.10:
 772 0000 01       		.byte	1
 773              		.section	.data.i15.11,"aw",%progbits
 776              	i15.11:
 777 0000 00       		.byte	0
 778              		.section	.data.i30.12,"aw",%progbits
 781              	i30.12:
 782 0000 00       		.byte	0
 783              		.section	.data.i60.13,"aw",%progbits
 786              	i60.13:
 787 0000 00       		.byte	0
 788              		.section	.data.i63.14,"aw",%progbits
 791              	i63.14:
 792 0000 00       		.byte	0
 793              		.section	.data.i66.15,"aw",%progbits
 796              	i66.15:
 797 0000 00       		.byte	0
 798              		.section	.data.i72.16,"aw",%progbits
 801              	i72.16:
 802 0000 00       		.byte	0
 803              		.section	.data.i90.17,"aw",%progbits
 806              	i90.17:
 807 0000 00       		.byte	0
 808              		.section	.data.i120.18,"aw",%progbits
 811              	i120.18:
 812 0000 00       		.byte	0
 813              		.section	.data.i126.19,"aw",%progbits
 816              	i126.19:
 817 0000 00       		.byte	0
 818              		.section	.data.i150.20,"aw",%progbits
 821              	i150.20:
 822 0000 00       		.byte	0
 823              		.section	.data.i300.21,"aw",%progbits
 824              		.align	1
 827              	i300.21:
 828 0000 0000     		.short	0
 829              		.section	.data.i306.22,"aw",%progbits
 830              		.align	1
 833              	i306.22:
 834 0000 0000     		.short	0
 835              		.section	.data.i540.23,"aw",%progbits
 836              		.align	1
 839              	i540.23:
 840 0000 0000     		.short	0
 841              		.section	.bss.i.24,"aw",%nobits
 844              	i.24:
 845 0000 00       		.space	1
 846              		.global	__fixsfsi
 847              		.section	.bss.i.25,"aw",%nobits
 850              	i.25:
 851 0000 00       		.space	1
 852              		.section	.bss.last.26,"aw",%nobits
 853              		.align	1
 856              	last.26:
 857 0000 0000     		.space	2
 858              		.section	.data.i63.27,"aw",%progbits
 861              	i63.27:
 862 0000 00       		.byte	0
 863              		.section	.data.i66.28,"aw",%progbits
 866              	i66.28:
 867 0000 00       		.byte	0
 868              		.section	.data.i78.29,"aw",%progbits
 871              	i78.29:
 872 0000 00       		.byte	0
 873              		.section	.data.i84.30,"aw",%progbits
 876              	i84.30:
 877 0000 00       		.byte	0
 878              		.section	.data.i90.31,"aw",%progbits
 881              	i90.31:
 882 0000 00       		.byte	0
 883              		.section	.data.i126.32,"aw",%progbits
 886              	i126.32:
 887 0000 00       		.byte	0
 888              		.section	.data.i180.33,"aw",%progbits
 891              	i180.33:
 892 0000 00       		.byte	0
 893              		.section	.data.i183.34,"aw",%progbits
 896              	i183.34:
 897 0000 00       		.byte	0
 898              		.section	.data.i192.35,"aw",%progbits
 901              	i192.35:
 902 0000 00       		.byte	0
 903              		.section	.data.i240.36,"aw",%progbits
 906              	i240.36:
 907 0000 00       		.byte	0
 908              		.section	.data.i243.37,"aw",%progbits
 911              	i243.37:
 912 0000 00       		.byte	0
 913              		.section	.data.i300.38,"aw",%progbits
 914              		.align	1
 917              	i300.38:
 918 0000 0000     		.short	0
 919              		.section	.data.i306.39,"aw",%progbits
 920              		.align	1
 923              	i306.39:
 924 0000 0000     		.short	0
 925              		.section	.data.i312.40,"aw",%progbits
 926              		.align	1
 929              	i312.40:
 930 0000 0000     		.short	0
 931              		.section	.data.i540.41,"aw",%progbits
 932              		.align	1
 935              	i540.41:
 936 0000 0000     		.short	0
 937              		.section	.data.i606.42,"aw",%progbits
 938              		.align	1
 941              	i606.42:
 942 0000 0000     		.short	0
 943              		.section	.bss.i.43,"aw",%nobits
 946              	i.43:
 947 0000 00       		.space	1
 948              		.section	.bss.i.44,"aw",%nobits
 951              	i.44:
 952 0000 00       		.space	1
 953              		.section	.bss.last.45,"aw",%nobits
 954              		.align	1
 957              	last.45:
 958 0000 0000     		.space	2
 959              		.section	.data.i300.46,"aw",%progbits
 960              		.align	1
 963              	i300.46:
 964 0000 0000     		.short	0
 965              		.section	.data.i306.47,"aw",%progbits
 966              		.align	1
 969              	i306.47:
 970 0000 0000     		.short	0
 971              		.section	.data.i318.48,"aw",%progbits
 972              		.align	1
 975              	i318.48:
 976 0000 0000     		.short	0
 977              		.section	.data.i324.49,"aw",%progbits
 978              		.align	1
 981              	i324.49:
 982 0000 0000     		.short	0
 983              		.section	.data.i330.50,"aw",%progbits
 984              		.align	1
 987              	i330.50:
 988 0000 0000     		.short	0
 989              		.section	.data.i342.51,"aw",%progbits
 990              		.align	1
 993              	i342.51:
 994 0000 0000     		.short	0
 995              		.section	.data.i606.52,"aw",%progbits
 996              		.align	1
 999              	i606.52:
 1000 0000 0000     		.short	0
 1001              		.section	.data.i612.53,"aw",%progbits
 1002              		.align	1
 1005              	i612.53:
 1006 0000 0000     		.short	0
 1007              		.section	.bss.last.54,"aw",%nobits
 1008              		.align	1
 1011              	last.54:
 1012 0000 0000     		.space	2
 1013              		.section	.data.t.9,"aw",%progbits
 1016              	t.9:
 1017 0000 00       		.byte	0
 1018              		.global	__ltdf2
 1019              		.section	.bss.i6.56,"aw",%nobits
 1022              	i6.56:
 1023 0000 00       		.space	1
 1024              		.section	.rodata.str1.4,"aMS",%progbits,1
 1025              		.align	2
 1026              	.LC0:
 1027 0000 3D53A56F 		.ascii	"=S\245o\tSn2\033\341\320\300\362\360\2327\000"
 1027      09536E32 
 1027      1BE1D0C0 
 1027      F2F09A37 
 1027      00
 1028 0011 000000   		.section	.text.periodic_task_ap,"ax",%progbits
 1029              		.align	2
 1030              		.global	periodic_task_ap
 1032              	periodic_task_ap:
 1033              		@ Function supports interworking.
 1034              		@ args = 0, pretend = 0, frame = 64
 1035              		@ frame_needed = 1, uses_anonymous_args = 0
 1036 0000 0DC0A0E1 		mov	ip, sp
 1037 0004 F0DF2DE9 		stmfd	sp!, {r4, r5, r6, r7, r8, r9, sl, fp, ip, lr, pc}
 1038 0008 901C9FE5 		ldr	r1, .L360
 1039 000c 04B04CE2 		sub	fp, ip, #4
 1040 0010 40D04DE2 		sub	sp, sp, #64
 1041 0014 0030D1E5 		ldrb	r3, [r1, #0]	@ zero_extendqisi2
 1042 0018 013083E2 		add	r3, r3, #1
 1043 001c 0030C1E5 		strb	r3, [r1, #0]
 1044 0020 0030D1E5 		ldrb	r3, [r1, #0]	@ zero_extendqisi2
 1045 0024 000053E3 		cmp	r3, #0
 1046 0028 C31E000A 		beq	.L39
 1047 002c 702C9FE5 		ldr	r2, .L360+4
 1048 0030 0030D2E5 		ldrb	r3, [r2, #0]	@ zero_extendqisi2
 1049 0034 013083E2 		add	r3, r3, #1
 1050 0038 0030C2E5 		strb	r3, [r2, #0]
 1051 003c 0030D2E5 		ldrb	r3, [r2, #0]	@ zero_extendqisi2
 1052 0040 0000A0E3 		mov	r0, #0
 1053 0044 020053E3 		cmp	r3, #2
 1054 0048 0000C285 		strhib	r0, [r2, #0]
 1055 004c 542C9FE5 		ldr	r2, .L360+8
 1056 0050 0030D2E5 		ldrb	r3, [r2, #0]	@ zero_extendqisi2
 1057 0054 013083E2 		add	r3, r3, #1
 1058 0058 0030C2E5 		strb	r3, [r2, #0]
 1059 005c 0030D2E5 		ldrb	r3, [r2, #0]	@ zero_extendqisi2
 1060 0060 050053E3 		cmp	r3, #5
 1061 0064 0000C285 		strhib	r0, [r2, #0]
 1062 0068 3C2C9FE5 		ldr	r2, .L360+12
 1063 006c 0030D2E5 		ldrb	r3, [r2, #0]	@ zero_extendqisi2
 1064 0070 013083E2 		add	r3, r3, #1
 1065 0074 0030C2E5 		strb	r3, [r2, #0]
 1066 0078 0030D2E5 		ldrb	r3, [r2, #0]	@ zero_extendqisi2
 1067 007c 0E0053E3 		cmp	r3, #14
 1068 0080 0000C285 		strhib	r0, [r2, #0]
 1069 0084 242C9FE5 		ldr	r2, .L360+16
 1070 0088 0030D2E5 		ldrb	r3, [r2, #0]	@ zero_extendqisi2
 1071 008c 013083E2 		add	r3, r3, #1
 1072 0090 0030C2E5 		strb	r3, [r2, #0]
 1073 0094 187C9FE5 		ldr	r7, .L360+20
 1074 0098 0030D2E5 		ldrb	r3, [r2, #0]	@ zero_extendqisi2
 1075 009c 3B0053E3 		cmp	r3, #59
 1076 00a0 0030D7E5 		ldrb	r3, [r7, #0]	@ zero_extendqisi2
 1077 00a4 0000C285 		strhib	r0, [r2, #0]
 1078 00a8 000053E3 		cmp	r3, #0
 1079 00ac 0000C1E5 		strb	r0, [r1, #0]
 1080 00b0 6A00000A 		beq	.L46
 1081 00b4 0800A0E3 		mov	r0, #8
 1082 00b8 FEFFFFEB 		bl	uart1_check_free_space
 1083 00bc FF0010E3 		tst	r0, #255
 1084 00c0 E42C9F05 		ldreq	r2, .L360+268
 1085 00c4 0030D205 		ldreqb	r3, [r2, #0]	@ zero_extendqisi2
 1086 00c8 01308302 		addeq	r3, r3, #1
 1087 00cc 0030C205 		streqb	r3, [r2, #0]
 1088 00d0 6700000A 		beq	.L48
 1089 00d4 DC1C9FE5 		ldr	r1, .L360+280
 1090 00d8 DCCC9FE5 		ldr	ip, .L360+284
 1091 00dc B030D1E1 		ldrh	r3, [r1, #0]
 1092 00e0 B020DCE1 		ldrh	r2, [ip, #0]
 1093 00e4 083083E2 		add	r3, r3, #8
 1094 00e8 012082E2 		add	r2, r2, #1
 1095 00ec B030C1E1 		strh	r3, [r1, #0]	@ movhi 
 1096 00f0 B020CCE1 		strh	r2, [ip, #0]	@ movhi 
 1097 00f4 9900A0E3 		mov	r0, #153
 1098 00f8 C04C9FE5 		ldr	r4, .L360+288
 1099 00fc FEFFFFEB 		bl	uart1_transmit
 1100 0100 0800A0E3 		mov	r0, #8
 1101 0104 B85C9FE5 		ldr	r5, .L360+292
 1102 0108 FEFFFFEB 		bl	uart1_transmit
 1103 010c 0C30A0E3 		mov	r3, #12
 1104 0110 0030C4E5 		strb	r3, [r4, #0]
 1105 0114 083083E2 		add	r3, r3, #8
 1106 0118 0400A0E3 		mov	r0, #4
 1107 011c 0030C5E5 		strb	r3, [r5, #0]
 1108 0120 FEFFFFEB 		bl	uart1_transmit
 1109 0124 0030D4E5 		ldrb	r3, [r4, #0]	@ zero_extendqisi2
 1110 0128 013083E2 		add	r3, r3, #1
 1111 012c 0030C4E5 		strb	r3, [r4, #0]
 1112 0130 0030D5E5 		ldrb	r3, [r5, #0]	@ zero_extendqisi2
 1113 0134 0020D4E5 		ldrb	r2, [r4, #0]	@ zero_extendqisi2
 1114 0138 786B9FE5 		ldr	r6, .L360+24
 1115 013c 023083E0 		add	r3, r3, r2
 1116 0140 0100A0E3 		mov	r0, #1
 1117 0144 0030C5E5 		strb	r3, [r5, #0]
 1118 0148 FEFFFFEB 		bl	uart1_transmit
 1119 014c 0000D6E5 		ldrb	r0, [r6, #0]	@ zero_extendqisi2
 1120 0150 0030D4E5 		ldrb	r3, [r4, #0]	@ zero_extendqisi2
 1121 0154 033080E0 		add	r3, r0, r3
 1122 0158 0030C4E5 		strb	r3, [r4, #0]
 1123 015c 0030D5E5 		ldrb	r3, [r5, #0]	@ zero_extendqisi2
 1124 0160 0020D4E5 		ldrb	r2, [r4, #0]	@ zero_extendqisi2
 1125 0164 023083E0 		add	r3, r3, r2
 1126 0168 0030C5E5 		strb	r3, [r5, #0]
 1127 016c FEFFFFEB 		bl	uart1_transmit
 1128 0170 0100D6E5 		ldrb	r0, [r6, #1]	@ zero_extendqisi2
 1129 0174 0030D4E5 		ldrb	r3, [r4, #0]	@ zero_extendqisi2
 1130 0178 033080E0 		add	r3, r0, r3
 1131 017c 0030C4E5 		strb	r3, [r4, #0]
 1132 0180 0030D5E5 		ldrb	r3, [r5, #0]	@ zero_extendqisi2
 1133 0184 0020D4E5 		ldrb	r2, [r4, #0]	@ zero_extendqisi2
 1134 0188 023083E0 		add	r3, r3, r2
 1135 018c 0030C5E5 		strb	r3, [r5, #0]
 1136 0190 FEFFFFEB 		bl	uart1_transmit
 1137 0194 0000D4E5 		ldrb	r0, [r4, #0]	@ zero_extendqisi2
 1138 0198 FEFFFFEB 		bl	uart1_transmit
 1139 019c 0000D5E5 		ldrb	r0, [r5, #0]	@ zero_extendqisi2
 1140 01a0 FEFFFFEB 		bl	uart1_transmit
 1141              	.L48:
 1142 01a4 0030A0E3 		mov	r3, #0
 1143 01a8 0030C7E5 		strb	r3, [r7, #0]
 1144 01ac 221E00EA 		b	.L308
 1145              	.L46:
 1146 01b0 043B9FE5 		ldr	r3, .L360+28
 1147 01b4 0020D3E5 		ldrb	r2, [r3, #0]	@ zero_extendqisi2
 1148 01b8 000052E3 		cmp	r2, #0
 1149 01bc 390D001A 		bne	.L50
 1150 01c0 F81A9FE5 		ldr	r1, .L360+32
 1151 01c4 0030D1E5 		ldrb	r3, [r1, #0]	@ zero_extendqisi2
 1152 01c8 013083E2 		add	r3, r3, #1
 1153 01cc 0030C1E5 		strb	r3, [r1, #0]
 1154 01d0 EC4A9FE5 		ldr	r4, .L360+36
 1155 01d4 0030D1E5 		ldrb	r3, [r1, #0]	@ zero_extendqisi2
 1156 01d8 0E0053E3 		cmp	r3, #14
 1157 01dc 0030D4E5 		ldrb	r3, [r4, #0]	@ zero_extendqisi2
 1158 01e0 013083E2 		add	r3, r3, #1
 1159 01e4 0030C4E5 		strb	r3, [r4, #0]
 1160 01e8 D88A9FE5 		ldr	r8, .L360+40
 1161 01ec 0030D4E5 		ldrb	r3, [r4, #0]	@ zero_extendqisi2
 1162 01f0 0020C185 		strhib	r2, [r1, #0]
 1163 01f4 1D0053E3 		cmp	r3, #29
 1164 01f8 0030D8E5 		ldrb	r3, [r8, #0]	@ zero_extendqisi2
 1165 01fc 013083E2 		add	r3, r3, #1
 1166 0200 0030C8E5 		strb	r3, [r8, #0]
 1167 0204 C0AA9FE5 		ldr	sl, .L360+44
 1168 0208 0030D8E5 		ldrb	r3, [r8, #0]	@ zero_extendqisi2
 1169 020c 0020C485 		strhib	r2, [r4, #0]
 1170 0210 3B0053E3 		cmp	r3, #59
 1171 0214 0030DAE5 		ldrb	r3, [sl, #0]	@ zero_extendqisi2
 1172 0218 013083E2 		add	r3, r3, #1
 1173 021c 0030CAE5 		strb	r3, [sl, #0]
 1174 0220 A89A9FE5 		ldr	r9, .L360+48
 1175 0224 0030DAE5 		ldrb	r3, [sl, #0]	@ zero_extendqisi2
 1176 0228 0020C885 		strhib	r2, [r8, #0]
 1177 022c 3E0053E3 		cmp	r3, #62
 1178 0230 0030D9E5 		ldrb	r3, [r9, #0]	@ zero_extendqisi2
 1179 0234 013083E2 		add	r3, r3, #1
 1180 0238 0030C9E5 		strb	r3, [r9, #0]
 1181 023c 6C0B9FE5 		ldr	r0, .L360+272
 1182 0240 0030D9E5 		ldrb	r3, [r9, #0]	@ zero_extendqisi2
 1183 0244 0020CA85 		strhib	r2, [sl, #0]
 1184 0248 410053E3 		cmp	r3, #65
 1185 024c 0030D0E5 		ldrb	r3, [r0, #0]	@ zero_extendqisi2
 1186 0250 013083E2 		add	r3, r3, #1
 1187 0254 0030C0E5 		strb	r3, [r0, #0]
 1188 0258 0030D0E5 		ldrb	r3, [r0, #0]	@ zero_extendqisi2
 1189 025c 0020C985 		strhib	r2, [r9, #0]
 1190 0260 470053E3 		cmp	r3, #71
 1191 0264 0020C085 		strhib	r2, [r0, #0]
 1192 0268 640A9FE5 		ldr	r0, .L360+52
 1193 026c 0030D0E5 		ldrb	r3, [r0, #0]	@ zero_extendqisi2
 1194 0270 013083E2 		add	r3, r3, #1
 1195 0274 0030C0E5 		strb	r3, [r0, #0]
 1196 0278 0030D0E5 		ldrb	r3, [r0, #0]	@ zero_extendqisi2
 1197 027c 590053E3 		cmp	r3, #89
 1198 0280 0020C085 		strhib	r2, [r0, #0]
 1199 0284 4C0A9FE5 		ldr	r0, .L360+56
 1200 0288 0030D0E5 		ldrb	r3, [r0, #0]	@ zero_extendqisi2
 1201 028c 013083E2 		add	r3, r3, #1
 1202 0290 0030C0E5 		strb	r3, [r0, #0]
 1203 0294 0030D0E5 		ldrb	r3, [r0, #0]	@ zero_extendqisi2
 1204 0298 770053E3 		cmp	r3, #119
 1205 029c 0020C085 		strhib	r2, [r0, #0]
 1206 02a0 340A9FE5 		ldr	r0, .L360+60
 1207 02a4 0030D0E5 		ldrb	r3, [r0, #0]	@ zero_extendqisi2
 1208 02a8 013083E2 		add	r3, r3, #1
 1209 02ac 0030C0E5 		strb	r3, [r0, #0]
 1210 02b0 0030D0E5 		ldrb	r3, [r0, #0]	@ zero_extendqisi2
 1211 02b4 7D0053E3 		cmp	r3, #125
 1212 02b8 0020C085 		strhib	r2, [r0, #0]
 1213 02bc 1C0A9FE5 		ldr	r0, .L360+64
 1214 02c0 0030D0E5 		ldrb	r3, [r0, #0]	@ zero_extendqisi2
 1215 02c4 013083E2 		add	r3, r3, #1
 1216 02c8 0030C0E5 		strb	r3, [r0, #0]
 1217 02cc 0030D0E5 		ldrb	r3, [r0, #0]	@ zero_extendqisi2
 1218 02d0 950053E3 		cmp	r3, #149
 1219 02d4 0020C085 		strhib	r2, [r0, #0]
 1220 02d8 042A9FE5 		ldr	r2, .L360+68
 1221 02dc B030D2E1 		ldrh	r3, [r2, #0]
 1222 02e0 013083E2 		add	r3, r3, #1
 1223 02e4 B030C2E1 		strh	r3, [r2, #0]	@ movhi 
 1224 02e8 B030D2E1 		ldrh	r3, [r2, #0]
 1225 02ec F4099FE5 		ldr	r0, .L360+72
 1226 02f0 4B0F53E3 		cmp	r3, #300
 1227 02f4 0030A023 		movcs	r3, #0	@ movhi
 1228 02f8 B030C221 		strcsh	r3, [r2, #0]	@ movhi 
 1229 02fc B030D0E1 		ldrh	r3, [r0, #0]
 1230 0300 013083E2 		add	r3, r3, #1
 1231 0304 B030C0E1 		strh	r3, [r0, #0]	@ movhi 
 1232 0308 DC399FE5 		ldr	r3, .L360+76
 1233 030c B020D0E1 		ldrh	r2, [r0, #0]
 1234 0310 030052E1 		cmp	r2, r3
 1235 0314 0020A083 		movhi	r2, #0	@ movhi
 1236 0318 B020C081 		strhih	r2, [r0, #0]	@ movhi 
 1237 031c CC099FE5 		ldr	r0, .L360+80
 1238 0320 B030D0E1 		ldrh	r3, [r0, #0]
 1239 0324 013083E2 		add	r3, r3, #1
 1240 0328 B030C0E1 		strh	r3, [r0, #0]	@ movhi 
 1241 032c B030D0E1 		ldrh	r3, [r0, #0]
 1242 0330 870F53E3 		cmp	r3, #540
 1243 0334 0030D1E5 		ldrb	r3, [r1, #0]	@ zero_extendqisi2
 1244 0338 0020A023 		movcs	r2, #0	@ movhi
 1245 033c B020C021 		strcsh	r2, [r0, #0]	@ movhi 
 1246 0340 000053E3 		cmp	r3, #0
 1247 0344 FEFFFF0B 		bleq	gps_send
 1248              	.L64:
 1249 0348 0070D4E5 		ldrb	r7, [r4, #0]	@ zero_extendqisi2
 1250 034c 060057E3 		cmp	r7, #6
 1251 0350 3D01001A 		bne	.L65
 1252 0354 1200A0E3 		mov	r0, #18
 1253 0358 FEFFFFEB 		bl	uart1_check_free_space
 1254 035c FF0010E3 		tst	r0, #255
 1255 0360 7102000A 		beq	.L75
 1256 0364 4C1A9FE5 		ldr	r1, .L360+280
 1257 0368 4CCA9FE5 		ldr	ip, .L360+284
 1258 036c B030D1E1 		ldrh	r3, [r1, #0]
 1259 0370 B020DCE1 		ldrh	r2, [ip, #0]
 1260 0374 123083E2 		add	r3, r3, #18
 1261 0378 012082E2 		add	r2, r2, #1
 1262 037c B030C1E1 		strh	r3, [r1, #0]	@ movhi 
 1263 0380 B020CCE1 		strh	r2, [ip, #0]	@ movhi 
 1264 0384 9900A0E3 		mov	r0, #153
 1265 0388 304A9FE5 		ldr	r4, .L360+288
 1266 038c FEFFFFEB 		bl	uart1_transmit
 1267 0390 1200A0E3 		mov	r0, #18
 1268 0394 285A9FE5 		ldr	r5, .L360+292
 1269 0398 FEFFFFEB 		bl	uart1_transmit
 1270 039c 1630A0E3 		mov	r3, #22
 1271 03a0 0030C4E5 		strb	r3, [r4, #0]
 1272 03a4 123083E2 		add	r3, r3, #18
 1273 03a8 0400A0E3 		mov	r0, #4
 1274 03ac 0030C5E5 		strb	r3, [r5, #0]
 1275 03b0 FEFFFFEB 		bl	uart1_transmit
 1276 03b4 0030D4E5 		ldrb	r3, [r4, #0]	@ zero_extendqisi2
 1277 03b8 063083E2 		add	r3, r3, #6
 1278 03bc 0030C4E5 		strb	r3, [r4, #0]
 1279 03c0 0030D5E5 		ldrb	r3, [r5, #0]	@ zero_extendqisi2
 1280 03c4 0020D4E5 		ldrb	r2, [r4, #0]	@ zero_extendqisi2
 1281 03c8 24699FE5 		ldr	r6, .L360+84
 1282 03cc 023083E0 		add	r3, r3, r2
 1283 03d0 0700A0E1 		mov	r0, r7
 1284 03d4 0030C5E5 		strb	r3, [r5, #0]
 1285 03d8 FEFFFFEB 		bl	uart1_transmit
 1286 03dc 0000D6E5 		ldrb	r0, [r6, #0]	@ zero_extendqisi2
 1287 03e0 0030D4E5 		ldrb	r3, [r4, #0]	@ zero_extendqisi2
 1288 03e4 033080E0 		add	r3, r0, r3
 1289 03e8 0030C4E5 		strb	r3, [r4, #0]
 1290 03ec 0030D5E5 		ldrb	r3, [r5, #0]	@ zero_extendqisi2
 1291 03f0 0020D4E5 		ldrb	r2, [r4, #0]	@ zero_extendqisi2
 1292 03f4 023083E0 		add	r3, r3, r2
 1293 03f8 0030C5E5 		strb	r3, [r5, #0]
 1294 03fc FEFFFFEB 		bl	uart1_transmit
 1295 0400 0100D6E5 		ldrb	r0, [r6, #1]	@ zero_extendqisi2
 1296 0404 0030D4E5 		ldrb	r3, [r4, #0]	@ zero_extendqisi2
 1297 0408 033080E0 		add	r3, r0, r3
 1298 040c 0030C4E5 		strb	r3, [r4, #0]
 1299 0410 0030D5E5 		ldrb	r3, [r5, #0]	@ zero_extendqisi2
 1300 0414 0020D4E5 		ldrb	r2, [r4, #0]	@ zero_extendqisi2
 1301 0418 023083E0 		add	r3, r3, r2
 1302 041c 0030C5E5 		strb	r3, [r5, #0]
 1303 0420 FEFFFFEB 		bl	uart1_transmit
 1304 0424 0200D6E5 		ldrb	r0, [r6, #2]	@ zero_extendqisi2
 1305 0428 0030D4E5 		ldrb	r3, [r4, #0]	@ zero_extendqisi2
 1306 042c 033080E0 		add	r3, r0, r3
 1307 0430 0030C4E5 		strb	r3, [r4, #0]
 1308 0434 0030D5E5 		ldrb	r3, [r5, #0]	@ zero_extendqisi2
 1309 0438 0020D4E5 		ldrb	r2, [r4, #0]	@ zero_extendqisi2
 1310 043c 023083E0 		add	r3, r3, r2
 1311 0440 0030C5E5 		strb	r3, [r5, #0]
 1312 0444 FEFFFFEB 		bl	uart1_transmit
 1313 0448 0300D6E5 		ldrb	r0, [r6, #3]	@ zero_extendqisi2
 1314 044c 0030D4E5 		ldrb	r3, [r4, #0]	@ zero_extendqisi2
 1315 0450 033080E0 		add	r3, r0, r3
 1316 0454 0030C4E5 		strb	r3, [r4, #0]
 1317 0458 0030D5E5 		ldrb	r3, [r5, #0]	@ zero_extendqisi2
 1318 045c 0020D4E5 		ldrb	r2, [r4, #0]	@ zero_extendqisi2
 1319 0460 90689FE5 		ldr	r6, .L360+88
 1320 0464 023083E0 		add	r3, r3, r2
 1321 0468 0030C5E5 		strb	r3, [r5, #0]
 1322 046c FEFFFFEB 		bl	uart1_transmit
 1323 0470 0000D6E5 		ldrb	r0, [r6, #0]	@ zero_extendqisi2
 1324 0474 0030D4E5 		ldrb	r3, [r4, #0]	@ zero_extendqisi2
 1325 0478 033080E0 		add	r3, r0, r3
 1326 047c 0030C4E5 		strb	r3, [r4, #0]
 1327 0480 0030D5E5 		ldrb	r3, [r5, #0]	@ zero_extendqisi2
 1328 0484 0020D4E5 		ldrb	r2, [r4, #0]	@ zero_extendqisi2
 1329 0488 023083E0 		add	r3, r3, r2
 1330 048c 0030C5E5 		strb	r3, [r5, #0]
 1331 0490 FEFFFFEB 		bl	uart1_transmit
 1332 0494 0100D6E5 		ldrb	r0, [r6, #1]	@ zero_extendqisi2
 1333 0498 0030D4E5 		ldrb	r3, [r4, #0]	@ zero_extendqisi2
 1334 049c 033080E0 		add	r3, r0, r3
 1335 04a0 0030C4E5 		strb	r3, [r4, #0]
 1336 04a4 0030D5E5 		ldrb	r3, [r5, #0]	@ zero_extendqisi2
 1337 04a8 0020D4E5 		ldrb	r2, [r4, #0]	@ zero_extendqisi2
 1338 04ac 023083E0 		add	r3, r3, r2
 1339 04b0 0030C5E5 		strb	r3, [r5, #0]
 1340 04b4 FEFFFFEB 		bl	uart1_transmit
 1341 04b8 0200D6E5 		ldrb	r0, [r6, #2]	@ zero_extendqisi2
 1342 04bc 0030D4E5 		ldrb	r3, [r4, #0]	@ zero_extendqisi2
 1343 04c0 033080E0 		add	r3, r0, r3
 1344 04c4 0030C4E5 		strb	r3, [r4, #0]
 1345 04c8 0030D5E5 		ldrb	r3, [r5, #0]	@ zero_extendqisi2
 1346 04cc 0020D4E5 		ldrb	r2, [r4, #0]	@ zero_extendqisi2
 1347 04d0 023083E0 		add	r3, r3, r2
 1348 04d4 0030C5E5 		strb	r3, [r5, #0]
 1349 04d8 FEFFFFEB 		bl	uart1_transmit
 1350 04dc 0300D6E5 		ldrb	r0, [r6, #3]	@ zero_extendqisi2
 1351 04e0 0030D4E5 		ldrb	r3, [r4, #0]	@ zero_extendqisi2
 1352 04e4 033080E0 		add	r3, r0, r3
 1353 04e8 0030C4E5 		strb	r3, [r4, #0]
 1354 04ec 08689FE5 		ldr	r6, .L360+92
 1355 04f0 0030D5E5 		ldrb	r3, [r5, #0]	@ zero_extendqisi2
 1356 04f4 0020D4E5 		ldrb	r2, [r4, #0]	@ zero_extendqisi2
 1357 04f8 830100EA 		b	.L346
 1358              	.L65:
 1359 04fc 0C0057E3 		cmp	r7, #12
 1360 0500 A301001A 		bne	.L69
 1361 0504 0E00A0E3 		mov	r0, #14
 1362 0508 FEFFFFEB 		bl	uart1_check_free_space
 1363 050c FF0010E3 		tst	r0, #255
 1364 0510 7102000A 		beq	.L75
 1365 0514 9C189FE5 		ldr	r1, .L360+280
 1366 0518 9CC89FE5 		ldr	ip, .L360+284
 1367 051c B030D1E1 		ldrh	r3, [r1, #0]
 1368 0520 B020DCE1 		ldrh	r2, [ip, #0]
 1369 0524 0E3083E2 		add	r3, r3, #14
 1370 0528 012082E2 		add	r2, r2, #1
 1371 052c B030C1E1 		strh	r3, [r1, #0]	@ movhi 
 1372 0530 B020CCE1 		strh	r2, [ip, #0]	@ movhi 
 1373 0534 9900A0E3 		mov	r0, #153
 1374 0538 80489FE5 		ldr	r4, .L360+288
 1375 053c FEFFFFEB 		bl	uart1_transmit
 1376 0540 0E00A0E3 		mov	r0, #14
 1377 0544 78589FE5 		ldr	r5, .L360+292
 1378 0548 FEFFFFEB 		bl	uart1_transmit
 1379 054c 1230A0E3 		mov	r3, #18
 1380 0550 0030C4E5 		strb	r3, [r4, #0]
 1381 0554 0E3083E2 		add	r3, r3, #14
 1382 0558 0400A0E3 		mov	r0, #4
 1383 055c 0030C5E5 		strb	r3, [r5, #0]
 1384 0560 FEFFFFEB 		bl	uart1_transmit
 1385 0564 0030D4E5 		ldrb	r3, [r4, #0]	@ zero_extendqisi2
 1386 0568 2A3083E2 		add	r3, r3, #42
 1387 056c 0030C4E5 		strb	r3, [r4, #0]
 1388 0570 0030D5E5 		ldrb	r3, [r5, #0]	@ zero_extendqisi2
 1389 0574 0020D4E5 		ldrb	r2, [r4, #0]	@ zero_extendqisi2
 1390 0578 80679FE5 		ldr	r6, .L360+96
 1391 057c 023083E0 		add	r3, r3, r2
 1392 0580 2A00A0E3 		mov	r0, #42
 1393 0584 0030C5E5 		strb	r3, [r5, #0]
 1394 0588 FEFFFFEB 		bl	uart1_transmit
 1395 058c 0000D6E5 		ldrb	r0, [r6, #0]	@ zero_extendqisi2
 1396 0590 0030D4E5 		ldrb	r3, [r4, #0]	@ zero_extendqisi2
 1397 0594 033080E0 		add	r3, r0, r3
 1398 0598 0030C4E5 		strb	r3, [r4, #0]
 1399 059c 0030D5E5 		ldrb	r3, [r5, #0]	@ zero_extendqisi2
 1400 05a0 0020D4E5 		ldrb	r2, [r4, #0]	@ zero_extendqisi2
 1401 05a4 023083E0 		add	r3, r3, r2
 1402 05a8 0030C5E5 		strb	r3, [r5, #0]
 1403 05ac FEFFFFEB 		bl	uart1_transmit
 1404 05b0 0100D6E5 		ldrb	r0, [r6, #1]	@ zero_extendqisi2
 1405 05b4 0030D4E5 		ldrb	r3, [r4, #0]	@ zero_extendqisi2
 1406 05b8 033080E0 		add	r3, r0, r3
 1407 05bc 0030C4E5 		strb	r3, [r4, #0]
 1408 05c0 0030D5E5 		ldrb	r3, [r5, #0]	@ zero_extendqisi2
 1409 05c4 0020D4E5 		ldrb	r2, [r4, #0]	@ zero_extendqisi2
 1410 05c8 023083E0 		add	r3, r3, r2
 1411 05cc 0030C5E5 		strb	r3, [r5, #0]
 1412 05d0 FEFFFFEB 		bl	uart1_transmit
 1413 05d4 0200D6E5 		ldrb	r0, [r6, #2]	@ zero_extendqisi2
 1414 05d8 0030D4E5 		ldrb	r3, [r4, #0]	@ zero_extendqisi2
 1415 05dc 033080E0 		add	r3, r0, r3
 1416 05e0 0030C4E5 		strb	r3, [r4, #0]
 1417 05e4 0030D5E5 		ldrb	r3, [r5, #0]	@ zero_extendqisi2
 1418 05e8 0020D4E5 		ldrb	r2, [r4, #0]	@ zero_extendqisi2
 1419 05ec 023083E0 		add	r3, r3, r2
 1420 05f0 0030C5E5 		strb	r3, [r5, #0]
 1421 05f4 FEFFFFEB 		bl	uart1_transmit
 1422 05f8 0300D6E5 		ldrb	r0, [r6, #3]	@ zero_extendqisi2
 1423 05fc 0030D4E5 		ldrb	r3, [r4, #0]	@ zero_extendqisi2
 1424 0600 033080E0 		add	r3, r0, r3
 1425 0604 0030C4E5 		strb	r3, [r4, #0]
 1426 0608 F4669FE5 		ldr	r6, .L360+100
 1427 060c 0030D5E5 		ldrb	r3, [r5, #0]	@ zero_extendqisi2
 1428 0610 0020D4E5 		ldrb	r2, [r4, #0]	@ zero_extendqisi2
 1429              	.L346:
 1430 0614 023083E0 		add	r3, r3, r2
 1431 0618 0030C5E5 		strb	r3, [r5, #0]
 1432 061c FEFFFFEB 		bl	uart1_transmit
 1433 0620 0000D6E5 		ldrb	r0, [r6, #0]	@ zero_extendqisi2
 1434 0624 0030D4E5 		ldrb	r3, [r4, #0]	@ zero_extendqisi2
 1435 0628 033080E0 		add	r3, r0, r3
 1436 062c 0030C4E5 		strb	r3, [r4, #0]
 1437 0630 0030D5E5 		ldrb	r3, [r5, #0]	@ zero_extendqisi2
 1438 0634 0020D4E5 		ldrb	r2, [r4, #0]	@ zero_extendqisi2
 1439 0638 023083E0 		add	r3, r3, r2
 1440 063c 0030C5E5 		strb	r3, [r5, #0]
 1441 0640 FEFFFFEB 		bl	uart1_transmit
 1442 0644 0100D6E5 		ldrb	r0, [r6, #1]	@ zero_extendqisi2
 1443 0648 0030D4E5 		ldrb	r3, [r4, #0]	@ zero_extendqisi2
 1444 064c 033080E0 		add	r3, r0, r3
 1445 0650 0030C4E5 		strb	r3, [r4, #0]
 1446 0654 0030D5E5 		ldrb	r3, [r5, #0]	@ zero_extendqisi2
 1447 0658 0020D4E5 		ldrb	r2, [r4, #0]	@ zero_extendqisi2
 1448 065c 023083E0 		add	r3, r3, r2
 1449 0660 0030C5E5 		strb	r3, [r5, #0]
 1450 0664 FEFFFFEB 		bl	uart1_transmit
 1451 0668 0200D6E5 		ldrb	r0, [r6, #2]	@ zero_extendqisi2
 1452 066c 0030D4E5 		ldrb	r3, [r4, #0]	@ zero_extendqisi2
 1453 0670 033080E0 		add	r3, r0, r3
 1454 0674 0030C4E5 		strb	r3, [r4, #0]
 1455 0678 0030D5E5 		ldrb	r3, [r5, #0]	@ zero_extendqisi2
 1456 067c 0020D4E5 		ldrb	r2, [r4, #0]	@ zero_extendqisi2
 1457 0680 023083E0 		add	r3, r3, r2
 1458 0684 0030C5E5 		strb	r3, [r5, #0]
 1459 0688 FEFFFFEB 		bl	uart1_transmit
 1460 068c 0300D6E5 		ldrb	r0, [r6, #3]	@ zero_extendqisi2
 1461 0690 640200EA 		b	.L334
 1462              	.L69:
 1463 0694 120057E3 		cmp	r7, #18
 1464 0698 7502001A 		bne	.L68
 1465 069c 64669FE5 		ldr	r6, .L360+104
 1466 06a0 0030D6E5 		ldrb	r3, [r6, #0]	@ zero_extendqisi2
 1467 06a4 013083E2 		add	r3, r3, #1
 1468 06a8 0030C6E5 		strb	r3, [r6, #0]
 1469 06ac 58369FE5 		ldr	r3, .L360+108
 1470 06b0 0020D3E5 		ldrb	r2, [r3, #0]	@ zero_extendqisi2
 1471 06b4 0030D6E5 		ldrb	r3, [r6, #0]	@ zero_extendqisi2
 1472 06b8 020053E1 		cmp	r3, r2
 1473 06bc 0030A023 		movcs	r3, #0
 1474 06c0 0030C625 		strcsb	r3, [r6, #0]
 1475 06c4 44369FE5 		ldr	r3, .L360+112
 1476 06c8 000093E5 		ldr	r0, [r3, #0]
 1477 06cc FEFFFFEB 		bl	__floatsisf
 1478 06d0 0040D6E5 		ldrb	r4, [r6, #0]	@ zero_extendqisi2
 1479 06d4 38769FE5 		ldr	r7, .L360+116
 1480 06d8 844084E0 		add	r4, r4, r4, asl #1
 1481 06dc 0441A0E1 		mov	r4, r4, asl #2
 1482 06e0 071094E7 		ldr	r1, [r4, r7]	@ float
 1483 06e4 FEFFFFEB 		bl	__addsf3
 1484 06e8 28369FE5 		ldr	r3, .L360+120
 1485 06ec 48000BE5 		str	r0, [fp, #-72]	@ float
 1486 06f0 074084E0 		add	r4, r4, r7
 1487 06f4 000093E5 		ldr	r0, [r3, #0]
 1488 06f8 FEFFFFEB 		bl	__floatsisf
 1489 06fc 041094E5 		ldr	r1, [r4, #4]	@ float
 1490 0700 FEFFFFEB 		bl	__addsf3
 1491 0704 4C000BE5 		str	r0, [fp, #-76]	@ float
 1492 0708 1400A0E3 		mov	r0, #20
 1493 070c FEFFFFEB 		bl	uart1_check_free_space
 1494 0710 FF0010E3 		tst	r0, #255
 1495 0714 7102000A 		beq	.L75
 1496 0718 98169FE5 		ldr	r1, .L360+280
 1497 071c 98C69FE5 		ldr	ip, .L360+284
 1498 0720 B030D1E1 		ldrh	r3, [r1, #0]
 1499 0724 B020DCE1 		ldrh	r2, [ip, #0]
 1500 0728 143083E2 		add	r3, r3, #20
 1501 072c 012082E2 		add	r2, r2, #1
 1502 0730 B030C1E1 		strh	r3, [r1, #0]	@ movhi 
 1503 0734 B020CCE1 		strh	r2, [ip, #0]	@ movhi 
 1504 0738 9900A0E3 		mov	r0, #153
 1505 073c 7C469FE5 		ldr	r4, .L360+288
 1506 0740 FEFFFFEB 		bl	uart1_transmit
 1507 0744 1400A0E3 		mov	r0, #20
 1508 0748 74569FE5 		ldr	r5, .L360+292
 1509 074c FEFFFFEB 		bl	uart1_transmit
 1510 0750 1830A0E3 		mov	r3, #24
 1511 0754 0030C4E5 		strb	r3, [r4, #0]
 1512 0758 143083E2 		add	r3, r3, #20
 1513 075c 0400A0E3 		mov	r0, #4
 1514 0760 0030C5E5 		strb	r3, [r5, #0]
 1515 0764 FEFFFFEB 		bl	uart1_transmit
 1516 0768 0030D4E5 		ldrb	r3, [r4, #0]	@ zero_extendqisi2
 1517 076c 233083E2 		add	r3, r3, #35
 1518 0770 0030C4E5 		strb	r3, [r4, #0]
 1519 0774 0030D5E5 		ldrb	r3, [r5, #0]	@ zero_extendqisi2
 1520 0778 0020D4E5 		ldrb	r2, [r4, #0]	@ zero_extendqisi2
 1521 077c 023083E0 		add	r3, r3, r2
 1522 0780 2300A0E3 		mov	r0, #35
 1523 0784 0030C5E5 		strb	r3, [r5, #0]
 1524 0788 FEFFFFEB 		bl	uart1_transmit
 1525 078c 0000D6E5 		ldrb	r0, [r6, #0]	@ zero_extendqisi2
 1526 0790 0030D4E5 		ldrb	r3, [r4, #0]	@ zero_extendqisi2
 1527 0794 033080E0 		add	r3, r0, r3
 1528 0798 0030C4E5 		strb	r3, [r4, #0]
 1529 079c 0030D5E5 		ldrb	r3, [r5, #0]	@ zero_extendqisi2
 1530 07a0 0020D4E5 		ldrb	r2, [r4, #0]	@ zero_extendqisi2
 1531 07a4 023083E0 		add	r3, r3, r2
 1532 07a8 0030C5E5 		strb	r3, [r5, #0]
 1533 07ac FEFFFFEB 		bl	uart1_transmit
 1534 07b0 48005BE5 		ldrb	r0, [fp, #-72]	@ zero_extendqisi2
 1535 07b4 0030D4E5 		ldrb	r3, [r4, #0]	@ zero_extendqisi2
 1536 07b8 033080E0 		add	r3, r0, r3
 1537 07bc 0030C4E5 		strb	r3, [r4, #0]
 1538 07c0 0030D5E5 		ldrb	r3, [r5, #0]	@ zero_extendqisi2
 1539 07c4 0020D4E5 		ldrb	r2, [r4, #0]	@ zero_extendqisi2
 1540 07c8 023083E0 		add	r3, r3, r2
 1541 07cc 0030C5E5 		strb	r3, [r5, #0]
 1542 07d0 FEFFFFEB 		bl	uart1_transmit
 1543 07d4 47005BE5 		ldrb	r0, [fp, #-71]	@ zero_extendqisi2
 1544 07d8 0030D4E5 		ldrb	r3, [r4, #0]	@ zero_extendqisi2
 1545 07dc 033080E0 		add	r3, r0, r3
 1546 07e0 0030C4E5 		strb	r3, [r4, #0]
 1547 07e4 0030D5E5 		ldrb	r3, [r5, #0]	@ zero_extendqisi2
 1548 07e8 0020D4E5 		ldrb	r2, [r4, #0]	@ zero_extendqisi2
 1549 07ec 023083E0 		add	r3, r3, r2
 1550 07f0 0030C5E5 		strb	r3, [r5, #0]
 1551 07f4 FEFFFFEB 		bl	uart1_transmit
 1552 07f8 46005BE5 		ldrb	r0, [fp, #-70]	@ zero_extendqisi2
 1553 07fc 0030D4E5 		ldrb	r3, [r4, #0]	@ zero_extendqisi2
 1554 0800 033080E0 		add	r3, r0, r3
 1555 0804 0030C4E5 		strb	r3, [r4, #0]
 1556 0808 0030D5E5 		ldrb	r3, [r5, #0]	@ zero_extendqisi2
 1557 080c 0020D4E5 		ldrb	r2, [r4, #0]	@ zero_extendqisi2
 1558 0810 023083E0 		add	r3, r3, r2
 1559 0814 0030C5E5 		strb	r3, [r5, #0]
 1560 0818 FEFFFFEB 		bl	uart1_transmit
 1561 081c 45005BE5 		ldrb	r0, [fp, #-69]	@ zero_extendqisi2
 1562 0820 0030D4E5 		ldrb	r3, [r4, #0]	@ zero_extendqisi2
 1563 0824 033080E0 		add	r3, r0, r3
 1564 0828 0030C4E5 		strb	r3, [r4, #0]
 1565 082c 0030D5E5 		ldrb	r3, [r5, #0]	@ zero_extendqisi2
 1566 0830 0020D4E5 		ldrb	r2, [r4, #0]	@ zero_extendqisi2
 1567 0834 023083E0 		add	r3, r3, r2
 1568 0838 0030C5E5 		strb	r3, [r5, #0]
 1569 083c FEFFFFEB 		bl	uart1_transmit
 1570 0840 4C005BE5 		ldrb	r0, [fp, #-76]	@ zero_extendqisi2
 1571 0844 0030D4E5 		ldrb	r3, [r4, #0]	@ zero_extendqisi2
 1572 0848 033080E0 		add	r3, r0, r3
 1573 084c 0030C4E5 		strb	r3, [r4, #0]
 1574 0850 0030D5E5 		ldrb	r3, [r5, #0]	@ zero_extendqisi2
 1575 0854 0020D4E5 		ldrb	r2, [r4, #0]	@ zero_extendqisi2
 1576 0858 023083E0 		add	r3, r3, r2
 1577 085c 0030C5E5 		strb	r3, [r5, #0]
 1578 0860 FEFFFFEB 		bl	uart1_transmit
 1579 0864 4B005BE5 		ldrb	r0, [fp, #-75]	@ zero_extendqisi2
 1580 0868 0030D4E5 		ldrb	r3, [r4, #0]	@ zero_extendqisi2
 1581 086c 033080E0 		add	r3, r0, r3
 1582 0870 0030C4E5 		strb	r3, [r4, #0]
 1583 0874 0030D5E5 		ldrb	r3, [r5, #0]	@ zero_extendqisi2
 1584 0878 0020D4E5 		ldrb	r2, [r4, #0]	@ zero_extendqisi2
 1585 087c 023083E0 		add	r3, r3, r2
 1586 0880 0030C5E5 		strb	r3, [r5, #0]
 1587 0884 FEFFFFEB 		bl	uart1_transmit
 1588 0888 4A005BE5 		ldrb	r0, [fp, #-74]	@ zero_extendqisi2
 1589 088c 0030D4E5 		ldrb	r3, [r4, #0]	@ zero_extendqisi2
 1590 0890 033080E0 		add	r3, r0, r3
 1591 0894 0030C4E5 		strb	r3, [r4, #0]
 1592 0898 0030D5E5 		ldrb	r3, [r5, #0]	@ zero_extendqisi2
 1593 089c 0020D4E5 		ldrb	r2, [r4, #0]	@ zero_extendqisi2
 1594 08a0 023083E0 		add	r3, r3, r2
 1595 08a4 0030C5E5 		strb	r3, [r5, #0]
 1596 08a8 FEFFFFEB 		bl	uart1_transmit
 1597 08ac 49005BE5 		ldrb	r0, [fp, #-73]	@ zero_extendqisi2
 1598 08b0 0030D4E5 		ldrb	r3, [r4, #0]	@ zero_extendqisi2
 1599 08b4 033080E0 		add	r3, r0, r3
 1600 08b8 0030C4E5 		strb	r3, [r4, #0]
 1601 08bc 0030D5E5 		ldrb	r3, [r5, #0]	@ zero_extendqisi2
 1602 08c0 0020D4E5 		ldrb	r2, [r4, #0]	@ zero_extendqisi2
 1603 08c4 023083E0 		add	r3, r3, r2
 1604 08c8 0030C5E5 		strb	r3, [r5, #0]
 1605 08cc FEFFFFEB 		bl	uart1_transmit
 1606 08d0 0030D6E5 		ldrb	r3, [r6, #0]	@ zero_extendqisi2
 1607 08d4 082087E2 		add	r2, r7, #8
 1608 08d8 833083E0 		add	r3, r3, r3, asl #1
 1609 08dc 0301D2E7 		ldrb	r0, [r2, r3, asl #2]	@ zero_extendqisi2
 1610 08e0 0030D4E5 		ldrb	r3, [r4, #0]	@ zero_extendqisi2
 1611 08e4 033080E0 		add	r3, r0, r3
 1612 08e8 0030C4E5 		strb	r3, [r4, #0]
 1613 08ec 0030D5E5 		ldrb	r3, [r5, #0]	@ zero_extendqisi2
 1614 08f0 0020D4E5 		ldrb	r2, [r4, #0]	@ zero_extendqisi2
 1615 08f4 023083E0 		add	r3, r3, r2
 1616 08f8 0030C5E5 		strb	r3, [r5, #0]
 1617 08fc FEFFFFEB 		bl	uart1_transmit
 1618 0900 0030D6E5 		ldrb	r3, [r6, #0]	@ zero_extendqisi2
 1619 0904 092087E2 		add	r2, r7, #9
 1620 0908 833083E0 		add	r3, r3, r3, asl #1
 1621 090c 0301D2E7 		ldrb	r0, [r2, r3, asl #2]	@ zero_extendqisi2
 1622 0910 0030D4E5 		ldrb	r3, [r4, #0]	@ zero_extendqisi2
 1623 0914 033080E0 		add	r3, r0, r3
 1624 0918 0030C4E5 		strb	r3, [r4, #0]
 1625 091c 0030D5E5 		ldrb	r3, [r5, #0]	@ zero_extendqisi2
 1626 0920 0020D4E5 		ldrb	r2, [r4, #0]	@ zero_extendqisi2
 1627 0924 023083E0 		add	r3, r3, r2
 1628 0928 0030C5E5 		strb	r3, [r5, #0]
 1629 092c FEFFFFEB 		bl	uart1_transmit
 1630 0930 0030D6E5 		ldrb	r3, [r6, #0]	@ zero_extendqisi2
 1631 0934 0A2087E2 		add	r2, r7, #10
 1632 0938 833083E0 		add	r3, r3, r3, asl #1
 1633 093c 0301D2E7 		ldrb	r0, [r2, r3, asl #2]	@ zero_extendqisi2
 1634 0940 0030D4E5 		ldrb	r3, [r4, #0]	@ zero_extendqisi2
 1635 0944 033080E0 		add	r3, r0, r3
 1636 0948 0030C4E5 		strb	r3, [r4, #0]
 1637 094c 0030D5E5 		ldrb	r3, [r5, #0]	@ zero_extendqisi2
 1638 0950 0020D4E5 		ldrb	r2, [r4, #0]	@ zero_extendqisi2
 1639 0954 023083E0 		add	r3, r3, r2
 1640 0958 0030C5E5 		strb	r3, [r5, #0]
 1641 095c FEFFFFEB 		bl	uart1_transmit
 1642 0960 0030D6E5 		ldrb	r3, [r6, #0]	@ zero_extendqisi2
 1643 0964 0B2087E2 		add	r2, r7, #11
 1644 0968 833083E0 		add	r3, r3, r3, asl #1
 1645 096c 0301D2E7 		ldrb	r0, [r2, r3, asl #2]	@ zero_extendqisi2
 1646 0970 0030D4E5 		ldrb	r3, [r4, #0]	@ zero_extendqisi2
 1647 0974 033080E0 		add	r3, r0, r3
 1648 0978 0030C4E5 		strb	r3, [r4, #0]
 1649 097c 0030D5E5 		ldrb	r3, [r5, #0]	@ zero_extendqisi2
 1650 0980 0020D4E5 		ldrb	r2, [r4, #0]	@ zero_extendqisi2
 1651 0984 023083E0 		add	r3, r3, r2
 1652 0988 0030C5E5 		strb	r3, [r5, #0]
 1653 098c FEFFFFEB 		bl	uart1_transmit
 1654 0990 84339FE5 		ldr	r3, .L360+124
 1655 0994 0000D3E5 		ldrb	r0, [r3, #0]	@ zero_extendqisi2
 1656              	.L334:
 1657 0998 0030D4E5 		ldrb	r3, [r4, #0]	@ zero_extendqisi2
 1658 099c 033080E0 		add	r3, r0, r3
 1659 09a0 0030C4E5 		strb	r3, [r4, #0]
 1660 09a4 0030D5E5 		ldrb	r3, [r5, #0]	@ zero_extendqisi2
 1661 09a8 0020D4E5 		ldrb	r2, [r4, #0]	@ zero_extendqisi2
 1662 09ac 023083E0 		add	r3, r3, r2
 1663 09b0 0030C5E5 		strb	r3, [r5, #0]
 1664 09b4 FEFFFFEB 		bl	uart1_transmit
 1665 09b8 0000D4E5 		ldrb	r0, [r4, #0]	@ zero_extendqisi2
 1666 09bc FEFFFFEB 		bl	uart1_transmit
 1667 09c0 0000D5E5 		ldrb	r0, [r5, #0]	@ zero_extendqisi2
 1668 09c4 FEFFFFEB 		bl	uart1_transmit
 1669 09c8 750200EA 		b	.L68
 1670              	.L75:
 1671 09cc D8239FE5 		ldr	r2, .L360+268
 1672 09d0 0030D2E5 		ldrb	r3, [r2, #0]	@ zero_extendqisi2
 1673 09d4 013083E2 		add	r3, r3, #1
 1674 09d8 0030C2E5 		strb	r3, [r2, #0]
 1675              	.L68:
 1676 09dc 0060D8E5 		ldrb	r6, [r8, #0]	@ zero_extendqisi2
 1677 09e0 180056E3 		cmp	r6, #24
 1678 09e4 7103001A 		bne	.L77
 1679 09e8 1600A0E3 		mov	r0, #22
 1680 09ec FEFFFFEB 		bl	uart1_check_free_space
 1681 09f0 FF0010E3 		tst	r0, #255
 1682 09f4 5C04000A 		beq	.L82
 1683 09f8 B8139FE5 		ldr	r1, .L360+280
 1684 09fc B8C39FE5 		ldr	ip, .L360+284
 1685 0a00 B030D1E1 		ldrh	r3, [r1, #0]
 1686 0a04 B020DCE1 		ldrh	r2, [ip, #0]
 1687 0a08 163083E2 		add	r3, r3, #22
 1688 0a0c 012082E2 		add	r2, r2, #1
 1689 0a10 B030C1E1 		strh	r3, [r1, #0]	@ movhi 
 1690 0a14 B020CCE1 		strh	r2, [ip, #0]	@ movhi 
 1691 0a18 9900A0E3 		mov	r0, #153
 1692 0a1c 9C439FE5 		ldr	r4, .L360+288
 1693 0a20 FEFFFFEB 		bl	uart1_transmit
 1694 0a24 1600A0E3 		mov	r0, #22
 1695 0a28 94539FE5 		ldr	r5, .L360+292
 1696 0a2c FEFFFFEB 		bl	uart1_transmit
 1697 0a30 1A30A0E3 		mov	r3, #26
 1698 0a34 0030C4E5 		strb	r3, [r4, #0]
 1699 0a38 163083E2 		add	r3, r3, #22
 1700 0a3c 0400A0E3 		mov	r0, #4
 1701 0a40 0030C5E5 		strb	r3, [r5, #0]
 1702 0a44 FEFFFFEB 		bl	uart1_transmit
 1703 0a48 0030D4E5 		ldrb	r3, [r4, #0]	@ zero_extendqisi2
 1704 0a4c 363083E2 		add	r3, r3, #54
 1705 0a50 0030C4E5 		strb	r3, [r4, #0]
 1706 0a54 0030D5E5 		ldrb	r3, [r5, #0]	@ zero_extendqisi2
 1707 0a58 0020D4E5 		ldrb	r2, [r4, #0]	@ zero_extendqisi2
 1708 0a5c BC629FE5 		ldr	r6, .L360+128
 1709 0a60 023083E0 		add	r3, r3, r2
 1710 0a64 3600A0E3 		mov	r0, #54
 1711 0a68 0030C5E5 		strb	r3, [r5, #0]
 1712 0a6c FEFFFFEB 		bl	uart1_transmit
 1713 0a70 0000D6E5 		ldrb	r0, [r6, #0]	@ zero_extendqisi2
 1714 0a74 0030D4E5 		ldrb	r3, [r4, #0]	@ zero_extendqisi2
 1715 0a78 033080E0 		add	r3, r0, r3
 1716 0a7c 0030C4E5 		strb	r3, [r4, #0]
 1717 0a80 0030D5E5 		ldrb	r3, [r5, #0]	@ zero_extendqisi2
 1718 0a84 0020D4E5 		ldrb	r2, [r4, #0]	@ zero_extendqisi2
 1719 0a88 023083E0 		add	r3, r3, r2
 1720 0a8c 0030C5E5 		strb	r3, [r5, #0]
 1721 0a90 FEFFFFEB 		bl	uart1_transmit
 1722 0a94 0100D6E5 		ldrb	r0, [r6, #1]	@ zero_extendqisi2
 1723 0a98 0030D4E5 		ldrb	r3, [r4, #0]	@ zero_extendqisi2
 1724 0a9c 033080E0 		add	r3, r0, r3
 1725 0aa0 0030C4E5 		strb	r3, [r4, #0]
 1726 0aa4 0030D5E5 		ldrb	r3, [r5, #0]	@ zero_extendqisi2
 1727 0aa8 0020D4E5 		ldrb	r2, [r4, #0]	@ zero_extendqisi2
 1728 0aac 023083E0 		add	r3, r3, r2
 1729 0ab0 0030C5E5 		strb	r3, [r5, #0]
 1730 0ab4 FEFFFFEB 		bl	uart1_transmit
 1731 0ab8 0200D6E5 		ldrb	r0, [r6, #2]	@ zero_extendqisi2
 1732 0abc 0030D4E5 		ldrb	r3, [r4, #0]	@ zero_extendqisi2
 1733 0ac0 033080E0 		add	r3, r0, r3
 1734 0ac4 0030C4E5 		strb	r3, [r4, #0]
 1735 0ac8 0030D5E5 		ldrb	r3, [r5, #0]	@ zero_extendqisi2
 1736 0acc 0020D4E5 		ldrb	r2, [r4, #0]	@ zero_extendqisi2
 1737 0ad0 023083E0 		add	r3, r3, r2
 1738 0ad4 0030C5E5 		strb	r3, [r5, #0]
 1739 0ad8 FEFFFFEB 		bl	uart1_transmit
 1740 0adc 0300D6E5 		ldrb	r0, [r6, #3]	@ zero_extendqisi2
 1741 0ae0 0030D4E5 		ldrb	r3, [r4, #0]	@ zero_extendqisi2
 1742 0ae4 033080E0 		add	r3, r0, r3
 1743 0ae8 0030C4E5 		strb	r3, [r4, #0]
 1744 0aec 0030D5E5 		ldrb	r3, [r5, #0]	@ zero_extendqisi2
 1745 0af0 0020D4E5 		ldrb	r2, [r4, #0]	@ zero_extendqisi2
 1746 0af4 28629FE5 		ldr	r6, .L360+132
 1747 0af8 023083E0 		add	r3, r3, r2
 1748 0afc 0030C5E5 		strb	r3, [r5, #0]
 1749 0b00 FEFFFFEB 		bl	uart1_transmit
 1750 0b04 0000D6E5 		ldrb	r0, [r6, #0]	@ zero_extendqisi2
 1751 0b08 0030D4E5 		ldrb	r3, [r4, #0]	@ zero_extendqisi2
 1752 0b0c 033080E0 		add	r3, r0, r3
 1753 0b10 0030C4E5 		strb	r3, [r4, #0]
 1754 0b14 0030D5E5 		ldrb	r3, [r5, #0]	@ zero_extendqisi2
 1755 0b18 0020D4E5 		ldrb	r2, [r4, #0]	@ zero_extendqisi2
 1756 0b1c 023083E0 		add	r3, r3, r2
 1757 0b20 0030C5E5 		strb	r3, [r5, #0]
 1758 0b24 FEFFFFEB 		bl	uart1_transmit
 1759 0b28 0100D6E5 		ldrb	r0, [r6, #1]	@ zero_extendqisi2
 1760 0b2c 0030D4E5 		ldrb	r3, [r4, #0]	@ zero_extendqisi2
 1761 0b30 033080E0 		add	r3, r0, r3
 1762 0b34 0030C4E5 		strb	r3, [r4, #0]
 1763 0b38 0030D5E5 		ldrb	r3, [r5, #0]	@ zero_extendqisi2
 1764 0b3c 0020D4E5 		ldrb	r2, [r4, #0]	@ zero_extendqisi2
 1765 0b40 023083E0 		add	r3, r3, r2
 1766 0b44 0030C5E5 		strb	r3, [r5, #0]
 1767 0b48 FEFFFFEB 		bl	uart1_transmit
 1768 0b4c 0200D6E5 		ldrb	r0, [r6, #2]	@ zero_extendqisi2
 1769 0b50 0030D4E5 		ldrb	r3, [r4, #0]	@ zero_extendqisi2
 1770 0b54 033080E0 		add	r3, r0, r3
 1771 0b58 0030C4E5 		strb	r3, [r4, #0]
 1772 0b5c 0030D5E5 		ldrb	r3, [r5, #0]	@ zero_extendqisi2
 1773 0b60 0020D4E5 		ldrb	r2, [r4, #0]	@ zero_extendqisi2
 1774 0b64 023083E0 		add	r3, r3, r2
 1775 0b68 0030C5E5 		strb	r3, [r5, #0]
 1776 0b6c FEFFFFEB 		bl	uart1_transmit
 1777 0b70 0300D6E5 		ldrb	r0, [r6, #3]	@ zero_extendqisi2
 1778 0b74 0030D4E5 		ldrb	r3, [r4, #0]	@ zero_extendqisi2
 1779 0b78 033080E0 		add	r3, r0, r3
 1780 0b7c 0030C4E5 		strb	r3, [r4, #0]
 1781 0b80 0030D5E5 		ldrb	r3, [r5, #0]	@ zero_extendqisi2
 1782 0b84 0020D4E5 		ldrb	r2, [r4, #0]	@ zero_extendqisi2
 1783 0b88 98619FE5 		ldr	r6, .L360+136
 1784 0b8c 023083E0 		add	r3, r3, r2
 1785 0b90 0030C5E5 		strb	r3, [r5, #0]
 1786 0b94 FEFFFFEB 		bl	uart1_transmit
 1787 0b98 0000D6E5 		ldrb	r0, [r6, #0]	@ zero_extendqisi2
 1788 0b9c 0030D4E5 		ldrb	r3, [r4, #0]	@ zero_extendqisi2
 1789 0ba0 033080E0 		add	r3, r0, r3
 1790 0ba4 0030C4E5 		strb	r3, [r4, #0]
 1791 0ba8 0030D5E5 		ldrb	r3, [r5, #0]	@ zero_extendqisi2
 1792 0bac 0020D4E5 		ldrb	r2, [r4, #0]	@ zero_extendqisi2
 1793 0bb0 023083E0 		add	r3, r3, r2
 1794 0bb4 0030C5E5 		strb	r3, [r5, #0]
 1795 0bb8 FEFFFFEB 		bl	uart1_transmit
 1796 0bbc 0100D6E5 		ldrb	r0, [r6, #1]	@ zero_extendqisi2
 1797 0bc0 0030D4E5 		ldrb	r3, [r4, #0]	@ zero_extendqisi2
 1798 0bc4 033080E0 		add	r3, r0, r3
 1799 0bc8 0030C4E5 		strb	r3, [r4, #0]
 1800 0bcc 0030D5E5 		ldrb	r3, [r5, #0]	@ zero_extendqisi2
 1801 0bd0 0020D4E5 		ldrb	r2, [r4, #0]	@ zero_extendqisi2
 1802 0bd4 023083E0 		add	r3, r3, r2
 1803 0bd8 0030C5E5 		strb	r3, [r5, #0]
 1804 0bdc FEFFFFEB 		bl	uart1_transmit
 1805 0be0 0200D6E5 		ldrb	r0, [r6, #2]	@ zero_extendqisi2
 1806 0be4 0030D4E5 		ldrb	r3, [r4, #0]	@ zero_extendqisi2
 1807 0be8 033080E0 		add	r3, r0, r3
 1808 0bec 0030C4E5 		strb	r3, [r4, #0]
 1809 0bf0 0030D5E5 		ldrb	r3, [r5, #0]	@ zero_extendqisi2
 1810 0bf4 0020D4E5 		ldrb	r2, [r4, #0]	@ zero_extendqisi2
 1811 0bf8 023083E0 		add	r3, r3, r2
 1812 0bfc 0030C5E5 		strb	r3, [r5, #0]
 1813 0c00 FEFFFFEB 		bl	uart1_transmit
 1814 0c04 0300D6E5 		ldrb	r0, [r6, #3]	@ zero_extendqisi2
 1815 0c08 0030D4E5 		ldrb	r3, [r4, #0]	@ zero_extendqisi2
 1816 0c0c 033080E0 		add	r3, r0, r3
 1817 0c10 0030C4E5 		strb	r3, [r4, #0]
 1818 0c14 0030D5E5 		ldrb	r3, [r5, #0]	@ zero_extendqisi2
 1819 0c18 0020D4E5 		ldrb	r2, [r4, #0]	@ zero_extendqisi2
 1820 0c1c 08619FE5 		ldr	r6, .L360+140
 1821 0c20 023083E0 		add	r3, r3, r2
 1822 0c24 0030C5E5 		strb	r3, [r5, #0]
 1823 0c28 FEFFFFEB 		bl	uart1_transmit
 1824 0c2c 0000D6E5 		ldrb	r0, [r6, #0]	@ zero_extendqisi2
 1825 0c30 0030D4E5 		ldrb	r3, [r4, #0]	@ zero_extendqisi2
 1826 0c34 033080E0 		add	r3, r0, r3
 1827 0c38 0030C4E5 		strb	r3, [r4, #0]
 1828 0c3c 0030D5E5 		ldrb	r3, [r5, #0]	@ zero_extendqisi2
 1829 0c40 0020D4E5 		ldrb	r2, [r4, #0]	@ zero_extendqisi2
 1830 0c44 023083E0 		add	r3, r3, r2
 1831 0c48 0030C5E5 		strb	r3, [r5, #0]
 1832 0c4c FEFFFFEB 		bl	uart1_transmit
 1833 0c50 0100D6E5 		ldrb	r0, [r6, #1]	@ zero_extendqisi2
 1834 0c54 0030D4E5 		ldrb	r3, [r4, #0]	@ zero_extendqisi2
 1835 0c58 033080E0 		add	r3, r0, r3
 1836 0c5c 0030C4E5 		strb	r3, [r4, #0]
 1837 0c60 0030D5E5 		ldrb	r3, [r5, #0]	@ zero_extendqisi2
 1838 0c64 0020D4E5 		ldrb	r2, [r4, #0]	@ zero_extendqisi2
 1839 0c68 023083E0 		add	r3, r3, r2
 1840 0c6c 0030C5E5 		strb	r3, [r5, #0]
 1841 0c70 FEFFFFEB 		bl	uart1_transmit
 1842 0c74 0200D6E5 		ldrb	r0, [r6, #2]	@ zero_extendqisi2
 1843 0c78 0030D4E5 		ldrb	r3, [r4, #0]	@ zero_extendqisi2
 1844 0c7c 033080E0 		add	r3, r0, r3
 1845 0c80 0030C4E5 		strb	r3, [r4, #0]
 1846 0c84 0030D5E5 		ldrb	r3, [r5, #0]	@ zero_extendqisi2
 1847 0c88 0020D4E5 		ldrb	r2, [r4, #0]	@ zero_extendqisi2
 1848 0c8c 023083E0 		add	r3, r3, r2
 1849 0c90 0030C5E5 		strb	r3, [r5, #0]
 1850 0c94 FEFFFFEB 		bl	uart1_transmit
 1851 0c98 0300D6E5 		ldrb	r0, [r6, #3]	@ zero_extendqisi2
 1852 0c9c 4F0400EA 		b	.L335
 1853              	.L361:
 1854              		.align	2
 1855              	.L360:
 1856 0ca0 00000000 		.word	_60Hz.4
 1857 0ca4 00000000 		.word	_20Hz.5
 1858 0ca8 00000000 		.word	_10Hz.6
 1859 0cac 00000000 		.word	_4Hz.7
 1860 0cb0 00000000 		.word	_1Hz.8
 1861 0cb4 00000000 		.word	boot.10
 1862 0cb8 00000000 		.word	version
 1863 0cbc 00000000 		.word	telemetry_mode_Ap_DefaultChannel
 1864 0cc0 00000000 		.word	i15.11
 1865 0cc4 00000000 		.word	i30.12
 1866 0cc8 00000000 		.word	i60.13
 1867 0ccc 00000000 		.word	i63.14
 1868 0cd0 00000000 		.word	i66.15
 1869 0cd4 00000000 		.word	i90.17
 1870 0cd8 00000000 		.word	i120.18
 1871 0cdc 00000000 		.word	i126.19
 1872 0ce0 00000000 		.word	i150.20
 1873 0ce4 00000000 		.word	i300.21
 1874 0ce8 00000000 		.word	i306.22
 1875 0cec 31010000 		.word	305
 1876 0cf0 00000000 		.word	i540.23
 1877 0cf4 00000000 		.word	estimator_phi
 1878 0cf8 00000000 		.word	estimator_psi
 1879 0cfc 00000000 		.word	estimator_theta
 1880 0d00 00000000 		.word	estimator_z
 1881 0d04 00000000 		.word	estimator_z_dot
 1882 0d08 00000000 		.word	i.24
 1883 0d0c 00000000 		.word	nb_waypoint
 1884 0d10 00000000 		.word	nav_utm_east0
 1885 0d14 00000000 		.word	waypoints
 1886 0d18 00000000 		.word	nav_utm_north0
 1887 0d1c 00000000 		.word	nav_utm_zone0
 1888 0d20 00000000 		.word	estimator_airspeed
 1889 0d24 00000000 		.word	v_ctl_auto_airspeed_setpoint
 1890 0d28 00000000 		.word	v_ctl_auto_airspeed_controlled
 1891 0d2c 00000000 		.word	v_ctl_auto_groundspeed_setpoint
 1892 0d30 00000000 		.word	nav_circle_radians
 1893 0d34 00000000 		.word	nav_block
 1894 0d38 00000000 		.word	nav_stage
 1895 0d3c 00000000 		.word	estimator_x
 1896 0d40 00000000 		.word	estimator_y
 1897 0d44 00000000 		.word	dist2_to_wp
 1898 0d48 00000000 		.word	dist2_to_home
 1899 0d4c 00000000 		.word	nav_oval_count
 1900 0d50 00000000 		.word	nav_in_circle
 1901 0d54 00000000 		.word	nav_circle_x
 1902 0d58 00000000 		.word	nav_circle_y
 1903 0d5c 00000000 		.word	nav_circle_radius
 1904 0d60 00000000 		.word	h_ctl_roll_setpoint
 1905 0d64 00000000 		.word	h_ctl_pitch_loop_setpoint
 1906 0d68 00000000 		.word	h_ctl_course_setpoint
 1907 0d6c 00000000 		.word	desired_x
 1908 0d70 00000000 		.word	desired_y
 1909 0d74 00000000 		.word	v_ctl_altitude_setpoint
 1910 0d78 00000000 		.word	v_ctl_climb_setpoint
 1911 0d7c 00000000 		.word	energy
 1912 0d80 00000000 		.word	v_ctl_throttle_slewed
 1913 0d84 00000000 		.word	vsupply
 1914 0d88 00000000 		.word	estimator_flight_time
 1915 0d8c 00000000 		.word	kill_throttle
 1916 0d90 00000000 		.word	block_time
 1917 0d94 FB211940 		.word	1075388923
 1918 0d98 182D4454 		.word	1413754136
 1919 0d9c 00000000 		.word	stage_time
 1920 0da0 00000000 		.word	roll_rate_adc
 1921 0da4 00000000 		.word	estimator_p
 1922 0da8 00000000 		.word	temp_comp
 1923 0dac 00000000 		.word	downlink_nb_ovrn
 1924 0db0 00000000 		.word	i72.16
 1925 0db4 00000000 		.word	nav_in_segment
 1926 0db8 00000000 		.word	downlink_nb_bytes
 1927 0dbc 00000000 		.word	downlink_nb_msgs
 1928 0dc0 00000000 		.word	ck_a
 1929 0dc4 00000000 		.word	ck_b
 1930 0dc8 00000000 		.word	nav_segment_x_1
 1931              	.L77:
 1932 0dcc 1E0056E3 		cmp	r6, #30
 1933 0dd0 6004001A 		bne	.L80
 1934 0dd4 AC301FE5 		ldr	r3, .L360+144
 1935 0dd8 003093E5 		ldr	r3, [r3, #0]
 1936 0ddc 0201C3E3 		bic	r0, r3, #-2147483648
 1937 0de0 FEFFFFEB 		bl	__extendsfdf2
 1938 0de4 58204FE2 		adr	r2, .L360+244
 1939 0de8 0C0092E8 		ldmia	r2, {r2-r3}
 1940 0dec FEFFFFEB 		bl	__divdf3
 1941 0df0 FEFFFFEB 		bl	__fixunsdfsi
 1942 0df4 29004BE5 		strb	r0, [fp, #-41]
 1943 0df8 1A00A0E3 		mov	r0, #26
 1944 0dfc FEFFFFEB 		bl	uart1_check_free_space
 1945 0e00 FF0010E3 		tst	r0, #255
 1946 0e04 5C04000A 		beq	.L82
 1947 0e08 58101FE5 		ldr	r1, .L360+280
 1948 0e0c 58C01FE5 		ldr	ip, .L360+284
 1949 0e10 B030D1E1 		ldrh	r3, [r1, #0]
 1950 0e14 B020DCE1 		ldrh	r2, [ip, #0]
 1951 0e18 1A3083E2 		add	r3, r3, #26
 1952 0e1c 012082E2 		add	r2, r2, #1
 1953 0e20 B030C1E1 		strh	r3, [r1, #0]	@ movhi 
 1954 0e24 B020CCE1 		strh	r2, [ip, #0]	@ movhi 
 1955 0e28 9900A0E3 		mov	r0, #153
 1956 0e2c 74401FE5 		ldr	r4, .L360+288
 1957 0e30 74501FE5 		ldr	r5, .L360+292
 1958 0e34 FEFFFFEB 		bl	uart1_transmit
 1959 0e38 1A00A0E3 		mov	r0, #26
 1960 0e3c FEFFFFEB 		bl	uart1_transmit
 1961 0e40 3830A0E3 		mov	r3, #56
 1962 0e44 0400A0E3 		mov	r0, #4
 1963 0e48 0060C4E5 		strb	r6, [r4, #0]
 1964 0e4c 0030C5E5 		strb	r3, [r5, #0]
 1965 0e50 FEFFFFEB 		bl	uart1_transmit
 1966 0e54 0030D4E5 		ldrb	r3, [r4, #0]	@ zero_extendqisi2
 1967 0e58 0A3083E2 		add	r3, r3, #10
 1968 0e5c 0030C4E5 		strb	r3, [r4, #0]
 1969 0e60 0030D5E5 		ldrb	r3, [r5, #0]	@ zero_extendqisi2
 1970 0e64 0020D4E5 		ldrb	r2, [r4, #0]	@ zero_extendqisi2
 1971 0e68 023083E0 		add	r3, r3, r2
 1972 0e6c 0A00A0E3 		mov	r0, #10
 1973 0e70 0030C5E5 		strb	r3, [r5, #0]
 1974 0e74 FEFFFFEB 		bl	uart1_transmit
 1975 0e78 4C311FE5 		ldr	r3, .L360+148
 1976 0e7c 0000D3E5 		ldrb	r0, [r3, #0]	@ zero_extendqisi2
 1977 0e80 0030D4E5 		ldrb	r3, [r4, #0]	@ zero_extendqisi2
 1978 0e84 033080E0 		add	r3, r0, r3
 1979 0e88 0030C4E5 		strb	r3, [r4, #0]
 1980 0e8c 0030D5E5 		ldrb	r3, [r5, #0]	@ zero_extendqisi2
 1981 0e90 0020D4E5 		ldrb	r2, [r4, #0]	@ zero_extendqisi2
 1982 0e94 023083E0 		add	r3, r3, r2
 1983 0e98 0030C5E5 		strb	r3, [r5, #0]
 1984 0e9c FEFFFFEB 		bl	uart1_transmit
 1985 0ea0 70311FE5 		ldr	r3, .L360+152
 1986 0ea4 0000D3E5 		ldrb	r0, [r3, #0]	@ zero_extendqisi2
 1987 0ea8 0030D4E5 		ldrb	r3, [r4, #0]	@ zero_extendqisi2
 1988 0eac 033080E0 		add	r3, r0, r3
 1989 0eb0 0030C4E5 		strb	r3, [r4, #0]
 1990 0eb4 0030D5E5 		ldrb	r3, [r5, #0]	@ zero_extendqisi2
 1991 0eb8 0020D4E5 		ldrb	r2, [r4, #0]	@ zero_extendqisi2
 1992 0ebc 88611FE5 		ldr	r6, .L360+156
 1993 0ec0 023083E0 		add	r3, r3, r2
 1994 0ec4 0030C5E5 		strb	r3, [r5, #0]
 1995 0ec8 FEFFFFEB 		bl	uart1_transmit
 1996 0ecc 0000D6E5 		ldrb	r0, [r6, #0]	@ zero_extendqisi2
 1997 0ed0 0030D4E5 		ldrb	r3, [r4, #0]	@ zero_extendqisi2
 1998 0ed4 033080E0 		add	r3, r0, r3
 1999 0ed8 0030C4E5 		strb	r3, [r4, #0]
 2000 0edc 0030D5E5 		ldrb	r3, [r5, #0]	@ zero_extendqisi2
 2001 0ee0 0020D4E5 		ldrb	r2, [r4, #0]	@ zero_extendqisi2
 2002 0ee4 023083E0 		add	r3, r3, r2
 2003 0ee8 0030C5E5 		strb	r3, [r5, #0]
 2004 0eec FEFFFFEB 		bl	uart1_transmit
 2005 0ef0 0100D6E5 		ldrb	r0, [r6, #1]	@ zero_extendqisi2
 2006 0ef4 0030D4E5 		ldrb	r3, [r4, #0]	@ zero_extendqisi2
 2007 0ef8 033080E0 		add	r3, r0, r3
 2008 0efc 0030C4E5 		strb	r3, [r4, #0]
 2009 0f00 0030D5E5 		ldrb	r3, [r5, #0]	@ zero_extendqisi2
 2010 0f04 0020D4E5 		ldrb	r2, [r4, #0]	@ zero_extendqisi2
 2011 0f08 023083E0 		add	r3, r3, r2
 2012 0f0c 0030C5E5 		strb	r3, [r5, #0]
 2013 0f10 FEFFFFEB 		bl	uart1_transmit
 2014 0f14 0200D6E5 		ldrb	r0, [r6, #2]	@ zero_extendqisi2
 2015 0f18 0030D4E5 		ldrb	r3, [r4, #0]	@ zero_extendqisi2
 2016 0f1c 033080E0 		add	r3, r0, r3
 2017 0f20 0030C4E5 		strb	r3, [r4, #0]
 2018 0f24 0030D5E5 		ldrb	r3, [r5, #0]	@ zero_extendqisi2
 2019 0f28 0020D4E5 		ldrb	r2, [r4, #0]	@ zero_extendqisi2
 2020 0f2c 023083E0 		add	r3, r3, r2
 2021 0f30 0030C5E5 		strb	r3, [r5, #0]
 2022 0f34 FEFFFFEB 		bl	uart1_transmit
 2023 0f38 0300D6E5 		ldrb	r0, [r6, #3]	@ zero_extendqisi2
 2024 0f3c 0030D4E5 		ldrb	r3, [r4, #0]	@ zero_extendqisi2
 2025 0f40 033080E0 		add	r3, r0, r3
 2026 0f44 0030C4E5 		strb	r3, [r4, #0]
 2027 0f48 0030D5E5 		ldrb	r3, [r5, #0]	@ zero_extendqisi2
 2028 0f4c 0020D4E5 		ldrb	r2, [r4, #0]	@ zero_extendqisi2
 2029 0f50 18621FE5 		ldr	r6, .L360+160
 2030 0f54 023083E0 		add	r3, r3, r2
 2031 0f58 0030C5E5 		strb	r3, [r5, #0]
 2032 0f5c FEFFFFEB 		bl	uart1_transmit
 2033 0f60 0000D6E5 		ldrb	r0, [r6, #0]	@ zero_extendqisi2
 2034 0f64 0030D4E5 		ldrb	r3, [r4, #0]	@ zero_extendqisi2
 2035 0f68 033080E0 		add	r3, r0, r3
 2036 0f6c 0030C4E5 		strb	r3, [r4, #0]
 2037 0f70 0030D5E5 		ldrb	r3, [r5, #0]	@ zero_extendqisi2
 2038 0f74 0020D4E5 		ldrb	r2, [r4, #0]	@ zero_extendqisi2
 2039 0f78 023083E0 		add	r3, r3, r2
 2040 0f7c 0030C5E5 		strb	r3, [r5, #0]
 2041 0f80 FEFFFFEB 		bl	uart1_transmit
 2042 0f84 0100D6E5 		ldrb	r0, [r6, #1]	@ zero_extendqisi2
 2043 0f88 0030D4E5 		ldrb	r3, [r4, #0]	@ zero_extendqisi2
 2044 0f8c 033080E0 		add	r3, r0, r3
 2045 0f90 0030C4E5 		strb	r3, [r4, #0]
 2046 0f94 0030D5E5 		ldrb	r3, [r5, #0]	@ zero_extendqisi2
 2047 0f98 0020D4E5 		ldrb	r2, [r4, #0]	@ zero_extendqisi2
 2048 0f9c 023083E0 		add	r3, r3, r2
 2049 0fa0 0030C5E5 		strb	r3, [r5, #0]
 2050 0fa4 FEFFFFEB 		bl	uart1_transmit
 2051 0fa8 0200D6E5 		ldrb	r0, [r6, #2]	@ zero_extendqisi2
 2052 0fac 0030D4E5 		ldrb	r3, [r4, #0]	@ zero_extendqisi2
 2053 0fb0 033080E0 		add	r3, r0, r3
 2054 0fb4 0030C4E5 		strb	r3, [r4, #0]
 2055 0fb8 0030D5E5 		ldrb	r3, [r5, #0]	@ zero_extendqisi2
 2056 0fbc 0020D4E5 		ldrb	r2, [r4, #0]	@ zero_extendqisi2
 2057 0fc0 023083E0 		add	r3, r3, r2
 2058 0fc4 0030C5E5 		strb	r3, [r5, #0]
 2059 0fc8 FEFFFFEB 		bl	uart1_transmit
 2060 0fcc 0300D6E5 		ldrb	r0, [r6, #3]	@ zero_extendqisi2
 2061 0fd0 0030D4E5 		ldrb	r3, [r4, #0]	@ zero_extendqisi2
 2062 0fd4 033080E0 		add	r3, r0, r3
 2063 0fd8 0030C4E5 		strb	r3, [r4, #0]
 2064 0fdc 0030D5E5 		ldrb	r3, [r5, #0]	@ zero_extendqisi2
 2065 0fe0 0020D4E5 		ldrb	r2, [r4, #0]	@ zero_extendqisi2
 2066 0fe4 A8621FE5 		ldr	r6, .L360+164
 2067 0fe8 023083E0 		add	r3, r3, r2
 2068 0fec 0030C5E5 		strb	r3, [r5, #0]
 2069 0ff0 FEFFFFEB 		bl	uart1_transmit
 2070 0ff4 0000D6E5 		ldrb	r0, [r6, #0]	@ zero_extendqisi2
 2071 0ff8 0030D4E5 		ldrb	r3, [r4, #0]	@ zero_extendqisi2
 2072 0ffc 033080E0 		add	r3, r0, r3
 2073 1000 0030C4E5 		strb	r3, [r4, #0]
 2074 1004 0030D5E5 		ldrb	r3, [r5, #0]	@ zero_extendqisi2
 2075 1008 0020D4E5 		ldrb	r2, [r4, #0]	@ zero_extendqisi2
 2076 100c 023083E0 		add	r3, r3, r2
 2077 1010 0030C5E5 		strb	r3, [r5, #0]
 2078 1014 FEFFFFEB 		bl	uart1_transmit
 2079 1018 0100D6E5 		ldrb	r0, [r6, #1]	@ zero_extendqisi2
 2080 101c 0030D4E5 		ldrb	r3, [r4, #0]	@ zero_extendqisi2
 2081 1020 033080E0 		add	r3, r0, r3
 2082 1024 0030C4E5 		strb	r3, [r4, #0]
 2083 1028 0030D5E5 		ldrb	r3, [r5, #0]	@ zero_extendqisi2
 2084 102c 0020D4E5 		ldrb	r2, [r4, #0]	@ zero_extendqisi2
 2085 1030 023083E0 		add	r3, r3, r2
 2086 1034 0030C5E5 		strb	r3, [r5, #0]
 2087 1038 FEFFFFEB 		bl	uart1_transmit
 2088 103c 0200D6E5 		ldrb	r0, [r6, #2]	@ zero_extendqisi2
 2089 1040 0030D4E5 		ldrb	r3, [r4, #0]	@ zero_extendqisi2
 2090 1044 033080E0 		add	r3, r0, r3
 2091 1048 0030C4E5 		strb	r3, [r4, #0]
 2092 104c 0030D5E5 		ldrb	r3, [r5, #0]	@ zero_extendqisi2
 2093 1050 0020D4E5 		ldrb	r2, [r4, #0]	@ zero_extendqisi2
 2094 1054 023083E0 		add	r3, r3, r2
 2095 1058 0030C5E5 		strb	r3, [r5, #0]
 2096 105c FEFFFFEB 		bl	uart1_transmit
 2097 1060 0300D6E5 		ldrb	r0, [r6, #3]	@ zero_extendqisi2
 2098 1064 0030D4E5 		ldrb	r3, [r4, #0]	@ zero_extendqisi2
 2099 1068 033080E0 		add	r3, r0, r3
 2100 106c 0030C4E5 		strb	r3, [r4, #0]
 2101 1070 0030D5E5 		ldrb	r3, [r5, #0]	@ zero_extendqisi2
 2102 1074 0020D4E5 		ldrb	r2, [r4, #0]	@ zero_extendqisi2
 2103 1078 38631FE5 		ldr	r6, .L360+168
 2104 107c 023083E0 		add	r3, r3, r2
 2105 1080 0030C5E5 		strb	r3, [r5, #0]
 2106 1084 FEFFFFEB 		bl	uart1_transmit
 2107 1088 0000D6E5 		ldrb	r0, [r6, #0]	@ zero_extendqisi2
 2108 108c 0030D4E5 		ldrb	r3, [r4, #0]	@ zero_extendqisi2
 2109 1090 033080E0 		add	r3, r0, r3
 2110 1094 0030C4E5 		strb	r3, [r4, #0]
 2111 1098 0030D5E5 		ldrb	r3, [r5, #0]	@ zero_extendqisi2
 2112 109c 0020D4E5 		ldrb	r2, [r4, #0]	@ zero_extendqisi2
 2113 10a0 023083E0 		add	r3, r3, r2
 2114 10a4 0030C5E5 		strb	r3, [r5, #0]
 2115 10a8 FEFFFFEB 		bl	uart1_transmit
 2116 10ac 0100D6E5 		ldrb	r0, [r6, #1]	@ zero_extendqisi2
 2117 10b0 0030D4E5 		ldrb	r3, [r4, #0]	@ zero_extendqisi2
 2118 10b4 033080E0 		add	r3, r0, r3
 2119 10b8 0030C4E5 		strb	r3, [r4, #0]
 2120 10bc 0030D5E5 		ldrb	r3, [r5, #0]	@ zero_extendqisi2
 2121 10c0 0020D4E5 		ldrb	r2, [r4, #0]	@ zero_extendqisi2
 2122 10c4 023083E0 		add	r3, r3, r2
 2123 10c8 0030C5E5 		strb	r3, [r5, #0]
 2124 10cc FEFFFFEB 		bl	uart1_transmit
 2125 10d0 0200D6E5 		ldrb	r0, [r6, #2]	@ zero_extendqisi2
 2126 10d4 0030D4E5 		ldrb	r3, [r4, #0]	@ zero_extendqisi2
 2127 10d8 033080E0 		add	r3, r0, r3
 2128 10dc 0030C4E5 		strb	r3, [r4, #0]
 2129 10e0 0030D5E5 		ldrb	r3, [r5, #0]	@ zero_extendqisi2
 2130 10e4 0020D4E5 		ldrb	r2, [r4, #0]	@ zero_extendqisi2
 2131 10e8 023083E0 		add	r3, r3, r2
 2132 10ec 0030C5E5 		strb	r3, [r5, #0]
 2133 10f0 FEFFFFEB 		bl	uart1_transmit
 2134 10f4 0300D6E5 		ldrb	r0, [r6, #3]	@ zero_extendqisi2
 2135 10f8 0030D4E5 		ldrb	r3, [r4, #0]	@ zero_extendqisi2
 2136 10fc 033080E0 		add	r3, r0, r3
 2137 1100 0030C4E5 		strb	r3, [r4, #0]
 2138 1104 0030D5E5 		ldrb	r3, [r5, #0]	@ zero_extendqisi2
 2139 1108 0020D4E5 		ldrb	r2, [r4, #0]	@ zero_extendqisi2
 2140 110c 023083E0 		add	r3, r3, r2
 2141 1110 0030C5E5 		strb	r3, [r5, #0]
 2142 1114 FEFFFFEB 		bl	uart1_transmit
 2143 1118 29005BE5 		ldrb	r0, [fp, #-41]	@ zero_extendqisi2
 2144 111c 0030D4E5 		ldrb	r3, [r4, #0]	@ zero_extendqisi2
 2145 1120 033080E0 		add	r3, r0, r3
 2146 1124 0030C4E5 		strb	r3, [r4, #0]
 2147 1128 0030D5E5 		ldrb	r3, [r5, #0]	@ zero_extendqisi2
 2148 112c 0020D4E5 		ldrb	r2, [r4, #0]	@ zero_extendqisi2
 2149 1130 023083E0 		add	r3, r3, r2
 2150 1134 0030C5E5 		strb	r3, [r5, #0]
 2151 1138 FEFFFFEB 		bl	uart1_transmit
 2152 113c F8331FE5 		ldr	r3, .L360+172
 2153 1140 0000D3E5 		ldrb	r0, [r3, #0]	@ zero_extendqisi2
 2154              	.L335:
 2155 1144 0030D4E5 		ldrb	r3, [r4, #0]	@ zero_extendqisi2
 2156 1148 033080E0 		add	r3, r0, r3
 2157 114c 0030C4E5 		strb	r3, [r4, #0]
 2158 1150 0030D5E5 		ldrb	r3, [r5, #0]	@ zero_extendqisi2
 2159 1154 0020D4E5 		ldrb	r2, [r4, #0]	@ zero_extendqisi2
 2160 1158 023083E0 		add	r3, r3, r2
 2161 115c 0030C5E5 		strb	r3, [r5, #0]
 2162 1160 FEFFFFEB 		bl	uart1_transmit
 2163 1164 0000D4E5 		ldrb	r0, [r4, #0]	@ zero_extendqisi2
 2164 1168 FEFFFFEB 		bl	uart1_transmit
 2165 116c 0000D5E5 		ldrb	r0, [r5, #0]	@ zero_extendqisi2
 2166 1170 FEFFFFEB 		bl	uart1_transmit
 2167 1174 600400EA 		b	.L80
 2168              	.L82:
 2169 1178 D4231FE5 		ldr	r2, .L360+268
 2170 117c 0030D2E5 		ldrb	r3, [r2, #0]	@ zero_extendqisi2
 2171 1180 013083E2 		add	r3, r3, #1
 2172 1184 0030C2E5 		strb	r3, [r2, #0]
 2173              	.L80:
 2174 1188 0030DAE5 		ldrb	r3, [sl, #0]	@ zero_extendqisi2
 2175 118c 300053E3 		cmp	r3, #48
 2176 1190 D104001A 		bne	.L88
 2177 1194 4C341FE5 		ldr	r3, .L360+176
 2178 1198 0030D3E5 		ldrb	r3, [r3, #0]	@ zero_extendqisi2
 2179 119c 000053E3 		cmp	r3, #0
 2180 11a0 0006000A 		beq	.L92
 2181 11a4 1200A0E3 		mov	r0, #18
 2182 11a8 FEFFFFEB 		bl	uart1_check_free_space
 2183 11ac FF0010E3 		tst	r0, #255
 2184 11b0 FC05000A 		beq	.L94
 2185 11b4 04141FE5 		ldr	r1, .L360+280
 2186 11b8 04C41FE5 		ldr	ip, .L360+284
 2187 11bc B030D1E1 		ldrh	r3, [r1, #0]
 2188 11c0 B020DCE1 		ldrh	r2, [ip, #0]
 2189 11c4 123083E2 		add	r3, r3, #18
 2190 11c8 012082E2 		add	r2, r2, #1
 2191 11cc B030C1E1 		strh	r3, [r1, #0]	@ movhi 
 2192 11d0 B020CCE1 		strh	r2, [ip, #0]	@ movhi 
 2193 11d4 9900A0E3 		mov	r0, #153
 2194 11d8 20441FE5 		ldr	r4, .L360+288
 2195 11dc FEFFFFEB 		bl	uart1_transmit
 2196 11e0 1200A0E3 		mov	r0, #18
 2197 11e4 28541FE5 		ldr	r5, .L360+292
 2198 11e8 FEFFFFEB 		bl	uart1_transmit
 2199 11ec 1630A0E3 		mov	r3, #22
 2200 11f0 0030C4E5 		strb	r3, [r4, #0]
 2201 11f4 123083E2 		add	r3, r3, #18
 2202 11f8 0400A0E3 		mov	r0, #4
 2203 11fc 0030C5E5 		strb	r3, [r5, #0]
 2204 1200 FEFFFFEB 		bl	uart1_transmit
 2205 1204 0030D4E5 		ldrb	r3, [r4, #0]	@ zero_extendqisi2
 2206 1208 153083E2 		add	r3, r3, #21
 2207 120c 0030C4E5 		strb	r3, [r4, #0]
 2208 1210 0030D5E5 		ldrb	r3, [r5, #0]	@ zero_extendqisi2
 2209 1214 0020D4E5 		ldrb	r2, [r4, #0]	@ zero_extendqisi2
 2210 1218 CC641FE5 		ldr	r6, .L360+180
 2211 121c 023083E0 		add	r3, r3, r2
 2212 1220 1500A0E3 		mov	r0, #21
 2213 1224 0030C5E5 		strb	r3, [r5, #0]
 2214 1228 FEFFFFEB 		bl	uart1_transmit
 2215 122c 0000D6E5 		ldrb	r0, [r6, #0]	@ zero_extendqisi2
 2216 1230 0030D4E5 		ldrb	r3, [r4, #0]	@ zero_extendqisi2
 2217 1234 033080E0 		add	r3, r0, r3
 2218 1238 0030C4E5 		strb	r3, [r4, #0]
 2219 123c 0030D5E5 		ldrb	r3, [r5, #0]	@ zero_extendqisi2
 2220 1240 0020D4E5 		ldrb	r2, [r4, #0]	@ zero_extendqisi2
 2221 1244 023083E0 		add	r3, r3, r2
 2222 1248 0030C5E5 		strb	r3, [r5, #0]
 2223 124c FEFFFFEB 		bl	uart1_transmit
 2224 1250 0100D6E5 		ldrb	r0, [r6, #1]	@ zero_extendqisi2
 2225 1254 0030D4E5 		ldrb	r3, [r4, #0]	@ zero_extendqisi2
 2226 1258 033080E0 		add	r3, r0, r3
 2227 125c 0030C4E5 		strb	r3, [r4, #0]
 2228 1260 0030D5E5 		ldrb	r3, [r5, #0]	@ zero_extendqisi2
 2229 1264 0020D4E5 		ldrb	r2, [r4, #0]	@ zero_extendqisi2
 2230 1268 023083E0 		add	r3, r3, r2
 2231 126c 0030C5E5 		strb	r3, [r5, #0]
 2232 1270 FEFFFFEB 		bl	uart1_transmit
 2233 1274 0200D6E5 		ldrb	r0, [r6, #2]	@ zero_extendqisi2
 2234 1278 0030D4E5 		ldrb	r3, [r4, #0]	@ zero_extendqisi2
 2235 127c 033080E0 		add	r3, r0, r3
 2236 1280 0030C4E5 		strb	r3, [r4, #0]
 2237 1284 0030D5E5 		ldrb	r3, [r5, #0]	@ zero_extendqisi2
 2238 1288 0020D4E5 		ldrb	r2, [r4, #0]	@ zero_extendqisi2
 2239 128c 023083E0 		add	r3, r3, r2
 2240 1290 0030C5E5 		strb	r3, [r5, #0]
 2241 1294 FEFFFFEB 		bl	uart1_transmit
 2242 1298 0300D6E5 		ldrb	r0, [r6, #3]	@ zero_extendqisi2
 2243 129c 0030D4E5 		ldrb	r3, [r4, #0]	@ zero_extendqisi2
 2244 12a0 033080E0 		add	r3, r0, r3
 2245 12a4 0030C4E5 		strb	r3, [r4, #0]
 2246 12a8 0030D5E5 		ldrb	r3, [r5, #0]	@ zero_extendqisi2
 2247 12ac 0020D4E5 		ldrb	r2, [r4, #0]	@ zero_extendqisi2
 2248 12b0 60651FE5 		ldr	r6, .L360+184
 2249 12b4 023083E0 		add	r3, r3, r2
 2250 12b8 0030C5E5 		strb	r3, [r5, #0]
 2251 12bc FEFFFFEB 		bl	uart1_transmit
 2252 12c0 0000D6E5 		ldrb	r0, [r6, #0]	@ zero_extendqisi2
 2253 12c4 0030D4E5 		ldrb	r3, [r4, #0]	@ zero_extendqisi2
 2254 12c8 033080E0 		add	r3, r0, r3
 2255 12cc 0030C4E5 		strb	r3, [r4, #0]
 2256 12d0 0030D5E5 		ldrb	r3, [r5, #0]	@ zero_extendqisi2
 2257 12d4 0020D4E5 		ldrb	r2, [r4, #0]	@ zero_extendqisi2
 2258 12d8 023083E0 		add	r3, r3, r2
 2259 12dc 0030C5E5 		strb	r3, [r5, #0]
 2260 12e0 FEFFFFEB 		bl	uart1_transmit
 2261 12e4 0100D6E5 		ldrb	r0, [r6, #1]	@ zero_extendqisi2
 2262 12e8 0030D4E5 		ldrb	r3, [r4, #0]	@ zero_extendqisi2
 2263 12ec 033080E0 		add	r3, r0, r3
 2264 12f0 0030C4E5 		strb	r3, [r4, #0]
 2265 12f4 0030D5E5 		ldrb	r3, [r5, #0]	@ zero_extendqisi2
 2266 12f8 0020D4E5 		ldrb	r2, [r4, #0]	@ zero_extendqisi2
 2267 12fc 023083E0 		add	r3, r3, r2
 2268 1300 0030C5E5 		strb	r3, [r5, #0]
 2269 1304 FEFFFFEB 		bl	uart1_transmit
 2270 1308 0200D6E5 		ldrb	r0, [r6, #2]	@ zero_extendqisi2
 2271 130c 0030D4E5 		ldrb	r3, [r4, #0]	@ zero_extendqisi2
 2272 1310 033080E0 		add	r3, r0, r3
 2273 1314 0030C4E5 		strb	r3, [r4, #0]
 2274 1318 0030D5E5 		ldrb	r3, [r5, #0]	@ zero_extendqisi2
 2275 131c 0020D4E5 		ldrb	r2, [r4, #0]	@ zero_extendqisi2
 2276 1320 023083E0 		add	r3, r3, r2
 2277 1324 0030C5E5 		strb	r3, [r5, #0]
 2278 1328 FEFFFFEB 		bl	uart1_transmit
 2279 132c 0300D6E5 		ldrb	r0, [r6, #3]	@ zero_extendqisi2
 2280 1330 0030D4E5 		ldrb	r3, [r4, #0]	@ zero_extendqisi2
 2281 1334 033080E0 		add	r3, r0, r3
 2282 1338 0030C4E5 		strb	r3, [r4, #0]
 2283 133c E8651FE5 		ldr	r6, .L360+188
 2284 1340 0030D5E5 		ldrb	r3, [r5, #0]	@ zero_extendqisi2
 2285 1344 0020D4E5 		ldrb	r2, [r4, #0]	@ zero_extendqisi2
 2286 1348 D00500EA 		b	.L336
 2287              	.L88:
 2288 134c 360053E3 		cmp	r3, #54
 2289 1350 0006001A 		bne	.L92
 2290 1354 2200A0E3 		mov	r0, #34
 2291 1358 FEFFFFEB 		bl	uart1_check_free_space
 2292 135c FF0010E3 		tst	r0, #255
 2293 1360 FC05000A 		beq	.L94
 2294 1364 B4151FE5 		ldr	r1, .L360+280
 2295 1368 B4C51FE5 		ldr	ip, .L360+284
 2296 136c B030D1E1 		ldrh	r3, [r1, #0]
 2297 1370 B020DCE1 		ldrh	r2, [ip, #0]
 2298 1374 223083E2 		add	r3, r3, #34
 2299 1378 012082E2 		add	r2, r2, #1
 2300 137c B030C1E1 		strh	r3, [r1, #0]	@ movhi 
 2301 1380 B020CCE1 		strh	r2, [ip, #0]	@ movhi 
 2302 1384 9900A0E3 		mov	r0, #153
 2303 1388 D0451FE5 		ldr	r4, .L360+288
 2304 138c FEFFFFEB 		bl	uart1_transmit
 2305 1390 2200A0E3 		mov	r0, #34
 2306 1394 D8551FE5 		ldr	r5, .L360+292
 2307 1398 FEFFFFEB 		bl	uart1_transmit
 2308 139c 2630A0E3 		mov	r3, #38
 2309 13a0 0030C4E5 		strb	r3, [r4, #0]
 2310 13a4 223083E2 		add	r3, r3, #34
 2311 13a8 0400A0E3 		mov	r0, #4
 2312 13ac 0030C5E5 		strb	r3, [r5, #0]
 2313 13b0 FEFFFFEB 		bl	uart1_transmit
 2314 13b4 0030D4E5 		ldrb	r3, [r4, #0]	@ zero_extendqisi2
 2315 13b8 103083E2 		add	r3, r3, #16
 2316 13bc 0030C4E5 		strb	r3, [r4, #0]
 2317 13c0 0030D5E5 		ldrb	r3, [r5, #0]	@ zero_extendqisi2
 2318 13c4 0020D4E5 		ldrb	r2, [r4, #0]	@ zero_extendqisi2
 2319 13c8 70661FE5 		ldr	r6, .L360+192
 2320 13cc 023083E0 		add	r3, r3, r2
 2321 13d0 1000A0E3 		mov	r0, #16
 2322 13d4 0030C5E5 		strb	r3, [r5, #0]
 2323 13d8 FEFFFFEB 		bl	uart1_transmit
 2324 13dc 0000D6E5 		ldrb	r0, [r6, #0]	@ zero_extendqisi2
 2325 13e0 0030D4E5 		ldrb	r3, [r4, #0]	@ zero_extendqisi2
 2326 13e4 033080E0 		add	r3, r0, r3
 2327 13e8 0030C4E5 		strb	r3, [r4, #0]
 2328 13ec 0030D5E5 		ldrb	r3, [r5, #0]	@ zero_extendqisi2
 2329 13f0 0020D4E5 		ldrb	r2, [r4, #0]	@ zero_extendqisi2
 2330 13f4 023083E0 		add	r3, r3, r2
 2331 13f8 0030C5E5 		strb	r3, [r5, #0]
 2332 13fc FEFFFFEB 		bl	uart1_transmit
 2333 1400 0100D6E5 		ldrb	r0, [r6, #1]	@ zero_extendqisi2
 2334 1404 0030D4E5 		ldrb	r3, [r4, #0]	@ zero_extendqisi2
 2335 1408 033080E0 		add	r3, r0, r3
 2336 140c 0030C4E5 		strb	r3, [r4, #0]
 2337 1410 0030D5E5 		ldrb	r3, [r5, #0]	@ zero_extendqisi2
 2338 1414 0020D4E5 		ldrb	r2, [r4, #0]	@ zero_extendqisi2
 2339 1418 023083E0 		add	r3, r3, r2
 2340 141c 0030C5E5 		strb	r3, [r5, #0]
 2341 1420 FEFFFFEB 		bl	uart1_transmit
 2342 1424 0200D6E5 		ldrb	r0, [r6, #2]	@ zero_extendqisi2
 2343 1428 0030D4E5 		ldrb	r3, [r4, #0]	@ zero_extendqisi2
 2344 142c 033080E0 		add	r3, r0, r3
 2345 1430 0030C4E5 		strb	r3, [r4, #0]
 2346 1434 0030D5E5 		ldrb	r3, [r5, #0]	@ zero_extendqisi2
 2347 1438 0020D4E5 		ldrb	r2, [r4, #0]	@ zero_extendqisi2
 2348 143c 023083E0 		add	r3, r3, r2
 2349 1440 0030C5E5 		strb	r3, [r5, #0]
 2350 1444 FEFFFFEB 		bl	uart1_transmit
 2351 1448 0300D6E5 		ldrb	r0, [r6, #3]	@ zero_extendqisi2
 2352 144c 0030D4E5 		ldrb	r3, [r4, #0]	@ zero_extendqisi2
 2353 1450 033080E0 		add	r3, r0, r3
 2354 1454 0030C4E5 		strb	r3, [r4, #0]
 2355 1458 0030D5E5 		ldrb	r3, [r5, #0]	@ zero_extendqisi2
 2356 145c 0020D4E5 		ldrb	r2, [r4, #0]	@ zero_extendqisi2
 2357 1460 04671FE5 		ldr	r6, .L360+196
 2358 1464 023083E0 		add	r3, r3, r2
 2359 1468 0030C5E5 		strb	r3, [r5, #0]
 2360 146c FEFFFFEB 		bl	uart1_transmit
 2361 1470 0000D6E5 		ldrb	r0, [r6, #0]	@ zero_extendqisi2
 2362 1474 0030D4E5 		ldrb	r3, [r4, #0]	@ zero_extendqisi2
 2363 1478 033080E0 		add	r3, r0, r3
 2364 147c 0030C4E5 		strb	r3, [r4, #0]
 2365 1480 0030D5E5 		ldrb	r3, [r5, #0]	@ zero_extendqisi2
 2366 1484 0020D4E5 		ldrb	r2, [r4, #0]	@ zero_extendqisi2
 2367 1488 023083E0 		add	r3, r3, r2
 2368 148c 0030C5E5 		strb	r3, [r5, #0]
 2369 1490 FEFFFFEB 		bl	uart1_transmit
 2370 1494 0100D6E5 		ldrb	r0, [r6, #1]	@ zero_extendqisi2
 2371 1498 0030D4E5 		ldrb	r3, [r4, #0]	@ zero_extendqisi2
 2372 149c 033080E0 		add	r3, r0, r3
 2373 14a0 0030C4E5 		strb	r3, [r4, #0]
 2374 14a4 0030D5E5 		ldrb	r3, [r5, #0]	@ zero_extendqisi2
 2375 14a8 0020D4E5 		ldrb	r2, [r4, #0]	@ zero_extendqisi2
 2376 14ac 023083E0 		add	r3, r3, r2
 2377 14b0 0030C5E5 		strb	r3, [r5, #0]
 2378 14b4 FEFFFFEB 		bl	uart1_transmit
 2379 14b8 0200D6E5 		ldrb	r0, [r6, #2]	@ zero_extendqisi2
 2380 14bc 0030D4E5 		ldrb	r3, [r4, #0]	@ zero_extendqisi2
 2381 14c0 033080E0 		add	r3, r0, r3
 2382 14c4 0030C4E5 		strb	r3, [r4, #0]
 2383 14c8 0030D5E5 		ldrb	r3, [r5, #0]	@ zero_extendqisi2
 2384 14cc 0020D4E5 		ldrb	r2, [r4, #0]	@ zero_extendqisi2
 2385 14d0 023083E0 		add	r3, r3, r2
 2386 14d4 0030C5E5 		strb	r3, [r5, #0]
 2387 14d8 FEFFFFEB 		bl	uart1_transmit
 2388 14dc 0300D6E5 		ldrb	r0, [r6, #3]	@ zero_extendqisi2
 2389 14e0 0030D4E5 		ldrb	r3, [r4, #0]	@ zero_extendqisi2
 2390 14e4 033080E0 		add	r3, r0, r3
 2391 14e8 0030C4E5 		strb	r3, [r4, #0]
 2392 14ec 0030D5E5 		ldrb	r3, [r5, #0]	@ zero_extendqisi2
 2393 14f0 0020D4E5 		ldrb	r2, [r4, #0]	@ zero_extendqisi2
 2394 14f4 94671FE5 		ldr	r6, .L360+200
 2395 14f8 023083E0 		add	r3, r3, r2
 2396 14fc 0030C5E5 		strb	r3, [r5, #0]
 2397 1500 FEFFFFEB 		bl	uart1_transmit
 2398 1504 0000D6E5 		ldrb	r0, [r6, #0]	@ zero_extendqisi2
 2399 1508 0030D4E5 		ldrb	r3, [r4, #0]	@ zero_extendqisi2
 2400 150c 033080E0 		add	r3, r0, r3
 2401 1510 0030C4E5 		strb	r3, [r4, #0]
 2402 1514 0030D5E5 		ldrb	r3, [r5, #0]	@ zero_extendqisi2
 2403 1518 0020D4E5 		ldrb	r2, [r4, #0]	@ zero_extendqisi2
 2404 151c 023083E0 		add	r3, r3, r2
 2405 1520 0030C5E5 		strb	r3, [r5, #0]
 2406 1524 FEFFFFEB 		bl	uart1_transmit
 2407 1528 0100D6E5 		ldrb	r0, [r6, #1]	@ zero_extendqisi2
 2408 152c 0030D4E5 		ldrb	r3, [r4, #0]	@ zero_extendqisi2
 2409 1530 033080E0 		add	r3, r0, r3
 2410 1534 0030C4E5 		strb	r3, [r4, #0]
 2411 1538 0030D5E5 		ldrb	r3, [r5, #0]	@ zero_extendqisi2
 2412 153c 0020D4E5 		ldrb	r2, [r4, #0]	@ zero_extendqisi2
 2413 1540 023083E0 		add	r3, r3, r2
 2414 1544 0030C5E5 		strb	r3, [r5, #0]
 2415 1548 FEFFFFEB 		bl	uart1_transmit
 2416 154c 0200D6E5 		ldrb	r0, [r6, #2]	@ zero_extendqisi2
 2417 1550 0030D4E5 		ldrb	r3, [r4, #0]	@ zero_extendqisi2
 2418 1554 033080E0 		add	r3, r0, r3
 2419 1558 0030C4E5 		strb	r3, [r4, #0]
 2420 155c 0030D5E5 		ldrb	r3, [r5, #0]	@ zero_extendqisi2
 2421 1560 0020D4E5 		ldrb	r2, [r4, #0]	@ zero_extendqisi2
 2422 1564 023083E0 		add	r3, r3, r2
 2423 1568 0030C5E5 		strb	r3, [r5, #0]
 2424 156c FEFFFFEB 		bl	uart1_transmit
 2425 1570 0300D6E5 		ldrb	r0, [r6, #3]	@ zero_extendqisi2
 2426 1574 0030D4E5 		ldrb	r3, [r4, #0]	@ zero_extendqisi2
 2427 1578 033080E0 		add	r3, r0, r3
 2428 157c 0030C4E5 		strb	r3, [r4, #0]
 2429 1580 0030D5E5 		ldrb	r3, [r5, #0]	@ zero_extendqisi2
 2430 1584 0020D4E5 		ldrb	r2, [r4, #0]	@ zero_extendqisi2
 2431 1588 24681FE5 		ldr	r6, .L360+204
 2432 158c 023083E0 		add	r3, r3, r2
 2433 1590 0030C5E5 		strb	r3, [r5, #0]
 2434 1594 FEFFFFEB 		bl	uart1_transmit
 2435 1598 0000D6E5 		ldrb	r0, [r6, #0]	@ zero_extendqisi2
 2436 159c 0030D4E5 		ldrb	r3, [r4, #0]	@ zero_extendqisi2
 2437 15a0 033080E0 		add	r3, r0, r3
 2438 15a4 0030C4E5 		strb	r3, [r4, #0]
 2439 15a8 0030D5E5 		ldrb	r3, [r5, #0]	@ zero_extendqisi2
 2440 15ac 0020D4E5 		ldrb	r2, [r4, #0]	@ zero_extendqisi2
 2441 15b0 023083E0 		add	r3, r3, r2
 2442 15b4 0030C5E5 		strb	r3, [r5, #0]
 2443 15b8 FEFFFFEB 		bl	uart1_transmit
 2444 15bc 0100D6E5 		ldrb	r0, [r6, #1]	@ zero_extendqisi2
 2445 15c0 0030D4E5 		ldrb	r3, [r4, #0]	@ zero_extendqisi2
 2446 15c4 033080E0 		add	r3, r0, r3
 2447 15c8 0030C4E5 		strb	r3, [r4, #0]
 2448 15cc 0030D5E5 		ldrb	r3, [r5, #0]	@ zero_extendqisi2
 2449 15d0 0020D4E5 		ldrb	r2, [r4, #0]	@ zero_extendqisi2
 2450 15d4 023083E0 		add	r3, r3, r2
 2451 15d8 0030C5E5 		strb	r3, [r5, #0]
 2452 15dc FEFFFFEB 		bl	uart1_transmit
 2453 15e0 0200D6E5 		ldrb	r0, [r6, #2]	@ zero_extendqisi2
 2454 15e4 0030D4E5 		ldrb	r3, [r4, #0]	@ zero_extendqisi2
 2455 15e8 033080E0 		add	r3, r0, r3
 2456 15ec 0030C4E5 		strb	r3, [r4, #0]
 2457 15f0 0030D5E5 		ldrb	r3, [r5, #0]	@ zero_extendqisi2
 2458 15f4 0020D4E5 		ldrb	r2, [r4, #0]	@ zero_extendqisi2
 2459 15f8 023083E0 		add	r3, r3, r2
 2460 15fc 0030C5E5 		strb	r3, [r5, #0]
 2461 1600 FEFFFFEB 		bl	uart1_transmit
 2462 1604 0300D6E5 		ldrb	r0, [r6, #3]	@ zero_extendqisi2
 2463 1608 0030D4E5 		ldrb	r3, [r4, #0]	@ zero_extendqisi2
 2464 160c 033080E0 		add	r3, r0, r3
 2465 1610 0030C4E5 		strb	r3, [r4, #0]
 2466 1614 0030D5E5 		ldrb	r3, [r5, #0]	@ zero_extendqisi2
 2467 1618 0020D4E5 		ldrb	r2, [r4, #0]	@ zero_extendqisi2
 2468 161c B4681FE5 		ldr	r6, .L360+208
 2469 1620 023083E0 		add	r3, r3, r2
 2470 1624 0030C5E5 		strb	r3, [r5, #0]
 2471 1628 FEFFFFEB 		bl	uart1_transmit
 2472 162c 0000D6E5 		ldrb	r0, [r6, #0]	@ zero_extendqisi2
 2473 1630 0030D4E5 		ldrb	r3, [r4, #0]	@ zero_extendqisi2
 2474 1634 033080E0 		add	r3, r0, r3
 2475 1638 0030C4E5 		strb	r3, [r4, #0]
 2476 163c 0030D5E5 		ldrb	r3, [r5, #0]	@ zero_extendqisi2
 2477 1640 0020D4E5 		ldrb	r2, [r4, #0]	@ zero_extendqisi2
 2478 1644 023083E0 		add	r3, r3, r2
 2479 1648 0030C5E5 		strb	r3, [r5, #0]
 2480 164c FEFFFFEB 		bl	uart1_transmit
 2481 1650 0100D6E5 		ldrb	r0, [r6, #1]	@ zero_extendqisi2
 2482 1654 0030D4E5 		ldrb	r3, [r4, #0]	@ zero_extendqisi2
 2483 1658 033080E0 		add	r3, r0, r3
 2484 165c 0030C4E5 		strb	r3, [r4, #0]
 2485 1660 0030D5E5 		ldrb	r3, [r5, #0]	@ zero_extendqisi2
 2486 1664 0020D4E5 		ldrb	r2, [r4, #0]	@ zero_extendqisi2
 2487 1668 023083E0 		add	r3, r3, r2
 2488 166c 0030C5E5 		strb	r3, [r5, #0]
 2489 1670 FEFFFFEB 		bl	uart1_transmit
 2490 1674 0200D6E5 		ldrb	r0, [r6, #2]	@ zero_extendqisi2
 2491 1678 0030D4E5 		ldrb	r3, [r4, #0]	@ zero_extendqisi2
 2492 167c 033080E0 		add	r3, r0, r3
 2493 1680 0030C4E5 		strb	r3, [r4, #0]
 2494 1684 0030D5E5 		ldrb	r3, [r5, #0]	@ zero_extendqisi2
 2495 1688 0020D4E5 		ldrb	r2, [r4, #0]	@ zero_extendqisi2
 2496 168c 023083E0 		add	r3, r3, r2
 2497 1690 0030C5E5 		strb	r3, [r5, #0]
 2498 1694 FEFFFFEB 		bl	uart1_transmit
 2499 1698 0300D6E5 		ldrb	r0, [r6, #3]	@ zero_extendqisi2
 2500 169c 0030D4E5 		ldrb	r3, [r4, #0]	@ zero_extendqisi2
 2501 16a0 033080E0 		add	r3, r0, r3
 2502 16a4 0030C4E5 		strb	r3, [r4, #0]
 2503 16a8 0030D5E5 		ldrb	r3, [r5, #0]	@ zero_extendqisi2
 2504 16ac 0020D4E5 		ldrb	r2, [r4, #0]	@ zero_extendqisi2
 2505 16b0 44691FE5 		ldr	r6, .L360+212
 2506 16b4 023083E0 		add	r3, r3, r2
 2507 16b8 0030C5E5 		strb	r3, [r5, #0]
 2508 16bc FEFFFFEB 		bl	uart1_transmit
 2509 16c0 0000D6E5 		ldrb	r0, [r6, #0]	@ zero_extendqisi2
 2510 16c4 0030D4E5 		ldrb	r3, [r4, #0]	@ zero_extendqisi2
 2511 16c8 033080E0 		add	r3, r0, r3
 2512 16cc 0030C4E5 		strb	r3, [r4, #0]
 2513 16d0 0030D5E5 		ldrb	r3, [r5, #0]	@ zero_extendqisi2
 2514 16d4 0020D4E5 		ldrb	r2, [r4, #0]	@ zero_extendqisi2
 2515 16d8 023083E0 		add	r3, r3, r2
 2516 16dc 0030C5E5 		strb	r3, [r5, #0]
 2517 16e0 FEFFFFEB 		bl	uart1_transmit
 2518 16e4 0100D6E5 		ldrb	r0, [r6, #1]	@ zero_extendqisi2
 2519 16e8 0030D4E5 		ldrb	r3, [r4, #0]	@ zero_extendqisi2
 2520 16ec 033080E0 		add	r3, r0, r3
 2521 16f0 0030C4E5 		strb	r3, [r4, #0]
 2522 16f4 0030D5E5 		ldrb	r3, [r5, #0]	@ zero_extendqisi2
 2523 16f8 0020D4E5 		ldrb	r2, [r4, #0]	@ zero_extendqisi2
 2524 16fc 023083E0 		add	r3, r3, r2
 2525 1700 0030C5E5 		strb	r3, [r5, #0]
 2526 1704 FEFFFFEB 		bl	uart1_transmit
 2527 1708 0200D6E5 		ldrb	r0, [r6, #2]	@ zero_extendqisi2
 2528 170c 0030D4E5 		ldrb	r3, [r4, #0]	@ zero_extendqisi2
 2529 1710 033080E0 		add	r3, r0, r3
 2530 1714 0030C4E5 		strb	r3, [r4, #0]
 2531 1718 0030D5E5 		ldrb	r3, [r5, #0]	@ zero_extendqisi2
 2532 171c 0020D4E5 		ldrb	r2, [r4, #0]	@ zero_extendqisi2
 2533 1720 023083E0 		add	r3, r3, r2
 2534 1724 0030C5E5 		strb	r3, [r5, #0]
 2535 1728 FEFFFFEB 		bl	uart1_transmit
 2536 172c 0300D6E5 		ldrb	r0, [r6, #3]	@ zero_extendqisi2
 2537 1730 0030D4E5 		ldrb	r3, [r4, #0]	@ zero_extendqisi2
 2538 1734 033080E0 		add	r3, r0, r3
 2539 1738 0030C4E5 		strb	r3, [r4, #0]
 2540 173c CC691FE5 		ldr	r6, .L360+216
 2541 1740 0030D5E5 		ldrb	r3, [r5, #0]	@ zero_extendqisi2
 2542 1744 0020D4E5 		ldrb	r2, [r4, #0]	@ zero_extendqisi2
 2543              	.L336:
 2544 1748 023083E0 		add	r3, r3, r2
 2545 174c 0030C5E5 		strb	r3, [r5, #0]
 2546 1750 FEFFFFEB 		bl	uart1_transmit
 2547 1754 0000D6E5 		ldrb	r0, [r6, #0]	@ zero_extendqisi2
 2548 1758 0030D4E5 		ldrb	r3, [r4, #0]	@ zero_extendqisi2
 2549 175c 033080E0 		add	r3, r0, r3
 2550 1760 0030C4E5 		strb	r3, [r4, #0]
 2551 1764 0030D5E5 		ldrb	r3, [r5, #0]	@ zero_extendqisi2
 2552 1768 0020D4E5 		ldrb	r2, [r4, #0]	@ zero_extendqisi2
 2553 176c 023083E0 		add	r3, r3, r2
 2554 1770 0030C5E5 		strb	r3, [r5, #0]
 2555 1774 FEFFFFEB 		bl	uart1_transmit
 2556 1778 0100D6E5 		ldrb	r0, [r6, #1]	@ zero_extendqisi2
 2557 177c 0030D4E5 		ldrb	r3, [r4, #0]	@ zero_extendqisi2
 2558 1780 033080E0 		add	r3, r0, r3
 2559 1784 0030C4E5 		strb	r3, [r4, #0]
 2560 1788 0030D5E5 		ldrb	r3, [r5, #0]	@ zero_extendqisi2
 2561 178c 0020D4E5 		ldrb	r2, [r4, #0]	@ zero_extendqisi2
 2562 1790 023083E0 		add	r3, r3, r2
 2563 1794 0030C5E5 		strb	r3, [r5, #0]
 2564 1798 FEFFFFEB 		bl	uart1_transmit
 2565 179c 0200D6E5 		ldrb	r0, [r6, #2]	@ zero_extendqisi2
 2566 17a0 0030D4E5 		ldrb	r3, [r4, #0]	@ zero_extendqisi2
 2567 17a4 033080E0 		add	r3, r0, r3
 2568 17a8 0030C4E5 		strb	r3, [r4, #0]
 2569 17ac 0030D5E5 		ldrb	r3, [r5, #0]	@ zero_extendqisi2
 2570 17b0 0020D4E5 		ldrb	r2, [r4, #0]	@ zero_extendqisi2
 2571 17b4 023083E0 		add	r3, r3, r2
 2572 17b8 0030C5E5 		strb	r3, [r5, #0]
 2573 17bc FEFFFFEB 		bl	uart1_transmit
 2574 17c0 0300D6E5 		ldrb	r0, [r6, #3]	@ zero_extendqisi2
 2575 17c4 0030D4E5 		ldrb	r3, [r4, #0]	@ zero_extendqisi2
 2576 17c8 033080E0 		add	r3, r0, r3
 2577 17cc 0030C4E5 		strb	r3, [r4, #0]
 2578 17d0 0030D5E5 		ldrb	r3, [r5, #0]	@ zero_extendqisi2
 2579 17d4 0020D4E5 		ldrb	r2, [r4, #0]	@ zero_extendqisi2
 2580 17d8 023083E0 		add	r3, r3, r2
 2581 17dc 0030C5E5 		strb	r3, [r5, #0]
 2582 17e0 FEFFFFEB 		bl	uart1_transmit
 2583 17e4 0000D4E5 		ldrb	r0, [r4, #0]	@ zero_extendqisi2
 2584 17e8 FEFFFFEB 		bl	uart1_transmit
 2585 17ec 0000D5E5 		ldrb	r0, [r5, #0]	@ zero_extendqisi2
 2586 17f0 FEFFFFEB 		bl	uart1_transmit
 2587 17f4 000600EA 		b	.L92
 2588              	.L94:
 2589 17f8 542A1FE5 		ldr	r2, .L360+268
 2590 17fc 0030D2E5 		ldrb	r3, [r2, #0]	@ zero_extendqisi2
 2591 1800 013083E2 		add	r3, r3, #1
 2592 1804 0030C2E5 		strb	r3, [r2, #0]
 2593              	.L92:
 2594 1808 0030D9E5 		ldrb	r3, [r9, #0]	@ zero_extendqisi2
 2595 180c 3C0053E3 		cmp	r3, #60
 2596 1810 A706001A 		bne	.L96
 2597 1814 A03A1FE5 		ldr	r3, .L360+220
 2598 1818 000093E5 		ldr	r0, [r3, #0]	@ float
 2599 181c 0030A0E3 		mov	r3, #0	@ movhi
 2600 1820 BC324BE1 		strh	r3, [fp, #-44]	@ movhi 
 2601 1824 FEFFFFEB 		bl	__fixsfsi
 2602 1828 BE024BE1 		strh	r0, [fp, #-46]	@ movhi 
 2603 182c 1400A0E3 		mov	r0, #20
 2604 1830 FEFFFFEB 		bl	uart1_check_free_space
 2605 1834 FF0010E3 		tst	r0, #255
 2606 1838 2C07000A 		beq	.L101
 2607 183c 8C1A1FE5 		ldr	r1, .L360+280
 2608 1840 8CCA1FE5 		ldr	ip, .L360+284
 2609 1844 B030D1E1 		ldrh	r3, [r1, #0]
 2610 1848 B020DCE1 		ldrh	r2, [ip, #0]
 2611 184c 143083E2 		add	r3, r3, #20
 2612 1850 012082E2 		add	r2, r2, #1
 2613 1854 B030C1E1 		strh	r3, [r1, #0]	@ movhi 
 2614 1858 B020CCE1 		strh	r2, [ip, #0]	@ movhi 
 2615 185c 9900A0E3 		mov	r0, #153
 2616 1860 A84A1FE5 		ldr	r4, .L360+288
 2617 1864 FEFFFFEB 		bl	uart1_transmit
 2618 1868 1400A0E3 		mov	r0, #20
 2619 186c B05A1FE5 		ldr	r5, .L360+292
 2620 1870 FEFFFFEB 		bl	uart1_transmit
 2621 1874 1830A0E3 		mov	r3, #24
 2622 1878 0030C4E5 		strb	r3, [r4, #0]
 2623 187c 143083E2 		add	r3, r3, #20
 2624 1880 0400A0E3 		mov	r0, #4
 2625 1884 0030C5E5 		strb	r3, [r5, #0]
 2626 1888 FEFFFFEB 		bl	uart1_transmit
 2627 188c 0030D4E5 		ldrb	r3, [r4, #0]	@ zero_extendqisi2
 2628 1890 0C3083E2 		add	r3, r3, #12
 2629 1894 0030C4E5 		strb	r3, [r4, #0]
 2630 1898 0030D5E5 		ldrb	r3, [r5, #0]	@ zero_extendqisi2
 2631 189c 0020D4E5 		ldrb	r2, [r4, #0]	@ zero_extendqisi2
 2632 18a0 286B1FE5 		ldr	r6, .L360+224
 2633 18a4 023083E0 		add	r3, r3, r2
 2634 18a8 0C00A0E3 		mov	r0, #12
 2635 18ac 0030C5E5 		strb	r3, [r5, #0]
 2636 18b0 FEFFFFEB 		bl	uart1_transmit
 2637 18b4 0000D6E5 		ldrb	r0, [r6, #0]	@ zero_extendqisi2
 2638 18b8 0030D4E5 		ldrb	r3, [r4, #0]	@ zero_extendqisi2
 2639 18bc 033080E0 		add	r3, r0, r3
 2640 18c0 0030C4E5 		strb	r3, [r4, #0]
 2641 18c4 0030D5E5 		ldrb	r3, [r5, #0]	@ zero_extendqisi2
 2642 18c8 0020D4E5 		ldrb	r2, [r4, #0]	@ zero_extendqisi2
 2643 18cc 023083E0 		add	r3, r3, r2
 2644 18d0 0030C5E5 		strb	r3, [r5, #0]
 2645 18d4 FEFFFFEB 		bl	uart1_transmit
 2646 18d8 0100D6E5 		ldrb	r0, [r6, #1]	@ zero_extendqisi2
 2647 18dc 0030D4E5 		ldrb	r3, [r4, #0]	@ zero_extendqisi2
 2648 18e0 033080E0 		add	r3, r0, r3
 2649 18e4 0030C4E5 		strb	r3, [r4, #0]
 2650 18e8 0030D5E5 		ldrb	r3, [r5, #0]	@ zero_extendqisi2
 2651 18ec 0020D4E5 		ldrb	r2, [r4, #0]	@ zero_extendqisi2
 2652 18f0 023083E0 		add	r3, r3, r2
 2653 18f4 0030C5E5 		strb	r3, [r5, #0]
 2654 18f8 FEFFFFEB 		bl	uart1_transmit
 2655 18fc 803B1FE5 		ldr	r3, .L360+228
 2656 1900 0000D3E5 		ldrb	r0, [r3, #0]	@ zero_extendqisi2
 2657 1904 0030D4E5 		ldrb	r3, [r4, #0]	@ zero_extendqisi2
 2658 1908 033080E0 		add	r3, r0, r3
 2659 190c 0030C4E5 		strb	r3, [r4, #0]
 2660 1910 0030D5E5 		ldrb	r3, [r5, #0]	@ zero_extendqisi2
 2661 1914 0020D4E5 		ldrb	r2, [r4, #0]	@ zero_extendqisi2
 2662 1918 023083E0 		add	r3, r3, r2
 2663 191c 0030C5E5 		strb	r3, [r5, #0]
 2664 1920 FEFFFFEB 		bl	uart1_transmit
 2665 1924 2C005BE5 		ldrb	r0, [fp, #-44]	@ zero_extendqisi2
 2666 1928 0030D4E5 		ldrb	r3, [r4, #0]	@ zero_extendqisi2
 2667 192c 033080E0 		add	r3, r0, r3
 2668 1930 0030C4E5 		strb	r3, [r4, #0]
 2669 1934 0030D5E5 		ldrb	r3, [r5, #0]	@ zero_extendqisi2
 2670 1938 0020D4E5 		ldrb	r2, [r4, #0]	@ zero_extendqisi2
 2671 193c 023083E0 		add	r3, r3, r2
 2672 1940 0030C5E5 		strb	r3, [r5, #0]
 2673 1944 FEFFFFEB 		bl	uart1_transmit
 2674 1948 2B005BE5 		ldrb	r0, [fp, #-43]	@ zero_extendqisi2
 2675 194c 0030D4E5 		ldrb	r3, [r4, #0]	@ zero_extendqisi2
 2676 1950 033080E0 		add	r3, r0, r3
 2677 1954 0030C4E5 		strb	r3, [r4, #0]
 2678 1958 0030D5E5 		ldrb	r3, [r5, #0]	@ zero_extendqisi2
 2679 195c 0020D4E5 		ldrb	r2, [r4, #0]	@ zero_extendqisi2
 2680 1960 E06B1FE5 		ldr	r6, .L360+232
 2681 1964 023083E0 		add	r3, r3, r2
 2682 1968 0030C5E5 		strb	r3, [r5, #0]
 2683 196c FEFFFFEB 		bl	uart1_transmit
 2684 1970 0000D6E5 		ldrb	r0, [r6, #0]	@ zero_extendqisi2
 2685 1974 0030D4E5 		ldrb	r3, [r4, #0]	@ zero_extendqisi2
 2686 1978 033080E0 		add	r3, r0, r3
 2687 197c 0030C4E5 		strb	r3, [r4, #0]
 2688 1980 0030D5E5 		ldrb	r3, [r5, #0]	@ zero_extendqisi2
 2689 1984 0020D4E5 		ldrb	r2, [r4, #0]	@ zero_extendqisi2
 2690 1988 023083E0 		add	r3, r3, r2
 2691 198c 0030C5E5 		strb	r3, [r5, #0]
 2692 1990 FEFFFFEB 		bl	uart1_transmit
 2693 1994 0100D6E5 		ldrb	r0, [r6, #1]	@ zero_extendqisi2
 2694 1998 0030D4E5 		ldrb	r3, [r4, #0]	@ zero_extendqisi2
 2695 199c 033080E0 		add	r3, r0, r3
 2696 19a0 0030C4E5 		strb	r3, [r4, #0]
 2697 19a4 0030D5E5 		ldrb	r3, [r5, #0]	@ zero_extendqisi2
 2698 19a8 0020D4E5 		ldrb	r2, [r4, #0]	@ zero_extendqisi2
 2699 19ac 023083E0 		add	r3, r3, r2
 2700 19b0 0030C5E5 		strb	r3, [r5, #0]
 2701 19b4 FEFFFFEB 		bl	uart1_transmit
 2702 19b8 343C1FE5 		ldr	r3, .L360+236
 2703 19bc 0000D3E5 		ldrb	r0, [r3, #0]	@ zero_extendqisi2
 2704 19c0 0030D4E5 		ldrb	r3, [r4, #0]	@ zero_extendqisi2
 2705 19c4 033080E0 		add	r3, r0, r3
 2706 19c8 0030C4E5 		strb	r3, [r4, #0]
 2707 19cc 0030D5E5 		ldrb	r3, [r5, #0]	@ zero_extendqisi2
 2708 19d0 0020D4E5 		ldrb	r2, [r4, #0]	@ zero_extendqisi2
 2709 19d4 4C6C1FE5 		ldr	r6, .L360+240
 2710 19d8 023083E0 		add	r3, r3, r2
 2711 19dc 0030C5E5 		strb	r3, [r5, #0]
 2712 19e0 FEFFFFEB 		bl	uart1_transmit
 2713 19e4 0000D6E5 		ldrb	r0, [r6, #0]	@ zero_extendqisi2
 2714 19e8 0030D4E5 		ldrb	r3, [r4, #0]	@ zero_extendqisi2
 2715 19ec 033080E0 		add	r3, r0, r3
 2716 19f0 0030C4E5 		strb	r3, [r4, #0]
 2717 19f4 0030D5E5 		ldrb	r3, [r5, #0]	@ zero_extendqisi2
 2718 19f8 0020D4E5 		ldrb	r2, [r4, #0]	@ zero_extendqisi2
 2719 19fc 023083E0 		add	r3, r3, r2
 2720 1a00 0030C5E5 		strb	r3, [r5, #0]
 2721 1a04 FEFFFFEB 		bl	uart1_transmit
 2722 1a08 0100D6E5 		ldrb	r0, [r6, #1]	@ zero_extendqisi2
 2723 1a0c 0030D4E5 		ldrb	r3, [r4, #0]	@ zero_extendqisi2
 2724 1a10 033080E0 		add	r3, r0, r3
 2725 1a14 0030C4E5 		strb	r3, [r4, #0]
 2726 1a18 0030D5E5 		ldrb	r3, [r5, #0]	@ zero_extendqisi2
 2727 1a1c 0020D4E5 		ldrb	r2, [r4, #0]	@ zero_extendqisi2
 2728 1a20 8C6C1FE5 		ldr	r6, .L360+252
 2729 1a24 023083E0 		add	r3, r3, r2
 2730 1a28 0030C5E5 		strb	r3, [r5, #0]
 2731 1a2c FEFFFFEB 		bl	uart1_transmit
 2732 1a30 0000D6E5 		ldrb	r0, [r6, #0]	@ zero_extendqisi2
 2733 1a34 0030D4E5 		ldrb	r3, [r4, #0]	@ zero_extendqisi2
 2734 1a38 033080E0 		add	r3, r0, r3
 2735 1a3c 0030C4E5 		strb	r3, [r4, #0]
 2736 1a40 0030D5E5 		ldrb	r3, [r5, #0]	@ zero_extendqisi2
 2737 1a44 0020D4E5 		ldrb	r2, [r4, #0]	@ zero_extendqisi2
 2738 1a48 023083E0 		add	r3, r3, r2
 2739 1a4c 0030C5E5 		strb	r3, [r5, #0]
 2740 1a50 FEFFFFEB 		bl	uart1_transmit
 2741 1a54 0100D6E5 		ldrb	r0, [r6, #1]	@ zero_extendqisi2
 2742 1a58 0030D4E5 		ldrb	r3, [r4, #0]	@ zero_extendqisi2
 2743 1a5c 033080E0 		add	r3, r0, r3
 2744 1a60 0030C4E5 		strb	r3, [r4, #0]
 2745 1a64 0030D5E5 		ldrb	r3, [r5, #0]	@ zero_extendqisi2
 2746 1a68 0020D4E5 		ldrb	r2, [r4, #0]	@ zero_extendqisi2
 2747 1a6c 023083E0 		add	r3, r3, r2
 2748 1a70 0030C5E5 		strb	r3, [r5, #0]
 2749 1a74 FEFFFFEB 		bl	uart1_transmit
 2750 1a78 2E005BE5 		ldrb	r0, [fp, #-46]	@ zero_extendqisi2
 2751 1a7c 0030D4E5 		ldrb	r3, [r4, #0]	@ zero_extendqisi2
 2752 1a80 033080E0 		add	r3, r0, r3
 2753 1a84 0030C4E5 		strb	r3, [r4, #0]
 2754 1a88 0030D5E5 		ldrb	r3, [r5, #0]	@ zero_extendqisi2
 2755 1a8c 0020D4E5 		ldrb	r2, [r4, #0]	@ zero_extendqisi2
 2756 1a90 023083E0 		add	r3, r3, r2
 2757 1a94 0030C5E5 		strb	r3, [r5, #0]
 2758 1a98 FEFFFFEB 		bl	uart1_transmit
 2759 1a9c 2D005BE5 		ldrb	r0, [fp, #-45]	@ zero_extendqisi2
 2760 1aa0 1F0700EA 		b	.L337
 2761              	.L96:
 2762 1aa4 000053E3 		cmp	r3, #0
 2763 1aa8 3007001A 		bne	.L99
 2764 1aac 1000A0E3 		mov	r0, #16
 2765 1ab0 FEFFFFEB 		bl	uart1_check_free_space
 2766 1ab4 FF0010E3 		tst	r0, #255
 2767 1ab8 2C07000A 		beq	.L101
 2768 1abc 0C1D1FE5 		ldr	r1, .L360+280
 2769 1ac0 0CCD1FE5 		ldr	ip, .L360+284
 2770 1ac4 B030D1E1 		ldrh	r3, [r1, #0]
 2771 1ac8 B020DCE1 		ldrh	r2, [ip, #0]
 2772 1acc 103083E2 		add	r3, r3, #16
 2773 1ad0 012082E2 		add	r2, r2, #1
 2774 1ad4 B030C1E1 		strh	r3, [r1, #0]	@ movhi 
 2775 1ad8 B020CCE1 		strh	r2, [ip, #0]	@ movhi 
 2776 1adc 9900A0E3 		mov	r0, #153
 2777 1ae0 284D1FE5 		ldr	r4, .L360+288
 2778 1ae4 285D1FE5 		ldr	r5, .L360+292
 2779 1ae8 FEFFFFEB 		bl	uart1_transmit
 2780 1aec 1000A0E3 		mov	r0, #16
 2781 1af0 FEFFFFEB 		bl	uart1_transmit
 2782 1af4 2460A0E3 		mov	r6, #36
 2783 1af8 1430A0E3 		mov	r3, #20
 2784 1afc 0400A0E3 		mov	r0, #4
 2785 1b00 0030C4E5 		strb	r3, [r4, #0]
 2786 1b04 0060C5E5 		strb	r6, [r5, #0]
 2787 1b08 FEFFFFEB 		bl	uart1_transmit
 2788 1b0c 0030D4E5 		ldrb	r3, [r4, #0]	@ zero_extendqisi2
 2789 1b10 063083E0 		add	r3, r3, r6
 2790 1b14 0030C4E5 		strb	r3, [r4, #0]
 2791 1b18 0030D5E5 		ldrb	r3, [r5, #0]	@ zero_extendqisi2
 2792 1b1c 0020D4E5 		ldrb	r2, [r4, #0]	@ zero_extendqisi2
 2793 1b20 887D1FE5 		ldr	r7, .L360+256
 2794 1b24 023083E0 		add	r3, r3, r2
 2795 1b28 0600A0E1 		mov	r0, r6
 2796 1b2c 0030C5E5 		strb	r3, [r5, #0]
 2797 1b30 FEFFFFEB 		bl	uart1_transmit
 2798 1b34 0000D7E5 		ldrb	r0, [r7, #0]	@ zero_extendqisi2
 2799 1b38 0030D4E5 		ldrb	r3, [r4, #0]	@ zero_extendqisi2
 2800 1b3c 033080E0 		add	r3, r0, r3
 2801 1b40 0030C4E5 		strb	r3, [r4, #0]
 2802 1b44 0030D5E5 		ldrb	r3, [r5, #0]	@ zero_extendqisi2
 2803 1b48 0020D4E5 		ldrb	r2, [r4, #0]	@ zero_extendqisi2
 2804 1b4c 023083E0 		add	r3, r3, r2
 2805 1b50 0030C5E5 		strb	r3, [r5, #0]
 2806 1b54 FEFFFFEB 		bl	uart1_transmit
 2807 1b58 0100D7E5 		ldrb	r0, [r7, #1]	@ zero_extendqisi2
 2808 1b5c 0030D4E5 		ldrb	r3, [r4, #0]	@ zero_extendqisi2
 2809 1b60 033080E0 		add	r3, r0, r3
 2810 1b64 0030C4E5 		strb	r3, [r4, #0]
 2811 1b68 0030D5E5 		ldrb	r3, [r5, #0]	@ zero_extendqisi2
 2812 1b6c 0020D4E5 		ldrb	r2, [r4, #0]	@ zero_extendqisi2
 2813 1b70 D46D1FE5 		ldr	r6, .L360+260
 2814 1b74 023083E0 		add	r3, r3, r2
 2815 1b78 0030C5E5 		strb	r3, [r5, #0]
 2816 1b7c FEFFFFEB 		bl	uart1_transmit
 2817 1b80 0000D6E5 		ldrb	r0, [r6, #0]	@ zero_extendqisi2
 2818 1b84 0030D4E5 		ldrb	r3, [r4, #0]	@ zero_extendqisi2
 2819 1b88 033080E0 		add	r3, r0, r3
 2820 1b8c 0030C4E5 		strb	r3, [r4, #0]
 2821 1b90 0030D5E5 		ldrb	r3, [r5, #0]	@ zero_extendqisi2
 2822 1b94 0020D4E5 		ldrb	r2, [r4, #0]	@ zero_extendqisi2
 2823 1b98 023083E0 		add	r3, r3, r2
 2824 1b9c 0030C5E5 		strb	r3, [r5, #0]
 2825 1ba0 FEFFFFEB 		bl	uart1_transmit
 2826 1ba4 0100D6E5 		ldrb	r0, [r6, #1]	@ zero_extendqisi2
 2827 1ba8 0030D4E5 		ldrb	r3, [r4, #0]	@ zero_extendqisi2
 2828 1bac 033080E0 		add	r3, r0, r3
 2829 1bb0 0030C4E5 		strb	r3, [r4, #0]
 2830 1bb4 0030D5E5 		ldrb	r3, [r5, #0]	@ zero_extendqisi2
 2831 1bb8 0020D4E5 		ldrb	r2, [r4, #0]	@ zero_extendqisi2
 2832 1bbc 023083E0 		add	r3, r3, r2
 2833 1bc0 0030C5E5 		strb	r3, [r5, #0]
 2834 1bc4 FEFFFFEB 		bl	uart1_transmit
 2835 1bc8 0200D6E5 		ldrb	r0, [r6, #2]	@ zero_extendqisi2
 2836 1bcc 0030D4E5 		ldrb	r3, [r4, #0]	@ zero_extendqisi2
 2837 1bd0 033080E0 		add	r3, r0, r3
 2838 1bd4 0030C4E5 		strb	r3, [r4, #0]
 2839 1bd8 0030D5E5 		ldrb	r3, [r5, #0]	@ zero_extendqisi2
 2840 1bdc 0020D4E5 		ldrb	r2, [r4, #0]	@ zero_extendqisi2
 2841 1be0 023083E0 		add	r3, r3, r2
 2842 1be4 0030C5E5 		strb	r3, [r5, #0]
 2843 1be8 FEFFFFEB 		bl	uart1_transmit
 2844 1bec 0300D6E5 		ldrb	r0, [r6, #3]	@ zero_extendqisi2
 2845 1bf0 0030D4E5 		ldrb	r3, [r4, #0]	@ zero_extendqisi2
 2846 1bf4 033080E0 		add	r3, r0, r3
 2847 1bf8 0030C4E5 		strb	r3, [r4, #0]
 2848 1bfc 0030D5E5 		ldrb	r3, [r5, #0]	@ zero_extendqisi2
 2849 1c00 0020D4E5 		ldrb	r2, [r4, #0]	@ zero_extendqisi2
 2850 1c04 646E1FE5 		ldr	r6, .L360+264
 2851 1c08 023083E0 		add	r3, r3, r2
 2852 1c0c 0030C5E5 		strb	r3, [r5, #0]
 2853 1c10 FEFFFFEB 		bl	uart1_transmit
 2854 1c14 0000D6E5 		ldrb	r0, [r6, #0]	@ zero_extendqisi2
 2855 1c18 0030D4E5 		ldrb	r3, [r4, #0]	@ zero_extendqisi2
 2856 1c1c 033080E0 		add	r3, r0, r3
 2857 1c20 0030C4E5 		strb	r3, [r4, #0]
 2858 1c24 0030D5E5 		ldrb	r3, [r5, #0]	@ zero_extendqisi2
 2859 1c28 0020D4E5 		ldrb	r2, [r4, #0]	@ zero_extendqisi2
 2860 1c2c 023083E0 		add	r3, r3, r2
 2861 1c30 0030C5E5 		strb	r3, [r5, #0]
 2862 1c34 FEFFFFEB 		bl	uart1_transmit
 2863 1c38 0100D6E5 		ldrb	r0, [r6, #1]	@ zero_extendqisi2
 2864 1c3c 0030D4E5 		ldrb	r3, [r4, #0]	@ zero_extendqisi2
 2865 1c40 033080E0 		add	r3, r0, r3
 2866 1c44 0030C4E5 		strb	r3, [r4, #0]
 2867 1c48 0030D5E5 		ldrb	r3, [r5, #0]	@ zero_extendqisi2
 2868 1c4c 0020D4E5 		ldrb	r2, [r4, #0]	@ zero_extendqisi2
 2869 1c50 023083E0 		add	r3, r3, r2
 2870 1c54 0030C5E5 		strb	r3, [r5, #0]
 2871 1c58 FEFFFFEB 		bl	uart1_transmit
 2872 1c5c 0200D6E5 		ldrb	r0, [r6, #2]	@ zero_extendqisi2
 2873 1c60 0030D4E5 		ldrb	r3, [r4, #0]	@ zero_extendqisi2
 2874 1c64 033080E0 		add	r3, r0, r3
 2875 1c68 0030C4E5 		strb	r3, [r4, #0]
 2876 1c6c 0030D5E5 		ldrb	r3, [r5, #0]	@ zero_extendqisi2
 2877 1c70 0020D4E5 		ldrb	r2, [r4, #0]	@ zero_extendqisi2
 2878 1c74 023083E0 		add	r3, r3, r2
 2879 1c78 0030C5E5 		strb	r3, [r5, #0]
 2880 1c7c FEFFFFEB 		bl	uart1_transmit
 2881 1c80 0300D6E5 		ldrb	r0, [r6, #3]	@ zero_extendqisi2
 2882              	.L337:
 2883 1c84 0030D4E5 		ldrb	r3, [r4, #0]	@ zero_extendqisi2
 2884 1c88 033080E0 		add	r3, r0, r3
 2885 1c8c 0030C4E5 		strb	r3, [r4, #0]
 2886 1c90 0030D5E5 		ldrb	r3, [r5, #0]	@ zero_extendqisi2
 2887 1c94 0020D4E5 		ldrb	r2, [r4, #0]	@ zero_extendqisi2
 2888 1c98 023083E0 		add	r3, r3, r2
 2889 1c9c 0030C5E5 		strb	r3, [r5, #0]
 2890 1ca0 FEFFFFEB 		bl	uart1_transmit
 2891 1ca4 0000D4E5 		ldrb	r0, [r4, #0]	@ zero_extendqisi2
 2892 1ca8 FEFFFFEB 		bl	uart1_transmit
 2893 1cac 0000D5E5 		ldrb	r0, [r5, #0]	@ zero_extendqisi2
 2894 1cb0 FEFFFFEB 		bl	uart1_transmit
 2895 1cb4 300700EA 		b	.L99
 2896              	.L101:
 2897 1cb8 142F1FE5 		ldr	r2, .L360+268
 2898 1cbc 0030D2E5 		ldrb	r3, [r2, #0]	@ zero_extendqisi2
 2899 1cc0 013083E2 		add	r3, r3, #1
 2900 1cc4 0030C2E5 		strb	r3, [r2, #0]
 2901              	.L99:
 2902 1cc8 200F1FE5 		ldr	r0, .L360+272
 2903 1ccc 0030D0E5 		ldrb	r3, [r0, #0]	@ zero_extendqisi2
 2904 1cd0 060053E3 		cmp	r3, #6
 2905 1cd4 E707001A 		bne	.L103
 2906 1cd8 2C3F1FE5 		ldr	r3, .L360+276
 2907 1cdc 0030D3E5 		ldrb	r3, [r3, #0]	@ zero_extendqisi2
 2908 1ce0 000053E3 		cmp	r3, #0
 2909 1ce4 6E08000A 		beq	.L107
 2910 1ce8 1600A0E3 		mov	r0, #22
 2911 1cec FEFFFFEB 		bl	uart1_check_free_space
 2912 1cf0 FF0010E3 		tst	r0, #255
 2913 1cf4 6A08000A 		beq	.L109
 2914 1cf8 481F1FE5 		ldr	r1, .L360+280
 2915 1cfc 48CF1FE5 		ldr	ip, .L360+284
 2916 1d00 B030D1E1 		ldrh	r3, [r1, #0]
 2917 1d04 B020DCE1 		ldrh	r2, [ip, #0]
 2918 1d08 163083E2 		add	r3, r3, #22
 2919 1d0c 012082E2 		add	r2, r2, #1
 2920 1d10 B030C1E1 		strh	r3, [r1, #0]	@ movhi 
 2921 1d14 B020CCE1 		strh	r2, [ip, #0]	@ movhi 
 2922 1d18 1670A0E3 		mov	r7, #22
 2923 1d1c 9900A0E3 		mov	r0, #153
 2924 1d20 684F1FE5 		ldr	r4, .L360+288
 2925 1d24 FEFFFFEB 		bl	uart1_transmit
 2926 1d28 0700A0E1 		mov	r0, r7
 2927 1d2c 705F1FE5 		ldr	r5, .L360+292
 2928 1d30 FEFFFFEB 		bl	uart1_transmit
 2929 1d34 1A30A0E3 		mov	r3, #26
 2930 1d38 0030C4E5 		strb	r3, [r4, #0]
 2931 1d3c 073083E0 		add	r3, r3, r7
 2932 1d40 0400A0E3 		mov	r0, #4
 2933 1d44 0030C5E5 		strb	r3, [r5, #0]
 2934 1d48 FEFFFFEB 		bl	uart1_transmit
 2935 1d4c 0030D4E5 		ldrb	r3, [r4, #0]	@ zero_extendqisi2
 2936 1d50 073083E0 		add	r3, r3, r7
 2937 1d54 0030C4E5 		strb	r3, [r4, #0]
 2938 1d58 0030D5E5 		ldrb	r3, [r5, #0]	@ zero_extendqisi2
 2939 1d5c 0020D4E5 		ldrb	r2, [r4, #0]	@ zero_extendqisi2
 2940 1d60 A06F1FE5 		ldr	r6, .L360+296
 2941 1d64 023083E0 		add	r3, r3, r2
 2942 1d68 0700A0E1 		mov	r0, r7
 2943 1d6c 0030C5E5 		strb	r3, [r5, #0]
 2944 1d70 FEFFFFEB 		bl	uart1_transmit
 2945 1d74 0000D6E5 		ldrb	r0, [r6, #0]	@ zero_extendqisi2
 2946 1d78 0030D4E5 		ldrb	r3, [r4, #0]	@ zero_extendqisi2
 2947 1d7c 033080E0 		add	r3, r0, r3
 2948 1d80 0030C4E5 		strb	r3, [r4, #0]
 2949 1d84 0030D5E5 		ldrb	r3, [r5, #0]	@ zero_extendqisi2
 2950 1d88 0020D4E5 		ldrb	r2, [r4, #0]	@ zero_extendqisi2
 2951 1d8c 023083E0 		add	r3, r3, r2
 2952 1d90 0030C5E5 		strb	r3, [r5, #0]
 2953 1d94 FEFFFFEB 		bl	uart1_transmit
 2954 1d98 0100D6E5 		ldrb	r0, [r6, #1]	@ zero_extendqisi2
 2955 1d9c 0030D4E5 		ldrb	r3, [r4, #0]	@ zero_extendqisi2
 2956 1da0 033080E0 		add	r3, r0, r3
 2957 1da4 0030C4E5 		strb	r3, [r4, #0]
 2958 1da8 0030D5E5 		ldrb	r3, [r5, #0]	@ zero_extendqisi2
 2959 1dac 0020D4E5 		ldrb	r2, [r4, #0]	@ zero_extendqisi2
 2960 1db0 023083E0 		add	r3, r3, r2
 2961 1db4 0030C5E5 		strb	r3, [r5, #0]
 2962 1db8 FEFFFFEB 		bl	uart1_transmit
 2963 1dbc 0200D6E5 		ldrb	r0, [r6, #2]	@ zero_extendqisi2
 2964 1dc0 0030D4E5 		ldrb	r3, [r4, #0]	@ zero_extendqisi2
 2965 1dc4 033080E0 		add	r3, r0, r3
 2966 1dc8 0030C4E5 		strb	r3, [r4, #0]
 2967 1dcc 0030D5E5 		ldrb	r3, [r5, #0]	@ zero_extendqisi2
 2968 1dd0 0020D4E5 		ldrb	r2, [r4, #0]	@ zero_extendqisi2
 2969 1dd4 023083E0 		add	r3, r3, r2
 2970 1dd8 0030C5E5 		strb	r3, [r5, #0]
 2971 1ddc FEFFFFEB 		bl	uart1_transmit
 2972 1de0 0300D6E5 		ldrb	r0, [r6, #3]	@ zero_extendqisi2
 2973 1de4 0030D4E5 		ldrb	r3, [r4, #0]	@ zero_extendqisi2
 2974 1de8 033080E0 		add	r3, r0, r3
 2975 1dec 0030C4E5 		strb	r3, [r4, #0]
 2976 1df0 0030D5E5 		ldrb	r3, [r5, #0]	@ zero_extendqisi2
 2977 1df4 0020D4E5 		ldrb	r2, [r4, #0]	@ zero_extendqisi2
 2978 1df8 C06C9FE5 		ldr	r6, .L362
 2979 1dfc 023083E0 		add	r3, r3, r2
 2980 1e00 0030C5E5 		strb	r3, [r5, #0]
 2981 1e04 FEFFFFEB 		bl	uart1_transmit
 2982 1e08 0000D6E5 		ldrb	r0, [r6, #0]	@ zero_extendqisi2
 2983 1e0c 0030D4E5 		ldrb	r3, [r4, #0]	@ zero_extendqisi2
 2984 1e10 033080E0 		add	r3, r0, r3
 2985 1e14 0030C4E5 		strb	r3, [r4, #0]
 2986 1e18 0030D5E5 		ldrb	r3, [r5, #0]	@ zero_extendqisi2
 2987 1e1c 0020D4E5 		ldrb	r2, [r4, #0]	@ zero_extendqisi2
 2988 1e20 023083E0 		add	r3, r3, r2
 2989 1e24 0030C5E5 		strb	r3, [r5, #0]
 2990 1e28 FEFFFFEB 		bl	uart1_transmit
 2991 1e2c 0100D6E5 		ldrb	r0, [r6, #1]	@ zero_extendqisi2
 2992 1e30 0030D4E5 		ldrb	r3, [r4, #0]	@ zero_extendqisi2
 2993 1e34 033080E0 		add	r3, r0, r3
 2994 1e38 0030C4E5 		strb	r3, [r4, #0]
 2995 1e3c 0030D5E5 		ldrb	r3, [r5, #0]	@ zero_extendqisi2
 2996 1e40 0020D4E5 		ldrb	r2, [r4, #0]	@ zero_extendqisi2
 2997 1e44 023083E0 		add	r3, r3, r2
 2998 1e48 0030C5E5 		strb	r3, [r5, #0]
 2999 1e4c FEFFFFEB 		bl	uart1_transmit
 3000 1e50 0200D6E5 		ldrb	r0, [r6, #2]	@ zero_extendqisi2
 3001 1e54 0030D4E5 		ldrb	r3, [r4, #0]	@ zero_extendqisi2
 3002 1e58 033080E0 		add	r3, r0, r3
 3003 1e5c 0030C4E5 		strb	r3, [r4, #0]
 3004 1e60 0030D5E5 		ldrb	r3, [r5, #0]	@ zero_extendqisi2
 3005 1e64 0020D4E5 		ldrb	r2, [r4, #0]	@ zero_extendqisi2
 3006 1e68 023083E0 		add	r3, r3, r2
 3007 1e6c 0030C5E5 		strb	r3, [r5, #0]
 3008 1e70 FEFFFFEB 		bl	uart1_transmit
 3009 1e74 0300D6E5 		ldrb	r0, [r6, #3]	@ zero_extendqisi2
 3010 1e78 0030D4E5 		ldrb	r3, [r4, #0]	@ zero_extendqisi2
 3011 1e7c 033080E0 		add	r3, r0, r3
 3012 1e80 0030C4E5 		strb	r3, [r4, #0]
 3013 1e84 0030D5E5 		ldrb	r3, [r5, #0]	@ zero_extendqisi2
 3014 1e88 0020D4E5 		ldrb	r2, [r4, #0]	@ zero_extendqisi2
 3015 1e8c 306C9FE5 		ldr	r6, .L362+4
 3016 1e90 023083E0 		add	r3, r3, r2
 3017 1e94 0030C5E5 		strb	r3, [r5, #0]
 3018 1e98 FEFFFFEB 		bl	uart1_transmit
 3019 1e9c 0000D6E5 		ldrb	r0, [r6, #0]	@ zero_extendqisi2
 3020 1ea0 0030D4E5 		ldrb	r3, [r4, #0]	@ zero_extendqisi2
 3021 1ea4 033080E0 		add	r3, r0, r3
 3022 1ea8 0030C4E5 		strb	r3, [r4, #0]
 3023 1eac 0030D5E5 		ldrb	r3, [r5, #0]	@ zero_extendqisi2
 3024 1eb0 0020D4E5 		ldrb	r2, [r4, #0]	@ zero_extendqisi2
 3025 1eb4 023083E0 		add	r3, r3, r2
 3026 1eb8 0030C5E5 		strb	r3, [r5, #0]
 3027 1ebc FEFFFFEB 		bl	uart1_transmit
 3028 1ec0 0100D6E5 		ldrb	r0, [r6, #1]	@ zero_extendqisi2
 3029 1ec4 0030D4E5 		ldrb	r3, [r4, #0]	@ zero_extendqisi2
 3030 1ec8 033080E0 		add	r3, r0, r3
 3031 1ecc 0030C4E5 		strb	r3, [r4, #0]
 3032 1ed0 0030D5E5 		ldrb	r3, [r5, #0]	@ zero_extendqisi2
 3033 1ed4 0020D4E5 		ldrb	r2, [r4, #0]	@ zero_extendqisi2
 3034 1ed8 023083E0 		add	r3, r3, r2
 3035 1edc 0030C5E5 		strb	r3, [r5, #0]
 3036 1ee0 FEFFFFEB 		bl	uart1_transmit
 3037 1ee4 0200D6E5 		ldrb	r0, [r6, #2]	@ zero_extendqisi2
 3038 1ee8 0030D4E5 		ldrb	r3, [r4, #0]	@ zero_extendqisi2
 3039 1eec 033080E0 		add	r3, r0, r3
 3040 1ef0 0030C4E5 		strb	r3, [r4, #0]
 3041 1ef4 0030D5E5 		ldrb	r3, [r5, #0]	@ zero_extendqisi2
 3042 1ef8 0020D4E5 		ldrb	r2, [r4, #0]	@ zero_extendqisi2
 3043 1efc 023083E0 		add	r3, r3, r2
 3044 1f00 0030C5E5 		strb	r3, [r5, #0]
 3045 1f04 FEFFFFEB 		bl	uart1_transmit
 3046 1f08 0300D6E5 		ldrb	r0, [r6, #3]	@ zero_extendqisi2
 3047 1f0c 0030D4E5 		ldrb	r3, [r4, #0]	@ zero_extendqisi2
 3048 1f10 033080E0 		add	r3, r0, r3
 3049 1f14 0030C4E5 		strb	r3, [r4, #0]
 3050 1f18 0030D5E5 		ldrb	r3, [r5, #0]	@ zero_extendqisi2
 3051 1f1c 0020D4E5 		ldrb	r2, [r4, #0]	@ zero_extendqisi2
 3052 1f20 A06B9FE5 		ldr	r6, .L362+8
 3053 1f24 023083E0 		add	r3, r3, r2
 3054 1f28 0030C5E5 		strb	r3, [r5, #0]
 3055 1f2c FEFFFFEB 		bl	uart1_transmit
 3056 1f30 0000D6E5 		ldrb	r0, [r6, #0]	@ zero_extendqisi2
 3057 1f34 0030D4E5 		ldrb	r3, [r4, #0]	@ zero_extendqisi2
 3058 1f38 033080E0 		add	r3, r0, r3
 3059 1f3c 0030C4E5 		strb	r3, [r4, #0]
 3060 1f40 0030D5E5 		ldrb	r3, [r5, #0]	@ zero_extendqisi2
 3061 1f44 0020D4E5 		ldrb	r2, [r4, #0]	@ zero_extendqisi2
 3062 1f48 023083E0 		add	r3, r3, r2
 3063 1f4c 0030C5E5 		strb	r3, [r5, #0]
 3064 1f50 FEFFFFEB 		bl	uart1_transmit
 3065 1f54 0100D6E5 		ldrb	r0, [r6, #1]	@ zero_extendqisi2
 3066 1f58 0030D4E5 		ldrb	r3, [r4, #0]	@ zero_extendqisi2
 3067 1f5c 033080E0 		add	r3, r0, r3
 3068 1f60 0030C4E5 		strb	r3, [r4, #0]
 3069 1f64 0030D5E5 		ldrb	r3, [r5, #0]	@ zero_extendqisi2
 3070 1f68 0020D4E5 		ldrb	r2, [r4, #0]	@ zero_extendqisi2
 3071 1f6c 023083E0 		add	r3, r3, r2
 3072 1f70 0030C5E5 		strb	r3, [r5, #0]
 3073 1f74 FEFFFFEB 		bl	uart1_transmit
 3074 1f78 0200D6E5 		ldrb	r0, [r6, #2]	@ zero_extendqisi2
 3075 1f7c 0030D4E5 		ldrb	r3, [r4, #0]	@ zero_extendqisi2
 3076 1f80 033080E0 		add	r3, r0, r3
 3077 1f84 0030C4E5 		strb	r3, [r4, #0]
 3078 1f88 0030D5E5 		ldrb	r3, [r5, #0]	@ zero_extendqisi2
 3079 1f8c 0020D4E5 		ldrb	r2, [r4, #0]	@ zero_extendqisi2
 3080 1f90 023083E0 		add	r3, r3, r2
 3081 1f94 0030C5E5 		strb	r3, [r5, #0]
 3082 1f98 FEFFFFEB 		bl	uart1_transmit
 3083 1f9c 0300D6E5 		ldrb	r0, [r6, #3]	@ zero_extendqisi2
 3084 1fa0 5D0800EA 		b	.L338
 3085              	.L103:
 3086 1fa4 0C0053E3 		cmp	r3, #12
 3087 1fa8 6E08001A 		bne	.L107
 3088 1fac 1000A0E3 		mov	r0, #16
 3089 1fb0 FEFFFFEB 		bl	uart1_check_free_space
 3090 1fb4 FF0010E3 		tst	r0, #255
 3091 1fb8 6A08000A 		beq	.L109
 3092 1fbc C41B9FE5 		ldr	r1, .L362+200
 3093 1fc0 90CB9FE5 		ldr	ip, .L362+152
 3094 1fc4 B030D1E1 		ldrh	r3, [r1, #0]
 3095 1fc8 B020DCE1 		ldrh	r2, [ip, #0]
 3096 1fcc 103083E2 		add	r3, r3, #16
 3097 1fd0 012082E2 		add	r2, r2, #1
 3098 1fd4 B030C1E1 		strh	r3, [r1, #0]	@ movhi 
 3099 1fd8 B020CCE1 		strh	r2, [ip, #0]	@ movhi 
 3100 1fdc 9900A0E3 		mov	r0, #153
 3101 1fe0 744B9FE5 		ldr	r4, .L362+156
 3102 1fe4 FEFFFFEB 		bl	uart1_transmit
 3103 1fe8 1000A0E3 		mov	r0, #16
 3104 1fec 6C5B9FE5 		ldr	r5, .L362+160
 3105 1ff0 FEFFFFEB 		bl	uart1_transmit
 3106 1ff4 1430A0E3 		mov	r3, #20
 3107 1ff8 0030C4E5 		strb	r3, [r4, #0]
 3108 1ffc 103083E2 		add	r3, r3, #16
 3109 2000 0400A0E3 		mov	r0, #4
 3110 2004 0030C5E5 		strb	r3, [r5, #0]
 3111 2008 FEFFFFEB 		bl	uart1_transmit
 3112 200c 0030D4E5 		ldrb	r3, [r4, #0]	@ zero_extendqisi2
 3113 2010 073083E2 		add	r3, r3, #7
 3114 2014 0030C4E5 		strb	r3, [r4, #0]
 3115 2018 0030D5E5 		ldrb	r3, [r5, #0]	@ zero_extendqisi2
 3116 201c 0020D4E5 		ldrb	r2, [r4, #0]	@ zero_extendqisi2
 3117 2020 A46A9FE5 		ldr	r6, .L362+12
 3118 2024 023083E0 		add	r3, r3, r2
 3119 2028 0700A0E3 		mov	r0, #7
 3120 202c 0030C5E5 		strb	r3, [r5, #0]
 3121 2030 FEFFFFEB 		bl	uart1_transmit
 3122 2034 0000D6E5 		ldrb	r0, [r6, #0]	@ zero_extendqisi2
 3123 2038 0030D4E5 		ldrb	r3, [r4, #0]	@ zero_extendqisi2
 3124 203c 033080E0 		add	r3, r0, r3
 3125 2040 0030C4E5 		strb	r3, [r4, #0]
 3126 2044 0030D5E5 		ldrb	r3, [r5, #0]	@ zero_extendqisi2
 3127 2048 0020D4E5 		ldrb	r2, [r4, #0]	@ zero_extendqisi2
 3128 204c 023083E0 		add	r3, r3, r2
 3129 2050 0030C5E5 		strb	r3, [r5, #0]
 3130 2054 FEFFFFEB 		bl	uart1_transmit
 3131 2058 0100D6E5 		ldrb	r0, [r6, #1]	@ zero_extendqisi2
 3132 205c 0030D4E5 		ldrb	r3, [r4, #0]	@ zero_extendqisi2
 3133 2060 033080E0 		add	r3, r0, r3
 3134 2064 0030C4E5 		strb	r3, [r4, #0]
 3135 2068 0030D5E5 		ldrb	r3, [r5, #0]	@ zero_extendqisi2
 3136 206c 0020D4E5 		ldrb	r2, [r4, #0]	@ zero_extendqisi2
 3137 2070 023083E0 		add	r3, r3, r2
 3138 2074 0030C5E5 		strb	r3, [r5, #0]
 3139 2078 FEFFFFEB 		bl	uart1_transmit
 3140 207c 0200D6E5 		ldrb	r0, [r6, #2]	@ zero_extendqisi2
 3141 2080 0030D4E5 		ldrb	r3, [r4, #0]	@ zero_extendqisi2
 3142 2084 033080E0 		add	r3, r0, r3
 3143 2088 0030C4E5 		strb	r3, [r4, #0]
 3144 208c 0030D5E5 		ldrb	r3, [r5, #0]	@ zero_extendqisi2
 3145 2090 0020D4E5 		ldrb	r2, [r4, #0]	@ zero_extendqisi2
 3146 2094 023083E0 		add	r3, r3, r2
 3147 2098 0030C5E5 		strb	r3, [r5, #0]
 3148 209c FEFFFFEB 		bl	uart1_transmit
 3149 20a0 0300D6E5 		ldrb	r0, [r6, #3]	@ zero_extendqisi2
 3150 20a4 0030D4E5 		ldrb	r3, [r4, #0]	@ zero_extendqisi2
 3151 20a8 033080E0 		add	r3, r0, r3
 3152 20ac 0030C4E5 		strb	r3, [r4, #0]
 3153 20b0 0030D5E5 		ldrb	r3, [r5, #0]	@ zero_extendqisi2
 3154 20b4 0020D4E5 		ldrb	r2, [r4, #0]	@ zero_extendqisi2
 3155 20b8 023083E0 		add	r3, r3, r2
 3156 20bc 0030C5E5 		strb	r3, [r5, #0]
 3157 20c0 FEFFFFEB 		bl	uart1_transmit
 3158 20c4 1600D6E5 		ldrb	r0, [r6, #22]	@ zero_extendqisi2
 3159 20c8 0030D4E5 		ldrb	r3, [r4, #0]	@ zero_extendqisi2
 3160 20cc 033080E0 		add	r3, r0, r3
 3161 20d0 0030C4E5 		strb	r3, [r4, #0]
 3162 20d4 0030D5E5 		ldrb	r3, [r5, #0]	@ zero_extendqisi2
 3163 20d8 0020D4E5 		ldrb	r2, [r4, #0]	@ zero_extendqisi2
 3164 20dc 023083E0 		add	r3, r3, r2
 3165 20e0 0030C5E5 		strb	r3, [r5, #0]
 3166 20e4 FEFFFFEB 		bl	uart1_transmit
 3167 20e8 1700D6E5 		ldrb	r0, [r6, #23]	@ zero_extendqisi2
 3168 20ec 0030D4E5 		ldrb	r3, [r4, #0]	@ zero_extendqisi2
 3169 20f0 033080E0 		add	r3, r0, r3
 3170 20f4 0030C4E5 		strb	r3, [r4, #0]
 3171 20f8 0030D5E5 		ldrb	r3, [r5, #0]	@ zero_extendqisi2
 3172 20fc 0020D4E5 		ldrb	r2, [r4, #0]	@ zero_extendqisi2
 3173 2100 023083E0 		add	r3, r3, r2
 3174 2104 0030C5E5 		strb	r3, [r5, #0]
 3175 2108 FEFFFFEB 		bl	uart1_transmit
 3176 210c 1400D6E5 		ldrb	r0, [r6, #20]	@ zero_extendqisi2
 3177 2110 0030D4E5 		ldrb	r3, [r4, #0]	@ zero_extendqisi2
 3178 2114 033080E0 		add	r3, r0, r3
 3179 2118 0030C4E5 		strb	r3, [r4, #0]
 3180 211c 0030D5E5 		ldrb	r3, [r5, #0]	@ zero_extendqisi2
 3181 2120 0020D4E5 		ldrb	r2, [r4, #0]	@ zero_extendqisi2
 3182 2124 023083E0 		add	r3, r3, r2
 3183 2128 0030C5E5 		strb	r3, [r5, #0]
 3184 212c FEFFFFEB 		bl	uart1_transmit
 3185 2130 1500D6E5 		ldrb	r0, [r6, #21]	@ zero_extendqisi2
 3186 2134 0030D4E5 		ldrb	r3, [r4, #0]	@ zero_extendqisi2
 3187 2138 033080E0 		add	r3, r0, r3
 3188 213c 0030C4E5 		strb	r3, [r4, #0]
 3189 2140 0030D5E5 		ldrb	r3, [r5, #0]	@ zero_extendqisi2
 3190 2144 0020D4E5 		ldrb	r2, [r4, #0]	@ zero_extendqisi2
 3191 2148 023083E0 		add	r3, r3, r2
 3192 214c 0030C5E5 		strb	r3, [r5, #0]
 3193 2150 FEFFFFEB 		bl	uart1_transmit
 3194 2154 1800D6E5 		ldrb	r0, [r6, #24]	@ zero_extendqisi2
 3195 2158 0030D4E5 		ldrb	r3, [r4, #0]	@ zero_extendqisi2
 3196 215c 033080E0 		add	r3, r0, r3
 3197 2160 0030C4E5 		strb	r3, [r4, #0]
 3198 2164 0030D5E5 		ldrb	r3, [r5, #0]	@ zero_extendqisi2
 3199 2168 0020D4E5 		ldrb	r2, [r4, #0]	@ zero_extendqisi2
 3200 216c 023083E0 		add	r3, r3, r2
 3201 2170 0030C5E5 		strb	r3, [r5, #0]
 3202 2174 FEFFFFEB 		bl	uart1_transmit
 3203 2178 1900D6E5 		ldrb	r0, [r6, #25]	@ zero_extendqisi2
 3204              	.L338:
 3205 217c 0030D4E5 		ldrb	r3, [r4, #0]	@ zero_extendqisi2
 3206 2180 033080E0 		add	r3, r0, r3
 3207 2184 0030C4E5 		strb	r3, [r4, #0]
 3208 2188 0030D5E5 		ldrb	r3, [r5, #0]	@ zero_extendqisi2
 3209 218c 0020D4E5 		ldrb	r2, [r4, #0]	@ zero_extendqisi2
 3210 2190 023083E0 		add	r3, r3, r2
 3211 2194 0030C5E5 		strb	r3, [r5, #0]
 3212 2198 FEFFFFEB 		bl	uart1_transmit
 3213 219c 0000D4E5 		ldrb	r0, [r4, #0]	@ zero_extendqisi2
 3214 21a0 FEFFFFEB 		bl	uart1_transmit
 3215 21a4 0000D5E5 		ldrb	r0, [r5, #0]	@ zero_extendqisi2
 3216 21a8 FEFFFFEB 		bl	uart1_transmit
 3217 21ac 6E0800EA 		b	.L107
 3218              	.L109:
 3219 21b0 C4299FE5 		ldr	r2, .L362+188
 3220 21b4 0030D2E5 		ldrb	r3, [r2, #0]	@ zero_extendqisi2
 3221 21b8 013083E2 		add	r3, r3, #1
 3222 21bc 0030C2E5 		strb	r3, [r2, #0]
 3223              	.L107:
 3224 21c0 08299FE5 		ldr	r2, .L362+16
 3225 21c4 0030D2E5 		ldrb	r3, [r2, #0]	@ zero_extendqisi2
 3226 21c8 120053E3 		cmp	r3, #18
 3227 21cc 0C09001A 		bne	.L111
 3228 21d0 FC689FE5 		ldr	r6, .L362+20
 3229 21d4 0030D6E5 		ldrb	r3, [r6, #0]	@ zero_extendqisi2
 3230 21d8 0B0053E3 		cmp	r3, #11
 3231 21dc 0030A083 		movhi	r3, #0
 3232 21e0 0030C685 		strhib	r3, [r6, #0]
 3233 21e4 0030D6E5 		ldrb	r3, [r6, #0]	@ zero_extendqisi2
 3234 21e8 0B0053E3 		cmp	r3, #11
 3235 21ec 03F19F97 		ldrls	pc, [pc, r3, asl #2]
 3236 21f0 B00800EA 		b	.L132
 3237              		.p2align 2
 3238              	.L133:
 3239 21f4 24220000 		.word	.L114
 3240 21f8 2C220000 		.word	.L115
 3241 21fc 38220000 		.word	.L116
 3242 2200 40220000 		.word	.L117
 3243 2204 48220000 		.word	.L119
 3244 2208 50220000 		.word	.L120
 3245 220c 58220000 		.word	.L122
 3246 2210 60220000 		.word	.L124
 3247 2214 68220000 		.word	.L126
 3248 2218 88220000 		.word	.L128
 3249 221c B0220000 		.word	.L130
 3250 2220 BC220000 		.word	.L131
 3251              	.L114:
 3252 2224 AC389FE5 		ldr	r3, .L362+24
 3253 2228 8A0800EA 		b	.L349
 3254              	.L115:
 3255 222c A8389FE5 		ldr	r3, .L362+28
 3256              	.L349:
 3257 2230 003093E5 		ldr	r3, [r3, #0]	@ float
 3258 2234 B10800EA 		b	.L339
 3259              	.L116:
 3260 2238 A0389FE5 		ldr	r3, .L362+32
 3261 223c 8A0800EA 		b	.L349
 3262              	.L117:
 3263 2240 9C389FE5 		ldr	r3, .L362+36
 3264 2244 A10800EA 		b	.L353
 3265              	.L119:
 3266 2248 98389FE5 		ldr	r3, .L362+40
 3267 224c 8A0800EA 		b	.L349
 3268              	.L120:
 3269 2250 0C399FE5 		ldr	r3, .L362+164
 3270 2254 990800EA 		b	.L357
 3271              	.L122:
 3272 2258 8C389FE5 		ldr	r3, .L362+44
 3273 225c 990800EA 		b	.L357
 3274              	.L124:
 3275 2260 88389FE5 		ldr	r3, .L362+48
 3276 2264 990800EA 		b	.L357
 3277              	.L126:
 3278 2268 84389FE5 		ldr	r3, .L362+52
 3279              	.L357:
 3280 226c D040D3E1 		ldrsb	r4, [r3, #0]
 3281 2270 0400A0E1 		mov	r0, r4
 3282 2274 FEFFFFEB 		bl	__floatsisf
 3283 2278 000054E3 		cmp	r4, #0
 3284 227c BC189FB5 		ldrlt	r1, .L362+128
 3285 2280 A70800BA 		blt	.L348
 3286 2284 A80800EA 		b	.L129
 3287              	.L128:
 3288 2288 68389FE5 		ldr	r3, .L362+56
 3289              	.L353:
 3290 228c F040D3E1 		ldrsh	r4, [r3, #0]
 3291 2290 0400A0E1 		mov	r0, r4
 3292 2294 FEFFFFEB 		bl	__floatsisf
 3293 2298 000054E3 		cmp	r4, #0
 3294 229c A80800AA 		bge	.L129
 3295 22a0 54189FE5 		ldr	r1, .L362+60
 3296              	.L348:
 3297 22a4 FEFFFFEB 		bl	__addsf3
 3298              	.L129:
 3299 22a8 50000BE5 		str	r0, [fp, #-80]	@ float
 3300 22ac B20800EA 		b	.L113
 3301              	.L130:
 3302 22b0 14389FE5 		ldr	r3, .L362+12
 3303 22b4 083093E5 		ldr	r3, [r3, #8]	@ float
 3304 22b8 B10800EA 		b	.L339
 3305              	.L131:
 3306 22bc 08389FE5 		ldr	r3, .L362+12
 3307 22c0 0C3093E5 		ldr	r3, [r3, #12]	@ float
 3308 22c4 B10800EA 		b	.L339
 3309              	.L132:
 3310 22c8 0030A0E3 		mov	r3, #0
 3311              	.L339:
 3312 22cc 50300BE5 		str	r3, [fp, #-80]	@ float
 3313              	.L113:
 3314 22d0 0B00A0E3 		mov	r0, #11
 3315 22d4 FEFFFFEB 		bl	uart1_check_free_space
 3316 22d8 FF0010E3 		tst	r0, #255
 3317 22dc 98289F05 		ldreq	r2, .L362+188
 3318 22e0 0030D205 		ldreqb	r3, [r2, #0]	@ zero_extendqisi2
 3319 22e4 01308302 		addeq	r3, r3, #1
 3320 22e8 0030C205 		streqb	r3, [r2, #0]
 3321 22ec 0809000A 		beq	.L135
 3322 22f0 90189FE5 		ldr	r1, .L362+200
 3323 22f4 5CC89FE5 		ldr	ip, .L362+152
 3324 22f8 B030D1E1 		ldrh	r3, [r1, #0]
 3325 22fc B020DCE1 		ldrh	r2, [ip, #0]
 3326 2300 0B3083E2 		add	r3, r3, #11
 3327 2304 012082E2 		add	r2, r2, #1
 3328 2308 B030C1E1 		strh	r3, [r1, #0]	@ movhi 
 3329 230c B020CCE1 		strh	r2, [ip, #0]	@ movhi 
 3330 2310 9900A0E3 		mov	r0, #153
 3331 2314 40489FE5 		ldr	r4, .L362+156
 3332 2318 FEFFFFEB 		bl	uart1_transmit
 3333 231c 0B00A0E3 		mov	r0, #11
 3334 2320 38589FE5 		ldr	r5, .L362+160
 3335 2324 FEFFFFEB 		bl	uart1_transmit
 3336 2328 0F30A0E3 		mov	r3, #15
 3337 232c 0030C4E5 		strb	r3, [r4, #0]
 3338 2330 0B3083E2 		add	r3, r3, #11
 3339 2334 0400A0E3 		mov	r0, #4
 3340 2338 0030C5E5 		strb	r3, [r5, #0]
 3341 233c FEFFFFEB 		bl	uart1_transmit
 3342 2340 0030D4E5 		ldrb	r3, [r4, #0]	@ zero_extendqisi2
 3343 2344 1F3083E2 		add	r3, r3, #31
 3344 2348 0030C4E5 		strb	r3, [r4, #0]
 3345 234c 0030D5E5 		ldrb	r3, [r5, #0]	@ zero_extendqisi2
 3346 2350 0020D4E5 		ldrb	r2, [r4, #0]	@ zero_extendqisi2
 3347 2354 023083E0 		add	r3, r3, r2
 3348 2358 1F00A0E3 		mov	r0, #31
 3349 235c 0030C5E5 		strb	r3, [r5, #0]
 3350 2360 FEFFFFEB 		bl	uart1_transmit
 3351 2364 0000D6E5 		ldrb	r0, [r6, #0]	@ zero_extendqisi2
 3352 2368 0030D4E5 		ldrb	r3, [r4, #0]	@ zero_extendqisi2
 3353 236c 033080E0 		add	r3, r0, r3
 3354 2370 0030C4E5 		strb	r3, [r4, #0]
 3355 2374 0030D5E5 		ldrb	r3, [r5, #0]	@ zero_extendqisi2
 3356 2378 0020D4E5 		ldrb	r2, [r4, #0]	@ zero_extendqisi2
 3357 237c 023083E0 		add	r3, r3, r2
 3358 2380 0030C5E5 		strb	r3, [r5, #0]
 3359 2384 FEFFFFEB 		bl	uart1_transmit
 3360 2388 50005BE5 		ldrb	r0, [fp, #-80]	@ zero_extendqisi2
 3361 238c 0030D4E5 		ldrb	r3, [r4, #0]	@ zero_extendqisi2
 3362 2390 033080E0 		add	r3, r0, r3
 3363 2394 0030C4E5 		strb	r3, [r4, #0]
 3364 2398 0030D5E5 		ldrb	r3, [r5, #0]	@ zero_extendqisi2
 3365 239c 0020D4E5 		ldrb	r2, [r4, #0]	@ zero_extendqisi2
 3366 23a0 023083E0 		add	r3, r3, r2
 3367 23a4 0030C5E5 		strb	r3, [r5, #0]
 3368 23a8 FEFFFFEB 		bl	uart1_transmit
 3369 23ac 4F005BE5 		ldrb	r0, [fp, #-79]	@ zero_extendqisi2
 3370 23b0 0030D4E5 		ldrb	r3, [r4, #0]	@ zero_extendqisi2
 3371 23b4 033080E0 		add	r3, r0, r3
 3372 23b8 0030C4E5 		strb	r3, [r4, #0]
 3373 23bc 0030D5E5 		ldrb	r3, [r5, #0]	@ zero_extendqisi2
 3374 23c0 0020D4E5 		ldrb	r2, [r4, #0]	@ zero_extendqisi2
 3375 23c4 023083E0 		add	r3, r3, r2
 3376 23c8 0030C5E5 		strb	r3, [r5, #0]
 3377 23cc FEFFFFEB 		bl	uart1_transmit
 3378 23d0 4E005BE5 		ldrb	r0, [fp, #-78]	@ zero_extendqisi2
 3379 23d4 0030D4E5 		ldrb	r3, [r4, #0]	@ zero_extendqisi2
 3380 23d8 033080E0 		add	r3, r0, r3
 3381 23dc 0030C4E5 		strb	r3, [r4, #0]
 3382 23e0 0030D5E5 		ldrb	r3, [r5, #0]	@ zero_extendqisi2
 3383 23e4 0020D4E5 		ldrb	r2, [r4, #0]	@ zero_extendqisi2
 3384 23e8 023083E0 		add	r3, r3, r2
 3385 23ec 0030C5E5 		strb	r3, [r5, #0]
 3386 23f0 FEFFFFEB 		bl	uart1_transmit
 3387 23f4 4D005BE5 		ldrb	r0, [fp, #-77]	@ zero_extendqisi2
 3388 23f8 0030D4E5 		ldrb	r3, [r4, #0]	@ zero_extendqisi2
 3389 23fc 033080E0 		add	r3, r0, r3
 3390 2400 0030C4E5 		strb	r3, [r4, #0]
 3391 2404 0030D5E5 		ldrb	r3, [r5, #0]	@ zero_extendqisi2
 3392 2408 0020D4E5 		ldrb	r2, [r4, #0]	@ zero_extendqisi2
 3393 240c 023083E0 		add	r3, r3, r2
 3394 2410 0030C5E5 		strb	r3, [r5, #0]
 3395 2414 FEFFFFEB 		bl	uart1_transmit
 3396 2418 0000D4E5 		ldrb	r0, [r4, #0]	@ zero_extendqisi2
 3397 241c FEFFFFEB 		bl	uart1_transmit
 3398 2420 0000D5E5 		ldrb	r0, [r5, #0]	@ zero_extendqisi2
 3399 2424 FEFFFFEB 		bl	uart1_transmit
 3400              	.L135:
 3401 2428 A4269FE5 		ldr	r2, .L362+20
 3402 242c 0030D2E5 		ldrb	r3, [r2, #0]	@ zero_extendqisi2
 3403 2430 013083E2 		add	r3, r3, #1
 3404 2434 0030C2E5 		strb	r3, [r2, #0]
 3405              	.L111:
 3406 2438 C0069FE5 		ldr	r0, .L362+64
 3407 243c 0030D0E5 		ldrb	r3, [r0, #0]	@ zero_extendqisi2
 3408 2440 180053E3 		cmp	r3, #24
 3409 2444 A109001A 		bne	.L136
 3410 2448 1100A0E3 		mov	r0, #17
 3411 244c FEFFFFEB 		bl	uart1_check_free_space
 3412 2450 FF0010E3 		tst	r0, #255
 3413 2454 20279F05 		ldreq	r2, .L362+188
 3414 2458 0030D205 		ldreqb	r3, [r2, #0]	@ zero_extendqisi2
 3415 245c 01308302 		addeq	r3, r3, #1
 3416 2460 0030C205 		streqb	r3, [r2, #0]
 3417 2464 A109000A 		beq	.L136
 3418 2468 18179FE5 		ldr	r1, .L362+200
 3419 246c E4C69FE5 		ldr	ip, .L362+152
 3420 2470 B030D1E1 		ldrh	r3, [r1, #0]
 3421 2474 B020DCE1 		ldrh	r2, [ip, #0]
 3422 2478 113083E2 		add	r3, r3, #17
 3423 247c 012082E2 		add	r2, r2, #1
 3424 2480 B030C1E1 		strh	r3, [r1, #0]	@ movhi 
 3425 2484 B020CCE1 		strh	r2, [ip, #0]	@ movhi 
 3426 2488 1170A0E3 		mov	r7, #17
 3427 248c 9900A0E3 		mov	r0, #153
 3428 2490 C4469FE5 		ldr	r4, .L362+156
 3429 2494 FEFFFFEB 		bl	uart1_transmit
 3430 2498 0700A0E1 		mov	r0, r7
 3431 249c BC569FE5 		ldr	r5, .L362+160
 3432 24a0 FEFFFFEB 		bl	uart1_transmit
 3433 24a4 1530A0E3 		mov	r3, #21
 3434 24a8 0030C4E5 		strb	r3, [r4, #0]
 3435 24ac 073083E0 		add	r3, r3, r7
 3436 24b0 0400A0E3 		mov	r0, #4
 3437 24b4 0030C5E5 		strb	r3, [r5, #0]
 3438 24b8 FEFFFFEB 		bl	uart1_transmit
 3439 24bc 0030D4E5 		ldrb	r3, [r4, #0]	@ zero_extendqisi2
 3440 24c0 073083E0 		add	r3, r3, r7
 3441 24c4 0030C4E5 		strb	r3, [r4, #0]
 3442 24c8 0030D5E5 		ldrb	r3, [r5, #0]	@ zero_extendqisi2
 3443 24cc 0020D4E5 		ldrb	r2, [r4, #0]	@ zero_extendqisi2
 3444 24d0 2C669FE5 		ldr	r6, .L362+68
 3445 24d4 023083E0 		add	r3, r3, r2
 3446 24d8 0700A0E1 		mov	r0, r7
 3447 24dc 0030C5E5 		strb	r3, [r5, #0]
 3448 24e0 FEFFFFEB 		bl	uart1_transmit
 3449 24e4 0000D6E5 		ldrb	r0, [r6, #0]	@ zero_extendqisi2
 3450 24e8 0030D4E5 		ldrb	r3, [r4, #0]	@ zero_extendqisi2
 3451 24ec 033080E0 		add	r3, r0, r3
 3452 24f0 0030C4E5 		strb	r3, [r4, #0]
 3453 24f4 0030D5E5 		ldrb	r3, [r5, #0]	@ zero_extendqisi2
 3454 24f8 0020D4E5 		ldrb	r2, [r4, #0]	@ zero_extendqisi2
 3455 24fc 023083E0 		add	r3, r3, r2
 3456 2500 0030C5E5 		strb	r3, [r5, #0]
 3457 2504 FEFFFFEB 		bl	uart1_transmit
 3458 2508 0100D6E5 		ldrb	r0, [r6, #1]	@ zero_extendqisi2
 3459 250c 0030D4E5 		ldrb	r3, [r4, #0]	@ zero_extendqisi2
 3460 2510 033080E0 		add	r3, r0, r3
 3461 2514 0030C4E5 		strb	r3, [r4, #0]
 3462 2518 0030D5E5 		ldrb	r3, [r5, #0]	@ zero_extendqisi2
 3463 251c 0020D4E5 		ldrb	r2, [r4, #0]	@ zero_extendqisi2
 3464 2520 023083E0 		add	r3, r3, r2
 3465 2524 0030C5E5 		strb	r3, [r5, #0]
 3466 2528 FEFFFFEB 		bl	uart1_transmit
 3467 252c 0200D6E5 		ldrb	r0, [r6, #2]	@ zero_extendqisi2
 3468 2530 0030D4E5 		ldrb	r3, [r4, #0]	@ zero_extendqisi2
 3469 2534 033080E0 		add	r3, r0, r3
 3470 2538 0030C4E5 		strb	r3, [r4, #0]
 3471 253c 0030D5E5 		ldrb	r3, [r5, #0]	@ zero_extendqisi2
 3472 2540 0020D4E5 		ldrb	r2, [r4, #0]	@ zero_extendqisi2
 3473 2544 023083E0 		add	r3, r3, r2
 3474 2548 0030C5E5 		strb	r3, [r5, #0]
 3475 254c FEFFFFEB 		bl	uart1_transmit
 3476 2550 0300D6E5 		ldrb	r0, [r6, #3]	@ zero_extendqisi2
 3477 2554 0030D4E5 		ldrb	r3, [r4, #0]	@ zero_extendqisi2
 3478 2558 033080E0 		add	r3, r0, r3
 3479 255c 0030C4E5 		strb	r3, [r4, #0]
 3480 2560 0030D5E5 		ldrb	r3, [r5, #0]	@ zero_extendqisi2
 3481 2564 0020D4E5 		ldrb	r2, [r4, #0]	@ zero_extendqisi2
 3482 2568 98659FE5 		ldr	r6, .L362+72
 3483 256c 023083E0 		add	r3, r3, r2
 3484 2570 0030C5E5 		strb	r3, [r5, #0]
 3485 2574 FEFFFFEB 		bl	uart1_transmit
 3486 2578 0000D6E5 		ldrb	r0, [r6, #0]	@ zero_extendqisi2
 3487 257c 0030D4E5 		ldrb	r3, [r4, #0]	@ zero_extendqisi2
 3488 2580 033080E0 		add	r3, r0, r3
 3489 2584 0030C4E5 		strb	r3, [r4, #0]
 3490 2588 0030D5E5 		ldrb	r3, [r5, #0]	@ zero_extendqisi2
 3491 258c 0020D4E5 		ldrb	r2, [r4, #0]	@ zero_extendqisi2
 3492 2590 023083E0 		add	r3, r3, r2
 3493 2594 0030C5E5 		strb	r3, [r5, #0]
 3494 2598 FEFFFFEB 		bl	uart1_transmit
 3495 259c 0100D6E5 		ldrb	r0, [r6, #1]	@ zero_extendqisi2
 3496 25a0 0030D4E5 		ldrb	r3, [r4, #0]	@ zero_extendqisi2
 3497 25a4 033080E0 		add	r3, r0, r3
 3498 25a8 0030C4E5 		strb	r3, [r4, #0]
 3499 25ac 0030D5E5 		ldrb	r3, [r5, #0]	@ zero_extendqisi2
 3500 25b0 0020D4E5 		ldrb	r2, [r4, #0]	@ zero_extendqisi2
 3501 25b4 023083E0 		add	r3, r3, r2
 3502 25b8 0030C5E5 		strb	r3, [r5, #0]
 3503 25bc FEFFFFEB 		bl	uart1_transmit
 3504 25c0 0200D6E5 		ldrb	r0, [r6, #2]	@ zero_extendqisi2
 3505 25c4 0030D4E5 		ldrb	r3, [r4, #0]	@ zero_extendqisi2
 3506 25c8 033080E0 		add	r3, r0, r3
 3507 25cc 0030C4E5 		strb	r3, [r4, #0]
 3508 25d0 0030D5E5 		ldrb	r3, [r5, #0]	@ zero_extendqisi2
 3509 25d4 0020D4E5 		ldrb	r2, [r4, #0]	@ zero_extendqisi2
 3510 25d8 023083E0 		add	r3, r3, r2
 3511 25dc 0030C5E5 		strb	r3, [r5, #0]
 3512 25e0 FEFFFFEB 		bl	uart1_transmit
 3513 25e4 0300D6E5 		ldrb	r0, [r6, #3]	@ zero_extendqisi2
 3514 25e8 0030D4E5 		ldrb	r3, [r4, #0]	@ zero_extendqisi2
 3515 25ec 033080E0 		add	r3, r0, r3
 3516 25f0 0030C4E5 		strb	r3, [r4, #0]
 3517 25f4 0030D5E5 		ldrb	r3, [r5, #0]	@ zero_extendqisi2
 3518 25f8 0020D4E5 		ldrb	r2, [r4, #0]	@ zero_extendqisi2
 3519 25fc 08659FE5 		ldr	r6, .L362+76
 3520 2600 023083E0 		add	r3, r3, r2
 3521 2604 0030C5E5 		strb	r3, [r5, #0]
 3522 2608 FEFFFFEB 		bl	uart1_transmit
 3523 260c 0000D6E5 		ldrb	r0, [r6, #0]	@ zero_extendqisi2
 3524 2610 0030D4E5 		ldrb	r3, [r4, #0]	@ zero_extendqisi2
 3525 2614 033080E0 		add	r3, r0, r3
 3526 2618 0030C4E5 		strb	r3, [r4, #0]
 3527 261c 0030D5E5 		ldrb	r3, [r5, #0]	@ zero_extendqisi2
 3528 2620 0020D4E5 		ldrb	r2, [r4, #0]	@ zero_extendqisi2
 3529 2624 023083E0 		add	r3, r3, r2
 3530 2628 0030C5E5 		strb	r3, [r5, #0]
 3531 262c FEFFFFEB 		bl	uart1_transmit
 3532 2630 0100D6E5 		ldrb	r0, [r6, #1]	@ zero_extendqisi2
 3533 2634 0030D4E5 		ldrb	r3, [r4, #0]	@ zero_extendqisi2
 3534 2638 033080E0 		add	r3, r0, r3
 3535 263c 0030C4E5 		strb	r3, [r4, #0]
 3536 2640 0030D5E5 		ldrb	r3, [r5, #0]	@ zero_extendqisi2
 3537 2644 0020D4E5 		ldrb	r2, [r4, #0]	@ zero_extendqisi2
 3538 2648 023083E0 		add	r3, r3, r2
 3539 264c 0030C5E5 		strb	r3, [r5, #0]
 3540 2650 FEFFFFEB 		bl	uart1_transmit
 3541 2654 B4349FE5 		ldr	r3, .L362+80
 3542 2658 0000D3E5 		ldrb	r0, [r3, #0]	@ zero_extendqisi2
 3543 265c 0030D4E5 		ldrb	r3, [r4, #0]	@ zero_extendqisi2
 3544 2660 033080E0 		add	r3, r0, r3
 3545 2664 0030C4E5 		strb	r3, [r4, #0]
 3546 2668 0030D5E5 		ldrb	r3, [r5, #0]	@ zero_extendqisi2
 3547 266c 0020D4E5 		ldrb	r2, [r4, #0]	@ zero_extendqisi2
 3548 2670 023083E0 		add	r3, r3, r2
 3549 2674 0030C5E5 		strb	r3, [r5, #0]
 3550 2678 FEFFFFEB 		bl	uart1_transmit
 3551 267c 0000D4E5 		ldrb	r0, [r4, #0]	@ zero_extendqisi2
 3552 2680 FEFFFFEB 		bl	uart1_transmit
 3553 2684 0000D5E5 		ldrb	r0, [r5, #0]	@ zero_extendqisi2
 3554 2688 FEFFFFEB 		bl	uart1_transmit
 3555              	.L136:
 3556 268c 80249FE5 		ldr	r2, .L362+84
 3557 2690 0030D2E5 		ldrb	r3, [r2, #0]	@ zero_extendqisi2
 3558 2694 1E0053E3 		cmp	r3, #30
 3559 2698 EE09001A 		bne	.L139
 3560 269c 0B00A0E3 		mov	r0, #11
 3561 26a0 FEFFFFEB 		bl	uart1_check_free_space
 3562 26a4 FF0010E3 		tst	r0, #255
 3563 26a8 E10A000A 		beq	.L145
 3564 26ac D4149FE5 		ldr	r1, .L362+200
 3565 26b0 A0C49FE5 		ldr	ip, .L362+152
 3566 26b4 B030D1E1 		ldrh	r3, [r1, #0]
 3567 26b8 B020DCE1 		ldrh	r2, [ip, #0]
 3568 26bc 0B3083E2 		add	r3, r3, #11
 3569 26c0 012082E2 		add	r2, r2, #1
 3570 26c4 B030C1E1 		strh	r3, [r1, #0]	@ movhi 
 3571 26c8 B020CCE1 		strh	r2, [ip, #0]	@ movhi 
 3572 26cc 9900A0E3 		mov	r0, #153
 3573 26d0 84449FE5 		ldr	r4, .L362+156
 3574 26d4 FEFFFFEB 		bl	uart1_transmit
 3575 26d8 0B00A0E3 		mov	r0, #11
 3576 26dc 7C549FE5 		ldr	r5, .L362+160
 3577 26e0 FEFFFFEB 		bl	uart1_transmit
 3578 26e4 0F30A0E3 		mov	r3, #15
 3579 26e8 0030C4E5 		strb	r3, [r4, #0]
 3580 26ec 0B3083E2 		add	r3, r3, #11
 3581 26f0 0400A0E3 		mov	r0, #4
 3582 26f4 0030C5E5 		strb	r3, [r5, #0]
 3583 26f8 FEFFFFEB 		bl	uart1_transmit
 3584 26fc 0030D4E5 		ldrb	r3, [r4, #0]	@ zero_extendqisi2
 3585 2700 0E3083E2 		add	r3, r3, #14
 3586 2704 0030C4E5 		strb	r3, [r4, #0]
 3587 2708 0030D5E5 		ldrb	r3, [r5, #0]	@ zero_extendqisi2
 3588 270c 0020D4E5 		ldrb	r2, [r4, #0]	@ zero_extendqisi2
 3589 2710 00649FE5 		ldr	r6, .L362+88
 3590 2714 023083E0 		add	r3, r3, r2
 3591 2718 0E00A0E3 		mov	r0, #14
 3592 271c 0030C5E5 		strb	r3, [r5, #0]
 3593 2720 FEFFFFEB 		bl	uart1_transmit
 3594 2724 0000D6E5 		ldrb	r0, [r6, #0]	@ zero_extendqisi2
 3595 2728 0030D4E5 		ldrb	r3, [r4, #0]	@ zero_extendqisi2
 3596 272c 033080E0 		add	r3, r0, r3
 3597 2730 0030C4E5 		strb	r3, [r4, #0]
 3598 2734 0030D5E5 		ldrb	r3, [r5, #0]	@ zero_extendqisi2
 3599 2738 0020D4E5 		ldrb	r2, [r4, #0]	@ zero_extendqisi2
 3600 273c 023083E0 		add	r3, r3, r2
 3601 2740 0030C5E5 		strb	r3, [r5, #0]
 3602 2744 FEFFFFEB 		bl	uart1_transmit
 3603 2748 0100D6E5 		ldrb	r0, [r6, #1]	@ zero_extendqisi2
 3604 274c 0030D4E5 		ldrb	r3, [r4, #0]	@ zero_extendqisi2
 3605 2750 033080E0 		add	r3, r0, r3
 3606 2754 0030C4E5 		strb	r3, [r4, #0]
 3607 2758 0030D5E5 		ldrb	r3, [r5, #0]	@ zero_extendqisi2
 3608 275c 0020D4E5 		ldrb	r2, [r4, #0]	@ zero_extendqisi2
 3609 2760 023083E0 		add	r3, r3, r2
 3610 2764 0030C5E5 		strb	r3, [r5, #0]
 3611 2768 FEFFFFEB 		bl	uart1_transmit
 3612 276c 0200D6E5 		ldrb	r0, [r6, #2]	@ zero_extendqisi2
 3613 2770 0030D4E5 		ldrb	r3, [r4, #0]	@ zero_extendqisi2
 3614 2774 033080E0 		add	r3, r0, r3
 3615 2778 0030C4E5 		strb	r3, [r4, #0]
 3616 277c 0030D5E5 		ldrb	r3, [r5, #0]	@ zero_extendqisi2
 3617 2780 0020D4E5 		ldrb	r2, [r4, #0]	@ zero_extendqisi2
 3618 2784 023083E0 		add	r3, r3, r2
 3619 2788 0030C5E5 		strb	r3, [r5, #0]
 3620 278c FEFFFFEB 		bl	uart1_transmit
 3621 2790 0300D6E5 		ldrb	r0, [r6, #3]	@ zero_extendqisi2
 3622 2794 0030D4E5 		ldrb	r3, [r4, #0]	@ zero_extendqisi2
 3623 2798 033080E0 		add	r3, r0, r3
 3624 279c 0030C4E5 		strb	r3, [r4, #0]
 3625 27a0 0030D5E5 		ldrb	r3, [r5, #0]	@ zero_extendqisi2
 3626 27a4 0020D4E5 		ldrb	r2, [r4, #0]	@ zero_extendqisi2
 3627 27a8 023083E0 		add	r3, r3, r2
 3628 27ac 0030C5E5 		strb	r3, [r5, #0]
 3629 27b0 FEFFFFEB 		bl	uart1_transmit
 3630 27b4 60339FE5 		ldr	r3, .L362+92
 3631 27b8 0000D3E5 		ldrb	r0, [r3, #0]	@ zero_extendqisi2
 3632 27bc A10A00EA 		b	.L340
 3633              	.L139:
 3634 27c0 240053E3 		cmp	r3, #36
 3635 27c4 E50A001A 		bne	.L142
 3636 27c8 50339FE5 		ldr	r3, .L362+96
 3637 27cc 0030D3E5 		ldrb	r3, [r3, #0]	@ zero_extendqisi2
 3638 27d0 000053E3 		cmp	r3, #0
 3639 27d4 E50A000A 		beq	.L142
 3640 27d8 1600A0E3 		mov	r0, #22
 3641 27dc FEFFFFEB 		bl	uart1_check_free_space
 3642 27e0 FF0010E3 		tst	r0, #255
 3643 27e4 E10A000A 		beq	.L145
 3644 27e8 98139FE5 		ldr	r1, .L362+200
 3645 27ec 64C39FE5 		ldr	ip, .L362+152
 3646 27f0 B030D1E1 		ldrh	r3, [r1, #0]
 3647 27f4 B020DCE1 		ldrh	r2, [ip, #0]
 3648 27f8 163083E2 		add	r3, r3, #22
 3649 27fc 012082E2 		add	r2, r2, #1
 3650 2800 B030C1E1 		strh	r3, [r1, #0]	@ movhi 
 3651 2804 B020CCE1 		strh	r2, [ip, #0]	@ movhi 
 3652 2808 9900A0E3 		mov	r0, #153
 3653 280c 48439FE5 		ldr	r4, .L362+156
 3654 2810 FEFFFFEB 		bl	uart1_transmit
 3655 2814 1600A0E3 		mov	r0, #22
 3656 2818 40539FE5 		ldr	r5, .L362+160
 3657 281c FEFFFFEB 		bl	uart1_transmit
 3658 2820 1A30A0E3 		mov	r3, #26
 3659 2824 0030C4E5 		strb	r3, [r4, #0]
 3660 2828 163083E2 		add	r3, r3, #22
 3661 282c 0400A0E3 		mov	r0, #4
 3662 2830 0030C5E5 		strb	r3, [r5, #0]
 3663 2834 FEFFFFEB 		bl	uart1_transmit
 3664 2838 0030D4E5 		ldrb	r3, [r4, #0]	@ zero_extendqisi2
 3665 283c 1B3083E2 		add	r3, r3, #27
 3666 2840 0030C4E5 		strb	r3, [r4, #0]
 3667 2844 0030D5E5 		ldrb	r3, [r5, #0]	@ zero_extendqisi2
 3668 2848 0020D4E5 		ldrb	r2, [r4, #0]	@ zero_extendqisi2
 3669 284c D0629FE5 		ldr	r6, .L362+100
 3670 2850 023083E0 		add	r3, r3, r2
 3671 2854 1B00A0E3 		mov	r0, #27
 3672 2858 0030C5E5 		strb	r3, [r5, #0]
 3673 285c FEFFFFEB 		bl	uart1_transmit
 3674 2860 0000D6E5 		ldrb	r0, [r6, #0]	@ zero_extendqisi2
 3675 2864 0030D4E5 		ldrb	r3, [r4, #0]	@ zero_extendqisi2
 3676 2868 033080E0 		add	r3, r0, r3
 3677 286c 0030C4E5 		strb	r3, [r4, #0]
 3678 2870 0030D5E5 		ldrb	r3, [r5, #0]	@ zero_extendqisi2
 3679 2874 0020D4E5 		ldrb	r2, [r4, #0]	@ zero_extendqisi2
 3680 2878 023083E0 		add	r3, r3, r2
 3681 287c 0030C5E5 		strb	r3, [r5, #0]
 3682 2880 FEFFFFEB 		bl	uart1_transmit
 3683 2884 0100D6E5 		ldrb	r0, [r6, #1]	@ zero_extendqisi2
 3684 2888 0030D4E5 		ldrb	r3, [r4, #0]	@ zero_extendqisi2
 3685 288c 033080E0 		add	r3, r0, r3
 3686 2890 0030C4E5 		strb	r3, [r4, #0]
 3687 2894 0030D5E5 		ldrb	r3, [r5, #0]	@ zero_extendqisi2
 3688 2898 0020D4E5 		ldrb	r2, [r4, #0]	@ zero_extendqisi2
 3689 289c 023083E0 		add	r3, r3, r2
 3690 28a0 0030C5E5 		strb	r3, [r5, #0]
 3691 28a4 FEFFFFEB 		bl	uart1_transmit
 3692 28a8 0200D6E5 		ldrb	r0, [r6, #2]	@ zero_extendqisi2
 3693 28ac 0030D4E5 		ldrb	r3, [r4, #0]	@ zero_extendqisi2
 3694 28b0 033080E0 		add	r3, r0, r3
 3695 28b4 0030C4E5 		strb	r3, [r4, #0]
 3696 28b8 0030D5E5 		ldrb	r3, [r5, #0]	@ zero_extendqisi2
 3697 28bc 0020D4E5 		ldrb	r2, [r4, #0]	@ zero_extendqisi2
 3698 28c0 023083E0 		add	r3, r3, r2
 3699 28c4 0030C5E5 		strb	r3, [r5, #0]
 3700 28c8 FEFFFFEB 		bl	uart1_transmit
 3701 28cc 0300D6E5 		ldrb	r0, [r6, #3]	@ zero_extendqisi2
 3702 28d0 0030D4E5 		ldrb	r3, [r4, #0]	@ zero_extendqisi2
 3703 28d4 033080E0 		add	r3, r0, r3
 3704 28d8 0030C4E5 		strb	r3, [r4, #0]
 3705 28dc 0030D5E5 		ldrb	r3, [r5, #0]	@ zero_extendqisi2
 3706 28e0 0020D4E5 		ldrb	r2, [r4, #0]	@ zero_extendqisi2
 3707 28e4 3C629FE5 		ldr	r6, .L362+104
 3708 28e8 023083E0 		add	r3, r3, r2
 3709 28ec 0030C5E5 		strb	r3, [r5, #0]
 3710 28f0 FEFFFFEB 		bl	uart1_transmit
 3711 28f4 0000D6E5 		ldrb	r0, [r6, #0]	@ zero_extendqisi2
 3712 28f8 0030D4E5 		ldrb	r3, [r4, #0]	@ zero_extendqisi2
 3713 28fc 033080E0 		add	r3, r0, r3
 3714 2900 0030C4E5 		strb	r3, [r4, #0]
 3715 2904 0030D5E5 		ldrb	r3, [r5, #0]	@ zero_extendqisi2
 3716 2908 0020D4E5 		ldrb	r2, [r4, #0]	@ zero_extendqisi2
 3717 290c 023083E0 		add	r3, r3, r2
 3718 2910 0030C5E5 		strb	r3, [r5, #0]
 3719 2914 FEFFFFEB 		bl	uart1_transmit
 3720 2918 0100D6E5 		ldrb	r0, [r6, #1]	@ zero_extendqisi2
 3721 291c 0030D4E5 		ldrb	r3, [r4, #0]	@ zero_extendqisi2
 3722 2920 033080E0 		add	r3, r0, r3
 3723 2924 0030C4E5 		strb	r3, [r4, #0]
 3724 2928 0030D5E5 		ldrb	r3, [r5, #0]	@ zero_extendqisi2
 3725 292c 0020D4E5 		ldrb	r2, [r4, #0]	@ zero_extendqisi2
 3726 2930 023083E0 		add	r3, r3, r2
 3727 2934 0030C5E5 		strb	r3, [r5, #0]
 3728 2938 FEFFFFEB 		bl	uart1_transmit
 3729 293c 0200D6E5 		ldrb	r0, [r6, #2]	@ zero_extendqisi2
 3730 2940 0030D4E5 		ldrb	r3, [r4, #0]	@ zero_extendqisi2
 3731 2944 033080E0 		add	r3, r0, r3
 3732 2948 0030C4E5 		strb	r3, [r4, #0]
 3733 294c 0030D5E5 		ldrb	r3, [r5, #0]	@ zero_extendqisi2
 3734 2950 0020D4E5 		ldrb	r2, [r4, #0]	@ zero_extendqisi2
 3735 2954 023083E0 		add	r3, r3, r2
 3736 2958 0030C5E5 		strb	r3, [r5, #0]
 3737 295c FEFFFFEB 		bl	uart1_transmit
 3738 2960 0300D6E5 		ldrb	r0, [r6, #3]	@ zero_extendqisi2
 3739 2964 0030D4E5 		ldrb	r3, [r4, #0]	@ zero_extendqisi2
 3740 2968 033080E0 		add	r3, r0, r3
 3741 296c 0030C4E5 		strb	r3, [r4, #0]
 3742 2970 0030D5E5 		ldrb	r3, [r5, #0]	@ zero_extendqisi2
 3743 2974 0020D4E5 		ldrb	r2, [r4, #0]	@ zero_extendqisi2
 3744 2978 AC619FE5 		ldr	r6, .L362+108
 3745 297c 023083E0 		add	r3, r3, r2
 3746 2980 0030C5E5 		strb	r3, [r5, #0]
 3747 2984 FEFFFFEB 		bl	uart1_transmit
 3748 2988 0000D6E5 		ldrb	r0, [r6, #0]	@ zero_extendqisi2
 3749 298c 0030D4E5 		ldrb	r3, [r4, #0]	@ zero_extendqisi2
 3750 2990 033080E0 		add	r3, r0, r3
 3751 2994 0030C4E5 		strb	r3, [r4, #0]
 3752 2998 0030D5E5 		ldrb	r3, [r5, #0]	@ zero_extendqisi2
 3753 299c 0020D4E5 		ldrb	r2, [r4, #0]	@ zero_extendqisi2
 3754 29a0 023083E0 		add	r3, r3, r2
 3755 29a4 0030C5E5 		strb	r3, [r5, #0]
 3756 29a8 FEFFFFEB 		bl	uart1_transmit
 3757 29ac 0100D6E5 		ldrb	r0, [r6, #1]	@ zero_extendqisi2
 3758 29b0 0030D4E5 		ldrb	r3, [r4, #0]	@ zero_extendqisi2
 3759 29b4 033080E0 		add	r3, r0, r3
 3760 29b8 0030C4E5 		strb	r3, [r4, #0]
 3761 29bc 0030D5E5 		ldrb	r3, [r5, #0]	@ zero_extendqisi2
 3762 29c0 0020D4E5 		ldrb	r2, [r4, #0]	@ zero_extendqisi2
 3763 29c4 023083E0 		add	r3, r3, r2
 3764 29c8 0030C5E5 		strb	r3, [r5, #0]
 3765 29cc FEFFFFEB 		bl	uart1_transmit
 3766 29d0 0200D6E5 		ldrb	r0, [r6, #2]	@ zero_extendqisi2
 3767 29d4 0030D4E5 		ldrb	r3, [r4, #0]	@ zero_extendqisi2
 3768 29d8 033080E0 		add	r3, r0, r3
 3769 29dc 0030C4E5 		strb	r3, [r4, #0]
 3770 29e0 0030D5E5 		ldrb	r3, [r5, #0]	@ zero_extendqisi2
 3771 29e4 0020D4E5 		ldrb	r2, [r4, #0]	@ zero_extendqisi2
 3772 29e8 023083E0 		add	r3, r3, r2
 3773 29ec 0030C5E5 		strb	r3, [r5, #0]
 3774 29f0 FEFFFFEB 		bl	uart1_transmit
 3775 29f4 0300D6E5 		ldrb	r0, [r6, #3]	@ zero_extendqisi2
 3776 29f8 0030D4E5 		ldrb	r3, [r4, #0]	@ zero_extendqisi2
 3777 29fc 033080E0 		add	r3, r0, r3
 3778 2a00 0030C4E5 		strb	r3, [r4, #0]
 3779 2a04 0030D5E5 		ldrb	r3, [r5, #0]	@ zero_extendqisi2
 3780 2a08 0020D4E5 		ldrb	r2, [r4, #0]	@ zero_extendqisi2
 3781 2a0c 1C619FE5 		ldr	r6, .L362+112
 3782 2a10 023083E0 		add	r3, r3, r2
 3783 2a14 0030C5E5 		strb	r3, [r5, #0]
 3784 2a18 FEFFFFEB 		bl	uart1_transmit
 3785 2a1c 0000D6E5 		ldrb	r0, [r6, #0]	@ zero_extendqisi2
 3786 2a20 0030D4E5 		ldrb	r3, [r4, #0]	@ zero_extendqisi2
 3787 2a24 033080E0 		add	r3, r0, r3
 3788 2a28 0030C4E5 		strb	r3, [r4, #0]
 3789 2a2c 0030D5E5 		ldrb	r3, [r5, #0]	@ zero_extendqisi2
 3790 2a30 0020D4E5 		ldrb	r2, [r4, #0]	@ zero_extendqisi2
 3791 2a34 023083E0 		add	r3, r3, r2
 3792 2a38 0030C5E5 		strb	r3, [r5, #0]
 3793 2a3c FEFFFFEB 		bl	uart1_transmit
 3794 2a40 0100D6E5 		ldrb	r0, [r6, #1]	@ zero_extendqisi2
 3795 2a44 0030D4E5 		ldrb	r3, [r4, #0]	@ zero_extendqisi2
 3796 2a48 033080E0 		add	r3, r0, r3
 3797 2a4c 0030C4E5 		strb	r3, [r4, #0]
 3798 2a50 0030D5E5 		ldrb	r3, [r5, #0]	@ zero_extendqisi2
 3799 2a54 0020D4E5 		ldrb	r2, [r4, #0]	@ zero_extendqisi2
 3800 2a58 023083E0 		add	r3, r3, r2
 3801 2a5c 0030C5E5 		strb	r3, [r5, #0]
 3802 2a60 FEFFFFEB 		bl	uart1_transmit
 3803 2a64 0200D6E5 		ldrb	r0, [r6, #2]	@ zero_extendqisi2
 3804 2a68 0030D4E5 		ldrb	r3, [r4, #0]	@ zero_extendqisi2
 3805 2a6c 033080E0 		add	r3, r0, r3
 3806 2a70 0030C4E5 		strb	r3, [r4, #0]
 3807 2a74 0030D5E5 		ldrb	r3, [r5, #0]	@ zero_extendqisi2
 3808 2a78 0020D4E5 		ldrb	r2, [r4, #0]	@ zero_extendqisi2
 3809 2a7c 023083E0 		add	r3, r3, r2
 3810 2a80 0030C5E5 		strb	r3, [r5, #0]
 3811 2a84 FEFFFFEB 		bl	uart1_transmit
 3812 2a88 0300D6E5 		ldrb	r0, [r6, #3]	@ zero_extendqisi2
 3813              	.L340:
 3814 2a8c 0030D4E5 		ldrb	r3, [r4, #0]	@ zero_extendqisi2
 3815 2a90 033080E0 		add	r3, r0, r3
 3816 2a94 0030C4E5 		strb	r3, [r4, #0]
 3817 2a98 0030D5E5 		ldrb	r3, [r5, #0]	@ zero_extendqisi2
 3818 2a9c 0020D4E5 		ldrb	r2, [r4, #0]	@ zero_extendqisi2
 3819 2aa0 023083E0 		add	r3, r3, r2
 3820 2aa4 0030C5E5 		strb	r3, [r5, #0]
 3821 2aa8 FEFFFFEB 		bl	uart1_transmit
 3822 2aac 0000D4E5 		ldrb	r0, [r4, #0]	@ zero_extendqisi2
 3823 2ab0 FEFFFFEB 		bl	uart1_transmit
 3824 2ab4 0000D5E5 		ldrb	r0, [r5, #0]	@ zero_extendqisi2
 3825 2ab8 FEFFFFEB 		bl	uart1_transmit
 3826 2abc E50A00EA 		b	.L142
 3827              	.L363:
 3828              		.align	2
 3829              	.L362:
 3830 2ac0 00000000 		.word	nav_segment_y_1
 3831 2ac4 00000000 		.word	nav_segment_x_2
 3832 2ac8 00000000 		.word	nav_segment_y_2
 3833 2acc 00000000 		.word	infrared
 3834 2ad0 00000000 		.word	i90.17
 3835 2ad4 00000000 		.word	i.25
 3836 2ad8 00000000 		.word	flight_altitude
 3837 2adc 00000000 		.word	nav_course
 3838 2ae0 00000000 		.word	nav_shift
 3839 2ae4 00000000 		.word	estimator_flight_time
 3840 2ae8 00000000 		.word	nav_radius
 3841 2aec 00000000 		.word	launch
 3842 2af0 00000000 		.word	kill_throttle
 3843 2af4 00000000 		.word	telemetry_mode_Ap_DefaultChannel
 3844 2af8 00000000 		.word	gps_reset
 3845 2afc 00008047 		.word	1199570944
 3846 2b00 00000000 		.word	i120.18
 3847 2b04 00000000 		.word	gps_Pacc
 3848 2b08 00000000 		.word	gps_Sacc
 3849 2b0c 00000000 		.word	gps_PDOP
 3850 2b10 00000000 		.word	gps_numSV
 3851 2b14 00000000 		.word	i126.19
 3852 2b18 00000000 		.word	v_ctl_auto_throttle_sum_err
 3853 2b1c 00000000 		.word	v_ctl_auto_throttle_submode
 3854 2b20 00000000 		.word	nav_survey_active
 3855 2b24 00000000 		.word	nav_survey_east
 3856 2b28 00000000 		.word	nav_survey_north
 3857 2b2c 00000000 		.word	nav_survey_west
 3858 2b30 00000000 		.word	nav_survey_south
 3859 2b34 00000000 		.word	i150.20
 3860 2b38 00000000 		.word	energy
 3861 2b3c 00000000 		.word	vsupply
 3862 2b40 00008043 		.word	1132462080
 3863 2b44 00002041 		.word	1092616192
 3864 2b48 00000000 		.word	current
 3865 2b4c 00007A44 		.word	1148846080
 3866 2b50 00000000 		.word	i300.21
 3867 2b54 00000000 		.word	.LC0
 3868 2b58 00000000 		.word	downlink_nb_msgs
 3869 2b5c 00000000 		.word	ck_a
 3870 2b60 00000000 		.word	ck_b
 3871 2b64 00000000 		.word	pprz_mode
 3872 2b68 00000000 		.word	v_ctl_mode
 3873 2b6c 00000000 		.word	lateral_mode
 3874 2b70 00000000 		.word	horizontal_mode
 3875 2b74 00000000 		.word	rc_settings_mode
 3876 2b78 00000000 		.word	mcu1_status
 3877 2b7c 00000000 		.word	downlink_nb_ovrn
 3878 2b80 00000000 		.word	i306.22
 3879 2b84 00000000 		.word	last.26
 3880 2b88 00000000 		.word	downlink_nb_bytes
 3881              	.L145:
 3882 2b8c 18201FE5 		ldr	r2, .L362+188
 3883 2b90 0030D2E5 		ldrb	r3, [r2, #0]	@ zero_extendqisi2
 3884 2b94 013083E2 		add	r3, r3, #1
 3885 2b98 0030C2E5 		strb	r3, [r2, #0]
 3886              	.L142:
 3887 2b9c 70001FE5 		ldr	r0, .L362+116
 3888 2ba0 0030D0E5 		ldrb	r3, [r0, #0]	@ zero_extendqisi2
 3889 2ba4 2A0053E3 		cmp	r3, #42
 3890 2ba8 AA0B001A 		bne	.L147
 3891 2bac 7C301FE5 		ldr	r3, .L362+120
 3892 2bb0 000093E5 		ldr	r0, [r3, #0]	@ float
 3893 2bb4 FEFFFFEB 		bl	__fixsfsi
 3894 2bb8 84301FE5 		ldr	r3, .L362+124
 3895 2bbc D040D3E1 		ldrsb	r4, [r3, #0]
 3896 2bc0 B0034BE1 		strh	r0, [fp, #-48]	@ movhi 
 3897 2bc4 0400A0E1 		mov	r0, r4
 3898 2bc8 FEFFFFEB 		bl	__floatsisf
 3899 2bcc 000054E3 		cmp	r4, #0
 3900 2bd0 98101FB5 		ldrlt	r1, .L362+128
 3901 2bd4 FEFFFFBB 		bllt	__addsf3
 3902              	.L148:
 3903 2bd8 9C101FE5 		ldr	r1, .L362+132
 3904 2bdc FEFFFFEB 		bl	__divsf3
 3905 2be0 A0301FE5 		ldr	r3, .L362+136
 3906 2be4 0040A0E1 		mov	r4, r0
 3907 2be8 000093E5 		ldr	r0, [r3, #0]
 3908 2bec 54400BE5 		str	r4, [fp, #-84]	@ float
 3909 2bf0 FEFFFFEB 		bl	__floatsisf
 3910 2bf4 B0101FE5 		ldr	r1, .L362+140
 3911 2bf8 FEFFFFEB 		bl	__divsf3
 3912 2bfc 0030A0E1 		mov	r3, r0
 3913 2c00 0010A0E1 		mov	r1, r0
 3914 2c04 0400A0E1 		mov	r0, r4
 3915 2c08 58300BE5 		str	r3, [fp, #-88]	@ float
 3916 2c0c FEFFFFEB 		bl	__mulsf3
 3917 2c10 5C000BE5 		str	r0, [fp, #-92]	@ float
 3918 2c14 1400A0E3 		mov	r0, #20
 3919 2c18 FEFFFFEB 		bl	uart1_check_free_space
 3920 2c1c FF0010E3 		tst	r0, #255
 3921 2c20 AC201F05 		ldreq	r2, .L362+188
 3922 2c24 0030D205 		ldreqb	r3, [r2, #0]	@ zero_extendqisi2
 3923 2c28 01308302 		addeq	r3, r3, #1
 3924 2c2c 0030C205 		streqb	r3, [r2, #0]
 3925 2c30 AA0B000A 		beq	.L147
 3926 2c34 B4101FE5 		ldr	r1, .L362+200
 3927 2c38 E8C01FE5 		ldr	ip, .L362+152
 3928 2c3c B030D1E1 		ldrh	r3, [r1, #0]
 3929 2c40 B020DCE1 		ldrh	r2, [ip, #0]
 3930 2c44 143083E2 		add	r3, r3, #20
 3931 2c48 012082E2 		add	r2, r2, #1
 3932 2c4c B030C1E1 		strh	r3, [r1, #0]	@ movhi 
 3933 2c50 B020CCE1 		strh	r2, [ip, #0]	@ movhi 
 3934 2c54 9900A0E3 		mov	r0, #153
 3935 2c58 04411FE5 		ldr	r4, .L362+156
 3936 2c5c FEFFFFEB 		bl	uart1_transmit
 3937 2c60 1400A0E3 		mov	r0, #20
 3938 2c64 0C511FE5 		ldr	r5, .L362+160
 3939 2c68 FEFFFFEB 		bl	uart1_transmit
 3940 2c6c 1830A0E3 		mov	r3, #24
 3941 2c70 0030C4E5 		strb	r3, [r4, #0]
 3942 2c74 143083E2 		add	r3, r3, #20
 3943 2c78 0400A0E3 		mov	r0, #4
 3944 2c7c 0030C5E5 		strb	r3, [r5, #0]
 3945 2c80 FEFFFFEB 		bl	uart1_transmit
 3946 2c84 0030D4E5 		ldrb	r3, [r4, #0]	@ zero_extendqisi2
 3947 2c88 253083E2 		add	r3, r3, #37
 3948 2c8c 0030C4E5 		strb	r3, [r4, #0]
 3949 2c90 0030D5E5 		ldrb	r3, [r5, #0]	@ zero_extendqisi2
 3950 2c94 0020D4E5 		ldrb	r2, [r4, #0]	@ zero_extendqisi2
 3951 2c98 023083E0 		add	r3, r3, r2
 3952 2c9c 2500A0E3 		mov	r0, #37
 3953 2ca0 0030C5E5 		strb	r3, [r5, #0]
 3954 2ca4 FEFFFFEB 		bl	uart1_transmit
 3955 2ca8 54005BE5 		ldrb	r0, [fp, #-84]	@ zero_extendqisi2
 3956 2cac 0030D4E5 		ldrb	r3, [r4, #0]	@ zero_extendqisi2
 3957 2cb0 033080E0 		add	r3, r0, r3
 3958 2cb4 0030C4E5 		strb	r3, [r4, #0]
 3959 2cb8 0030D5E5 		ldrb	r3, [r5, #0]	@ zero_extendqisi2
 3960 2cbc 0020D4E5 		ldrb	r2, [r4, #0]	@ zero_extendqisi2
 3961 2cc0 023083E0 		add	r3, r3, r2
 3962 2cc4 0030C5E5 		strb	r3, [r5, #0]
 3963 2cc8 FEFFFFEB 		bl	uart1_transmit
 3964 2ccc 53005BE5 		ldrb	r0, [fp, #-83]	@ zero_extendqisi2
 3965 2cd0 0030D4E5 		ldrb	r3, [r4, #0]	@ zero_extendqisi2
 3966 2cd4 033080E0 		add	r3, r0, r3
 3967 2cd8 0030C4E5 		strb	r3, [r4, #0]
 3968 2cdc 0030D5E5 		ldrb	r3, [r5, #0]	@ zero_extendqisi2
 3969 2ce0 0020D4E5 		ldrb	r2, [r4, #0]	@ zero_extendqisi2
 3970 2ce4 023083E0 		add	r3, r3, r2
 3971 2ce8 0030C5E5 		strb	r3, [r5, #0]
 3972 2cec FEFFFFEB 		bl	uart1_transmit
 3973 2cf0 52005BE5 		ldrb	r0, [fp, #-82]	@ zero_extendqisi2
 3974 2cf4 0030D4E5 		ldrb	r3, [r4, #0]	@ zero_extendqisi2
 3975 2cf8 033080E0 		add	r3, r0, r3
 3976 2cfc 0030C4E5 		strb	r3, [r4, #0]
 3977 2d00 0030D5E5 		ldrb	r3, [r5, #0]	@ zero_extendqisi2
 3978 2d04 0020D4E5 		ldrb	r2, [r4, #0]	@ zero_extendqisi2
 3979 2d08 023083E0 		add	r3, r3, r2
 3980 2d0c 0030C5E5 		strb	r3, [r5, #0]
 3981 2d10 FEFFFFEB 		bl	uart1_transmit
 3982 2d14 51005BE5 		ldrb	r0, [fp, #-81]	@ zero_extendqisi2
 3983 2d18 0030D4E5 		ldrb	r3, [r4, #0]	@ zero_extendqisi2
 3984 2d1c 033080E0 		add	r3, r0, r3
 3985 2d20 0030C4E5 		strb	r3, [r4, #0]
 3986 2d24 0030D5E5 		ldrb	r3, [r5, #0]	@ zero_extendqisi2
 3987 2d28 0020D4E5 		ldrb	r2, [r4, #0]	@ zero_extendqisi2
 3988 2d2c 023083E0 		add	r3, r3, r2
 3989 2d30 0030C5E5 		strb	r3, [r5, #0]
 3990 2d34 FEFFFFEB 		bl	uart1_transmit
 3991 2d38 58005BE5 		ldrb	r0, [fp, #-88]	@ zero_extendqisi2
 3992 2d3c 0030D4E5 		ldrb	r3, [r4, #0]	@ zero_extendqisi2
 3993 2d40 033080E0 		add	r3, r0, r3
 3994 2d44 0030C4E5 		strb	r3, [r4, #0]
 3995 2d48 0030D5E5 		ldrb	r3, [r5, #0]	@ zero_extendqisi2
 3996 2d4c 0020D4E5 		ldrb	r2, [r4, #0]	@ zero_extendqisi2
 3997 2d50 023083E0 		add	r3, r3, r2
 3998 2d54 0030C5E5 		strb	r3, [r5, #0]
 3999 2d58 FEFFFFEB 		bl	uart1_transmit
 4000 2d5c 57005BE5 		ldrb	r0, [fp, #-87]	@ zero_extendqisi2
 4001 2d60 0030D4E5 		ldrb	r3, [r4, #0]	@ zero_extendqisi2
 4002 2d64 033080E0 		add	r3, r0, r3
 4003 2d68 0030C4E5 		strb	r3, [r4, #0]
 4004 2d6c 0030D5E5 		ldrb	r3, [r5, #0]	@ zero_extendqisi2
 4005 2d70 0020D4E5 		ldrb	r2, [r4, #0]	@ zero_extendqisi2
 4006 2d74 023083E0 		add	r3, r3, r2
 4007 2d78 0030C5E5 		strb	r3, [r5, #0]
 4008 2d7c FEFFFFEB 		bl	uart1_transmit
 4009 2d80 56005BE5 		ldrb	r0, [fp, #-86]	@ zero_extendqisi2
 4010 2d84 0030D4E5 		ldrb	r3, [r4, #0]	@ zero_extendqisi2
 4011 2d88 033080E0 		add	r3, r0, r3
 4012 2d8c 0030C4E5 		strb	r3, [r4, #0]
 4013 2d90 0030D5E5 		ldrb	r3, [r5, #0]	@ zero_extendqisi2
 4014 2d94 0020D4E5 		ldrb	r2, [r4, #0]	@ zero_extendqisi2
 4015 2d98 023083E0 		add	r3, r3, r2
 4016 2d9c 0030C5E5 		strb	r3, [r5, #0]
 4017 2da0 FEFFFFEB 		bl	uart1_transmit
 4018 2da4 55005BE5 		ldrb	r0, [fp, #-85]	@ zero_extendqisi2
 4019 2da8 0030D4E5 		ldrb	r3, [r4, #0]	@ zero_extendqisi2
 4020 2dac 033080E0 		add	r3, r0, r3
 4021 2db0 0030C4E5 		strb	r3, [r4, #0]
 4022 2db4 0030D5E5 		ldrb	r3, [r5, #0]	@ zero_extendqisi2
 4023 2db8 0020D4E5 		ldrb	r2, [r4, #0]	@ zero_extendqisi2
 4024 2dbc 023083E0 		add	r3, r3, r2
 4025 2dc0 0030C5E5 		strb	r3, [r5, #0]
 4026 2dc4 FEFFFFEB 		bl	uart1_transmit
 4027 2dc8 30005BE5 		ldrb	r0, [fp, #-48]	@ zero_extendqisi2
 4028 2dcc 0030D4E5 		ldrb	r3, [r4, #0]	@ zero_extendqisi2
 4029 2dd0 033080E0 		add	r3, r0, r3
 4030 2dd4 0030C4E5 		strb	r3, [r4, #0]
 4031 2dd8 0030D5E5 		ldrb	r3, [r5, #0]	@ zero_extendqisi2
 4032 2ddc 0020D4E5 		ldrb	r2, [r4, #0]	@ zero_extendqisi2
 4033 2de0 023083E0 		add	r3, r3, r2
 4034 2de4 0030C5E5 		strb	r3, [r5, #0]
 4035 2de8 FEFFFFEB 		bl	uart1_transmit
 4036 2dec 2F005BE5 		ldrb	r0, [fp, #-47]	@ zero_extendqisi2
 4037 2df0 0030D4E5 		ldrb	r3, [r4, #0]	@ zero_extendqisi2
 4038 2df4 033080E0 		add	r3, r0, r3
 4039 2df8 0030C4E5 		strb	r3, [r4, #0]
 4040 2dfc 0030D5E5 		ldrb	r3, [r5, #0]	@ zero_extendqisi2
 4041 2e00 0020D4E5 		ldrb	r2, [r4, #0]	@ zero_extendqisi2
 4042 2e04 023083E0 		add	r3, r3, r2
 4043 2e08 0030C5E5 		strb	r3, [r5, #0]
 4044 2e0c FEFFFFEB 		bl	uart1_transmit
 4045 2e10 5C005BE5 		ldrb	r0, [fp, #-92]	@ zero_extendqisi2
 4046 2e14 0030D4E5 		ldrb	r3, [r4, #0]	@ zero_extendqisi2
 4047 2e18 033080E0 		add	r3, r0, r3
 4048 2e1c 0030C4E5 		strb	r3, [r4, #0]
 4049 2e20 0030D5E5 		ldrb	r3, [r5, #0]	@ zero_extendqisi2
 4050 2e24 0020D4E5 		ldrb	r2, [r4, #0]	@ zero_extendqisi2
 4051 2e28 023083E0 		add	r3, r3, r2
 4052 2e2c 0030C5E5 		strb	r3, [r5, #0]
 4053 2e30 FEFFFFEB 		bl	uart1_transmit
 4054 2e34 5B005BE5 		ldrb	r0, [fp, #-91]	@ zero_extendqisi2
 4055 2e38 0030D4E5 		ldrb	r3, [r4, #0]	@ zero_extendqisi2
 4056 2e3c 033080E0 		add	r3, r0, r3
 4057 2e40 0030C4E5 		strb	r3, [r4, #0]
 4058 2e44 0030D5E5 		ldrb	r3, [r5, #0]	@ zero_extendqisi2
 4059 2e48 0020D4E5 		ldrb	r2, [r4, #0]	@ zero_extendqisi2
 4060 2e4c 023083E0 		add	r3, r3, r2
 4061 2e50 0030C5E5 		strb	r3, [r5, #0]
 4062 2e54 FEFFFFEB 		bl	uart1_transmit
 4063 2e58 5A005BE5 		ldrb	r0, [fp, #-90]	@ zero_extendqisi2
 4064 2e5c 0030D4E5 		ldrb	r3, [r4, #0]	@ zero_extendqisi2
 4065 2e60 033080E0 		add	r3, r0, r3
 4066 2e64 0030C4E5 		strb	r3, [r4, #0]
 4067 2e68 0030D5E5 		ldrb	r3, [r5, #0]	@ zero_extendqisi2
 4068 2e6c 0020D4E5 		ldrb	r2, [r4, #0]	@ zero_extendqisi2
 4069 2e70 023083E0 		add	r3, r3, r2
 4070 2e74 0030C5E5 		strb	r3, [r5, #0]
 4071 2e78 FEFFFFEB 		bl	uart1_transmit
 4072 2e7c 59005BE5 		ldrb	r0, [fp, #-89]	@ zero_extendqisi2
 4073 2e80 0030D4E5 		ldrb	r3, [r4, #0]	@ zero_extendqisi2
 4074 2e84 033080E0 		add	r3, r0, r3
 4075 2e88 0030C4E5 		strb	r3, [r4, #0]
 4076 2e8c 0030D5E5 		ldrb	r3, [r5, #0]	@ zero_extendqisi2
 4077 2e90 0020D4E5 		ldrb	r2, [r4, #0]	@ zero_extendqisi2
 4078 2e94 023083E0 		add	r3, r3, r2
 4079 2e98 0030C5E5 		strb	r3, [r5, #0]
 4080 2e9c FEFFFFEB 		bl	uart1_transmit
 4081 2ea0 0000D4E5 		ldrb	r0, [r4, #0]	@ zero_extendqisi2
 4082 2ea4 FEFFFFEB 		bl	uart1_transmit
 4083 2ea8 0000D5E5 		ldrb	r0, [r5, #0]	@ zero_extendqisi2
 4084 2eac FEFFFFEB 		bl	uart1_transmit
 4085              	.L147:
 4086 2eb0 68231FE5 		ldr	r2, .L362+144
 4087 2eb4 B030D2E1 		ldrh	r3, [r2, #0]
 4088 2eb8 300053E3 		cmp	r3, #48
 4089 2ebc EB0B001A 		bne	.L151
 4090 2ec0 1700A0E3 		mov	r0, #23
 4091 2ec4 FEFFFFEB 		bl	uart1_check_free_space
 4092 2ec8 FF0010E3 		tst	r0, #255
 4093 2ecc 4F0C000A 		beq	.L160
 4094 2ed0 50131FE5 		ldr	r1, .L362+200
 4095 2ed4 84C31FE5 		ldr	ip, .L362+152
 4096 2ed8 B030D1E1 		ldrh	r3, [r1, #0]
 4097 2edc B020DCE1 		ldrh	r2, [ip, #0]
 4098 2ee0 173083E2 		add	r3, r3, #23
 4099 2ee4 012082E2 		add	r2, r2, #1
 4100 2ee8 B030C1E1 		strh	r3, [r1, #0]	@ movhi 
 4101 2eec B020CCE1 		strh	r2, [ip, #0]	@ movhi 
 4102 2ef0 9900A0E3 		mov	r0, #153
 4103 2ef4 A0431FE5 		ldr	r4, .L362+156
 4104 2ef8 FEFFFFEB 		bl	uart1_transmit
 4105 2efc 1700A0E3 		mov	r0, #23
 4106 2f00 FEFFFFEB 		bl	uart1_transmit
 4107 2f04 AC631FE5 		ldr	r6, .L362+160
 4108 2f08 1B30A0E3 		mov	r3, #27
 4109 2f0c 0030C4E5 		strb	r3, [r4, #0]
 4110 2f10 173083E2 		add	r3, r3, #23
 4111 2f14 0400A0E3 		mov	r0, #4
 4112 2f18 0030C6E5 		strb	r3, [r6, #0]
 4113 2f1c FEFFFFEB 		bl	uart1_transmit
 4114 2f20 0030D4E5 		ldrb	r3, [r4, #0]	@ zero_extendqisi2
 4115 2f24 023083E2 		add	r3, r3, #2
 4116 2f28 0030C4E5 		strb	r3, [r4, #0]
 4117 2f2c 0030D6E5 		ldrb	r3, [r6, #0]	@ zero_extendqisi2
 4118 2f30 0020D4E5 		ldrb	r2, [r4, #0]	@ zero_extendqisi2
 4119 2f34 023083E0 		add	r3, r3, r2
 4120 2f38 0200A0E3 		mov	r0, #2
 4121 2f3c 0030C6E5 		strb	r3, [r6, #0]
 4122 2f40 FEFFFFEB 		bl	uart1_transmit
 4123 2f44 0030D4E5 		ldrb	r3, [r4, #0]	@ zero_extendqisi2
 4124 2f48 103083E2 		add	r3, r3, #16
 4125 2f4c 0030C4E5 		strb	r3, [r4, #0]
 4126 2f50 0030D6E5 		ldrb	r3, [r6, #0]	@ zero_extendqisi2
 4127 2f54 0020D4E5 		ldrb	r2, [r4, #0]	@ zero_extendqisi2
 4128 2f58 023083E0 		add	r3, r3, r2
 4129 2f5c 1000A0E3 		mov	r0, #16
 4130 2f60 0030C6E5 		strb	r3, [r6, #0]
 4131 2f64 FEFFFFEB 		bl	uart1_transmit
 4132 2f68 0050A0E3 		mov	r5, #0
 4133              	.L156:
 4134 2f6c 20341FE5 		ldr	r3, .L362+148
 4135 2f70 0300D5E7 		ldrb	r0, [r5, r3]	@ zero_extendqisi2
 4136 2f74 0030D4E5 		ldrb	r3, [r4, #0]	@ zero_extendqisi2
 4137 2f78 033080E0 		add	r3, r0, r3
 4138 2f7c 0030C4E5 		strb	r3, [r4, #0]
 4139 2f80 0030D6E5 		ldrb	r3, [r6, #0]	@ zero_extendqisi2
 4140 2f84 0020D4E5 		ldrb	r2, [r4, #0]	@ zero_extendqisi2
 4141 2f88 023083E0 		add	r3, r3, r2
 4142 2f8c 0030C6E5 		strb	r3, [r6, #0]
 4143 2f90 FEFFFFEB 		bl	uart1_transmit
 4144 2f94 013085E2 		add	r3, r5, #1
 4145 2f98 FF5003E2 		and	r5, r3, #255
 4146 2f9c 0F0055E3 		cmp	r5, #15
 4147 2fa0 D90B009A 		bls	.L156
 4148 2fa4 0000D4E5 		ldrb	r0, [r4, #0]	@ zero_extendqisi2
 4149 2fa8 FEFFFFEB 		bl	uart1_transmit
 4150 2fac 0000D6E5 		ldrb	r0, [r6, #0]	@ zero_extendqisi2
 4151 2fb0 4D0C00EA 		b	.L341
 4152              	.L151:
 4153 2fb4 360053E3 		cmp	r3, #54
 4154 2fb8 530C001A 		bne	.L158
 4155 2fbc 0C00A0E3 		mov	r0, #12
 4156 2fc0 FEFFFFEB 		bl	uart1_check_free_space
 4157 2fc4 FF0010E3 		tst	r0, #255
 4158 2fc8 4F0C000A 		beq	.L160
 4159 2fcc 4C141FE5 		ldr	r1, .L362+200
 4160 2fd0 80C41FE5 		ldr	ip, .L362+152
 4161 2fd4 B030D1E1 		ldrh	r3, [r1, #0]
 4162 2fd8 B020DCE1 		ldrh	r2, [ip, #0]
 4163 2fdc 0C3083E2 		add	r3, r3, #12
 4164 2fe0 012082E2 		add	r2, r2, #1
 4165 2fe4 B030C1E1 		strh	r3, [r1, #0]	@ movhi 
 4166 2fe8 B020CCE1 		strh	r2, [ip, #0]	@ movhi 
 4167 2fec 9900A0E3 		mov	r0, #153
 4168 2ff0 9C441FE5 		ldr	r4, .L362+156
 4169 2ff4 FEFFFFEB 		bl	uart1_transmit
 4170 2ff8 0C00A0E3 		mov	r0, #12
 4171 2ffc A4541FE5 		ldr	r5, .L362+160
 4172 3000 FEFFFFEB 		bl	uart1_transmit
 4173 3004 1030A0E3 		mov	r3, #16
 4174 3008 0030C4E5 		strb	r3, [r4, #0]
 4175 300c 0C3083E2 		add	r3, r3, #12
 4176 3010 0400A0E3 		mov	r0, #4
 4177 3014 0030C5E5 		strb	r3, [r5, #0]
 4178 3018 FEFFFFEB 		bl	uart1_transmit
 4179 301c 0030D4E5 		ldrb	r3, [r4, #0]	@ zero_extendqisi2
 4180 3020 0B3083E2 		add	r3, r3, #11
 4181 3024 0030C4E5 		strb	r3, [r4, #0]
 4182 3028 0030D5E5 		ldrb	r3, [r5, #0]	@ zero_extendqisi2
 4183 302c 0020D4E5 		ldrb	r2, [r4, #0]	@ zero_extendqisi2
 4184 3030 023083E0 		add	r3, r3, r2
 4185 3034 0B00A0E3 		mov	r0, #11
 4186 3038 0030C5E5 		strb	r3, [r5, #0]
 4187 303c FEFFFFEB 		bl	uart1_transmit
 4188 3040 E4341FE5 		ldr	r3, .L362+164
 4189 3044 0000D3E5 		ldrb	r0, [r3, #0]	@ zero_extendqisi2
 4190 3048 0030D4E5 		ldrb	r3, [r4, #0]	@ zero_extendqisi2
 4191 304c 033080E0 		add	r3, r0, r3
 4192 3050 0030C4E5 		strb	r3, [r4, #0]
 4193 3054 0030D5E5 		ldrb	r3, [r5, #0]	@ zero_extendqisi2
 4194 3058 0020D4E5 		ldrb	r2, [r4, #0]	@ zero_extendqisi2
 4195 305c 023083E0 		add	r3, r3, r2
 4196 3060 0030C5E5 		strb	r3, [r5, #0]
 4197 3064 FEFFFFEB 		bl	uart1_transmit
 4198 3068 08351FE5 		ldr	r3, .L362+168
 4199 306c 0000D3E5 		ldrb	r0, [r3, #0]	@ zero_extendqisi2
 4200 3070 0030D4E5 		ldrb	r3, [r4, #0]	@ zero_extendqisi2
 4201 3074 033080E0 		add	r3, r0, r3
 4202 3078 0030C4E5 		strb	r3, [r4, #0]
 4203 307c 0030D5E5 		ldrb	r3, [r5, #0]	@ zero_extendqisi2
 4204 3080 0020D4E5 		ldrb	r2, [r4, #0]	@ zero_extendqisi2
 4205 3084 023083E0 		add	r3, r3, r2
 4206 3088 0030C5E5 		strb	r3, [r5, #0]
 4207 308c FEFFFFEB 		bl	uart1_transmit
 4208 3090 2C351FE5 		ldr	r3, .L362+172
 4209 3094 0000D3E5 		ldrb	r0, [r3, #0]	@ zero_extendqisi2
 4210 3098 0030D4E5 		ldrb	r3, [r4, #0]	@ zero_extendqisi2
 4211 309c 033080E0 		add	r3, r0, r3
 4212 30a0 0030C4E5 		strb	r3, [r4, #0]
 4213 30a4 0030D5E5 		ldrb	r3, [r5, #0]	@ zero_extendqisi2
 4214 30a8 0020D4E5 		ldrb	r2, [r4, #0]	@ zero_extendqisi2
 4215 30ac 023083E0 		add	r3, r3, r2
 4216 30b0 0030C5E5 		strb	r3, [r5, #0]
 4217 30b4 FEFFFFEB 		bl	uart1_transmit
 4218 30b8 50351FE5 		ldr	r3, .L362+176
 4219 30bc 0000D3E5 		ldrb	r0, [r3, #0]	@ zero_extendqisi2
 4220 30c0 0030D4E5 		ldrb	r3, [r4, #0]	@ zero_extendqisi2
 4221 30c4 033080E0 		add	r3, r0, r3
 4222 30c8 0030C4E5 		strb	r3, [r4, #0]
 4223 30cc 0030D5E5 		ldrb	r3, [r5, #0]	@ zero_extendqisi2
 4224 30d0 0020D4E5 		ldrb	r2, [r4, #0]	@ zero_extendqisi2
 4225 30d4 023083E0 		add	r3, r3, r2
 4226 30d8 0030C5E5 		strb	r3, [r5, #0]
 4227 30dc FEFFFFEB 		bl	uart1_transmit
 4228 30e0 74351FE5 		ldr	r3, .L362+180
 4229 30e4 0000D3E5 		ldrb	r0, [r3, #0]	@ zero_extendqisi2
 4230 30e8 0030D4E5 		ldrb	r3, [r4, #0]	@ zero_extendqisi2
 4231 30ec 033080E0 		add	r3, r0, r3
 4232 30f0 0030C4E5 		strb	r3, [r4, #0]
 4233 30f4 0030D5E5 		ldrb	r3, [r5, #0]	@ zero_extendqisi2
 4234 30f8 0020D4E5 		ldrb	r2, [r4, #0]	@ zero_extendqisi2
 4235 30fc 023083E0 		add	r3, r3, r2
 4236 3100 0030C5E5 		strb	r3, [r5, #0]
 4237 3104 FEFFFFEB 		bl	uart1_transmit
 4238 3108 98351FE5 		ldr	r3, .L362+184
 4239 310c 0000D3E5 		ldrb	r0, [r3, #0]	@ zero_extendqisi2
 4240 3110 0030D4E5 		ldrb	r3, [r4, #0]	@ zero_extendqisi2
 4241 3114 033080E0 		add	r3, r0, r3
 4242 3118 0030C4E5 		strb	r3, [r4, #0]
 4243 311c 0030D5E5 		ldrb	r3, [r5, #0]	@ zero_extendqisi2
 4244 3120 0020D4E5 		ldrb	r2, [r4, #0]	@ zero_extendqisi2
 4245 3124 023083E0 		add	r3, r3, r2
 4246 3128 0030C5E5 		strb	r3, [r5, #0]
 4247 312c FEFFFFEB 		bl	uart1_transmit
 4248 3130 0000D4E5 		ldrb	r0, [r4, #0]	@ zero_extendqisi2
 4249 3134 FEFFFFEB 		bl	uart1_transmit
 4250 3138 0000D5E5 		ldrb	r0, [r5, #0]	@ zero_extendqisi2
 4251              	.L341:
 4252 313c FEFFFFEB 		bl	uart1_transmit
 4253 3140 530C00EA 		b	.L158
 4254              	.L160:
 4255 3144 D0251FE5 		ldr	r2, .L362+188
 4256 3148 0030D2E5 		ldrb	r3, [r2, #0]	@ zero_extendqisi2
 4257 314c 013083E2 		add	r3, r3, #1
 4258 3150 0030C2E5 		strb	r3, [r2, #0]
 4259              	.L158:
 4260 3154 DC051FE5 		ldr	r0, .L362+192
 4261 3158 B030D0E1 		ldrh	r3, [r0, #0]
 4262 315c 3C0053E3 		cmp	r3, #60
 4263 3160 B80C001A 		bne	.L162
 4264 3164 E8451FE5 		ldr	r4, .L362+196
 4265 3168 E8751FE5 		ldr	r7, .L362+200
 4266 316c B000D4E1 		ldrh	r0, [r4, #0]
 4267 3170 B050D7E1 		ldrh	r5, [r7, #0]
 4268 3174 050060E0 		rsb	r0, r0, r5
 4269 3178 FEFFFFEB 		bl	__floatsidf
 4270 317c FD2F8FE2 		adr	r2, .L364
 4271 3180 0C0092E8 		ldmia	r2, {r2-r3}
 4272 3184 FEFFFFEB 		bl	__divdf3
 4273 3188 FEFFFFEB 		bl	__fixunsdfsi
 4274 318c B2034BE1 		strh	r0, [fp, #-50]	@ movhi 
 4275 3190 0B00A0E3 		mov	r0, #11
 4276 3194 B050C4E1 		strh	r5, [r4, #0]	@ movhi 
 4277 3198 FEFFFFEB 		bl	uart1_check_free_space
 4278 319c 94A49FE5 		ldr	sl, .L364+192
 4279 31a0 FF0010E3 		tst	r0, #255
 4280 31a4 0030DA05 		ldreqb	r3, [sl, #0]	@ zero_extendqisi2
 4281 31a8 01308302 		addeq	r3, r3, #1
 4282 31ac 0030CA05 		streqb	r3, [sl, #0]
 4283 31b0 B80C000A 		beq	.L162
 4284 31b4 84649FE5 		ldr	r6, .L364+200
 4285 31b8 B030D7E1 		ldrh	r3, [r7, #0]
 4286 31bc B020D6E1 		ldrh	r2, [r6, #0]
 4287 31c0 0B3083E2 		add	r3, r3, #11
 4288 31c4 012082E2 		add	r2, r2, #1
 4289 31c8 B020C6E1 		strh	r2, [r6, #0]	@ movhi 
 4290 31cc B030C7E1 		strh	r3, [r7, #0]	@ movhi 
 4291 31d0 9900A0E3 		mov	r0, #153
 4292 31d4 68449FE5 		ldr	r4, .L364+204
 4293 31d8 FEFFFFEB 		bl	uart1_transmit
 4294 31dc 0B00A0E3 		mov	r0, #11
 4295 31e0 60549FE5 		ldr	r5, .L364+208
 4296 31e4 FEFFFFEB 		bl	uart1_transmit
 4297 31e8 0F30A0E3 		mov	r3, #15
 4298 31ec 0030C4E5 		strb	r3, [r4, #0]
 4299 31f0 0B3083E2 		add	r3, r3, #11
 4300 31f4 0400A0E3 		mov	r0, #4
 4301 31f8 0030C5E5 		strb	r3, [r5, #0]
 4302 31fc FEFFFFEB 		bl	uart1_transmit
 4303 3200 0030D4E5 		ldrb	r3, [r4, #0]	@ zero_extendqisi2
 4304 3204 1E3083E2 		add	r3, r3, #30
 4305 3208 0030C4E5 		strb	r3, [r4, #0]
 4306 320c 0030D5E5 		ldrb	r3, [r5, #0]	@ zero_extendqisi2
 4307 3210 0020D4E5 		ldrb	r2, [r4, #0]	@ zero_extendqisi2
 4308 3214 023083E0 		add	r3, r3, r2
 4309 3218 1E00A0E3 		mov	r0, #30
 4310 321c 0030C5E5 		strb	r3, [r5, #0]
 4311 3220 FEFFFFEB 		bl	uart1_transmit
 4312 3224 0000DAE5 		ldrb	r0, [sl, #0]	@ zero_extendqisi2
 4313 3228 0030D4E5 		ldrb	r3, [r4, #0]	@ zero_extendqisi2
 4314 322c 033080E0 		add	r3, r0, r3
 4315 3230 0030C4E5 		strb	r3, [r4, #0]
 4316 3234 0030D5E5 		ldrb	r3, [r5, #0]	@ zero_extendqisi2
 4317 3238 0020D4E5 		ldrb	r2, [r4, #0]	@ zero_extendqisi2
 4318 323c 023083E0 		add	r3, r3, r2
 4319 3240 0030C5E5 		strb	r3, [r5, #0]
 4320 3244 FEFFFFEB 		bl	uart1_transmit
 4321 3248 32005BE5 		ldrb	r0, [fp, #-50]	@ zero_extendqisi2
 4322 324c 0030D4E5 		ldrb	r3, [r4, #0]	@ zero_extendqisi2
 4323 3250 033080E0 		add	r3, r0, r3
 4324 3254 0030C4E5 		strb	r3, [r4, #0]
 4325 3258 0030D5E5 		ldrb	r3, [r5, #0]	@ zero_extendqisi2
 4326 325c 0020D4E5 		ldrb	r2, [r4, #0]	@ zero_extendqisi2
 4327 3260 023083E0 		add	r3, r3, r2
 4328 3264 0030C5E5 		strb	r3, [r5, #0]
 4329 3268 FEFFFFEB 		bl	uart1_transmit
 4330 326c 31005BE5 		ldrb	r0, [fp, #-49]	@ zero_extendqisi2
 4331 3270 0030D4E5 		ldrb	r3, [r4, #0]	@ zero_extendqisi2
 4332 3274 033080E0 		add	r3, r0, r3
 4333 3278 0030C4E5 		strb	r3, [r4, #0]
 4334 327c 0030D5E5 		ldrb	r3, [r5, #0]	@ zero_extendqisi2
 4335 3280 0020D4E5 		ldrb	r2, [r4, #0]	@ zero_extendqisi2
 4336 3284 023083E0 		add	r3, r3, r2
 4337 3288 0030C5E5 		strb	r3, [r5, #0]
 4338 328c FEFFFFEB 		bl	uart1_transmit
 4339 3290 0000D6E5 		ldrb	r0, [r6, #0]	@ zero_extendqisi2
 4340 3294 0030D4E5 		ldrb	r3, [r4, #0]	@ zero_extendqisi2
 4341 3298 033080E0 		add	r3, r0, r3
 4342 329c 0030C4E5 		strb	r3, [r4, #0]
 4343 32a0 0030D5E5 		ldrb	r3, [r5, #0]	@ zero_extendqisi2
 4344 32a4 0020D4E5 		ldrb	r2, [r4, #0]	@ zero_extendqisi2
 4345 32a8 023083E0 		add	r3, r3, r2
 4346 32ac 0030C5E5 		strb	r3, [r5, #0]
 4347 32b0 FEFFFFEB 		bl	uart1_transmit
 4348 32b4 0100D6E5 		ldrb	r0, [r6, #1]	@ zero_extendqisi2
 4349 32b8 0030D4E5 		ldrb	r3, [r4, #0]	@ zero_extendqisi2
 4350 32bc 033080E0 		add	r3, r0, r3
 4351 32c0 0030C4E5 		strb	r3, [r4, #0]
 4352 32c4 0030D5E5 		ldrb	r3, [r5, #0]	@ zero_extendqisi2
 4353 32c8 0020D4E5 		ldrb	r2, [r4, #0]	@ zero_extendqisi2
 4354 32cc 023083E0 		add	r3, r3, r2
 4355 32d0 0030C5E5 		strb	r3, [r5, #0]
 4356 32d4 FEFFFFEB 		bl	uart1_transmit
 4357 32d8 0000D4E5 		ldrb	r0, [r4, #0]	@ zero_extendqisi2
 4358 32dc FEFFFFEB 		bl	uart1_transmit
 4359 32e0 0000D5E5 		ldrb	r0, [r5, #0]	@ zero_extendqisi2
 4360 32e4 FEFFFFEB 		bl	uart1_transmit
 4361              	.L162:
 4362 32e8 90229FE5 		ldr	r2, .L364+8
 4363 32ec B030D2E1 		ldrh	r3, [r2, #0]
 4364 32f0 420053E3 		cmp	r3, #66
 4365 32f4 390D001A 		bne	.L50
 4366 32f8 0F00A0E3 		mov	r0, #15
 4367 32fc FEFFFFEB 		bl	uart1_check_free_space
 4368 3300 FF0010E3 		tst	r0, #255
 4369 3304 2C239F05 		ldreq	r2, .L364+192
 4370 3308 0030D205 		ldreqb	r3, [r2, #0]	@ zero_extendqisi2
 4371 330c 01308302 		addeq	r3, r3, #1
 4372 3310 0030C205 		streqb	r3, [r2, #0]
 4373 3314 390D000A 		beq	.L50
 4374 3318 1C139FE5 		ldr	r1, .L364+196
 4375 331c 1CC39FE5 		ldr	ip, .L364+200
 4376 3320 B030D1E1 		ldrh	r3, [r1, #0]
 4377 3324 B020DCE1 		ldrh	r2, [ip, #0]
 4378 3328 0F3083E2 		add	r3, r3, #15
 4379 332c 012082E2 		add	r2, r2, #1
 4380 3330 B030C1E1 		strh	r3, [r1, #0]	@ movhi 
 4381 3334 B020CCE1 		strh	r2, [ip, #0]	@ movhi 
 4382 3338 9900A0E3 		mov	r0, #153
 4383 333c 00439FE5 		ldr	r4, .L364+204
 4384 3340 FEFFFFEB 		bl	uart1_transmit
 4385 3344 0F00A0E3 		mov	r0, #15
 4386 3348 F8529FE5 		ldr	r5, .L364+208
 4387 334c FEFFFFEB 		bl	uart1_transmit
 4388 3350 1330A0E3 		mov	r3, #19
 4389 3354 0030C4E5 		strb	r3, [r4, #0]
 4390 3358 0F3083E2 		add	r3, r3, #15
 4391 335c 0400A0E3 		mov	r0, #4
 4392 3360 0030C5E5 		strb	r3, [r5, #0]
 4393 3364 FEFFFFEB 		bl	uart1_transmit
 4394 3368 0030D4E5 		ldrb	r3, [r4, #0]	@ zero_extendqisi2
 4395 336c 093083E2 		add	r3, r3, #9
 4396 3370 0030C4E5 		strb	r3, [r4, #0]
 4397 3374 0030D5E5 		ldrb	r3, [r5, #0]	@ zero_extendqisi2
 4398 3378 0020D4E5 		ldrb	r2, [r4, #0]	@ zero_extendqisi2
 4399 337c 68629FE5 		ldr	r6, .L364+116
 4400 3380 023083E0 		add	r3, r3, r2
 4401 3384 0900A0E3 		mov	r0, #9
 4402 3388 0030C5E5 		strb	r3, [r5, #0]
 4403 338c FEFFFFEB 		bl	uart1_transmit
 4404 3390 0000D6E5 		ldrb	r0, [r6, #0]	@ zero_extendqisi2
 4405 3394 0030D4E5 		ldrb	r3, [r4, #0]	@ zero_extendqisi2
 4406 3398 033080E0 		add	r3, r0, r3
 4407 339c 0030C4E5 		strb	r3, [r4, #0]
 4408 33a0 0030D5E5 		ldrb	r3, [r5, #0]	@ zero_extendqisi2
 4409 33a4 0020D4E5 		ldrb	r2, [r4, #0]	@ zero_extendqisi2
 4410 33a8 023083E0 		add	r3, r3, r2
 4411 33ac 0030C5E5 		strb	r3, [r5, #0]
 4412 33b0 FEFFFFEB 		bl	uart1_transmit
 4413 33b4 0100D6E5 		ldrb	r0, [r6, #1]	@ zero_extendqisi2
 4414 33b8 0030D4E5 		ldrb	r3, [r4, #0]	@ zero_extendqisi2
 4415 33bc 033080E0 		add	r3, r0, r3
 4416 33c0 0030C4E5 		strb	r3, [r4, #0]
 4417 33c4 0030D5E5 		ldrb	r3, [r5, #0]	@ zero_extendqisi2
 4418 33c8 0020D4E5 		ldrb	r2, [r4, #0]	@ zero_extendqisi2
 4419 33cc 023083E0 		add	r3, r3, r2
 4420 33d0 0030C5E5 		strb	r3, [r5, #0]
 4421 33d4 FEFFFFEB 		bl	uart1_transmit
 4422 33d8 0200D6E5 		ldrb	r0, [r6, #2]	@ zero_extendqisi2
 4423 33dc 0030D4E5 		ldrb	r3, [r4, #0]	@ zero_extendqisi2
 4424 33e0 033080E0 		add	r3, r0, r3
 4425 33e4 0030C4E5 		strb	r3, [r4, #0]
 4426 33e8 0030D5E5 		ldrb	r3, [r5, #0]	@ zero_extendqisi2
 4427 33ec 0020D4E5 		ldrb	r2, [r4, #0]	@ zero_extendqisi2
 4428 33f0 023083E0 		add	r3, r3, r2
 4429 33f4 0030C5E5 		strb	r3, [r5, #0]
 4430 33f8 FEFFFFEB 		bl	uart1_transmit
 4431 33fc 0300D6E5 		ldrb	r0, [r6, #3]	@ zero_extendqisi2
 4432 3400 0030D4E5 		ldrb	r3, [r4, #0]	@ zero_extendqisi2
 4433 3404 033080E0 		add	r3, r0, r3
 4434 3408 0030C4E5 		strb	r3, [r4, #0]
 4435 340c 0030D5E5 		ldrb	r3, [r5, #0]	@ zero_extendqisi2
 4436 3410 0020D4E5 		ldrb	r2, [r4, #0]	@ zero_extendqisi2
 4437 3414 D8619FE5 		ldr	r6, .L364+124
 4438 3418 023083E0 		add	r3, r3, r2
 4439 341c 0030C5E5 		strb	r3, [r5, #0]
 4440 3420 FEFFFFEB 		bl	uart1_transmit
 4441 3424 0000D6E5 		ldrb	r0, [r6, #0]	@ zero_extendqisi2
 4442 3428 0030D4E5 		ldrb	r3, [r4, #0]	@ zero_extendqisi2
 4443 342c 033080E0 		add	r3, r0, r3
 4444 3430 0030C4E5 		strb	r3, [r4, #0]
 4445 3434 0030D5E5 		ldrb	r3, [r5, #0]	@ zero_extendqisi2
 4446 3438 0020D4E5 		ldrb	r2, [r4, #0]	@ zero_extendqisi2
 4447 343c 023083E0 		add	r3, r3, r2
 4448 3440 0030C5E5 		strb	r3, [r5, #0]
 4449 3444 FEFFFFEB 		bl	uart1_transmit
 4450 3448 0100D6E5 		ldrb	r0, [r6, #1]	@ zero_extendqisi2
 4451 344c 0030D4E5 		ldrb	r3, [r4, #0]	@ zero_extendqisi2
 4452 3450 033080E0 		add	r3, r0, r3
 4453 3454 0030C4E5 		strb	r3, [r4, #0]
 4454 3458 0030D5E5 		ldrb	r3, [r5, #0]	@ zero_extendqisi2
 4455 345c 0020D4E5 		ldrb	r2, [r4, #0]	@ zero_extendqisi2
 4456 3460 023083E0 		add	r3, r3, r2
 4457 3464 0030C5E5 		strb	r3, [r5, #0]
 4458 3468 FEFFFFEB 		bl	uart1_transmit
 4459 346c 0200D6E5 		ldrb	r0, [r6, #2]	@ zero_extendqisi2
 4460 3470 0030D4E5 		ldrb	r3, [r4, #0]	@ zero_extendqisi2
 4461 3474 033080E0 		add	r3, r0, r3
 4462 3478 0030C4E5 		strb	r3, [r4, #0]
 4463 347c 0030D5E5 		ldrb	r3, [r5, #0]	@ zero_extendqisi2
 4464 3480 0020D4E5 		ldrb	r2, [r4, #0]	@ zero_extendqisi2
 4465 3484 023083E0 		add	r3, r3, r2
 4466 3488 0030C5E5 		strb	r3, [r5, #0]
 4467 348c FEFFFFEB 		bl	uart1_transmit
 4468 3490 0300D6E5 		ldrb	r0, [r6, #3]	@ zero_extendqisi2
 4469 3494 0030D4E5 		ldrb	r3, [r4, #0]	@ zero_extendqisi2
 4470 3498 033080E0 		add	r3, r0, r3
 4471 349c 0030C4E5 		strb	r3, [r4, #0]
 4472 34a0 0030D5E5 		ldrb	r3, [r5, #0]	@ zero_extendqisi2
 4473 34a4 0020D4E5 		ldrb	r2, [r4, #0]	@ zero_extendqisi2
 4474 34a8 023083E0 		add	r3, r3, r2
 4475 34ac 0030C5E5 		strb	r3, [r5, #0]
 4476 34b0 FEFFFFEB 		bl	uart1_transmit
 4477 34b4 3C319FE5 		ldr	r3, .L364+128
 4478 34b8 0000D3E5 		ldrb	r0, [r3, #0]	@ zero_extendqisi2
 4479 34bc 0030D4E5 		ldrb	r3, [r4, #0]	@ zero_extendqisi2
 4480 34c0 033080E0 		add	r3, r0, r3
 4481 34c4 0030C4E5 		strb	r3, [r4, #0]
 4482 34c8 0030D5E5 		ldrb	r3, [r5, #0]	@ zero_extendqisi2
 4483 34cc 0020D4E5 		ldrb	r2, [r4, #0]	@ zero_extendqisi2
 4484 34d0 023083E0 		add	r3, r3, r2
 4485 34d4 0030C5E5 		strb	r3, [r5, #0]
 4486 34d8 FEFFFFEB 		bl	uart1_transmit
 4487 34dc 0000D4E5 		ldrb	r0, [r4, #0]	@ zero_extendqisi2
 4488 34e0 FEFFFFEB 		bl	uart1_transmit
 4489 34e4 0000D5E5 		ldrb	r0, [r5, #0]	@ zero_extendqisi2
 4490 34e8 FEFFFFEB 		bl	uart1_transmit
 4491              	.L50:
 4492 34ec 28019FE5 		ldr	r0, .L364+164
 4493 34f0 0030D0E5 		ldrb	r3, [r0, #0]	@ zero_extendqisi2
 4494 34f4 010053E3 		cmp	r3, #1
 4495 34f8 4C19001A 		bne	.L168
 4496 34fc 80109FE5 		ldr	r1, .L364+12
 4497 3500 0030D1E5 		ldrb	r3, [r1, #0]	@ zero_extendqisi2
 4498 3504 013083E2 		add	r3, r3, #1
 4499 3508 0030C1E5 		strb	r3, [r1, #0]
 4500 350c 0030D1E5 		ldrb	r3, [r1, #0]	@ zero_extendqisi2
 4501 3510 70409FE5 		ldr	r4, .L364+16
 4502 3514 3E0053E3 		cmp	r3, #62
 4503 3518 0030A083 		movhi	r3, #0
 4504 351c 0030C185 		strhib	r3, [r1, #0]
 4505 3520 0030D4E5 		ldrb	r3, [r4, #0]	@ zero_extendqisi2
 4506 3524 013083E2 		add	r3, r3, #1
 4507 3528 0030C4E5 		strb	r3, [r4, #0]
 4508 352c 0030D4E5 		ldrb	r3, [r4, #0]	@ zero_extendqisi2
 4509 3530 54709FE5 		ldr	r7, .L364+20
 4510 3534 410053E3 		cmp	r3, #65
 4511 3538 0030A083 		movhi	r3, #0
 4512 353c 0030C485 		strhib	r3, [r4, #0]
 4513 3540 0030D7E5 		ldrb	r3, [r7, #0]	@ zero_extendqisi2
 4514 3544 013083E2 		add	r3, r3, #1
 4515 3548 0030C7E5 		strb	r3, [r7, #0]
 4516 354c 0030D7E5 		ldrb	r3, [r7, #0]	@ zero_extendqisi2
 4517 3550 38809FE5 		ldr	r8, .L364+24
 4518 3554 4D0053E3 		cmp	r3, #77
 4519 3558 0030A083 		movhi	r3, #0
 4520 355c 0030C785 		strhib	r3, [r7, #0]
 4521 3560 0030D8E5 		ldrb	r3, [r8, #0]	@ zero_extendqisi2
 4522 3564 013083E2 		add	r3, r3, #1
 4523 3568 0030C8E5 		strb	r3, [r8, #0]
 4524 356c 0030D8E5 		ldrb	r3, [r8, #0]	@ zero_extendqisi2
 4525 3570 1CA09FE5 		ldr	sl, .L364+28
 4526 3574 970D00EA 		b	.L365
 4527              	.L366:
 4528              		.align	2
 4529              	.L364:
 4530 3578 66661440 		.word	1075078758
 4531 357c 66666666 		.word	1717986918
 4532 3580 00000000 		.word	i540.23
 4533 3584 00000000 		.word	i63.27
 4534 3588 00000000 		.word	i66.28
 4535 358c 00000000 		.word	i78.29
 4536 3590 00000000 		.word	i84.30
 4537 3594 00000000 		.word	i90.31
 4538 3598 00000000 		.word	i126.32
 4539 359c 00000000 		.word	i183.34
 4540 35a0 00000000 		.word	i192.35
 4541 35a4 00000000 		.word	i240.36
 4542 35a8 00000000 		.word	i243.37
 4543 35ac 00000000 		.word	i300.38
 4544 35b0 00000000 		.word	i306.39
 4545 35b4 31010000 		.word	305
 4546 35b8 00000000 		.word	i312.40
 4547 35bc 00000000 		.word	i540.41
 4548 35c0 00000000 		.word	i606.42
 4549 35c4 5D020000 		.word	605
 4550 35c8 00000000 		.word	energy
 4551 35cc 00000000 		.word	v_ctl_throttle_slewed
 4552 35d0 00000000 		.word	vsupply
 4553 35d4 00000000 		.word	block_time
 4554 35d8 00000000 		.word	stage_time
 4555 35dc 00000000 		.word	estimator_z
 4556 35e0 00000000 		.word	estimator_z_dot
 4557 35e4 00000000 		.word	i.43
 4558 35e8 00000000 		.word	nb_waypoint
 4559 35ec 00000000 		.word	nav_utm_east0
 4560 35f0 00000000 		.word	waypoints
 4561 35f4 00000000 		.word	nav_utm_north0
 4562 35f8 00000000 		.word	nav_utm_zone0
 4563 35fc 00000000 		.word	flight_altitude
 4564 3600 00000000 		.word	nav_course
 4565 3604 00000000 		.word	nav_shift
 4566 3608 00000000 		.word	estimator_flight_time
 4567 360c 00000000 		.word	nav_radius
 4568 3610 00000000 		.word	pprz_mode
 4569 3614 00000000 		.word	launch
 4570 3618 00000000 		.word	kill_throttle
 4571 361c 00000000 		.word	telemetry_mode_Ap_DefaultChannel
 4572 3620 00008043 		.word	1132462080
 4573 3624 00000000 		.word	gps_reset
 4574 3628 00008047 		.word	1199570944
 4575 362c 00000000 		.word	infrared
 4576 3630 00000000 		.word	i.44
 4577 3634 00000000 		.word	nav_survey_active
 4578 3638 00000000 		.word	downlink_nb_ovrn
 4579 363c 00000000 		.word	downlink_nb_bytes
 4580 3640 00000000 		.word	downlink_nb_msgs
 4581 3644 00000000 		.word	ck_a
 4582 3648 00000000 		.word	ck_b
 4583 364c 00000000 		.word	nav_survey_east
 4584 3650 00000000 		.word	nav_survey_north
 4585 3654 00000000 		.word	nav_survey_west
 4586 3658 00000000 		.word	nav_survey_south
 4587 365c 00000000 		.word	i180.33
 4588 3660 00000000 		.word	nav_circle_radians
 4589              	.L365:
 4590 3664 530053E3 		cmp	r3, #83
 4591 3668 0030A083 		movhi	r3, #0
 4592 366c 0030C885 		strhib	r3, [r8, #0]
 4593 3670 0030DAE5 		ldrb	r3, [sl, #0]	@ zero_extendqisi2
 4594 3674 013083E2 		add	r3, r3, #1
 4595 3678 0030CAE5 		strb	r3, [sl, #0]
 4596 367c 0030DAE5 		ldrb	r3, [sl, #0]	@ zero_extendqisi2
 4597 3680 F0901FE5 		ldr	r9, .L364+32
 4598 3684 590053E3 		cmp	r3, #89
 4599 3688 0030A083 		movhi	r3, #0
 4600 368c 0030CA85 		strhib	r3, [sl, #0]
 4601 3690 0030D9E5 		ldrb	r3, [r9, #0]	@ zero_extendqisi2
 4602 3694 013083E2 		add	r3, r3, #1
 4603 3698 0030C9E5 		strb	r3, [r9, #0]
 4604 369c 0030D9E5 		ldrb	r3, [r9, #0]	@ zero_extendqisi2
 4605 36a0 4C201FE5 		ldr	r2, .L364+228
 4606 36a4 7D0053E3 		cmp	r3, #125
 4607 36a8 0030A083 		movhi	r3, #0
 4608 36ac 0030C985 		strhib	r3, [r9, #0]
 4609 36b0 0030D2E5 		ldrb	r3, [r2, #0]	@ zero_extendqisi2
 4610 36b4 013083E2 		add	r3, r3, #1
 4611 36b8 0030C2E5 		strb	r3, [r2, #0]
 4612 36bc 0030D2E5 		ldrb	r3, [r2, #0]	@ zero_extendqisi2
 4613 36c0 2C011FE5 		ldr	r0, .L364+36
 4614 36c4 B30053E3 		cmp	r3, #179
 4615 36c8 0030A083 		movhi	r3, #0
 4616 36cc 0030C285 		strhib	r3, [r2, #0]
 4617 36d0 0030D0E5 		ldrb	r3, [r0, #0]	@ zero_extendqisi2
 4618 36d4 013083E2 		add	r3, r3, #1
 4619 36d8 0030C0E5 		strb	r3, [r0, #0]
 4620 36dc 0030D0E5 		ldrb	r3, [r0, #0]	@ zero_extendqisi2
 4621 36e0 48211FE5 		ldr	r2, .L364+40
 4622 36e4 B60053E3 		cmp	r3, #182
 4623 36e8 0030A083 		movhi	r3, #0
 4624 36ec 0030C085 		strhib	r3, [r0, #0]
 4625 36f0 0030D2E5 		ldrb	r3, [r2, #0]	@ zero_extendqisi2
 4626 36f4 013083E2 		add	r3, r3, #1
 4627 36f8 0030C2E5 		strb	r3, [r2, #0]
 4628 36fc 0030D2E5 		ldrb	r3, [r2, #0]	@ zero_extendqisi2
 4629 3700 64011FE5 		ldr	r0, .L364+44
 4630 3704 BF0053E3 		cmp	r3, #191
 4631 3708 0030A083 		movhi	r3, #0
 4632 370c 0030C285 		strhib	r3, [r2, #0]
 4633 3710 0030D0E5 		ldrb	r3, [r0, #0]	@ zero_extendqisi2
 4634 3714 013083E2 		add	r3, r3, #1
 4635 3718 0030C0E5 		strb	r3, [r0, #0]
 4636 371c 0030D0E5 		ldrb	r3, [r0, #0]	@ zero_extendqisi2
 4637 3720 80211FE5 		ldr	r2, .L364+48
 4638 3724 EF0053E3 		cmp	r3, #239
 4639 3728 0030A083 		movhi	r3, #0
 4640 372c 0030C085 		strhib	r3, [r0, #0]
 4641 3730 0030D2E5 		ldrb	r3, [r2, #0]	@ zero_extendqisi2
 4642 3734 013083E2 		add	r3, r3, #1
 4643 3738 0030C2E5 		strb	r3, [r2, #0]
 4644 373c 0030D2E5 		ldrb	r3, [r2, #0]	@ zero_extendqisi2
 4645 3740 9C011FE5 		ldr	r0, .L364+52
 4646 3744 F20053E3 		cmp	r3, #242
 4647 3748 0030A083 		movhi	r3, #0
 4648 374c 0030C285 		strhib	r3, [r2, #0]
 4649 3750 B030D0E1 		ldrh	r3, [r0, #0]
 4650 3754 013083E2 		add	r3, r3, #1
 4651 3758 B030C0E1 		strh	r3, [r0, #0]	@ movhi 
 4652 375c B030D0E1 		ldrh	r3, [r0, #0]
 4653 3760 4B0F53E3 		cmp	r3, #300
 4654 3764 0020A023 		movcs	r2, #0	@ movhi
 4655 3768 B020C021 		strcsh	r2, [r0, #0]	@ movhi 
 4656 376c C4011FE5 		ldr	r0, .L364+56
 4657 3770 B030D0E1 		ldrh	r3, [r0, #0]
 4658 3774 013083E2 		add	r3, r3, #1
 4659 3778 B030C0E1 		strh	r3, [r0, #0]	@ movhi 
 4660 377c D0311FE5 		ldr	r3, .L364+60
 4661 3780 B020D0E1 		ldrh	r2, [r0, #0]
 4662 3784 030052E1 		cmp	r2, r3
 4663 3788 0020A083 		movhi	r2, #0	@ movhi
 4664 378c B020C081 		strhih	r2, [r0, #0]	@ movhi 
 4665 3790 E0011FE5 		ldr	r0, .L364+64
 4666 3794 B030D0E1 		ldrh	r3, [r0, #0]
 4667 3798 013083E2 		add	r3, r3, #1
 4668 379c B030C0E1 		strh	r3, [r0, #0]	@ movhi 
 4669 37a0 B030D0E1 		ldrh	r3, [r0, #0]
 4670 37a4 4E0F53E3 		cmp	r3, #312
 4671 37a8 0020A023 		movcs	r2, #0	@ movhi
 4672 37ac B020C021 		strcsh	r2, [r0, #0]	@ movhi 
 4673 37b0 FC011FE5 		ldr	r0, .L364+68
 4674 37b4 B030D0E1 		ldrh	r3, [r0, #0]
 4675 37b8 013083E2 		add	r3, r3, #1
 4676 37bc B030C0E1 		strh	r3, [r0, #0]	@ movhi 
 4677 37c0 B030D0E1 		ldrh	r3, [r0, #0]
 4678 37c4 870F53E3 		cmp	r3, #540
 4679 37c8 0020A023 		movcs	r2, #0	@ movhi
 4680 37cc B020C021 		strcsh	r2, [r0, #0]	@ movhi 
 4681 37d0 18021FE5 		ldr	r0, .L364+72
 4682 37d4 B030D0E1 		ldrh	r3, [r0, #0]
 4683 37d8 013083E2 		add	r3, r3, #1
 4684 37dc B030C0E1 		strh	r3, [r0, #0]	@ movhi 
 4685 37e0 24321FE5 		ldr	r3, .L364+76
 4686 37e4 B020D0E1 		ldrh	r2, [r0, #0]
 4687 37e8 030052E1 		cmp	r2, r3
 4688 37ec 0030D1E5 		ldrb	r3, [r1, #0]	@ zero_extendqisi2
 4689 37f0 0020A083 		movhi	r2, #0	@ movhi
 4690 37f4 B020C081 		strhih	r2, [r0, #0]	@ movhi 
 4691 37f8 000053E3 		cmp	r3, #0
 4692 37fc FEFFFF0B 		bleq	gps_send
 4693              	.L185:
 4694 3800 0030D4E5 		ldrb	r3, [r4, #0]	@ zero_extendqisi2
 4695 3804 060053E3 		cmp	r3, #6
 4696 3808 B40E001A 		bne	.L186
 4697 380c 4C321FE5 		ldr	r3, .L364+80
 4698 3810 000093E5 		ldr	r0, [r3, #0]	@ float
 4699 3814 0030A0E3 		mov	r3, #0	@ movhi
 4700 3818 B4334BE1 		strh	r3, [fp, #-52]	@ movhi 
 4701 381c FEFFFFEB 		bl	__fixsfsi
 4702 3820 B6034BE1 		strh	r0, [fp, #-54]	@ movhi 
 4703 3824 1400A0E3 		mov	r0, #20
 4704 3828 FEFFFFEB 		bl	uart1_check_free_space
 4705 382c FF0010E3 		tst	r0, #255
 4706 3830 00221F05 		ldreq	r2, .L364+192
 4707 3834 0030D205 		ldreqb	r3, [r2, #0]	@ zero_extendqisi2
 4708 3838 01308302 		addeq	r3, r3, #1
 4709 383c 0030C205 		streqb	r3, [r2, #0]
 4710 3840 B40E000A 		beq	.L186
 4711 3844 10121FE5 		ldr	r1, .L364+196
 4712 3848 10C21FE5 		ldr	ip, .L364+200
 4713 384c B030D1E1 		ldrh	r3, [r1, #0]
 4714 3850 B020DCE1 		ldrh	r2, [ip, #0]
 4715 3854 143083E2 		add	r3, r3, #20
 4716 3858 012082E2 		add	r2, r2, #1
 4717 385c B030C1E1 		strh	r3, [r1, #0]	@ movhi 
 4718 3860 B020CCE1 		strh	r2, [ip, #0]	@ movhi 
 4719 3864 9900A0E3 		mov	r0, #153
 4720 3868 2C421FE5 		ldr	r4, .L364+204
 4721 386c FEFFFFEB 		bl	uart1_transmit
 4722 3870 1400A0E3 		mov	r0, #20
 4723 3874 34521FE5 		ldr	r5, .L364+208
 4724 3878 FEFFFFEB 		bl	uart1_transmit
 4725 387c 1830A0E3 		mov	r3, #24
 4726 3880 0030C4E5 		strb	r3, [r4, #0]
 4727 3884 143083E2 		add	r3, r3, #20
 4728 3888 0400A0E3 		mov	r0, #4
 4729 388c 0030C5E5 		strb	r3, [r5, #0]
 4730 3890 FEFFFFEB 		bl	uart1_transmit
 4731 3894 0030D4E5 		ldrb	r3, [r4, #0]	@ zero_extendqisi2
 4732 3898 0C3083E2 		add	r3, r3, #12
 4733 389c 0030C4E5 		strb	r3, [r4, #0]
 4734 38a0 0030D5E5 		ldrb	r3, [r5, #0]	@ zero_extendqisi2
 4735 38a4 0020D4E5 		ldrb	r2, [r4, #0]	@ zero_extendqisi2
 4736 38a8 E4621FE5 		ldr	r6, .L364+84
 4737 38ac 023083E0 		add	r3, r3, r2
 4738 38b0 0C00A0E3 		mov	r0, #12
 4739 38b4 0030C5E5 		strb	r3, [r5, #0]
 4740 38b8 FEFFFFEB 		bl	uart1_transmit
 4741 38bc 0000D6E5 		ldrb	r0, [r6, #0]	@ zero_extendqisi2
 4742 38c0 0030D4E5 		ldrb	r3, [r4, #0]	@ zero_extendqisi2
 4743 38c4 033080E0 		add	r3, r0, r3
 4744 38c8 0030C4E5 		strb	r3, [r4, #0]
 4745 38cc 0030D5E5 		ldrb	r3, [r5, #0]	@ zero_extendqisi2
 4746 38d0 0020D4E5 		ldrb	r2, [r4, #0]	@ zero_extendqisi2
 4747 38d4 023083E0 		add	r3, r3, r2
 4748 38d8 0030C5E5 		strb	r3, [r5, #0]
 4749 38dc FEFFFFEB 		bl	uart1_transmit
 4750 38e0 0100D6E5 		ldrb	r0, [r6, #1]	@ zero_extendqisi2
 4751 38e4 0030D4E5 		ldrb	r3, [r4, #0]	@ zero_extendqisi2
 4752 38e8 033080E0 		add	r3, r0, r3
 4753 38ec 0030C4E5 		strb	r3, [r4, #0]
 4754 38f0 0030D5E5 		ldrb	r3, [r5, #0]	@ zero_extendqisi2
 4755 38f4 0020D4E5 		ldrb	r2, [r4, #0]	@ zero_extendqisi2
 4756 38f8 023083E0 		add	r3, r3, r2
 4757 38fc 0030C5E5 		strb	r3, [r5, #0]
 4758 3900 FEFFFFEB 		bl	uart1_transmit
 4759 3904 3C331FE5 		ldr	r3, .L364+88
 4760 3908 0000D3E5 		ldrb	r0, [r3, #0]	@ zero_extendqisi2
 4761 390c 0030D4E5 		ldrb	r3, [r4, #0]	@ zero_extendqisi2
 4762 3910 033080E0 		add	r3, r0, r3
 4763 3914 0030C4E5 		strb	r3, [r4, #0]
 4764 3918 0030D5E5 		ldrb	r3, [r5, #0]	@ zero_extendqisi2
 4765 391c 0020D4E5 		ldrb	r2, [r4, #0]	@ zero_extendqisi2
 4766 3920 023083E0 		add	r3, r3, r2
 4767 3924 0030C5E5 		strb	r3, [r5, #0]
 4768 3928 FEFFFFEB 		bl	uart1_transmit
 4769 392c 34005BE5 		ldrb	r0, [fp, #-52]	@ zero_extendqisi2
 4770 3930 0030D4E5 		ldrb	r3, [r4, #0]	@ zero_extendqisi2
 4771 3934 033080E0 		add	r3, r0, r3
 4772 3938 0030C4E5 		strb	r3, [r4, #0]
 4773 393c 0030D5E5 		ldrb	r3, [r5, #0]	@ zero_extendqisi2
 4774 3940 0020D4E5 		ldrb	r2, [r4, #0]	@ zero_extendqisi2
 4775 3944 023083E0 		add	r3, r3, r2
 4776 3948 0030C5E5 		strb	r3, [r5, #0]
 4777 394c FEFFFFEB 		bl	uart1_transmit
 4778 3950 33005BE5 		ldrb	r0, [fp, #-51]	@ zero_extendqisi2
 4779 3954 0030D4E5 		ldrb	r3, [r4, #0]	@ zero_extendqisi2
 4780 3958 033080E0 		add	r3, r0, r3
 4781 395c 0030C4E5 		strb	r3, [r4, #0]
 4782 3960 0030D5E5 		ldrb	r3, [r5, #0]	@ zero_extendqisi2
 4783 3964 0020D4E5 		ldrb	r2, [r4, #0]	@ zero_extendqisi2
 4784 3968 68631FE5 		ldr	r6, .L364+144
 4785 396c 023083E0 		add	r3, r3, r2
 4786 3970 0030C5E5 		strb	r3, [r5, #0]
 4787 3974 FEFFFFEB 		bl	uart1_transmit
 4788 3978 0000D6E5 		ldrb	r0, [r6, #0]	@ zero_extendqisi2
 4789 397c 0030D4E5 		ldrb	r3, [r4, #0]	@ zero_extendqisi2
 4790 3980 033080E0 		add	r3, r0, r3
 4791 3984 0030C4E5 		strb	r3, [r4, #0]
 4792 3988 0030D5E5 		ldrb	r3, [r5, #0]	@ zero_extendqisi2
 4793 398c 0020D4E5 		ldrb	r2, [r4, #0]	@ zero_extendqisi2
 4794 3990 023083E0 		add	r3, r3, r2
 4795 3994 0030C5E5 		strb	r3, [r5, #0]
 4796 3998 FEFFFFEB 		bl	uart1_transmit
 4797 399c 0100D6E5 		ldrb	r0, [r6, #1]	@ zero_extendqisi2
 4798 39a0 0030D4E5 		ldrb	r3, [r4, #0]	@ zero_extendqisi2
 4799 39a4 033080E0 		add	r3, r0, r3
 4800 39a8 0030C4E5 		strb	r3, [r4, #0]
 4801 39ac 0030D5E5 		ldrb	r3, [r5, #0]	@ zero_extendqisi2
 4802 39b0 0020D4E5 		ldrb	r2, [r4, #0]	@ zero_extendqisi2
 4803 39b4 023083E0 		add	r3, r3, r2
 4804 39b8 0030C5E5 		strb	r3, [r5, #0]
 4805 39bc FEFFFFEB 		bl	uart1_transmit
 4806 39c0 B0331FE5 		ldr	r3, .L364+160
 4807 39c4 0000D3E5 		ldrb	r0, [r3, #0]	@ zero_extendqisi2
 4808 39c8 0030D4E5 		ldrb	r3, [r4, #0]	@ zero_extendqisi2
 4809 39cc 033080E0 		add	r3, r0, r3
 4810 39d0 0030C4E5 		strb	r3, [r4, #0]
 4811 39d4 0030D5E5 		ldrb	r3, [r5, #0]	@ zero_extendqisi2
 4812 39d8 0020D4E5 		ldrb	r2, [r4, #0]	@ zero_extendqisi2
 4813 39dc 10641FE5 		ldr	r6, .L364+92
 4814 39e0 023083E0 		add	r3, r3, r2
 4815 39e4 0030C5E5 		strb	r3, [r5, #0]
 4816 39e8 FEFFFFEB 		bl	uart1_transmit
 4817 39ec 0000D6E5 		ldrb	r0, [r6, #0]	@ zero_extendqisi2
 4818 39f0 0030D4E5 		ldrb	r3, [r4, #0]	@ zero_extendqisi2
 4819 39f4 033080E0 		add	r3, r0, r3
 4820 39f8 0030C4E5 		strb	r3, [r4, #0]
 4821 39fc 0030D5E5 		ldrb	r3, [r5, #0]	@ zero_extendqisi2
 4822 3a00 0020D4E5 		ldrb	r2, [r4, #0]	@ zero_extendqisi2
 4823 3a04 023083E0 		add	r3, r3, r2
 4824 3a08 0030C5E5 		strb	r3, [r5, #0]
 4825 3a0c FEFFFFEB 		bl	uart1_transmit
 4826 3a10 0100D6E5 		ldrb	r0, [r6, #1]	@ zero_extendqisi2
 4827 3a14 0030D4E5 		ldrb	r3, [r4, #0]	@ zero_extendqisi2
 4828 3a18 033080E0 		add	r3, r0, r3
 4829 3a1c 0030C4E5 		strb	r3, [r4, #0]
 4830 3a20 0030D5E5 		ldrb	r3, [r5, #0]	@ zero_extendqisi2
 4831 3a24 0020D4E5 		ldrb	r2, [r4, #0]	@ zero_extendqisi2
 4832 3a28 58641FE5 		ldr	r6, .L364+96
 4833 3a2c 023083E0 		add	r3, r3, r2
 4834 3a30 0030C5E5 		strb	r3, [r5, #0]
 4835 3a34 FEFFFFEB 		bl	uart1_transmit
 4836 3a38 0000D6E5 		ldrb	r0, [r6, #0]	@ zero_extendqisi2
 4837 3a3c 0030D4E5 		ldrb	r3, [r4, #0]	@ zero_extendqisi2
 4838 3a40 033080E0 		add	r3, r0, r3
 4839 3a44 0030C4E5 		strb	r3, [r4, #0]
 4840 3a48 0030D5E5 		ldrb	r3, [r5, #0]	@ zero_extendqisi2
 4841 3a4c 0020D4E5 		ldrb	r2, [r4, #0]	@ zero_extendqisi2
 4842 3a50 023083E0 		add	r3, r3, r2
 4843 3a54 0030C5E5 		strb	r3, [r5, #0]
 4844 3a58 FEFFFFEB 		bl	uart1_transmit
 4845 3a5c 0100D6E5 		ldrb	r0, [r6, #1]	@ zero_extendqisi2
 4846 3a60 0030D4E5 		ldrb	r3, [r4, #0]	@ zero_extendqisi2
 4847 3a64 033080E0 		add	r3, r0, r3
 4848 3a68 0030C4E5 		strb	r3, [r4, #0]
 4849 3a6c 0030D5E5 		ldrb	r3, [r5, #0]	@ zero_extendqisi2
 4850 3a70 0020D4E5 		ldrb	r2, [r4, #0]	@ zero_extendqisi2
 4851 3a74 023083E0 		add	r3, r3, r2
 4852 3a78 0030C5E5 		strb	r3, [r5, #0]
 4853 3a7c FEFFFFEB 		bl	uart1_transmit
 4854 3a80 36005BE5 		ldrb	r0, [fp, #-54]	@ zero_extendqisi2
 4855 3a84 0030D4E5 		ldrb	r3, [r4, #0]	@ zero_extendqisi2
 4856 3a88 033080E0 		add	r3, r0, r3
 4857 3a8c 0030C4E5 		strb	r3, [r4, #0]
 4858 3a90 0030D5E5 		ldrb	r3, [r5, #0]	@ zero_extendqisi2
 4859 3a94 0020D4E5 		ldrb	r2, [r4, #0]	@ zero_extendqisi2
 4860 3a98 023083E0 		add	r3, r3, r2
 4861 3a9c 0030C5E5 		strb	r3, [r5, #0]
 4862 3aa0 FEFFFFEB 		bl	uart1_transmit
 4863 3aa4 35005BE5 		ldrb	r0, [fp, #-53]	@ zero_extendqisi2
 4864 3aa8 0030D4E5 		ldrb	r3, [r4, #0]	@ zero_extendqisi2
 4865 3aac 033080E0 		add	r3, r0, r3
 4866 3ab0 0030C4E5 		strb	r3, [r4, #0]
 4867 3ab4 0030D5E5 		ldrb	r3, [r5, #0]	@ zero_extendqisi2
 4868 3ab8 0020D4E5 		ldrb	r2, [r4, #0]	@ zero_extendqisi2
 4869 3abc 023083E0 		add	r3, r3, r2
 4870 3ac0 0030C5E5 		strb	r3, [r5, #0]
 4871 3ac4 FEFFFFEB 		bl	uart1_transmit
 4872 3ac8 0000D4E5 		ldrb	r0, [r4, #0]	@ zero_extendqisi2
 4873 3acc FEFFFFEB 		bl	uart1_transmit
 4874 3ad0 0000D5E5 		ldrb	r0, [r5, #0]	@ zero_extendqisi2
 4875 3ad4 FEFFFFEB 		bl	uart1_transmit
 4876              	.L186:
 4877 3ad8 0030D7E5 		ldrb	r3, [r7, #0]	@ zero_extendqisi2
 4878 3adc 0C0053E3 		cmp	r3, #12
 4879 3ae0 2A0F001A 		bne	.L189
 4880 3ae4 0E00A0E3 		mov	r0, #14
 4881 3ae8 FEFFFFEB 		bl	uart1_check_free_space
 4882 3aec FF0010E3 		tst	r0, #255
 4883 3af0 C0241F05 		ldreq	r2, .L364+192
 4884 3af4 0030D205 		ldreqb	r3, [r2, #0]	@ zero_extendqisi2
 4885 3af8 01308302 		addeq	r3, r3, #1
 4886 3afc 0030C205 		streqb	r3, [r2, #0]
 4887 3b00 2A0F000A 		beq	.L189
 4888 3b04 D0141FE5 		ldr	r1, .L364+196
 4889 3b08 D0C41FE5 		ldr	ip, .L364+200
 4890 3b0c B030D1E1 		ldrh	r3, [r1, #0]
 4891 3b10 B020DCE1 		ldrh	r2, [ip, #0]
 4892 3b14 0E3083E2 		add	r3, r3, #14
 4893 3b18 012082E2 		add	r2, r2, #1
 4894 3b1c B030C1E1 		strh	r3, [r1, #0]	@ movhi 
 4895 3b20 B020CCE1 		strh	r2, [ip, #0]	@ movhi 
 4896 3b24 9900A0E3 		mov	r0, #153
 4897 3b28 EC441FE5 		ldr	r4, .L364+204
 4898 3b2c FEFFFFEB 		bl	uart1_transmit
 4899 3b30 0E00A0E3 		mov	r0, #14
 4900 3b34 F4541FE5 		ldr	r5, .L364+208
 4901 3b38 FEFFFFEB 		bl	uart1_transmit
 4902 3b3c 1230A0E3 		mov	r3, #18
 4903 3b40 0030C4E5 		strb	r3, [r4, #0]
 4904 3b44 0E3083E2 		add	r3, r3, #14
 4905 3b48 0400A0E3 		mov	r0, #4
 4906 3b4c 0030C5E5 		strb	r3, [r5, #0]
 4907 3b50 FEFFFFEB 		bl	uart1_transmit
 4908 3b54 0030D4E5 		ldrb	r3, [r4, #0]	@ zero_extendqisi2
 4909 3b58 2A3083E2 		add	r3, r3, #42
 4910 3b5c 0030C4E5 		strb	r3, [r4, #0]
 4911 3b60 0030D5E5 		ldrb	r3, [r5, #0]	@ zero_extendqisi2
 4912 3b64 0020D4E5 		ldrb	r2, [r4, #0]	@ zero_extendqisi2
 4913 3b68 94651FE5 		ldr	r6, .L364+100
 4914 3b6c 023083E0 		add	r3, r3, r2
 4915 3b70 2A00A0E3 		mov	r0, #42
 4916 3b74 0030C5E5 		strb	r3, [r5, #0]
 4917 3b78 FEFFFFEB 		bl	uart1_transmit
 4918 3b7c 0000D6E5 		ldrb	r0, [r6, #0]	@ zero_extendqisi2
 4919 3b80 0030D4E5 		ldrb	r3, [r4, #0]	@ zero_extendqisi2
 4920 3b84 033080E0 		add	r3, r0, r3
 4921 3b88 0030C4E5 		strb	r3, [r4, #0]
 4922 3b8c 0030D5E5 		ldrb	r3, [r5, #0]	@ zero_extendqisi2
 4923 3b90 0020D4E5 		ldrb	r2, [r4, #0]	@ zero_extendqisi2
 4924 3b94 023083E0 		add	r3, r3, r2
 4925 3b98 0030C5E5 		strb	r3, [r5, #0]
 4926 3b9c FEFFFFEB 		bl	uart1_transmit
 4927 3ba0 0100D6E5 		ldrb	r0, [r6, #1]	@ zero_extendqisi2
 4928 3ba4 0030D4E5 		ldrb	r3, [r4, #0]	@ zero_extendqisi2
 4929 3ba8 033080E0 		add	r3, r0, r3
 4930 3bac 0030C4E5 		strb	r3, [r4, #0]
 4931 3bb0 0030D5E5 		ldrb	r3, [r5, #0]	@ zero_extendqisi2
 4932 3bb4 0020D4E5 		ldrb	r2, [r4, #0]	@ zero_extendqisi2
 4933 3bb8 023083E0 		add	r3, r3, r2
 4934 3bbc 0030C5E5 		strb	r3, [r5, #0]
 4935 3bc0 FEFFFFEB 		bl	uart1_transmit
 4936 3bc4 0200D6E5 		ldrb	r0, [r6, #2]	@ zero_extendqisi2
 4937 3bc8 0030D4E5 		ldrb	r3, [r4, #0]	@ zero_extendqisi2
 4938 3bcc 033080E0 		add	r3, r0, r3
 4939 3bd0 0030C4E5 		strb	r3, [r4, #0]
 4940 3bd4 0030D5E5 		ldrb	r3, [r5, #0]	@ zero_extendqisi2
 4941 3bd8 0020D4E5 		ldrb	r2, [r4, #0]	@ zero_extendqisi2
 4942 3bdc 023083E0 		add	r3, r3, r2
 4943 3be0 0030C5E5 		strb	r3, [r5, #0]
 4944 3be4 FEFFFFEB 		bl	uart1_transmit
 4945 3be8 0300D6E5 		ldrb	r0, [r6, #3]	@ zero_extendqisi2
 4946 3bec 0030D4E5 		ldrb	r3, [r4, #0]	@ zero_extendqisi2
 4947 3bf0 033080E0 		add	r3, r0, r3
 4948 3bf4 0030C4E5 		strb	r3, [r4, #0]
 4949 3bf8 0030D5E5 		ldrb	r3, [r5, #0]	@ zero_extendqisi2
 4950 3bfc 0020D4E5 		ldrb	r2, [r4, #0]	@ zero_extendqisi2
 4951 3c00 28661FE5 		ldr	r6, .L364+104
 4952 3c04 023083E0 		add	r3, r3, r2
 4953 3c08 0030C5E5 		strb	r3, [r5, #0]
 4954 3c0c FEFFFFEB 		bl	uart1_transmit
 4955 3c10 0000D6E5 		ldrb	r0, [r6, #0]	@ zero_extendqisi2
 4956 3c14 0030D4E5 		ldrb	r3, [r4, #0]	@ zero_extendqisi2
 4957 3c18 033080E0 		add	r3, r0, r3
 4958 3c1c 0030C4E5 		strb	r3, [r4, #0]
 4959 3c20 0030D5E5 		ldrb	r3, [r5, #0]	@ zero_extendqisi2
 4960 3c24 0020D4E5 		ldrb	r2, [r4, #0]	@ zero_extendqisi2
 4961 3c28 023083E0 		add	r3, r3, r2
 4962 3c2c 0030C5E5 		strb	r3, [r5, #0]
 4963 3c30 FEFFFFEB 		bl	uart1_transmit
 4964 3c34 0100D6E5 		ldrb	r0, [r6, #1]	@ zero_extendqisi2
 4965 3c38 0030D4E5 		ldrb	r3, [r4, #0]	@ zero_extendqisi2
 4966 3c3c 033080E0 		add	r3, r0, r3
 4967 3c40 0030C4E5 		strb	r3, [r4, #0]
 4968 3c44 0030D5E5 		ldrb	r3, [r5, #0]	@ zero_extendqisi2
 4969 3c48 0020D4E5 		ldrb	r2, [r4, #0]	@ zero_extendqisi2
 4970 3c4c 023083E0 		add	r3, r3, r2
 4971 3c50 0030C5E5 		strb	r3, [r5, #0]
 4972 3c54 FEFFFFEB 		bl	uart1_transmit
 4973 3c58 0200D6E5 		ldrb	r0, [r6, #2]	@ zero_extendqisi2
 4974 3c5c 0030D4E5 		ldrb	r3, [r4, #0]	@ zero_extendqisi2
 4975 3c60 033080E0 		add	r3, r0, r3
 4976 3c64 0030C4E5 		strb	r3, [r4, #0]
 4977 3c68 0030D5E5 		ldrb	r3, [r5, #0]	@ zero_extendqisi2
 4978 3c6c 0020D4E5 		ldrb	r2, [r4, #0]	@ zero_extendqisi2
 4979 3c70 023083E0 		add	r3, r3, r2
 4980 3c74 0030C5E5 		strb	r3, [r5, #0]
 4981 3c78 FEFFFFEB 		bl	uart1_transmit
 4982 3c7c 0300D6E5 		ldrb	r0, [r6, #3]	@ zero_extendqisi2
 4983 3c80 0030D4E5 		ldrb	r3, [r4, #0]	@ zero_extendqisi2
 4984 3c84 033080E0 		add	r3, r0, r3
 4985 3c88 0030C4E5 		strb	r3, [r4, #0]
 4986 3c8c 0030D5E5 		ldrb	r3, [r5, #0]	@ zero_extendqisi2
 4987 3c90 0020D4E5 		ldrb	r2, [r4, #0]	@ zero_extendqisi2
 4988 3c94 023083E0 		add	r3, r3, r2
 4989 3c98 0030C5E5 		strb	r3, [r5, #0]
 4990 3c9c FEFFFFEB 		bl	uart1_transmit
 4991 3ca0 0000D4E5 		ldrb	r0, [r4, #0]	@ zero_extendqisi2
 4992 3ca4 FEFFFFEB 		bl	uart1_transmit
 4993 3ca8 0000D5E5 		ldrb	r0, [r5, #0]	@ zero_extendqisi2
 4994 3cac FEFFFFEB 		bl	uart1_transmit
 4995              	.L189:
 4996 3cb0 0030D8E5 		ldrb	r3, [r8, #0]	@ zero_extendqisi2
 4997 3cb4 120053E3 		cmp	r3, #18
 4998 3cb8 FC0F001A 		bne	.L192
 4999 3cbc E0661FE5 		ldr	r6, .L364+108
 5000 3cc0 0030D6E5 		ldrb	r3, [r6, #0]	@ zero_extendqisi2
 5001 3cc4 013083E2 		add	r3, r3, #1
 5002 3cc8 0030C6E5 		strb	r3, [r6, #0]
 5003 3ccc EC361FE5 		ldr	r3, .L364+112
 5004 3cd0 0020D3E5 		ldrb	r2, [r3, #0]	@ zero_extendqisi2
 5005 3cd4 0030D6E5 		ldrb	r3, [r6, #0]	@ zero_extendqisi2
 5006 3cd8 020053E1 		cmp	r3, r2
 5007 3cdc 0030A023 		movcs	r3, #0
 5008 3ce0 0030C625 		strcsb	r3, [r6, #0]
 5009 3ce4 00371FE5 		ldr	r3, .L364+116
 5010 3ce8 000093E5 		ldr	r0, [r3, #0]
 5011 3cec FEFFFFEB 		bl	__floatsisf
 5012 3cf0 0040D6E5 		ldrb	r4, [r6, #0]	@ zero_extendqisi2
 5013 3cf4 0C771FE5 		ldr	r7, .L364+120
 5014 3cf8 844084E0 		add	r4, r4, r4, asl #1
 5015 3cfc 0441A0E1 		mov	r4, r4, asl #2
 5016 3d00 071094E7 		ldr	r1, [r4, r7]	@ float
 5017 3d04 FEFFFFEB 		bl	__addsf3
 5018 3d08 1C371FE5 		ldr	r3, .L364+124
 5019 3d0c 60000BE5 		str	r0, [fp, #-96]	@ float
 5020 3d10 074084E0 		add	r4, r4, r7
 5021 3d14 000093E5 		ldr	r0, [r3, #0]
 5022 3d18 FEFFFFEB 		bl	__floatsisf
 5023 3d1c 041094E5 		ldr	r1, [r4, #4]	@ float
 5024 3d20 FEFFFFEB 		bl	__addsf3
 5025 3d24 64000BE5 		str	r0, [fp, #-100]	@ float
 5026 3d28 1400A0E3 		mov	r0, #20
 5027 3d2c FEFFFFEB 		bl	uart1_check_free_space
 5028 3d30 FF0010E3 		tst	r0, #255
 5029 3d34 04271F05 		ldreq	r2, .L364+192
 5030 3d38 0030D205 		ldreqb	r3, [r2, #0]	@ zero_extendqisi2
 5031 3d3c 01308302 		addeq	r3, r3, #1
 5032 3d40 0030C205 		streqb	r3, [r2, #0]
 5033 3d44 FC0F000A 		beq	.L192
 5034 3d48 14171FE5 		ldr	r1, .L364+196
 5035 3d4c 14C71FE5 		ldr	ip, .L364+200
 5036 3d50 B030D1E1 		ldrh	r3, [r1, #0]
 5037 3d54 B020DCE1 		ldrh	r2, [ip, #0]
 5038 3d58 143083E2 		add	r3, r3, #20
 5039 3d5c 012082E2 		add	r2, r2, #1
 5040 3d60 B030C1E1 		strh	r3, [r1, #0]	@ movhi 
 5041 3d64 B020CCE1 		strh	r2, [ip, #0]	@ movhi 
 5042 3d68 9900A0E3 		mov	r0, #153
 5043 3d6c 30471FE5 		ldr	r4, .L364+204
 5044 3d70 FEFFFFEB 		bl	uart1_transmit
 5045 3d74 1400A0E3 		mov	r0, #20
 5046 3d78 38571FE5 		ldr	r5, .L364+208
 5047 3d7c FEFFFFEB 		bl	uart1_transmit
 5048 3d80 1830A0E3 		mov	r3, #24
 5049 3d84 0030C4E5 		strb	r3, [r4, #0]
 5050 3d88 143083E2 		add	r3, r3, #20
 5051 3d8c 0400A0E3 		mov	r0, #4
 5052 3d90 0030C5E5 		strb	r3, [r5, #0]
 5053 3d94 FEFFFFEB 		bl	uart1_transmit
 5054 3d98 0030D4E5 		ldrb	r3, [r4, #0]	@ zero_extendqisi2
 5055 3d9c 233083E2 		add	r3, r3, #35
 5056 3da0 0030C4E5 		strb	r3, [r4, #0]
 5057 3da4 0030D5E5 		ldrb	r3, [r5, #0]	@ zero_extendqisi2
 5058 3da8 0020D4E5 		ldrb	r2, [r4, #0]	@ zero_extendqisi2
 5059 3dac 023083E0 		add	r3, r3, r2
 5060 3db0 2300A0E3 		mov	r0, #35
 5061 3db4 0030C5E5 		strb	r3, [r5, #0]
 5062 3db8 FEFFFFEB 		bl	uart1_transmit
 5063 3dbc 0000D6E5 		ldrb	r0, [r6, #0]	@ zero_extendqisi2
 5064 3dc0 0030D4E5 		ldrb	r3, [r4, #0]	@ zero_extendqisi2
 5065 3dc4 033080E0 		add	r3, r0, r3
 5066 3dc8 0030C4E5 		strb	r3, [r4, #0]
 5067 3dcc 0030D5E5 		ldrb	r3, [r5, #0]	@ zero_extendqisi2
 5068 3dd0 0020D4E5 		ldrb	r2, [r4, #0]	@ zero_extendqisi2
 5069 3dd4 023083E0 		add	r3, r3, r2
 5070 3dd8 0030C5E5 		strb	r3, [r5, #0]
 5071 3ddc FEFFFFEB 		bl	uart1_transmit
 5072 3de0 60005BE5 		ldrb	r0, [fp, #-96]	@ zero_extendqisi2
 5073 3de4 0030D4E5 		ldrb	r3, [r4, #0]	@ zero_extendqisi2
 5074 3de8 033080E0 		add	r3, r0, r3
 5075 3dec 0030C4E5 		strb	r3, [r4, #0]
 5076 3df0 0030D5E5 		ldrb	r3, [r5, #0]	@ zero_extendqisi2
 5077 3df4 0020D4E5 		ldrb	r2, [r4, #0]	@ zero_extendqisi2
 5078 3df8 023083E0 		add	r3, r3, r2
 5079 3dfc 0030C5E5 		strb	r3, [r5, #0]
 5080 3e00 FEFFFFEB 		bl	uart1_transmit
 5081 3e04 5F005BE5 		ldrb	r0, [fp, #-95]	@ zero_extendqisi2
 5082 3e08 0030D4E5 		ldrb	r3, [r4, #0]	@ zero_extendqisi2
 5083 3e0c 033080E0 		add	r3, r0, r3
 5084 3e10 0030C4E5 		strb	r3, [r4, #0]
 5085 3e14 0030D5E5 		ldrb	r3, [r5, #0]	@ zero_extendqisi2
 5086 3e18 0020D4E5 		ldrb	r2, [r4, #0]	@ zero_extendqisi2
 5087 3e1c 023083E0 		add	r3, r3, r2
 5088 3e20 0030C5E5 		strb	r3, [r5, #0]
 5089 3e24 FEFFFFEB 		bl	uart1_transmit
 5090 3e28 5E005BE5 		ldrb	r0, [fp, #-94]	@ zero_extendqisi2
 5091 3e2c 0030D4E5 		ldrb	r3, [r4, #0]	@ zero_extendqisi2
 5092 3e30 033080E0 		add	r3, r0, r3
 5093 3e34 0030C4E5 		strb	r3, [r4, #0]
 5094 3e38 0030D5E5 		ldrb	r3, [r5, #0]	@ zero_extendqisi2
 5095 3e3c 0020D4E5 		ldrb	r2, [r4, #0]	@ zero_extendqisi2
 5096 3e40 023083E0 		add	r3, r3, r2
 5097 3e44 0030C5E5 		strb	r3, [r5, #0]
 5098 3e48 FEFFFFEB 		bl	uart1_transmit
 5099 3e4c 5D005BE5 		ldrb	r0, [fp, #-93]	@ zero_extendqisi2
 5100 3e50 0030D4E5 		ldrb	r3, [r4, #0]	@ zero_extendqisi2
 5101 3e54 033080E0 		add	r3, r0, r3
 5102 3e58 0030C4E5 		strb	r3, [r4, #0]
 5103 3e5c 0030D5E5 		ldrb	r3, [r5, #0]	@ zero_extendqisi2
 5104 3e60 0020D4E5 		ldrb	r2, [r4, #0]	@ zero_extendqisi2
 5105 3e64 023083E0 		add	r3, r3, r2
 5106 3e68 0030C5E5 		strb	r3, [r5, #0]
 5107 3e6c FEFFFFEB 		bl	uart1_transmit
 5108 3e70 64005BE5 		ldrb	r0, [fp, #-100]	@ zero_extendqisi2
 5109 3e74 0030D4E5 		ldrb	r3, [r4, #0]	@ zero_extendqisi2
 5110 3e78 033080E0 		add	r3, r0, r3
 5111 3e7c 0030C4E5 		strb	r3, [r4, #0]
 5112 3e80 0030D5E5 		ldrb	r3, [r5, #0]	@ zero_extendqisi2
 5113 3e84 0020D4E5 		ldrb	r2, [r4, #0]	@ zero_extendqisi2
 5114 3e88 023083E0 		add	r3, r3, r2
 5115 3e8c 0030C5E5 		strb	r3, [r5, #0]
 5116 3e90 FEFFFFEB 		bl	uart1_transmit
 5117 3e94 63005BE5 		ldrb	r0, [fp, #-99]	@ zero_extendqisi2
 5118 3e98 0030D4E5 		ldrb	r3, [r4, #0]	@ zero_extendqisi2
 5119 3e9c 033080E0 		add	r3, r0, r3
 5120 3ea0 0030C4E5 		strb	r3, [r4, #0]
 5121 3ea4 0030D5E5 		ldrb	r3, [r5, #0]	@ zero_extendqisi2
 5122 3ea8 0020D4E5 		ldrb	r2, [r4, #0]	@ zero_extendqisi2
 5123 3eac 023083E0 		add	r3, r3, r2
 5124 3eb0 0030C5E5 		strb	r3, [r5, #0]
 5125 3eb4 FEFFFFEB 		bl	uart1_transmit
 5126 3eb8 62005BE5 		ldrb	r0, [fp, #-98]	@ zero_extendqisi2
 5127 3ebc 0030D4E5 		ldrb	r3, [r4, #0]	@ zero_extendqisi2
 5128 3ec0 033080E0 		add	r3, r0, r3
 5129 3ec4 0030C4E5 		strb	r3, [r4, #0]
 5130 3ec8 0030D5E5 		ldrb	r3, [r5, #0]	@ zero_extendqisi2
 5131 3ecc 0020D4E5 		ldrb	r2, [r4, #0]	@ zero_extendqisi2
 5132 3ed0 023083E0 		add	r3, r3, r2
 5133 3ed4 0030C5E5 		strb	r3, [r5, #0]
 5134 3ed8 FEFFFFEB 		bl	uart1_transmit
 5135 3edc 61005BE5 		ldrb	r0, [fp, #-97]	@ zero_extendqisi2
 5136 3ee0 0030D4E5 		ldrb	r3, [r4, #0]	@ zero_extendqisi2
 5137 3ee4 033080E0 		add	r3, r0, r3
 5138 3ee8 0030C4E5 		strb	r3, [r4, #0]
 5139 3eec 0030D5E5 		ldrb	r3, [r5, #0]	@ zero_extendqisi2
 5140 3ef0 0020D4E5 		ldrb	r2, [r4, #0]	@ zero_extendqisi2
 5141 3ef4 023083E0 		add	r3, r3, r2
 5142 3ef8 0030C5E5 		strb	r3, [r5, #0]
 5143 3efc FEFFFFEB 		bl	uart1_transmit
 5144 3f00 0030D6E5 		ldrb	r3, [r6, #0]	@ zero_extendqisi2
 5145 3f04 082087E2 		add	r2, r7, #8
 5146 3f08 833083E0 		add	r3, r3, r3, asl #1
 5147 3f0c 0301D2E7 		ldrb	r0, [r2, r3, asl #2]	@ zero_extendqisi2
 5148 3f10 0030D4E5 		ldrb	r3, [r4, #0]	@ zero_extendqisi2
 5149 3f14 033080E0 		add	r3, r0, r3
 5150 3f18 0030C4E5 		strb	r3, [r4, #0]
 5151 3f1c 0030D5E5 		ldrb	r3, [r5, #0]	@ zero_extendqisi2
 5152 3f20 0020D4E5 		ldrb	r2, [r4, #0]	@ zero_extendqisi2
 5153 3f24 023083E0 		add	r3, r3, r2
 5154 3f28 0030C5E5 		strb	r3, [r5, #0]
 5155 3f2c FEFFFFEB 		bl	uart1_transmit
 5156 3f30 0030D6E5 		ldrb	r3, [r6, #0]	@ zero_extendqisi2
 5157 3f34 092087E2 		add	r2, r7, #9
 5158 3f38 833083E0 		add	r3, r3, r3, asl #1
 5159 3f3c 0301D2E7 		ldrb	r0, [r2, r3, asl #2]	@ zero_extendqisi2
 5160 3f40 0030D4E5 		ldrb	r3, [r4, #0]	@ zero_extendqisi2
 5161 3f44 033080E0 		add	r3, r0, r3
 5162 3f48 0030C4E5 		strb	r3, [r4, #0]
 5163 3f4c 0030D5E5 		ldrb	r3, [r5, #0]	@ zero_extendqisi2
 5164 3f50 0020D4E5 		ldrb	r2, [r4, #0]	@ zero_extendqisi2
 5165 3f54 023083E0 		add	r3, r3, r2
 5166 3f58 0030C5E5 		strb	r3, [r5, #0]
 5167 3f5c FEFFFFEB 		bl	uart1_transmit
 5168 3f60 0030D6E5 		ldrb	r3, [r6, #0]	@ zero_extendqisi2
 5169 3f64 0A2087E2 		add	r2, r7, #10
 5170 3f68 833083E0 		add	r3, r3, r3, asl #1
 5171 3f6c 0301D2E7 		ldrb	r0, [r2, r3, asl #2]	@ zero_extendqisi2
 5172 3f70 0030D4E5 		ldrb	r3, [r4, #0]	@ zero_extendqisi2
 5173 3f74 033080E0 		add	r3, r0, r3
 5174 3f78 0030C4E5 		strb	r3, [r4, #0]
 5175 3f7c 0030D5E5 		ldrb	r3, [r5, #0]	@ zero_extendqisi2
 5176 3f80 0020D4E5 		ldrb	r2, [r4, #0]	@ zero_extendqisi2
 5177 3f84 023083E0 		add	r3, r3, r2
 5178 3f88 0030C5E5 		strb	r3, [r5, #0]
 5179 3f8c FEFFFFEB 		bl	uart1_transmit
 5180 3f90 0030D6E5 		ldrb	r3, [r6, #0]	@ zero_extendqisi2
 5181 3f94 0B2087E2 		add	r2, r7, #11
 5182 3f98 833083E0 		add	r3, r3, r3, asl #1
 5183 3f9c 0301D2E7 		ldrb	r0, [r2, r3, asl #2]	@ zero_extendqisi2
 5184 3fa0 0030D4E5 		ldrb	r3, [r4, #0]	@ zero_extendqisi2
 5185 3fa4 033080E0 		add	r3, r0, r3
 5186 3fa8 0030C4E5 		strb	r3, [r4, #0]
 5187 3fac 0030D5E5 		ldrb	r3, [r5, #0]	@ zero_extendqisi2
 5188 3fb0 0020D4E5 		ldrb	r2, [r4, #0]	@ zero_extendqisi2
 5189 3fb4 023083E0 		add	r3, r3, r2
 5190 3fb8 0030C5E5 		strb	r3, [r5, #0]
 5191 3fbc FEFFFFEB 		bl	uart1_transmit
 5192 3fc0 D0391FE5 		ldr	r3, .L364+128
 5193 3fc4 0000D3E5 		ldrb	r0, [r3, #0]	@ zero_extendqisi2
 5194 3fc8 0030D4E5 		ldrb	r3, [r4, #0]	@ zero_extendqisi2
 5195 3fcc 033080E0 		add	r3, r0, r3
 5196 3fd0 0030C4E5 		strb	r3, [r4, #0]
 5197 3fd4 0030D5E5 		ldrb	r3, [r5, #0]	@ zero_extendqisi2
 5198 3fd8 0020D4E5 		ldrb	r2, [r4, #0]	@ zero_extendqisi2
 5199 3fdc 023083E0 		add	r3, r3, r2
 5200 3fe0 0030C5E5 		strb	r3, [r5, #0]
 5201 3fe4 FEFFFFEB 		bl	uart1_transmit
 5202 3fe8 0000D4E5 		ldrb	r0, [r4, #0]	@ zero_extendqisi2
 5203 3fec FEFFFFEB 		bl	uart1_transmit
 5204 3ff0 0000D5E5 		ldrb	r0, [r5, #0]	@ zero_extendqisi2
 5205 3ff4 FEFFFFEB 		bl	uart1_transmit
 5206              	.L192:
 5207 3ff8 0030DAE5 		ldrb	r3, [sl, #0]	@ zero_extendqisi2
 5208 3ffc 180053E3 		cmp	r3, #24
 5209 4000 9A10001A 		bne	.L196
 5210 4004 DC691FE5 		ldr	r6, .L364+184
 5211 4008 0030D6E5 		ldrb	r3, [r6, #0]	@ zero_extendqisi2
 5212 400c 0B0053E3 		cmp	r3, #11
 5213 4010 0030A083 		movhi	r3, #0
 5214 4014 0030C685 		strhib	r3, [r6, #0]
 5215 4018 0030D6E5 		ldrb	r3, [r6, #0]	@ zero_extendqisi2
 5216 401c 0B0053E3 		cmp	r3, #11
 5217 4020 03F19F97 		ldrls	pc, [pc, r3, asl #2]
 5218 4024 3E1000EA 		b	.L217
 5219              		.p2align 2
 5220              	.L218:
 5221 4028 58400000 		.word	.L199
 5222 402c 60400000 		.word	.L200
 5223 4030 6C400000 		.word	.L201
 5224 4034 74400000 		.word	.L202
 5225 4038 7C400000 		.word	.L204
 5226 403c 84400000 		.word	.L205
 5227 4040 8C400000 		.word	.L207
 5228 4044 94400000 		.word	.L209
 5229 4048 A0400000 		.word	.L211
 5230 404c C0400000 		.word	.L213
 5231 4050 E8400000 		.word	.L215
 5232 4054 F4400000 		.word	.L216
 5233              	.L199:
 5234 4058 643A1FE5 		ldr	r3, .L364+132
 5235 405c 171000EA 		b	.L352
 5236              	.L200:
 5237 4060 683A1FE5 		ldr	r3, .L364+136
 5238              	.L352:
 5239 4064 003093E5 		ldr	r3, [r3, #0]	@ float
 5240 4068 3F1000EA 		b	.L342
 5241              	.L201:
 5242 406c 703A1FE5 		ldr	r3, .L364+140
 5243 4070 171000EA 		b	.L352
 5244              	.L202:
 5245 4074 743A1FE5 		ldr	r3, .L364+144
 5246 4078 2F1000EA 		b	.L355
 5247              	.L204:
 5248 407c 783A1FE5 		ldr	r3, .L364+148
 5249 4080 171000EA 		b	.L352
 5250              	.L205:
 5251 4084 7C3A1FE5 		ldr	r3, .L364+152
 5252 4088 241000EA 		b	.L359
 5253              	.L207:
 5254 408c 803A1FE5 		ldr	r3, .L364+156
 5255 4090 241000EA 		b	.L359
 5256              	.L209:
 5257 4094 843A1FE5 		ldr	r3, .L364+160
 5258              	.L359:
 5259 4098 D040D3E1 		ldrsb	r4, [r3, #0]
 5260 409c 281000EA 		b	.L358
 5261              	.L211:
 5262 40a0 8C0A1FE5 		ldr	r0, .L364+164
 5263 40a4 D040D0E1 		ldrsb	r4, [r0, #0]
 5264              	.L358:
 5265 40a8 0400A0E1 		mov	r0, r4
 5266 40ac FEFFFFEB 		bl	__floatsisf
 5267 40b0 000054E3 		cmp	r4, #0
 5268 40b4 9C1A1FB5 		ldrlt	r1, .L364+168
 5269 40b8 351000BA 		blt	.L351
 5270 40bc 361000EA 		b	.L214
 5271              	.L213:
 5272 40c0 A43A1FE5 		ldr	r3, .L364+172
 5273              	.L355:
 5274 40c4 F040D3E1 		ldrsh	r4, [r3, #0]
 5275 40c8 0400A0E1 		mov	r0, r4
 5276 40cc FEFFFFEB 		bl	__floatsisf
 5277 40d0 000054E3 		cmp	r4, #0
 5278 40d4 361000AA 		bge	.L214
 5279 40d8 B81A1FE5 		ldr	r1, .L364+176
 5280              	.L351:
 5281 40dc FEFFFFEB 		bl	__addsf3
 5282              	.L214:
 5283 40e0 68000BE5 		str	r0, [fp, #-104]	@ float
 5284 40e4 401000EA 		b	.L198
 5285              	.L215:
 5286 40e8 C43A1FE5 		ldr	r3, .L364+180
 5287 40ec 083093E5 		ldr	r3, [r3, #8]	@ float
 5288 40f0 3F1000EA 		b	.L342
 5289              	.L216:
 5290 40f4 D03A1FE5 		ldr	r3, .L364+180
 5291 40f8 0C3093E5 		ldr	r3, [r3, #12]	@ float
 5292 40fc 3F1000EA 		b	.L342
 5293              	.L217:
 5294 4100 0030A0E3 		mov	r3, #0
 5295              	.L342:
 5296 4104 68300BE5 		str	r3, [fp, #-104]	@ float
 5297              	.L198:
 5298 4108 0B00A0E3 		mov	r0, #11
 5299 410c FEFFFFEB 		bl	uart1_check_free_space
 5300 4110 FF0010E3 		tst	r0, #255
 5301 4114 E42A1F05 		ldreq	r2, .L364+192
 5302 4118 0030D205 		ldreqb	r3, [r2, #0]	@ zero_extendqisi2
 5303 411c 01308302 		addeq	r3, r3, #1
 5304 4120 0030C205 		streqb	r3, [r2, #0]
 5305 4124 9610000A 		beq	.L220
 5306 4128 F41A1FE5 		ldr	r1, .L364+196
 5307 412c F4CA1FE5 		ldr	ip, .L364+200
 5308 4130 B030D1E1 		ldrh	r3, [r1, #0]
 5309 4134 B020DCE1 		ldrh	r2, [ip, #0]
 5310 4138 0B3083E2 		add	r3, r3, #11
 5311 413c 012082E2 		add	r2, r2, #1
 5312 4140 B030C1E1 		strh	r3, [r1, #0]	@ movhi 
 5313 4144 B020CCE1 		strh	r2, [ip, #0]	@ movhi 
 5314 4148 9900A0E3 		mov	r0, #153
 5315 414c 104B1FE5 		ldr	r4, .L364+204
 5316 4150 FEFFFFEB 		bl	uart1_transmit
 5317 4154 0B00A0E3 		mov	r0, #11
 5318 4158 185B1FE5 		ldr	r5, .L364+208
 5319 415c FEFFFFEB 		bl	uart1_transmit
 5320 4160 0F30A0E3 		mov	r3, #15
 5321 4164 0030C4E5 		strb	r3, [r4, #0]
 5322 4168 0B3083E2 		add	r3, r3, #11
 5323 416c 0400A0E3 		mov	r0, #4
 5324 4170 0030C5E5 		strb	r3, [r5, #0]
 5325 4174 FEFFFFEB 		bl	uart1_transmit
 5326 4178 0030D4E5 		ldrb	r3, [r4, #0]	@ zero_extendqisi2
 5327 417c 1F3083E2 		add	r3, r3, #31
 5328 4180 0030C4E5 		strb	r3, [r4, #0]
 5329 4184 0030D5E5 		ldrb	r3, [r5, #0]	@ zero_extendqisi2
 5330 4188 0020D4E5 		ldrb	r2, [r4, #0]	@ zero_extendqisi2
 5331 418c 023083E0 		add	r3, r3, r2
 5332 4190 1F00A0E3 		mov	r0, #31
 5333 4194 0030C5E5 		strb	r3, [r5, #0]
 5334 4198 FEFFFFEB 		bl	uart1_transmit
 5335 419c 0000D6E5 		ldrb	r0, [r6, #0]	@ zero_extendqisi2
 5336 41a0 0030D4E5 		ldrb	r3, [r4, #0]	@ zero_extendqisi2
 5337 41a4 033080E0 		add	r3, r0, r3
 5338 41a8 0030C4E5 		strb	r3, [r4, #0]
 5339 41ac 0030D5E5 		ldrb	r3, [r5, #0]	@ zero_extendqisi2
 5340 41b0 0020D4E5 		ldrb	r2, [r4, #0]	@ zero_extendqisi2
 5341 41b4 023083E0 		add	r3, r3, r2
 5342 41b8 0030C5E5 		strb	r3, [r5, #0]
 5343 41bc FEFFFFEB 		bl	uart1_transmit
 5344 41c0 68005BE5 		ldrb	r0, [fp, #-104]	@ zero_extendqisi2
 5345 41c4 0030D4E5 		ldrb	r3, [r4, #0]	@ zero_extendqisi2
 5346 41c8 033080E0 		add	r3, r0, r3
 5347 41cc 0030C4E5 		strb	r3, [r4, #0]
 5348 41d0 0030D5E5 		ldrb	r3, [r5, #0]	@ zero_extendqisi2
 5349 41d4 0020D4E5 		ldrb	r2, [r4, #0]	@ zero_extendqisi2
 5350 41d8 023083E0 		add	r3, r3, r2
 5351 41dc 0030C5E5 		strb	r3, [r5, #0]
 5352 41e0 FEFFFFEB 		bl	uart1_transmit
 5353 41e4 67005BE5 		ldrb	r0, [fp, #-103]	@ zero_extendqisi2
 5354 41e8 0030D4E5 		ldrb	r3, [r4, #0]	@ zero_extendqisi2
 5355 41ec 033080E0 		add	r3, r0, r3
 5356 41f0 0030C4E5 		strb	r3, [r4, #0]
 5357 41f4 0030D5E5 		ldrb	r3, [r5, #0]	@ zero_extendqisi2
 5358 41f8 0020D4E5 		ldrb	r2, [r4, #0]	@ zero_extendqisi2
 5359 41fc 023083E0 		add	r3, r3, r2
 5360 4200 0030C5E5 		strb	r3, [r5, #0]
 5361 4204 FEFFFFEB 		bl	uart1_transmit
 5362 4208 66005BE5 		ldrb	r0, [fp, #-102]	@ zero_extendqisi2
 5363 420c 0030D4E5 		ldrb	r3, [r4, #0]	@ zero_extendqisi2
 5364 4210 033080E0 		add	r3, r0, r3
 5365 4214 0030C4E5 		strb	r3, [r4, #0]
 5366 4218 0030D5E5 		ldrb	r3, [r5, #0]	@ zero_extendqisi2
 5367 421c 0020D4E5 		ldrb	r2, [r4, #0]	@ zero_extendqisi2
 5368 4220 023083E0 		add	r3, r3, r2
 5369 4224 0030C5E5 		strb	r3, [r5, #0]
 5370 4228 FEFFFFEB 		bl	uart1_transmit
 5371 422c 65005BE5 		ldrb	r0, [fp, #-101]	@ zero_extendqisi2
 5372 4230 0030D4E5 		ldrb	r3, [r4, #0]	@ zero_extendqisi2
 5373 4234 033080E0 		add	r3, r0, r3
 5374 4238 0030C4E5 		strb	r3, [r4, #0]
 5375 423c 0030D5E5 		ldrb	r3, [r5, #0]	@ zero_extendqisi2
 5376 4240 0020D4E5 		ldrb	r2, [r4, #0]	@ zero_extendqisi2
 5377 4244 023083E0 		add	r3, r3, r2
 5378 4248 0030C5E5 		strb	r3, [r5, #0]
 5379 424c FEFFFFEB 		bl	uart1_transmit
 5380 4250 0000D4E5 		ldrb	r0, [r4, #0]	@ zero_extendqisi2
 5381 4254 FEFFFFEB 		bl	uart1_transmit
 5382 4258 0000D5E5 		ldrb	r0, [r5, #0]	@ zero_extendqisi2
 5383 425c FEFFFFEB 		bl	uart1_transmit
 5384              	.L220:
 5385 4260 382C1FE5 		ldr	r2, .L364+184
 5386 4264 0030D2E5 		ldrb	r3, [r2, #0]	@ zero_extendqisi2
 5387 4268 013083E2 		add	r3, r3, #1
 5388 426c 0030C2E5 		strb	r3, [r2, #0]
 5389              	.L196:
 5390 4270 0030D9E5 		ldrb	r3, [r9, #0]	@ zero_extendqisi2
 5391 4274 1E0053E3 		cmp	r3, #30
 5392 4278 5E11001A 		bne	.L221
 5393 427c 503C1FE5 		ldr	r3, .L364+188
 5394 4280 0030D3E5 		ldrb	r3, [r3, #0]	@ zero_extendqisi2
 5395 4284 000053E3 		cmp	r3, #0
 5396 4288 5E11000A 		beq	.L221
 5397 428c 1600A0E3 		mov	r0, #22
 5398 4290 FEFFFFEB 		bl	uart1_check_free_space
 5399 4294 FF0010E3 		tst	r0, #255
 5400 4298 682C1F05 		ldreq	r2, .L364+192
 5401 429c 0030D205 		ldreqb	r3, [r2, #0]	@ zero_extendqisi2
 5402 42a0 01308302 		addeq	r3, r3, #1
 5403 42a4 0030C205 		streqb	r3, [r2, #0]
 5404 42a8 5E11000A 		beq	.L221
 5405 42ac 781C1FE5 		ldr	r1, .L364+196
 5406 42b0 78CC1FE5 		ldr	ip, .L364+200
 5407 42b4 B030D1E1 		ldrh	r3, [r1, #0]
 5408 42b8 B020DCE1 		ldrh	r2, [ip, #0]
 5409 42bc 163083E2 		add	r3, r3, #22
 5410 42c0 012082E2 		add	r2, r2, #1
 5411 42c4 B030C1E1 		strh	r3, [r1, #0]	@ movhi 
 5412 42c8 B020CCE1 		strh	r2, [ip, #0]	@ movhi 
 5413 42cc 9900A0E3 		mov	r0, #153
 5414 42d0 944C1FE5 		ldr	r4, .L364+204
 5415 42d4 FEFFFFEB 		bl	uart1_transmit
 5416 42d8 1600A0E3 		mov	r0, #22
 5417 42dc 9C5C1FE5 		ldr	r5, .L364+208
 5418 42e0 FEFFFFEB 		bl	uart1_transmit
 5419 42e4 1A30A0E3 		mov	r3, #26
 5420 42e8 0030C4E5 		strb	r3, [r4, #0]
 5421 42ec 163083E2 		add	r3, r3, #22
 5422 42f0 0400A0E3 		mov	r0, #4
 5423 42f4 0030C5E5 		strb	r3, [r5, #0]
 5424 42f8 FEFFFFEB 		bl	uart1_transmit
 5425 42fc 0030D4E5 		ldrb	r3, [r4, #0]	@ zero_extendqisi2
 5426 4300 1B3083E2 		add	r3, r3, #27
 5427 4304 0030C4E5 		strb	r3, [r4, #0]
 5428 4308 0030D5E5 		ldrb	r3, [r5, #0]	@ zero_extendqisi2
 5429 430c 0020D4E5 		ldrb	r2, [r4, #0]	@ zero_extendqisi2
 5430 4310 CC6C1FE5 		ldr	r6, .L364+212
 5431 4314 023083E0 		add	r3, r3, r2
 5432 4318 1B00A0E3 		mov	r0, #27
 5433 431c 0030C5E5 		strb	r3, [r5, #0]
 5434 4320 FEFFFFEB 		bl	uart1_transmit
 5435 4324 0000D6E5 		ldrb	r0, [r6, #0]	@ zero_extendqisi2
 5436 4328 0030D4E5 		ldrb	r3, [r4, #0]	@ zero_extendqisi2
 5437 432c 033080E0 		add	r3, r0, r3
 5438 4330 0030C4E5 		strb	r3, [r4, #0]
 5439 4334 0030D5E5 		ldrb	r3, [r5, #0]	@ zero_extendqisi2
 5440 4338 0020D4E5 		ldrb	r2, [r4, #0]	@ zero_extendqisi2
 5441 433c 023083E0 		add	r3, r3, r2
 5442 4340 0030C5E5 		strb	r3, [r5, #0]
 5443 4344 FEFFFFEB 		bl	uart1_transmit
 5444 4348 0100D6E5 		ldrb	r0, [r6, #1]	@ zero_extendqisi2
 5445 434c 0030D4E5 		ldrb	r3, [r4, #0]	@ zero_extendqisi2
 5446 4350 033080E0 		add	r3, r0, r3
 5447 4354 0030C4E5 		strb	r3, [r4, #0]
 5448 4358 0030D5E5 		ldrb	r3, [r5, #0]	@ zero_extendqisi2
 5449 435c 0020D4E5 		ldrb	r2, [r4, #0]	@ zero_extendqisi2
 5450 4360 023083E0 		add	r3, r3, r2
 5451 4364 0030C5E5 		strb	r3, [r5, #0]
 5452 4368 FEFFFFEB 		bl	uart1_transmit
 5453 436c 0200D6E5 		ldrb	r0, [r6, #2]	@ zero_extendqisi2
 5454 4370 0030D4E5 		ldrb	r3, [r4, #0]	@ zero_extendqisi2
 5455 4374 033080E0 		add	r3, r0, r3
 5456 4378 0030C4E5 		strb	r3, [r4, #0]
 5457 437c 0030D5E5 		ldrb	r3, [r5, #0]	@ zero_extendqisi2
 5458 4380 0020D4E5 		ldrb	r2, [r4, #0]	@ zero_extendqisi2
 5459 4384 023083E0 		add	r3, r3, r2
 5460 4388 0030C5E5 		strb	r3, [r5, #0]
 5461 438c FEFFFFEB 		bl	uart1_transmit
 5462 4390 0300D6E5 		ldrb	r0, [r6, #3]	@ zero_extendqisi2
 5463 4394 0030D4E5 		ldrb	r3, [r4, #0]	@ zero_extendqisi2
 5464 4398 033080E0 		add	r3, r0, r3
 5465 439c 0030C4E5 		strb	r3, [r4, #0]
 5466 43a0 0030D5E5 		ldrb	r3, [r5, #0]	@ zero_extendqisi2
 5467 43a4 0020D4E5 		ldrb	r2, [r4, #0]	@ zero_extendqisi2
 5468 43a8 606D1FE5 		ldr	r6, .L364+216
 5469 43ac 023083E0 		add	r3, r3, r2
 5470 43b0 0030C5E5 		strb	r3, [r5, #0]
 5471 43b4 FEFFFFEB 		bl	uart1_transmit
 5472 43b8 0000D6E5 		ldrb	r0, [r6, #0]	@ zero_extendqisi2
 5473 43bc 0030D4E5 		ldrb	r3, [r4, #0]	@ zero_extendqisi2
 5474 43c0 033080E0 		add	r3, r0, r3
 5475 43c4 0030C4E5 		strb	r3, [r4, #0]
 5476 43c8 0030D5E5 		ldrb	r3, [r5, #0]	@ zero_extendqisi2
 5477 43cc 0020D4E5 		ldrb	r2, [r4, #0]	@ zero_extendqisi2
 5478 43d0 023083E0 		add	r3, r3, r2
 5479 43d4 0030C5E5 		strb	r3, [r5, #0]
 5480 43d8 FEFFFFEB 		bl	uart1_transmit
 5481 43dc 0100D6E5 		ldrb	r0, [r6, #1]	@ zero_extendqisi2
 5482 43e0 0030D4E5 		ldrb	r3, [r4, #0]	@ zero_extendqisi2
 5483 43e4 033080E0 		add	r3, r0, r3
 5484 43e8 0030C4E5 		strb	r3, [r4, #0]
 5485 43ec 0030D5E5 		ldrb	r3, [r5, #0]	@ zero_extendqisi2
 5486 43f0 0020D4E5 		ldrb	r2, [r4, #0]	@ zero_extendqisi2
 5487 43f4 023083E0 		add	r3, r3, r2
 5488 43f8 0030C5E5 		strb	r3, [r5, #0]
 5489 43fc FEFFFFEB 		bl	uart1_transmit
 5490 4400 0200D6E5 		ldrb	r0, [r6, #2]	@ zero_extendqisi2
 5491 4404 0030D4E5 		ldrb	r3, [r4, #0]	@ zero_extendqisi2
 5492 4408 033080E0 		add	r3, r0, r3
 5493 440c 0030C4E5 		strb	r3, [r4, #0]
 5494 4410 0030D5E5 		ldrb	r3, [r5, #0]	@ zero_extendqisi2
 5495 4414 0020D4E5 		ldrb	r2, [r4, #0]	@ zero_extendqisi2
 5496 4418 023083E0 		add	r3, r3, r2
 5497 441c 0030C5E5 		strb	r3, [r5, #0]
 5498 4420 FEFFFFEB 		bl	uart1_transmit
 5499 4424 0300D6E5 		ldrb	r0, [r6, #3]	@ zero_extendqisi2
 5500 4428 0030D4E5 		ldrb	r3, [r4, #0]	@ zero_extendqisi2
 5501 442c 033080E0 		add	r3, r0, r3
 5502 4430 0030C4E5 		strb	r3, [r4, #0]
 5503 4434 0030D5E5 		ldrb	r3, [r5, #0]	@ zero_extendqisi2
 5504 4438 0020D4E5 		ldrb	r2, [r4, #0]	@ zero_extendqisi2
 5505 443c F06D1FE5 		ldr	r6, .L364+220
 5506 4440 023083E0 		add	r3, r3, r2
 5507 4444 0030C5E5 		strb	r3, [r5, #0]
 5508 4448 FEFFFFEB 		bl	uart1_transmit
 5509 444c 0000D6E5 		ldrb	r0, [r6, #0]	@ zero_extendqisi2
 5510 4450 0030D4E5 		ldrb	r3, [r4, #0]	@ zero_extendqisi2
 5511 4454 033080E0 		add	r3, r0, r3
 5512 4458 0030C4E5 		strb	r3, [r4, #0]
 5513 445c 0030D5E5 		ldrb	r3, [r5, #0]	@ zero_extendqisi2
 5514 4460 0020D4E5 		ldrb	r2, [r4, #0]	@ zero_extendqisi2
 5515 4464 023083E0 		add	r3, r3, r2
 5516 4468 0030C5E5 		strb	r3, [r5, #0]
 5517 446c FEFFFFEB 		bl	uart1_transmit
 5518 4470 0100D6E5 		ldrb	r0, [r6, #1]	@ zero_extendqisi2
 5519 4474 0030D4E5 		ldrb	r3, [r4, #0]	@ zero_extendqisi2
 5520 4478 033080E0 		add	r3, r0, r3
 5521 447c 0030C4E5 		strb	r3, [r4, #0]
 5522 4480 0030D5E5 		ldrb	r3, [r5, #0]	@ zero_extendqisi2
 5523 4484 0020D4E5 		ldrb	r2, [r4, #0]	@ zero_extendqisi2
 5524 4488 023083E0 		add	r3, r3, r2
 5525 448c 0030C5E5 		strb	r3, [r5, #0]
 5526 4490 FEFFFFEB 		bl	uart1_transmit
 5527 4494 0200D6E5 		ldrb	r0, [r6, #2]	@ zero_extendqisi2
 5528 4498 0030D4E5 		ldrb	r3, [r4, #0]	@ zero_extendqisi2
 5529 449c 033080E0 		add	r3, r0, r3
 5530 44a0 0030C4E5 		strb	r3, [r4, #0]
 5531 44a4 0030D5E5 		ldrb	r3, [r5, #0]	@ zero_extendqisi2
 5532 44a8 0020D4E5 		ldrb	r2, [r4, #0]	@ zero_extendqisi2
 5533 44ac 023083E0 		add	r3, r3, r2
 5534 44b0 0030C5E5 		strb	r3, [r5, #0]
 5535 44b4 FEFFFFEB 		bl	uart1_transmit
 5536 44b8 0300D6E5 		ldrb	r0, [r6, #3]	@ zero_extendqisi2
 5537 44bc 0030D4E5 		ldrb	r3, [r4, #0]	@ zero_extendqisi2
 5538 44c0 033080E0 		add	r3, r0, r3
 5539 44c4 0030C4E5 		strb	r3, [r4, #0]
 5540 44c8 0030D5E5 		ldrb	r3, [r5, #0]	@ zero_extendqisi2
 5541 44cc 0020D4E5 		ldrb	r2, [r4, #0]	@ zero_extendqisi2
 5542 44d0 806E1FE5 		ldr	r6, .L364+224
 5543 44d4 023083E0 		add	r3, r3, r2
 5544 44d8 0030C5E5 		strb	r3, [r5, #0]
 5545 44dc FEFFFFEB 		bl	uart1_transmit
 5546 44e0 0000D6E5 		ldrb	r0, [r6, #0]	@ zero_extendqisi2
 5547 44e4 0030D4E5 		ldrb	r3, [r4, #0]	@ zero_extendqisi2
 5548 44e8 033080E0 		add	r3, r0, r3
 5549 44ec 0030C4E5 		strb	r3, [r4, #0]
 5550 44f0 0030D5E5 		ldrb	r3, [r5, #0]	@ zero_extendqisi2
 5551 44f4 0020D4E5 		ldrb	r2, [r4, #0]	@ zero_extendqisi2
 5552 44f8 023083E0 		add	r3, r3, r2
 5553 44fc 0030C5E5 		strb	r3, [r5, #0]
 5554 4500 FEFFFFEB 		bl	uart1_transmit
 5555 4504 0100D6E5 		ldrb	r0, [r6, #1]	@ zero_extendqisi2
 5556 4508 0030D4E5 		ldrb	r3, [r4, #0]	@ zero_extendqisi2
 5557 450c 033080E0 		add	r3, r0, r3
 5558 4510 0030C4E5 		strb	r3, [r4, #0]
 5559 4514 0030D5E5 		ldrb	r3, [r5, #0]	@ zero_extendqisi2
 5560 4518 0020D4E5 		ldrb	r2, [r4, #0]	@ zero_extendqisi2
 5561 451c 023083E0 		add	r3, r3, r2
 5562 4520 0030C5E5 		strb	r3, [r5, #0]
 5563 4524 FEFFFFEB 		bl	uart1_transmit
 5564 4528 0200D6E5 		ldrb	r0, [r6, #2]	@ zero_extendqisi2
 5565 452c 0030D4E5 		ldrb	r3, [r4, #0]	@ zero_extendqisi2
 5566 4530 033080E0 		add	r3, r0, r3
 5567 4534 0030C4E5 		strb	r3, [r4, #0]
 5568 4538 0030D5E5 		ldrb	r3, [r5, #0]	@ zero_extendqisi2
 5569 453c 0020D4E5 		ldrb	r2, [r4, #0]	@ zero_extendqisi2
 5570 4540 023083E0 		add	r3, r3, r2
 5571 4544 0030C5E5 		strb	r3, [r5, #0]
 5572 4548 FEFFFFEB 		bl	uart1_transmit
 5573 454c 0300D6E5 		ldrb	r0, [r6, #3]	@ zero_extendqisi2
 5574 4550 0030D4E5 		ldrb	r3, [r4, #0]	@ zero_extendqisi2
 5575 4554 033080E0 		add	r3, r0, r3
 5576 4558 0030C4E5 		strb	r3, [r4, #0]
 5577 455c 0030D5E5 		ldrb	r3, [r5, #0]	@ zero_extendqisi2
 5578 4560 0020D4E5 		ldrb	r2, [r4, #0]	@ zero_extendqisi2
 5579 4564 023083E0 		add	r3, r3, r2
 5580 4568 0030C5E5 		strb	r3, [r5, #0]
 5581 456c FEFFFFEB 		bl	uart1_transmit
 5582 4570 0000D4E5 		ldrb	r0, [r4, #0]	@ zero_extendqisi2
 5583 4574 FEFFFFEB 		bl	uart1_transmit
 5584 4578 0000D5E5 		ldrb	r0, [r5, #0]	@ zero_extendqisi2
 5585 457c FEFFFFEB 		bl	uart1_transmit
 5586              	.L221:
 5587 4580 2C2F1FE5 		ldr	r2, .L364+228
 5588 4584 0030D2E5 		ldrb	r3, [r2, #0]	@ zero_extendqisi2
 5589 4588 240053E3 		cmp	r3, #36
 5590 458c 4F12001A 		bne	.L225
 5591 4590 383F1FE5 		ldr	r3, .L364+232
 5592 4594 003093E5 		ldr	r3, [r3, #0]
 5593 4598 0201C3E3 		bic	r0, r3, #-2147483648
 5594 459c FEFFFFEB 		bl	__extendsfdf2
 5595 45a0 FD2F8FE2 		adr	r2, .L367
 5596 45a4 0C0092E8 		ldmia	r2, {r2-r3}
 5597 45a8 FEFFFFEB 		bl	__divdf3
 5598 45ac FEFFFFEB 		bl	__fixunsdfsi
 5599 45b0 37004BE5 		strb	r0, [fp, #-55]
 5600 45b4 1A00A0E3 		mov	r0, #26
 5601 45b8 FEFFFFEB 		bl	uart1_check_free_space
 5602 45bc FF0010E3 		tst	r0, #255
 5603 45c0 38249F05 		ldreq	r2, .L367+100
 5604 45c4 0030D205 		ldreqb	r3, [r2, #0]	@ zero_extendqisi2
 5605 45c8 01308302 		addeq	r3, r3, #1
 5606 45cc 0030C205 		streqb	r3, [r2, #0]
 5607 45d0 4F12000A 		beq	.L225
 5608 45d4 64149FE5 		ldr	r1, .L367+164
 5609 45d8 64C49FE5 		ldr	ip, .L367+168
 5610 45dc B030D1E1 		ldrh	r3, [r1, #0]
 5611 45e0 B020DCE1 		ldrh	r2, [ip, #0]
 5612 45e4 1A3083E2 		add	r3, r3, #26
 5613 45e8 012082E2 		add	r2, r2, #1
 5614 45ec B030C1E1 		strh	r3, [r1, #0]	@ movhi 
 5615 45f0 B020CCE1 		strh	r2, [ip, #0]	@ movhi 
 5616 45f4 9900A0E3 		mov	r0, #153
 5617 45f8 48449FE5 		ldr	r4, .L367+172
 5618 45fc FEFFFFEB 		bl	uart1_transmit
 5619 4600 1A00A0E3 		mov	r0, #26
 5620 4604 40549FE5 		ldr	r5, .L367+176
 5621 4608 FEFFFFEB 		bl	uart1_transmit
 5622 460c 1E30A0E3 		mov	r3, #30
 5623 4610 0030C4E5 		strb	r3, [r4, #0]
 5624 4614 1A3083E2 		add	r3, r3, #26
 5625 4618 0400A0E3 		mov	r0, #4
 5626 461c 0030C5E5 		strb	r3, [r5, #0]
 5627 4620 FEFFFFEB 		bl	uart1_transmit
 5628 4624 0030D4E5 		ldrb	r3, [r4, #0]	@ zero_extendqisi2
 5629 4628 0A3083E2 		add	r3, r3, #10
 5630 462c 0030C4E5 		strb	r3, [r4, #0]
 5631 4630 0030D5E5 		ldrb	r3, [r5, #0]	@ zero_extendqisi2
 5632 4634 0020D4E5 		ldrb	r2, [r4, #0]	@ zero_extendqisi2
 5633 4638 023083E0 		add	r3, r3, r2
 5634 463c 0A00A0E3 		mov	r0, #10
 5635 4640 0030C5E5 		strb	r3, [r5, #0]
 5636 4644 FEFFFFEB 		bl	uart1_transmit
 5637 4648 54339FE5 		ldr	r3, .L367+8
 5638 464c 0000D3E5 		ldrb	r0, [r3, #0]	@ zero_extendqisi2
 5639 4650 0030D4E5 		ldrb	r3, [r4, #0]	@ zero_extendqisi2
 5640 4654 033080E0 		add	r3, r0, r3
 5641 4658 0030C4E5 		strb	r3, [r4, #0]
 5642 465c 0030D5E5 		ldrb	r3, [r5, #0]	@ zero_extendqisi2
 5643 4660 0020D4E5 		ldrb	r2, [r4, #0]	@ zero_extendqisi2
 5644 4664 023083E0 		add	r3, r3, r2
 5645 4668 0030C5E5 		strb	r3, [r5, #0]
 5646 466c FEFFFFEB 		bl	uart1_transmit
 5647 4670 30339FE5 		ldr	r3, .L367+12
 5648 4674 0000D3E5 		ldrb	r0, [r3, #0]	@ zero_extendqisi2
 5649 4678 0030D4E5 		ldrb	r3, [r4, #0]	@ zero_extendqisi2
 5650 467c 033080E0 		add	r3, r0, r3
 5651 4680 0030C4E5 		strb	r3, [r4, #0]
 5652 4684 0030D5E5 		ldrb	r3, [r5, #0]	@ zero_extendqisi2
 5653 4688 0020D4E5 		ldrb	r2, [r4, #0]	@ zero_extendqisi2
 5654 468c 18639FE5 		ldr	r6, .L367+16
 5655 4690 023083E0 		add	r3, r3, r2
 5656 4694 0030C5E5 		strb	r3, [r5, #0]
 5657 4698 FEFFFFEB 		bl	uart1_transmit
 5658 469c 0000D6E5 		ldrb	r0, [r6, #0]	@ zero_extendqisi2
 5659 46a0 0030D4E5 		ldrb	r3, [r4, #0]	@ zero_extendqisi2
 5660 46a4 033080E0 		add	r3, r0, r3
 5661 46a8 0030C4E5 		strb	r3, [r4, #0]
 5662 46ac 0030D5E5 		ldrb	r3, [r5, #0]	@ zero_extendqisi2
 5663 46b0 0020D4E5 		ldrb	r2, [r4, #0]	@ zero_extendqisi2
 5664 46b4 023083E0 		add	r3, r3, r2
 5665 46b8 0030C5E5 		strb	r3, [r5, #0]
 5666 46bc FEFFFFEB 		bl	uart1_transmit
 5667 46c0 0100D6E5 		ldrb	r0, [r6, #1]	@ zero_extendqisi2
 5668 46c4 0030D4E5 		ldrb	r3, [r4, #0]	@ zero_extendqisi2
 5669 46c8 033080E0 		add	r3, r0, r3
 5670 46cc 0030C4E5 		strb	r3, [r4, #0]
 5671 46d0 0030D5E5 		ldrb	r3, [r5, #0]	@ zero_extendqisi2
 5672 46d4 0020D4E5 		ldrb	r2, [r4, #0]	@ zero_extendqisi2
 5673 46d8 023083E0 		add	r3, r3, r2
 5674 46dc 0030C5E5 		strb	r3, [r5, #0]
 5675 46e0 FEFFFFEB 		bl	uart1_transmit
 5676 46e4 0200D6E5 		ldrb	r0, [r6, #2]	@ zero_extendqisi2
 5677 46e8 0030D4E5 		ldrb	r3, [r4, #0]	@ zero_extendqisi2
 5678 46ec 033080E0 		add	r3, r0, r3
 5679 46f0 0030C4E5 		strb	r3, [r4, #0]
 5680 46f4 0030D5E5 		ldrb	r3, [r5, #0]	@ zero_extendqisi2
 5681 46f8 0020D4E5 		ldrb	r2, [r4, #0]	@ zero_extendqisi2
 5682 46fc 023083E0 		add	r3, r3, r2
 5683 4700 0030C5E5 		strb	r3, [r5, #0]
 5684 4704 FEFFFFEB 		bl	uart1_transmit
 5685 4708 0300D6E5 		ldrb	r0, [r6, #3]	@ zero_extendqisi2
 5686 470c 0030D4E5 		ldrb	r3, [r4, #0]	@ zero_extendqisi2
 5687 4710 033080E0 		add	r3, r0, r3
 5688 4714 0030C4E5 		strb	r3, [r4, #0]
 5689 4718 0030D5E5 		ldrb	r3, [r5, #0]	@ zero_extendqisi2
 5690 471c 0020D4E5 		ldrb	r2, [r4, #0]	@ zero_extendqisi2
 5691 4720 88629FE5 		ldr	r6, .L367+20
 5692 4724 023083E0 		add	r3, r3, r2
 5693 4728 0030C5E5 		strb	r3, [r5, #0]
 5694 472c FEFFFFEB 		bl	uart1_transmit
 5695 4730 0000D6E5 		ldrb	r0, [r6, #0]	@ zero_extendqisi2
 5696 4734 0030D4E5 		ldrb	r3, [r4, #0]	@ zero_extendqisi2
 5697 4738 033080E0 		add	r3, r0, r3
 5698 473c 0030C4E5 		strb	r3, [r4, #0]
 5699 4740 0030D5E5 		ldrb	r3, [r5, #0]	@ zero_extendqisi2
 5700 4744 0020D4E5 		ldrb	r2, [r4, #0]	@ zero_extendqisi2
 5701 4748 023083E0 		add	r3, r3, r2
 5702 474c 0030C5E5 		strb	r3, [r5, #0]
 5703 4750 FEFFFFEB 		bl	uart1_transmit
 5704 4754 0100D6E5 		ldrb	r0, [r6, #1]	@ zero_extendqisi2
 5705 4758 0030D4E5 		ldrb	r3, [r4, #0]	@ zero_extendqisi2
 5706 475c 033080E0 		add	r3, r0, r3
 5707 4760 0030C4E5 		strb	r3, [r4, #0]
 5708 4764 0030D5E5 		ldrb	r3, [r5, #0]	@ zero_extendqisi2
 5709 4768 0020D4E5 		ldrb	r2, [r4, #0]	@ zero_extendqisi2
 5710 476c 023083E0 		add	r3, r3, r2
 5711 4770 0030C5E5 		strb	r3, [r5, #0]
 5712 4774 FEFFFFEB 		bl	uart1_transmit
 5713 4778 0200D6E5 		ldrb	r0, [r6, #2]	@ zero_extendqisi2
 5714 477c 0030D4E5 		ldrb	r3, [r4, #0]	@ zero_extendqisi2
 5715 4780 033080E0 		add	r3, r0, r3
 5716 4784 0030C4E5 		strb	r3, [r4, #0]
 5717 4788 0030D5E5 		ldrb	r3, [r5, #0]	@ zero_extendqisi2
 5718 478c 0020D4E5 		ldrb	r2, [r4, #0]	@ zero_extendqisi2
 5719 4790 023083E0 		add	r3, r3, r2
 5720 4794 0030C5E5 		strb	r3, [r5, #0]
 5721 4798 FEFFFFEB 		bl	uart1_transmit
 5722 479c 0300D6E5 		ldrb	r0, [r6, #3]	@ zero_extendqisi2
 5723 47a0 0030D4E5 		ldrb	r3, [r4, #0]	@ zero_extendqisi2
 5724 47a4 033080E0 		add	r3, r0, r3
 5725 47a8 0030C4E5 		strb	r3, [r4, #0]
 5726 47ac 0030D5E5 		ldrb	r3, [r5, #0]	@ zero_extendqisi2
 5727 47b0 0020D4E5 		ldrb	r2, [r4, #0]	@ zero_extendqisi2
 5728 47b4 F8619FE5 		ldr	r6, .L367+24
 5729 47b8 023083E0 		add	r3, r3, r2
 5730 47bc 0030C5E5 		strb	r3, [r5, #0]
 5731 47c0 FEFFFFEB 		bl	uart1_transmit
 5732 47c4 0000D6E5 		ldrb	r0, [r6, #0]	@ zero_extendqisi2
 5733 47c8 0030D4E5 		ldrb	r3, [r4, #0]	@ zero_extendqisi2
 5734 47cc 033080E0 		add	r3, r0, r3
 5735 47d0 0030C4E5 		strb	r3, [r4, #0]
 5736 47d4 0030D5E5 		ldrb	r3, [r5, #0]	@ zero_extendqisi2
 5737 47d8 0020D4E5 		ldrb	r2, [r4, #0]	@ zero_extendqisi2
 5738 47dc 023083E0 		add	r3, r3, r2
 5739 47e0 0030C5E5 		strb	r3, [r5, #0]
 5740 47e4 FEFFFFEB 		bl	uart1_transmit
 5741 47e8 0100D6E5 		ldrb	r0, [r6, #1]	@ zero_extendqisi2
 5742 47ec 0030D4E5 		ldrb	r3, [r4, #0]	@ zero_extendqisi2
 5743 47f0 033080E0 		add	r3, r0, r3
 5744 47f4 0030C4E5 		strb	r3, [r4, #0]
 5745 47f8 0030D5E5 		ldrb	r3, [r5, #0]	@ zero_extendqisi2
 5746 47fc 0020D4E5 		ldrb	r2, [r4, #0]	@ zero_extendqisi2
 5747 4800 023083E0 		add	r3, r3, r2
 5748 4804 0030C5E5 		strb	r3, [r5, #0]
 5749 4808 FEFFFFEB 		bl	uart1_transmit
 5750 480c 0200D6E5 		ldrb	r0, [r6, #2]	@ zero_extendqisi2
 5751 4810 0030D4E5 		ldrb	r3, [r4, #0]	@ zero_extendqisi2
 5752 4814 033080E0 		add	r3, r0, r3
 5753 4818 0030C4E5 		strb	r3, [r4, #0]
 5754 481c 0030D5E5 		ldrb	r3, [r5, #0]	@ zero_extendqisi2
 5755 4820 0020D4E5 		ldrb	r2, [r4, #0]	@ zero_extendqisi2
 5756 4824 023083E0 		add	r3, r3, r2
 5757 4828 0030C5E5 		strb	r3, [r5, #0]
 5758 482c FEFFFFEB 		bl	uart1_transmit
 5759 4830 0300D6E5 		ldrb	r0, [r6, #3]	@ zero_extendqisi2
 5760 4834 0030D4E5 		ldrb	r3, [r4, #0]	@ zero_extendqisi2
 5761 4838 033080E0 		add	r3, r0, r3
 5762 483c 0030C4E5 		strb	r3, [r4, #0]
 5763 4840 0030D5E5 		ldrb	r3, [r5, #0]	@ zero_extendqisi2
 5764 4844 0020D4E5 		ldrb	r2, [r4, #0]	@ zero_extendqisi2
 5765 4848 68619FE5 		ldr	r6, .L367+28
 5766 484c 023083E0 		add	r3, r3, r2
 5767 4850 0030C5E5 		strb	r3, [r5, #0]
 5768 4854 FEFFFFEB 		bl	uart1_transmit
 5769 4858 0000D6E5 		ldrb	r0, [r6, #0]	@ zero_extendqisi2
 5770 485c 0030D4E5 		ldrb	r3, [r4, #0]	@ zero_extendqisi2
 5771 4860 033080E0 		add	r3, r0, r3
 5772 4864 0030C4E5 		strb	r3, [r4, #0]
 5773 4868 0030D5E5 		ldrb	r3, [r5, #0]	@ zero_extendqisi2
 5774 486c 0020D4E5 		ldrb	r2, [r4, #0]	@ zero_extendqisi2
 5775 4870 023083E0 		add	r3, r3, r2
 5776 4874 0030C5E5 		strb	r3, [r5, #0]
 5777 4878 FEFFFFEB 		bl	uart1_transmit
 5778 487c 0100D6E5 		ldrb	r0, [r6, #1]	@ zero_extendqisi2
 5779 4880 0030D4E5 		ldrb	r3, [r4, #0]	@ zero_extendqisi2
 5780 4884 033080E0 		add	r3, r0, r3
 5781 4888 0030C4E5 		strb	r3, [r4, #0]
 5782 488c 0030D5E5 		ldrb	r3, [r5, #0]	@ zero_extendqisi2
 5783 4890 0020D4E5 		ldrb	r2, [r4, #0]	@ zero_extendqisi2
 5784 4894 023083E0 		add	r3, r3, r2
 5785 4898 0030C5E5 		strb	r3, [r5, #0]
 5786 489c FEFFFFEB 		bl	uart1_transmit
 5787 48a0 0200D6E5 		ldrb	r0, [r6, #2]	@ zero_extendqisi2
 5788 48a4 0030D4E5 		ldrb	r3, [r4, #0]	@ zero_extendqisi2
 5789 48a8 033080E0 		add	r3, r0, r3
 5790 48ac 0030C4E5 		strb	r3, [r4, #0]
 5791 48b0 0030D5E5 		ldrb	r3, [r5, #0]	@ zero_extendqisi2
 5792 48b4 0020D4E5 		ldrb	r2, [r4, #0]	@ zero_extendqisi2
 5793 48b8 023083E0 		add	r3, r3, r2
 5794 48bc 0030C5E5 		strb	r3, [r5, #0]
 5795 48c0 FEFFFFEB 		bl	uart1_transmit
 5796 48c4 0300D6E5 		ldrb	r0, [r6, #3]	@ zero_extendqisi2
 5797 48c8 0030D4E5 		ldrb	r3, [r4, #0]	@ zero_extendqisi2
 5798 48cc 033080E0 		add	r3, r0, r3
 5799 48d0 0030C4E5 		strb	r3, [r4, #0]
 5800 48d4 0030D5E5 		ldrb	r3, [r5, #0]	@ zero_extendqisi2
 5801 48d8 0020D4E5 		ldrb	r2, [r4, #0]	@ zero_extendqisi2
 5802 48dc 023083E0 		add	r3, r3, r2
 5803 48e0 0030C5E5 		strb	r3, [r5, #0]
 5804 48e4 FEFFFFEB 		bl	uart1_transmit
 5805 48e8 37005BE5 		ldrb	r0, [fp, #-55]	@ zero_extendqisi2
 5806 48ec 0030D4E5 		ldrb	r3, [r4, #0]	@ zero_extendqisi2
 5807 48f0 033080E0 		add	r3, r0, r3
 5808 48f4 0030C4E5 		strb	r3, [r4, #0]
 5809 48f8 0030D5E5 		ldrb	r3, [r5, #0]	@ zero_extendqisi2
 5810 48fc 0020D4E5 		ldrb	r2, [r4, #0]	@ zero_extendqisi2
 5811 4900 023083E0 		add	r3, r3, r2
 5812 4904 0030C5E5 		strb	r3, [r5, #0]
 5813 4908 FEFFFFEB 		bl	uart1_transmit
 5814 490c A8309FE5 		ldr	r3, .L367+32
 5815 4910 0000D3E5 		ldrb	r0, [r3, #0]	@ zero_extendqisi2
 5816 4914 0030D4E5 		ldrb	r3, [r4, #0]	@ zero_extendqisi2
 5817 4918 033080E0 		add	r3, r0, r3
 5818 491c 0030C4E5 		strb	r3, [r4, #0]
 5819 4920 0030D5E5 		ldrb	r3, [r5, #0]	@ zero_extendqisi2
 5820 4924 0020D4E5 		ldrb	r2, [r4, #0]	@ zero_extendqisi2
 5821 4928 023083E0 		add	r3, r3, r2
 5822 492c 0030C5E5 		strb	r3, [r5, #0]
 5823 4930 FEFFFFEB 		bl	uart1_transmit
 5824 4934 0000D4E5 		ldrb	r0, [r4, #0]	@ zero_extendqisi2
 5825 4938 FEFFFFEB 		bl	uart1_transmit
 5826 493c 0000D5E5 		ldrb	r0, [r5, #0]	@ zero_extendqisi2
 5827 4940 FEFFFFEB 		bl	uart1_transmit
 5828              	.L225:
 5829 4944 74009FE5 		ldr	r0, .L367+36
 5830 4948 0030D0E5 		ldrb	r3, [r0, #0]	@ zero_extendqisi2
 5831 494c 2A0053E3 		cmp	r3, #42
 5832 4950 1F13001A 		bne	.L228
 5833 4954 68309FE5 		ldr	r3, .L367+40
 5834 4958 0030D3E5 		ldrb	r3, [r3, #0]	@ zero_extendqisi2
 5835 495c 000053E3 		cmp	r3, #0
 5836 4960 1F13000A 		beq	.L228
 5837 4964 1200A0E3 		mov	r0, #18
 5838 4968 FEFFFFEB 		bl	uart1_check_free_space
 5839 496c FF0010E3 		tst	r0, #255
 5840 4970 88209F05 		ldreq	r2, .L367+100
 5841 4974 0030D205 		ldreqb	r3, [r2, #0]	@ zero_extendqisi2
 5842 4978 01308302 		addeq	r3, r3, #1
 5843 497c 0030C205 		streqb	r3, [r2, #0]
 5844 4980 1F13000A 		beq	.L228
 5845 4984 B4109FE5 		ldr	r1, .L367+164
 5846 4988 B4C09FE5 		ldr	ip, .L367+168
 5847 498c B030D1E1 		ldrh	r3, [r1, #0]
 5848 4990 B020DCE1 		ldrh	r2, [ip, #0]
 5849 4994 123083E2 		add	r3, r3, #18
 5850 4998 941200EA 		b	.L368
 5851              	.L369:
 5852              		.align	2
 5853              	.L367:
 5854 499c FB211940 		.word	1075388923
 5855 49a0 182D4454 		.word	1413754136
 5856 49a4 00000000 		.word	nav_block
 5857 49a8 00000000 		.word	nav_stage
 5858 49ac 00000000 		.word	estimator_x
 5859 49b0 00000000 		.word	estimator_y
 5860 49b4 00000000 		.word	dist2_to_wp
 5861 49b8 00000000 		.word	dist2_to_home
 5862 49bc 00000000 		.word	nav_oval_count
 5863 49c0 00000000 		.word	i183.34
 5864 49c4 00000000 		.word	nav_in_circle
 5865 49c8 00000000 		.word	nav_circle_x
 5866 49cc 00000000 		.word	nav_circle_y
 5867 49d0 00000000 		.word	nav_circle_radius
 5868 49d4 00000000 		.word	i192.35
 5869 49d8 00000000 		.word	nav_in_segment
 5870 49dc 00000000 		.word	nav_segment_x_1
 5871 49e0 00000000 		.word	nav_segment_y_1
 5872 49e4 00000000 		.word	nav_segment_x_2
 5873 49e8 00000000 		.word	nav_segment_y_2
 5874 49ec 00000000 		.word	i240.36
 5875 49f0 00000000 		.word	estimator_phi
 5876 49f4 00000000 		.word	estimator_psi
 5877 49f8 00000000 		.word	estimator_theta
 5878 49fc 00000000 		.word	i243.37
 5879 4a00 00000000 		.word	downlink_nb_ovrn
 5880 4a04 00000000 		.word	h_ctl_roll_setpoint
 5881 4a08 00000000 		.word	h_ctl_pitch_loop_setpoint
 5882 4a0c 00000000 		.word	h_ctl_course_setpoint
 5883 4a10 00000000 		.word	desired_x
 5884 4a14 00000000 		.word	desired_y
 5885 4a18 00000000 		.word	v_ctl_altitude_setpoint
 5886 4a1c 00000000 		.word	v_ctl_climb_setpoint
 5887 4a20 00000000 		.word	i300.38
 5888 4a24 00000000 		.word	.LC0
 5889 4a28 00000000 		.word	pprz_mode
 5890 4a2c 00000000 		.word	v_ctl_mode
 5891 4a30 00000000 		.word	lateral_mode
 5892 4a34 00000000 		.word	horizontal_mode
 5893 4a38 00000000 		.word	rc_settings_mode
 5894 4a3c 00000000 		.word	mcu1_status
 5895 4a40 00000000 		.word	downlink_nb_bytes
 5896 4a44 00000000 		.word	downlink_nb_msgs
 5897 4a48 00000000 		.word	ck_a
 5898 4a4c 00000000 		.word	ck_b
 5899 4a50 00000000 		.word	gps_Pacc
 5900 4a54 00000000 		.word	gps_Sacc
 5901              	.L368:
 5902 4a58 012082E2 		add	r2, r2, #1
 5903 4a5c B030C1E1 		strh	r3, [r1, #0]	@ movhi 
 5904 4a60 B020CCE1 		strh	r2, [ip, #0]	@ movhi 
 5905 4a64 9900A0E3 		mov	r0, #153
 5906 4a68 28401FE5 		ldr	r4, .L367+172
 5907 4a6c FEFFFFEB 		bl	uart1_transmit
 5908 4a70 1200A0E3 		mov	r0, #18
 5909 4a74 30501FE5 		ldr	r5, .L367+176
 5910 4a78 FEFFFFEB 		bl	uart1_transmit
 5911 4a7c 1630A0E3 		mov	r3, #22
 5912 4a80 0030C4E5 		strb	r3, [r4, #0]
 5913 4a84 123083E2 		add	r3, r3, #18
 5914 4a88 0400A0E3 		mov	r0, #4
 5915 4a8c 0030C5E5 		strb	r3, [r5, #0]
 5916 4a90 FEFFFFEB 		bl	uart1_transmit
 5917 4a94 0030D4E5 		ldrb	r3, [r4, #0]	@ zero_extendqisi2
 5918 4a98 153083E2 		add	r3, r3, #21
 5919 4a9c 0030C4E5 		strb	r3, [r4, #0]
 5920 4aa0 0030D5E5 		ldrb	r3, [r5, #0]	@ zero_extendqisi2
 5921 4aa4 0020D4E5 		ldrb	r2, [r4, #0]	@ zero_extendqisi2
 5922 4aa8 E8601FE5 		ldr	r6, .L367+44
 5923 4aac 023083E0 		add	r3, r3, r2
 5924 4ab0 1500A0E3 		mov	r0, #21
 5925 4ab4 0030C5E5 		strb	r3, [r5, #0]
 5926 4ab8 FEFFFFEB 		bl	uart1_transmit
 5927 4abc 0000D6E5 		ldrb	r0, [r6, #0]	@ zero_extendqisi2
 5928 4ac0 0030D4E5 		ldrb	r3, [r4, #0]	@ zero_extendqisi2
 5929 4ac4 033080E0 		add	r3, r0, r3
 5930 4ac8 0030C4E5 		strb	r3, [r4, #0]
 5931 4acc 0030D5E5 		ldrb	r3, [r5, #0]	@ zero_extendqisi2
 5932 4ad0 0020D4E5 		ldrb	r2, [r4, #0]	@ zero_extendqisi2
 5933 4ad4 023083E0 		add	r3, r3, r2
 5934 4ad8 0030C5E5 		strb	r3, [r5, #0]
 5935 4adc FEFFFFEB 		bl	uart1_transmit
 5936 4ae0 0100D6E5 		ldrb	r0, [r6, #1]	@ zero_extendqisi2
 5937 4ae4 0030D4E5 		ldrb	r3, [r4, #0]	@ zero_extendqisi2
 5938 4ae8 033080E0 		add	r3, r0, r3
 5939 4aec 0030C4E5 		strb	r3, [r4, #0]
 5940 4af0 0030D5E5 		ldrb	r3, [r5, #0]	@ zero_extendqisi2
 5941 4af4 0020D4E5 		ldrb	r2, [r4, #0]	@ zero_extendqisi2
 5942 4af8 023083E0 		add	r3, r3, r2
 5943 4afc 0030C5E5 		strb	r3, [r5, #0]
 5944 4b00 FEFFFFEB 		bl	uart1_transmit
 5945 4b04 0200D6E5 		ldrb	r0, [r6, #2]	@ zero_extendqisi2
 5946 4b08 0030D4E5 		ldrb	r3, [r4, #0]	@ zero_extendqisi2
 5947 4b0c 033080E0 		add	r3, r0, r3
 5948 4b10 0030C4E5 		strb	r3, [r4, #0]
 5949 4b14 0030D5E5 		ldrb	r3, [r5, #0]	@ zero_extendqisi2
 5950 4b18 0020D4E5 		ldrb	r2, [r4, #0]	@ zero_extendqisi2
 5951 4b1c 023083E0 		add	r3, r3, r2
 5952 4b20 0030C5E5 		strb	r3, [r5, #0]
 5953 4b24 FEFFFFEB 		bl	uart1_transmit
 5954 4b28 0300D6E5 		ldrb	r0, [r6, #3]	@ zero_extendqisi2
 5955 4b2c 0030D4E5 		ldrb	r3, [r4, #0]	@ zero_extendqisi2
 5956 4b30 033080E0 		add	r3, r0, r3
 5957 4b34 0030C4E5 		strb	r3, [r4, #0]
 5958 4b38 0030D5E5 		ldrb	r3, [r5, #0]	@ zero_extendqisi2
 5959 4b3c 0020D4E5 		ldrb	r2, [r4, #0]	@ zero_extendqisi2
 5960 4b40 7C611FE5 		ldr	r6, .L367+48
 5961 4b44 023083E0 		add	r3, r3, r2
 5962 4b48 0030C5E5 		strb	r3, [r5, #0]
 5963 4b4c FEFFFFEB 		bl	uart1_transmit
 5964 4b50 0000D6E5 		ldrb	r0, [r6, #0]	@ zero_extendqisi2
 5965 4b54 0030D4E5 		ldrb	r3, [r4, #0]	@ zero_extendqisi2
 5966 4b58 033080E0 		add	r3, r0, r3
 5967 4b5c 0030C4E5 		strb	r3, [r4, #0]
 5968 4b60 0030D5E5 		ldrb	r3, [r5, #0]	@ zero_extendqisi2
 5969 4b64 0020D4E5 		ldrb	r2, [r4, #0]	@ zero_extendqisi2
 5970 4b68 023083E0 		add	r3, r3, r2
 5971 4b6c 0030C5E5 		strb	r3, [r5, #0]
 5972 4b70 FEFFFFEB 		bl	uart1_transmit
 5973 4b74 0100D6E5 		ldrb	r0, [r6, #1]	@ zero_extendqisi2
 5974 4b78 0030D4E5 		ldrb	r3, [r4, #0]	@ zero_extendqisi2
 5975 4b7c 033080E0 		add	r3, r0, r3
 5976 4b80 0030C4E5 		strb	r3, [r4, #0]
 5977 4b84 0030D5E5 		ldrb	r3, [r5, #0]	@ zero_extendqisi2
 5978 4b88 0020D4E5 		ldrb	r2, [r4, #0]	@ zero_extendqisi2
 5979 4b8c 023083E0 		add	r3, r3, r2
 5980 4b90 0030C5E5 		strb	r3, [r5, #0]
 5981 4b94 FEFFFFEB 		bl	uart1_transmit
 5982 4b98 0200D6E5 		ldrb	r0, [r6, #2]	@ zero_extendqisi2
 5983 4b9c 0030D4E5 		ldrb	r3, [r4, #0]	@ zero_extendqisi2
 5984 4ba0 033080E0 		add	r3, r0, r3
 5985 4ba4 0030C4E5 		strb	r3, [r4, #0]
 5986 4ba8 0030D5E5 		ldrb	r3, [r5, #0]	@ zero_extendqisi2
 5987 4bac 0020D4E5 		ldrb	r2, [r4, #0]	@ zero_extendqisi2
 5988 4bb0 023083E0 		add	r3, r3, r2
 5989 4bb4 0030C5E5 		strb	r3, [r5, #0]
 5990 4bb8 FEFFFFEB 		bl	uart1_transmit
 5991 4bbc 0300D6E5 		ldrb	r0, [r6, #3]	@ zero_extendqisi2
 5992 4bc0 0030D4E5 		ldrb	r3, [r4, #0]	@ zero_extendqisi2
 5993 4bc4 033080E0 		add	r3, r0, r3
 5994 4bc8 0030C4E5 		strb	r3, [r4, #0]
 5995 4bcc 0030D5E5 		ldrb	r3, [r5, #0]	@ zero_extendqisi2
 5996 4bd0 0020D4E5 		ldrb	r2, [r4, #0]	@ zero_extendqisi2
 5997 4bd4 0C621FE5 		ldr	r6, .L367+52
 5998 4bd8 023083E0 		add	r3, r3, r2
 5999 4bdc 0030C5E5 		strb	r3, [r5, #0]
 6000 4be0 FEFFFFEB 		bl	uart1_transmit
 6001 4be4 0000D6E5 		ldrb	r0, [r6, #0]	@ zero_extendqisi2
 6002 4be8 0030D4E5 		ldrb	r3, [r4, #0]	@ zero_extendqisi2
 6003 4bec 033080E0 		add	r3, r0, r3
 6004 4bf0 0030C4E5 		strb	r3, [r4, #0]
 6005 4bf4 0030D5E5 		ldrb	r3, [r5, #0]	@ zero_extendqisi2
 6006 4bf8 0020D4E5 		ldrb	r2, [r4, #0]	@ zero_extendqisi2
 6007 4bfc 023083E0 		add	r3, r3, r2
 6008 4c00 0030C5E5 		strb	r3, [r5, #0]
 6009 4c04 FEFFFFEB 		bl	uart1_transmit
 6010 4c08 0100D6E5 		ldrb	r0, [r6, #1]	@ zero_extendqisi2
 6011 4c0c 0030D4E5 		ldrb	r3, [r4, #0]	@ zero_extendqisi2
 6012 4c10 033080E0 		add	r3, r0, r3
 6013 4c14 0030C4E5 		strb	r3, [r4, #0]
 6014 4c18 0030D5E5 		ldrb	r3, [r5, #0]	@ zero_extendqisi2
 6015 4c1c 0020D4E5 		ldrb	r2, [r4, #0]	@ zero_extendqisi2
 6016 4c20 023083E0 		add	r3, r3, r2
 6017 4c24 0030C5E5 		strb	r3, [r5, #0]
 6018 4c28 FEFFFFEB 		bl	uart1_transmit
 6019 4c2c 0200D6E5 		ldrb	r0, [r6, #2]	@ zero_extendqisi2
 6020 4c30 0030D4E5 		ldrb	r3, [r4, #0]	@ zero_extendqisi2
 6021 4c34 033080E0 		add	r3, r0, r3
 6022 4c38 0030C4E5 		strb	r3, [r4, #0]
 6023 4c3c 0030D5E5 		ldrb	r3, [r5, #0]	@ zero_extendqisi2
 6024 4c40 0020D4E5 		ldrb	r2, [r4, #0]	@ zero_extendqisi2
 6025 4c44 023083E0 		add	r3, r3, r2
 6026 4c48 0030C5E5 		strb	r3, [r5, #0]
 6027 4c4c FEFFFFEB 		bl	uart1_transmit
 6028 4c50 0300D6E5 		ldrb	r0, [r6, #3]	@ zero_extendqisi2
 6029 4c54 0030D4E5 		ldrb	r3, [r4, #0]	@ zero_extendqisi2
 6030 4c58 033080E0 		add	r3, r0, r3
 6031 4c5c 0030C4E5 		strb	r3, [r4, #0]
 6032 4c60 0030D5E5 		ldrb	r3, [r5, #0]	@ zero_extendqisi2
 6033 4c64 0020D4E5 		ldrb	r2, [r4, #0]	@ zero_extendqisi2
 6034 4c68 023083E0 		add	r3, r3, r2
 6035 4c6c 0030C5E5 		strb	r3, [r5, #0]
 6036 4c70 FEFFFFEB 		bl	uart1_transmit
 6037 4c74 0000D4E5 		ldrb	r0, [r4, #0]	@ zero_extendqisi2
 6038 4c78 FEFFFFEB 		bl	uart1_transmit
 6039 4c7c 0000D5E5 		ldrb	r0, [r5, #0]	@ zero_extendqisi2
 6040 4c80 FEFFFFEB 		bl	uart1_transmit
 6041              	.L228:
 6042 4c84 B8221FE5 		ldr	r2, .L367+56
 6043 4c88 0060D2E5 		ldrb	r6, [r2, #0]	@ zero_extendqisi2
 6044 4c8c 300056E3 		cmp	r6, #48
 6045 4c90 E413001A 		bne	.L232
 6046 4c94 C4321FE5 		ldr	r3, .L367+60
 6047 4c98 0030D3E5 		ldrb	r3, [r3, #0]	@ zero_extendqisi2
 6048 4c9c 000053E3 		cmp	r3, #0
 6049 4ca0 E413000A 		beq	.L232
 6050 4ca4 1600A0E3 		mov	r0, #22
 6051 4ca8 FEFFFFEB 		bl	uart1_check_free_space
 6052 4cac FF0010E3 		tst	r0, #255
 6053 4cb0 B8221F05 		ldreq	r2, .L367+100
 6054 4cb4 0030D205 		ldreqb	r3, [r2, #0]	@ zero_extendqisi2
 6055 4cb8 01308302 		addeq	r3, r3, #1
 6056 4cbc 0030C205 		streqb	r3, [r2, #0]
 6057 4cc0 E413000A 		beq	.L232
 6058 4cc4 8C121FE5 		ldr	r1, .L367+164
 6059 4cc8 8CC21FE5 		ldr	ip, .L367+168
 6060 4ccc B030D1E1 		ldrh	r3, [r1, #0]
 6061 4cd0 B020DCE1 		ldrh	r2, [ip, #0]
 6062 4cd4 163083E2 		add	r3, r3, #22
 6063 4cd8 012082E2 		add	r2, r2, #1
 6064 4cdc B030C1E1 		strh	r3, [r1, #0]	@ movhi 
 6065 4ce0 B020CCE1 		strh	r2, [ip, #0]	@ movhi 
 6066 4ce4 1670A0E3 		mov	r7, #22
 6067 4ce8 9900A0E3 		mov	r0, #153
 6068 4cec AC421FE5 		ldr	r4, .L367+172
 6069 4cf0 AC521FE5 		ldr	r5, .L367+176
 6070 4cf4 FEFFFFEB 		bl	uart1_transmit
 6071 4cf8 0700A0E1 		mov	r0, r7
 6072 4cfc FEFFFFEB 		bl	uart1_transmit
 6073 4d00 1A30A0E3 		mov	r3, #26
 6074 4d04 0400A0E3 		mov	r0, #4
 6075 4d08 0030C4E5 		strb	r3, [r4, #0]
 6076 4d0c 0060C5E5 		strb	r6, [r5, #0]
 6077 4d10 FEFFFFEB 		bl	uart1_transmit
 6078 4d14 0030D4E5 		ldrb	r3, [r4, #0]	@ zero_extendqisi2
 6079 4d18 073083E0 		add	r3, r3, r7
 6080 4d1c 0030C4E5 		strb	r3, [r4, #0]
 6081 4d20 0030D5E5 		ldrb	r3, [r5, #0]	@ zero_extendqisi2
 6082 4d24 0020D4E5 		ldrb	r2, [r4, #0]	@ zero_extendqisi2
 6083 4d28 54631FE5 		ldr	r6, .L367+64
 6084 4d2c 023083E0 		add	r3, r3, r2
 6085 4d30 0700A0E1 		mov	r0, r7
 6086 4d34 0030C5E5 		strb	r3, [r5, #0]
 6087 4d38 FEFFFFEB 		bl	uart1_transmit
 6088 4d3c 0000D6E5 		ldrb	r0, [r6, #0]	@ zero_extendqisi2
 6089 4d40 0030D4E5 		ldrb	r3, [r4, #0]	@ zero_extendqisi2
 6090 4d44 033080E0 		add	r3, r0, r3
 6091 4d48 0030C4E5 		strb	r3, [r4, #0]
 6092 4d4c 0030D5E5 		ldrb	r3, [r5, #0]	@ zero_extendqisi2
 6093 4d50 0020D4E5 		ldrb	r2, [r4, #0]	@ zero_extendqisi2
 6094 4d54 023083E0 		add	r3, r3, r2
 6095 4d58 0030C5E5 		strb	r3, [r5, #0]
 6096 4d5c FEFFFFEB 		bl	uart1_transmit
 6097 4d60 0100D6E5 		ldrb	r0, [r6, #1]	@ zero_extendqisi2
 6098 4d64 0030D4E5 		ldrb	r3, [r4, #0]	@ zero_extendqisi2
 6099 4d68 033080E0 		add	r3, r0, r3
 6100 4d6c 0030C4E5 		strb	r3, [r4, #0]
 6101 4d70 0030D5E5 		ldrb	r3, [r5, #0]	@ zero_extendqisi2
 6102 4d74 0020D4E5 		ldrb	r2, [r4, #0]	@ zero_extendqisi2
 6103 4d78 023083E0 		add	r3, r3, r2
 6104 4d7c 0030C5E5 		strb	r3, [r5, #0]
 6105 4d80 FEFFFFEB 		bl	uart1_transmit
 6106 4d84 0200D6E5 		ldrb	r0, [r6, #2]	@ zero_extendqisi2
 6107 4d88 0030D4E5 		ldrb	r3, [r4, #0]	@ zero_extendqisi2
 6108 4d8c 033080E0 		add	r3, r0, r3
 6109 4d90 0030C4E5 		strb	r3, [r4, #0]
 6110 4d94 0030D5E5 		ldrb	r3, [r5, #0]	@ zero_extendqisi2
 6111 4d98 0020D4E5 		ldrb	r2, [r4, #0]	@ zero_extendqisi2
 6112 4d9c 023083E0 		add	r3, r3, r2
 6113 4da0 0030C5E5 		strb	r3, [r5, #0]
 6114 4da4 FEFFFFEB 		bl	uart1_transmit
 6115 4da8 0300D6E5 		ldrb	r0, [r6, #3]	@ zero_extendqisi2
 6116 4dac 0030D4E5 		ldrb	r3, [r4, #0]	@ zero_extendqisi2
 6117 4db0 033080E0 		add	r3, r0, r3
 6118 4db4 0030C4E5 		strb	r3, [r4, #0]
 6119 4db8 0030D5E5 		ldrb	r3, [r5, #0]	@ zero_extendqisi2
 6120 4dbc 0020D4E5 		ldrb	r2, [r4, #0]	@ zero_extendqisi2
 6121 4dc0 E8631FE5 		ldr	r6, .L367+68
 6122 4dc4 023083E0 		add	r3, r3, r2
 6123 4dc8 0030C5E5 		strb	r3, [r5, #0]
 6124 4dcc FEFFFFEB 		bl	uart1_transmit
 6125 4dd0 0000D6E5 		ldrb	r0, [r6, #0]	@ zero_extendqisi2
 6126 4dd4 0030D4E5 		ldrb	r3, [r4, #0]	@ zero_extendqisi2
 6127 4dd8 033080E0 		add	r3, r0, r3
 6128 4ddc 0030C4E5 		strb	r3, [r4, #0]
 6129 4de0 0030D5E5 		ldrb	r3, [r5, #0]	@ zero_extendqisi2
 6130 4de4 0020D4E5 		ldrb	r2, [r4, #0]	@ zero_extendqisi2
 6131 4de8 023083E0 		add	r3, r3, r2
 6132 4dec 0030C5E5 		strb	r3, [r5, #0]
 6133 4df0 FEFFFFEB 		bl	uart1_transmit
 6134 4df4 0100D6E5 		ldrb	r0, [r6, #1]	@ zero_extendqisi2
 6135 4df8 0030D4E5 		ldrb	r3, [r4, #0]	@ zero_extendqisi2
 6136 4dfc 033080E0 		add	r3, r0, r3
 6137 4e00 0030C4E5 		strb	r3, [r4, #0]
 6138 4e04 0030D5E5 		ldrb	r3, [r5, #0]	@ zero_extendqisi2
 6139 4e08 0020D4E5 		ldrb	r2, [r4, #0]	@ zero_extendqisi2
 6140 4e0c 023083E0 		add	r3, r3, r2
 6141 4e10 0030C5E5 		strb	r3, [r5, #0]
 6142 4e14 FEFFFFEB 		bl	uart1_transmit
 6143 4e18 0200D6E5 		ldrb	r0, [r6, #2]	@ zero_extendqisi2
 6144 4e1c 0030D4E5 		ldrb	r3, [r4, #0]	@ zero_extendqisi2
 6145 4e20 033080E0 		add	r3, r0, r3
 6146 4e24 0030C4E5 		strb	r3, [r4, #0]
 6147 4e28 0030D5E5 		ldrb	r3, [r5, #0]	@ zero_extendqisi2
 6148 4e2c 0020D4E5 		ldrb	r2, [r4, #0]	@ zero_extendqisi2
 6149 4e30 023083E0 		add	r3, r3, r2
 6150 4e34 0030C5E5 		strb	r3, [r5, #0]
 6151 4e38 FEFFFFEB 		bl	uart1_transmit
 6152 4e3c 0300D6E5 		ldrb	r0, [r6, #3]	@ zero_extendqisi2
 6153 4e40 0030D4E5 		ldrb	r3, [r4, #0]	@ zero_extendqisi2
 6154 4e44 033080E0 		add	r3, r0, r3
 6155 4e48 0030C4E5 		strb	r3, [r4, #0]
 6156 4e4c 0030D5E5 		ldrb	r3, [r5, #0]	@ zero_extendqisi2
 6157 4e50 0020D4E5 		ldrb	r2, [r4, #0]	@ zero_extendqisi2
 6158 4e54 78641FE5 		ldr	r6, .L367+72
 6159 4e58 023083E0 		add	r3, r3, r2
 6160 4e5c 0030C5E5 		strb	r3, [r5, #0]
 6161 4e60 FEFFFFEB 		bl	uart1_transmit
 6162 4e64 0000D6E5 		ldrb	r0, [r6, #0]	@ zero_extendqisi2
 6163 4e68 0030D4E5 		ldrb	r3, [r4, #0]	@ zero_extendqisi2
 6164 4e6c 033080E0 		add	r3, r0, r3
 6165 4e70 0030C4E5 		strb	r3, [r4, #0]
 6166 4e74 0030D5E5 		ldrb	r3, [r5, #0]	@ zero_extendqisi2
 6167 4e78 0020D4E5 		ldrb	r2, [r4, #0]	@ zero_extendqisi2
 6168 4e7c 023083E0 		add	r3, r3, r2
 6169 4e80 0030C5E5 		strb	r3, [r5, #0]
 6170 4e84 FEFFFFEB 		bl	uart1_transmit
 6171 4e88 0100D6E5 		ldrb	r0, [r6, #1]	@ zero_extendqisi2
 6172 4e8c 0030D4E5 		ldrb	r3, [r4, #0]	@ zero_extendqisi2
 6173 4e90 033080E0 		add	r3, r0, r3
 6174 4e94 0030C4E5 		strb	r3, [r4, #0]
 6175 4e98 0030D5E5 		ldrb	r3, [r5, #0]	@ zero_extendqisi2
 6176 4e9c 0020D4E5 		ldrb	r2, [r4, #0]	@ zero_extendqisi2
 6177 4ea0 023083E0 		add	r3, r3, r2
 6178 4ea4 0030C5E5 		strb	r3, [r5, #0]
 6179 4ea8 FEFFFFEB 		bl	uart1_transmit
 6180 4eac 0200D6E5 		ldrb	r0, [r6, #2]	@ zero_extendqisi2
 6181 4eb0 0030D4E5 		ldrb	r3, [r4, #0]	@ zero_extendqisi2
 6182 4eb4 033080E0 		add	r3, r0, r3
 6183 4eb8 0030C4E5 		strb	r3, [r4, #0]
 6184 4ebc 0030D5E5 		ldrb	r3, [r5, #0]	@ zero_extendqisi2
 6185 4ec0 0020D4E5 		ldrb	r2, [r4, #0]	@ zero_extendqisi2
 6186 4ec4 023083E0 		add	r3, r3, r2
 6187 4ec8 0030C5E5 		strb	r3, [r5, #0]
 6188 4ecc FEFFFFEB 		bl	uart1_transmit
 6189 4ed0 0300D6E5 		ldrb	r0, [r6, #3]	@ zero_extendqisi2
 6190 4ed4 0030D4E5 		ldrb	r3, [r4, #0]	@ zero_extendqisi2
 6191 4ed8 033080E0 		add	r3, r0, r3
 6192 4edc 0030C4E5 		strb	r3, [r4, #0]
 6193 4ee0 0030D5E5 		ldrb	r3, [r5, #0]	@ zero_extendqisi2
 6194 4ee4 0020D4E5 		ldrb	r2, [r4, #0]	@ zero_extendqisi2
 6195 4ee8 08651FE5 		ldr	r6, .L367+76
 6196 4eec 023083E0 		add	r3, r3, r2
 6197 4ef0 0030C5E5 		strb	r3, [r5, #0]
 6198 4ef4 FEFFFFEB 		bl	uart1_transmit
 6199 4ef8 0000D6E5 		ldrb	r0, [r6, #0]	@ zero_extendqisi2
 6200 4efc 0030D4E5 		ldrb	r3, [r4, #0]	@ zero_extendqisi2
 6201 4f00 033080E0 		add	r3, r0, r3
 6202 4f04 0030C4E5 		strb	r3, [r4, #0]
 6203 4f08 0030D5E5 		ldrb	r3, [r5, #0]	@ zero_extendqisi2
 6204 4f0c 0020D4E5 		ldrb	r2, [r4, #0]	@ zero_extendqisi2
 6205 4f10 023083E0 		add	r3, r3, r2
 6206 4f14 0030C5E5 		strb	r3, [r5, #0]
 6207 4f18 FEFFFFEB 		bl	uart1_transmit
 6208 4f1c 0100D6E5 		ldrb	r0, [r6, #1]	@ zero_extendqisi2
 6209 4f20 0030D4E5 		ldrb	r3, [r4, #0]	@ zero_extendqisi2
 6210 4f24 033080E0 		add	r3, r0, r3
 6211 4f28 0030C4E5 		strb	r3, [r4, #0]
 6212 4f2c 0030D5E5 		ldrb	r3, [r5, #0]	@ zero_extendqisi2
 6213 4f30 0020D4E5 		ldrb	r2, [r4, #0]	@ zero_extendqisi2
 6214 4f34 023083E0 		add	r3, r3, r2
 6215 4f38 0030C5E5 		strb	r3, [r5, #0]
 6216 4f3c FEFFFFEB 		bl	uart1_transmit
 6217 4f40 0200D6E5 		ldrb	r0, [r6, #2]	@ zero_extendqisi2
 6218 4f44 0030D4E5 		ldrb	r3, [r4, #0]	@ zero_extendqisi2
 6219 4f48 033080E0 		add	r3, r0, r3
 6220 4f4c 0030C4E5 		strb	r3, [r4, #0]
 6221 4f50 0030D5E5 		ldrb	r3, [r5, #0]	@ zero_extendqisi2
 6222 4f54 0020D4E5 		ldrb	r2, [r4, #0]	@ zero_extendqisi2
 6223 4f58 023083E0 		add	r3, r3, r2
 6224 4f5c 0030C5E5 		strb	r3, [r5, #0]
 6225 4f60 FEFFFFEB 		bl	uart1_transmit
 6226 4f64 0300D6E5 		ldrb	r0, [r6, #3]	@ zero_extendqisi2
 6227 4f68 0030D4E5 		ldrb	r3, [r4, #0]	@ zero_extendqisi2
 6228 4f6c 033080E0 		add	r3, r0, r3
 6229 4f70 0030C4E5 		strb	r3, [r4, #0]
 6230 4f74 0030D5E5 		ldrb	r3, [r5, #0]	@ zero_extendqisi2
 6231 4f78 0020D4E5 		ldrb	r2, [r4, #0]	@ zero_extendqisi2
 6232 4f7c 023083E0 		add	r3, r3, r2
 6233 4f80 0030C5E5 		strb	r3, [r5, #0]
 6234 4f84 FEFFFFEB 		bl	uart1_transmit
 6235 4f88 0000D4E5 		ldrb	r0, [r4, #0]	@ zero_extendqisi2
 6236 4f8c FEFFFFEB 		bl	uart1_transmit
 6237 4f90 0000D5E5 		ldrb	r0, [r5, #0]	@ zero_extendqisi2
 6238 4f94 FEFFFFEB 		bl	uart1_transmit
 6239              	.L232:
 6240 4f98 B4051FE5 		ldr	r0, .L367+80
 6241 4f9c 0030D0E5 		ldrb	r3, [r0, #0]	@ zero_extendqisi2
 6242 4fa0 360053E3 		cmp	r3, #54
 6243 4fa4 8014001A 		bne	.L236
 6244 4fa8 1200A0E3 		mov	r0, #18
 6245 4fac FEFFFFEB 		bl	uart1_check_free_space
 6246 4fb0 FF0010E3 		tst	r0, #255
 6247 4fb4 BC251F05 		ldreq	r2, .L367+100
 6248 4fb8 0030D205 		ldreqb	r3, [r2, #0]	@ zero_extendqisi2
 6249 4fbc 01308302 		addeq	r3, r3, #1
 6250 4fc0 0030C205 		streqb	r3, [r2, #0]
 6251 4fc4 8014000A 		beq	.L236
 6252 4fc8 90151FE5 		ldr	r1, .L367+164
 6253 4fcc 90C51FE5 		ldr	ip, .L367+168
 6254 4fd0 B030D1E1 		ldrh	r3, [r1, #0]
 6255 4fd4 B020DCE1 		ldrh	r2, [ip, #0]
 6256 4fd8 123083E2 		add	r3, r3, #18
 6257 4fdc 012082E2 		add	r2, r2, #1
 6258 4fe0 B030C1E1 		strh	r3, [r1, #0]	@ movhi 
 6259 4fe4 B020CCE1 		strh	r2, [ip, #0]	@ movhi 
 6260 4fe8 9900A0E3 		mov	r0, #153
 6261 4fec AC451FE5 		ldr	r4, .L367+172
 6262 4ff0 FEFFFFEB 		bl	uart1_transmit
 6263 4ff4 1200A0E3 		mov	r0, #18
 6264 4ff8 B4551FE5 		ldr	r5, .L367+176
 6265 4ffc FEFFFFEB 		bl	uart1_transmit
 6266 5000 1630A0E3 		mov	r3, #22
 6267 5004 0030C4E5 		strb	r3, [r4, #0]
 6268 5008 123083E2 		add	r3, r3, #18
 6269 500c 0400A0E3 		mov	r0, #4
 6270 5010 0030C5E5 		strb	r3, [r5, #0]
 6271 5014 FEFFFFEB 		bl	uart1_transmit
 6272 5018 0030D4E5 		ldrb	r3, [r4, #0]	@ zero_extendqisi2
 6273 501c 063083E2 		add	r3, r3, #6
 6274 5020 0030C4E5 		strb	r3, [r4, #0]
 6275 5024 0030D5E5 		ldrb	r3, [r5, #0]	@ zero_extendqisi2
 6276 5028 0020D4E5 		ldrb	r2, [r4, #0]	@ zero_extendqisi2
 6277 502c 44661FE5 		ldr	r6, .L367+84
 6278 5030 023083E0 		add	r3, r3, r2
 6279 5034 0600A0E3 		mov	r0, #6
 6280 5038 0030C5E5 		strb	r3, [r5, #0]
 6281 503c FEFFFFEB 		bl	uart1_transmit
 6282 5040 0000D6E5 		ldrb	r0, [r6, #0]	@ zero_extendqisi2
 6283 5044 0030D4E5 		ldrb	r3, [r4, #0]	@ zero_extendqisi2
 6284 5048 033080E0 		add	r3, r0, r3
 6285 504c 0030C4E5 		strb	r3, [r4, #0]
 6286 5050 0030D5E5 		ldrb	r3, [r5, #0]	@ zero_extendqisi2
 6287 5054 0020D4E5 		ldrb	r2, [r4, #0]	@ zero_extendqisi2
 6288 5058 023083E0 		add	r3, r3, r2
 6289 505c 0030C5E5 		strb	r3, [r5, #0]
 6290 5060 FEFFFFEB 		bl	uart1_transmit
 6291 5064 0100D6E5 		ldrb	r0, [r6, #1]	@ zero_extendqisi2
 6292 5068 0030D4E5 		ldrb	r3, [r4, #0]	@ zero_extendqisi2
 6293 506c 033080E0 		add	r3, r0, r3
 6294 5070 0030C4E5 		strb	r3, [r4, #0]
 6295 5074 0030D5E5 		ldrb	r3, [r5, #0]	@ zero_extendqisi2
 6296 5078 0020D4E5 		ldrb	r2, [r4, #0]	@ zero_extendqisi2
 6297 507c 023083E0 		add	r3, r3, r2
 6298 5080 0030C5E5 		strb	r3, [r5, #0]
 6299 5084 FEFFFFEB 		bl	uart1_transmit
 6300 5088 0200D6E5 		ldrb	r0, [r6, #2]	@ zero_extendqisi2
 6301 508c 0030D4E5 		ldrb	r3, [r4, #0]	@ zero_extendqisi2
 6302 5090 033080E0 		add	r3, r0, r3
 6303 5094 0030C4E5 		strb	r3, [r4, #0]
 6304 5098 0030D5E5 		ldrb	r3, [r5, #0]	@ zero_extendqisi2
 6305 509c 0020D4E5 		ldrb	r2, [r4, #0]	@ zero_extendqisi2
 6306 50a0 023083E0 		add	r3, r3, r2
 6307 50a4 0030C5E5 		strb	r3, [r5, #0]
 6308 50a8 FEFFFFEB 		bl	uart1_transmit
 6309 50ac 0300D6E5 		ldrb	r0, [r6, #3]	@ zero_extendqisi2
 6310 50b0 0030D4E5 		ldrb	r3, [r4, #0]	@ zero_extendqisi2
 6311 50b4 033080E0 		add	r3, r0, r3
 6312 50b8 0030C4E5 		strb	r3, [r4, #0]
 6313 50bc 0030D5E5 		ldrb	r3, [r5, #0]	@ zero_extendqisi2
 6314 50c0 0020D4E5 		ldrb	r2, [r4, #0]	@ zero_extendqisi2
 6315 50c4 D8661FE5 		ldr	r6, .L367+88
 6316 50c8 023083E0 		add	r3, r3, r2
 6317 50cc 0030C5E5 		strb	r3, [r5, #0]
 6318 50d0 FEFFFFEB 		bl	uart1_transmit
 6319 50d4 0000D6E5 		ldrb	r0, [r6, #0]	@ zero_extendqisi2
 6320 50d8 0030D4E5 		ldrb	r3, [r4, #0]	@ zero_extendqisi2
 6321 50dc 033080E0 		add	r3, r0, r3
 6322 50e0 0030C4E5 		strb	r3, [r4, #0]
 6323 50e4 0030D5E5 		ldrb	r3, [r5, #0]	@ zero_extendqisi2
 6324 50e8 0020D4E5 		ldrb	r2, [r4, #0]	@ zero_extendqisi2
 6325 50ec 023083E0 		add	r3, r3, r2
 6326 50f0 0030C5E5 		strb	r3, [r5, #0]
 6327 50f4 FEFFFFEB 		bl	uart1_transmit
 6328 50f8 0100D6E5 		ldrb	r0, [r6, #1]	@ zero_extendqisi2
 6329 50fc 0030D4E5 		ldrb	r3, [r4, #0]	@ zero_extendqisi2
 6330 5100 033080E0 		add	r3, r0, r3
 6331 5104 0030C4E5 		strb	r3, [r4, #0]
 6332 5108 0030D5E5 		ldrb	r3, [r5, #0]	@ zero_extendqisi2
 6333 510c 0020D4E5 		ldrb	r2, [r4, #0]	@ zero_extendqisi2
 6334 5110 023083E0 		add	r3, r3, r2
 6335 5114 0030C5E5 		strb	r3, [r5, #0]
 6336 5118 FEFFFFEB 		bl	uart1_transmit
 6337 511c 0200D6E5 		ldrb	r0, [r6, #2]	@ zero_extendqisi2
 6338 5120 0030D4E5 		ldrb	r3, [r4, #0]	@ zero_extendqisi2
 6339 5124 033080E0 		add	r3, r0, r3
 6340 5128 0030C4E5 		strb	r3, [r4, #0]
 6341 512c 0030D5E5 		ldrb	r3, [r5, #0]	@ zero_extendqisi2
 6342 5130 0020D4E5 		ldrb	r2, [r4, #0]	@ zero_extendqisi2
 6343 5134 023083E0 		add	r3, r3, r2
 6344 5138 0030C5E5 		strb	r3, [r5, #0]
 6345 513c FEFFFFEB 		bl	uart1_transmit
 6346 5140 0300D6E5 		ldrb	r0, [r6, #3]	@ zero_extendqisi2
 6347 5144 0030D4E5 		ldrb	r3, [r4, #0]	@ zero_extendqisi2
 6348 5148 033080E0 		add	r3, r0, r3
 6349 514c 0030C4E5 		strb	r3, [r4, #0]
 6350 5150 0030D5E5 		ldrb	r3, [r5, #0]	@ zero_extendqisi2
 6351 5154 0020D4E5 		ldrb	r2, [r4, #0]	@ zero_extendqisi2
 6352 5158 68671FE5 		ldr	r6, .L367+92
 6353 515c 023083E0 		add	r3, r3, r2
 6354 5160 0030C5E5 		strb	r3, [r5, #0]
 6355 5164 FEFFFFEB 		bl	uart1_transmit
 6356 5168 0000D6E5 		ldrb	r0, [r6, #0]	@ zero_extendqisi2
 6357 516c 0030D4E5 		ldrb	r3, [r4, #0]	@ zero_extendqisi2
 6358 5170 033080E0 		add	r3, r0, r3
 6359 5174 0030C4E5 		strb	r3, [r4, #0]
 6360 5178 0030D5E5 		ldrb	r3, [r5, #0]	@ zero_extendqisi2
 6361 517c 0020D4E5 		ldrb	r2, [r4, #0]	@ zero_extendqisi2
 6362 5180 023083E0 		add	r3, r3, r2
 6363 5184 0030C5E5 		strb	r3, [r5, #0]
 6364 5188 FEFFFFEB 		bl	uart1_transmit
 6365 518c 0100D6E5 		ldrb	r0, [r6, #1]	@ zero_extendqisi2
 6366 5190 0030D4E5 		ldrb	r3, [r4, #0]	@ zero_extendqisi2
 6367 5194 033080E0 		add	r3, r0, r3
 6368 5198 0030C4E5 		strb	r3, [r4, #0]
 6369 519c 0030D5E5 		ldrb	r3, [r5, #0]	@ zero_extendqisi2
 6370 51a0 0020D4E5 		ldrb	r2, [r4, #0]	@ zero_extendqisi2
 6371 51a4 023083E0 		add	r3, r3, r2
 6372 51a8 0030C5E5 		strb	r3, [r5, #0]
 6373 51ac FEFFFFEB 		bl	uart1_transmit
 6374 51b0 0200D6E5 		ldrb	r0, [r6, #2]	@ zero_extendqisi2
 6375 51b4 0030D4E5 		ldrb	r3, [r4, #0]	@ zero_extendqisi2
 6376 51b8 033080E0 		add	r3, r0, r3
 6377 51bc 0030C4E5 		strb	r3, [r4, #0]
 6378 51c0 0030D5E5 		ldrb	r3, [r5, #0]	@ zero_extendqisi2
 6379 51c4 0020D4E5 		ldrb	r2, [r4, #0]	@ zero_extendqisi2
 6380 51c8 023083E0 		add	r3, r3, r2
 6381 51cc 0030C5E5 		strb	r3, [r5, #0]
 6382 51d0 FEFFFFEB 		bl	uart1_transmit
 6383 51d4 0300D6E5 		ldrb	r0, [r6, #3]	@ zero_extendqisi2
 6384 51d8 0030D4E5 		ldrb	r3, [r4, #0]	@ zero_extendqisi2
 6385 51dc 033080E0 		add	r3, r0, r3
 6386 51e0 0030C4E5 		strb	r3, [r4, #0]
 6387 51e4 0030D5E5 		ldrb	r3, [r5, #0]	@ zero_extendqisi2
 6388 51e8 0020D4E5 		ldrb	r2, [r4, #0]	@ zero_extendqisi2
 6389 51ec 023083E0 		add	r3, r3, r2
 6390 51f0 0030C5E5 		strb	r3, [r5, #0]
 6391 51f4 FEFFFFEB 		bl	uart1_transmit
 6392 51f8 0000D4E5 		ldrb	r0, [r4, #0]	@ zero_extendqisi2
 6393 51fc FEFFFFEB 		bl	uart1_transmit
 6394 5200 0000D5E5 		ldrb	r0, [r5, #0]	@ zero_extendqisi2
 6395 5204 FEFFFFEB 		bl	uart1_transmit
 6396              	.L236:
 6397 5208 14281FE5 		ldr	r2, .L367+96
 6398 520c 0030D2E5 		ldrb	r3, [r2, #0]	@ zero_extendqisi2
 6399 5210 3C0053E3 		cmp	r3, #60
 6400 5214 B015001A 		bne	.L239
 6401 5218 2200A0E3 		mov	r0, #34
 6402 521c FEFFFFEB 		bl	uart1_check_free_space
 6403 5220 FF0010E3 		tst	r0, #255
 6404 5224 2C281F05 		ldreq	r2, .L367+100
 6405 5228 0030D205 		ldreqb	r3, [r2, #0]	@ zero_extendqisi2
 6406 522c 01308302 		addeq	r3, r3, #1
 6407 5230 0030C205 		streqb	r3, [r2, #0]
 6408 5234 B015000A 		beq	.L239
 6409 5238 00181FE5 		ldr	r1, .L367+164
 6410 523c 00C81FE5 		ldr	ip, .L367+168
 6411 5240 B030D1E1 		ldrh	r3, [r1, #0]
 6412 5244 B020DCE1 		ldrh	r2, [ip, #0]
 6413 5248 223083E2 		add	r3, r3, #34
 6414 524c 012082E2 		add	r2, r2, #1
 6415 5250 B030C1E1 		strh	r3, [r1, #0]	@ movhi 
 6416 5254 B020CCE1 		strh	r2, [ip, #0]	@ movhi 
 6417 5258 9900A0E3 		mov	r0, #153
 6418 525c 1C481FE5 		ldr	r4, .L367+172
 6419 5260 FEFFFFEB 		bl	uart1_transmit
 6420 5264 2200A0E3 		mov	r0, #34
 6421 5268 24581FE5 		ldr	r5, .L367+176
 6422 526c FEFFFFEB 		bl	uart1_transmit
 6423 5270 2630A0E3 		mov	r3, #38
 6424 5274 0030C4E5 		strb	r3, [r4, #0]
 6425 5278 223083E2 		add	r3, r3, #34
 6426 527c 0400A0E3 		mov	r0, #4
 6427 5280 0030C5E5 		strb	r3, [r5, #0]
 6428 5284 FEFFFFEB 		bl	uart1_transmit
 6429 5288 0030D4E5 		ldrb	r3, [r4, #0]	@ zero_extendqisi2
 6430 528c 103083E2 		add	r3, r3, #16
 6431 5290 0030C4E5 		strb	r3, [r4, #0]
 6432 5294 0030D5E5 		ldrb	r3, [r5, #0]	@ zero_extendqisi2
 6433 5298 0020D4E5 		ldrb	r2, [r4, #0]	@ zero_extendqisi2
 6434 529c A0681FE5 		ldr	r6, .L367+104
 6435 52a0 023083E0 		add	r3, r3, r2
 6436 52a4 1000A0E3 		mov	r0, #16
 6437 52a8 0030C5E5 		strb	r3, [r5, #0]
 6438 52ac FEFFFFEB 		bl	uart1_transmit
 6439 52b0 0000D6E5 		ldrb	r0, [r6, #0]	@ zero_extendqisi2
 6440 52b4 0030D4E5 		ldrb	r3, [r4, #0]	@ zero_extendqisi2
 6441 52b8 033080E0 		add	r3, r0, r3
 6442 52bc 0030C4E5 		strb	r3, [r4, #0]
 6443 52c0 0030D5E5 		ldrb	r3, [r5, #0]	@ zero_extendqisi2
 6444 52c4 0020D4E5 		ldrb	r2, [r4, #0]	@ zero_extendqisi2
 6445 52c8 023083E0 		add	r3, r3, r2
 6446 52cc 0030C5E5 		strb	r3, [r5, #0]
 6447 52d0 FEFFFFEB 		bl	uart1_transmit
 6448 52d4 0100D6E5 		ldrb	r0, [r6, #1]	@ zero_extendqisi2
 6449 52d8 0030D4E5 		ldrb	r3, [r4, #0]	@ zero_extendqisi2
 6450 52dc 033080E0 		add	r3, r0, r3
 6451 52e0 0030C4E5 		strb	r3, [r4, #0]
 6452 52e4 0030D5E5 		ldrb	r3, [r5, #0]	@ zero_extendqisi2
 6453 52e8 0020D4E5 		ldrb	r2, [r4, #0]	@ zero_extendqisi2
 6454 52ec 023083E0 		add	r3, r3, r2
 6455 52f0 0030C5E5 		strb	r3, [r5, #0]
 6456 52f4 FEFFFFEB 		bl	uart1_transmit
 6457 52f8 0200D6E5 		ldrb	r0, [r6, #2]	@ zero_extendqisi2
 6458 52fc 0030D4E5 		ldrb	r3, [r4, #0]	@ zero_extendqisi2
 6459 5300 033080E0 		add	r3, r0, r3
 6460 5304 0030C4E5 		strb	r3, [r4, #0]
 6461 5308 0030D5E5 		ldrb	r3, [r5, #0]	@ zero_extendqisi2
 6462 530c 0020D4E5 		ldrb	r2, [r4, #0]	@ zero_extendqisi2
 6463 5310 023083E0 		add	r3, r3, r2
 6464 5314 0030C5E5 		strb	r3, [r5, #0]
 6465 5318 FEFFFFEB 		bl	uart1_transmit
 6466 531c 0300D6E5 		ldrb	r0, [r6, #3]	@ zero_extendqisi2
 6467 5320 0030D4E5 		ldrb	r3, [r4, #0]	@ zero_extendqisi2
 6468 5324 033080E0 		add	r3, r0, r3
 6469 5328 0030C4E5 		strb	r3, [r4, #0]
 6470 532c 0030D5E5 		ldrb	r3, [r5, #0]	@ zero_extendqisi2
 6471 5330 0020D4E5 		ldrb	r2, [r4, #0]	@ zero_extendqisi2
 6472 5334 34691FE5 		ldr	r6, .L367+108
 6473 5338 023083E0 		add	r3, r3, r2
 6474 533c 0030C5E5 		strb	r3, [r5, #0]
 6475 5340 FEFFFFEB 		bl	uart1_transmit
 6476 5344 0000D6E5 		ldrb	r0, [r6, #0]	@ zero_extendqisi2
 6477 5348 0030D4E5 		ldrb	r3, [r4, #0]	@ zero_extendqisi2
 6478 534c 033080E0 		add	r3, r0, r3
 6479 5350 0030C4E5 		strb	r3, [r4, #0]
 6480 5354 0030D5E5 		ldrb	r3, [r5, #0]	@ zero_extendqisi2
 6481 5358 0020D4E5 		ldrb	r2, [r4, #0]	@ zero_extendqisi2
 6482 535c 023083E0 		add	r3, r3, r2
 6483 5360 0030C5E5 		strb	r3, [r5, #0]
 6484 5364 FEFFFFEB 		bl	uart1_transmit
 6485 5368 0100D6E5 		ldrb	r0, [r6, #1]	@ zero_extendqisi2
 6486 536c 0030D4E5 		ldrb	r3, [r4, #0]	@ zero_extendqisi2
 6487 5370 033080E0 		add	r3, r0, r3
 6488 5374 0030C4E5 		strb	r3, [r4, #0]
 6489 5378 0030D5E5 		ldrb	r3, [r5, #0]	@ zero_extendqisi2
 6490 537c 0020D4E5 		ldrb	r2, [r4, #0]	@ zero_extendqisi2
 6491 5380 023083E0 		add	r3, r3, r2
 6492 5384 0030C5E5 		strb	r3, [r5, #0]
 6493 5388 FEFFFFEB 		bl	uart1_transmit
 6494 538c 0200D6E5 		ldrb	r0, [r6, #2]	@ zero_extendqisi2
 6495 5390 0030D4E5 		ldrb	r3, [r4, #0]	@ zero_extendqisi2
 6496 5394 033080E0 		add	r3, r0, r3
 6497 5398 0030C4E5 		strb	r3, [r4, #0]
 6498 539c 0030D5E5 		ldrb	r3, [r5, #0]	@ zero_extendqisi2
 6499 53a0 0020D4E5 		ldrb	r2, [r4, #0]	@ zero_extendqisi2
 6500 53a4 023083E0 		add	r3, r3, r2
 6501 53a8 0030C5E5 		strb	r3, [r5, #0]
 6502 53ac FEFFFFEB 		bl	uart1_transmit
 6503 53b0 0300D6E5 		ldrb	r0, [r6, #3]	@ zero_extendqisi2
 6504 53b4 0030D4E5 		ldrb	r3, [r4, #0]	@ zero_extendqisi2
 6505 53b8 033080E0 		add	r3, r0, r3
 6506 53bc 0030C4E5 		strb	r3, [r4, #0]
 6507 53c0 0030D5E5 		ldrb	r3, [r5, #0]	@ zero_extendqisi2
 6508 53c4 0020D4E5 		ldrb	r2, [r4, #0]	@ zero_extendqisi2
 6509 53c8 C4691FE5 		ldr	r6, .L367+112
 6510 53cc 023083E0 		add	r3, r3, r2
 6511 53d0 0030C5E5 		strb	r3, [r5, #0]
 6512 53d4 FEFFFFEB 		bl	uart1_transmit
 6513 53d8 0000D6E5 		ldrb	r0, [r6, #0]	@ zero_extendqisi2
 6514 53dc 0030D4E5 		ldrb	r3, [r4, #0]	@ zero_extendqisi2
 6515 53e0 033080E0 		add	r3, r0, r3
 6516 53e4 0030C4E5 		strb	r3, [r4, #0]
 6517 53e8 0030D5E5 		ldrb	r3, [r5, #0]	@ zero_extendqisi2
 6518 53ec 0020D4E5 		ldrb	r2, [r4, #0]	@ zero_extendqisi2
 6519 53f0 023083E0 		add	r3, r3, r2
 6520 53f4 0030C5E5 		strb	r3, [r5, #0]
 6521 53f8 FEFFFFEB 		bl	uart1_transmit
 6522 53fc 0100D6E5 		ldrb	r0, [r6, #1]	@ zero_extendqisi2
 6523 5400 0030D4E5 		ldrb	r3, [r4, #0]	@ zero_extendqisi2
 6524 5404 033080E0 		add	r3, r0, r3
 6525 5408 0030C4E5 		strb	r3, [r4, #0]
 6526 540c 0030D5E5 		ldrb	r3, [r5, #0]	@ zero_extendqisi2
 6527 5410 0020D4E5 		ldrb	r2, [r4, #0]	@ zero_extendqisi2
 6528 5414 023083E0 		add	r3, r3, r2
 6529 5418 0030C5E5 		strb	r3, [r5, #0]
 6530 541c FEFFFFEB 		bl	uart1_transmit
 6531 5420 0200D6E5 		ldrb	r0, [r6, #2]	@ zero_extendqisi2
 6532 5424 0030D4E5 		ldrb	r3, [r4, #0]	@ zero_extendqisi2
 6533 5428 033080E0 		add	r3, r0, r3
 6534 542c 0030C4E5 		strb	r3, [r4, #0]
 6535 5430 0030D5E5 		ldrb	r3, [r5, #0]	@ zero_extendqisi2
 6536 5434 0020D4E5 		ldrb	r2, [r4, #0]	@ zero_extendqisi2
 6537 5438 023083E0 		add	r3, r3, r2
 6538 543c 0030C5E5 		strb	r3, [r5, #0]
 6539 5440 FEFFFFEB 		bl	uart1_transmit
 6540 5444 0300D6E5 		ldrb	r0, [r6, #3]	@ zero_extendqisi2
 6541 5448 0030D4E5 		ldrb	r3, [r4, #0]	@ zero_extendqisi2
 6542 544c 033080E0 		add	r3, r0, r3
 6543 5450 0030C4E5 		strb	r3, [r4, #0]
 6544 5454 0030D5E5 		ldrb	r3, [r5, #0]	@ zero_extendqisi2
 6545 5458 0020D4E5 		ldrb	r2, [r4, #0]	@ zero_extendqisi2
 6546 545c 546A1FE5 		ldr	r6, .L367+116
 6547 5460 023083E0 		add	r3, r3, r2
 6548 5464 0030C5E5 		strb	r3, [r5, #0]
 6549 5468 FEFFFFEB 		bl	uart1_transmit
 6550 546c 0000D6E5 		ldrb	r0, [r6, #0]	@ zero_extendqisi2
 6551 5470 0030D4E5 		ldrb	r3, [r4, #0]	@ zero_extendqisi2
 6552 5474 033080E0 		add	r3, r0, r3
 6553 5478 0030C4E5 		strb	r3, [r4, #0]
 6554 547c 0030D5E5 		ldrb	r3, [r5, #0]	@ zero_extendqisi2
 6555 5480 0020D4E5 		ldrb	r2, [r4, #0]	@ zero_extendqisi2
 6556 5484 023083E0 		add	r3, r3, r2
 6557 5488 0030C5E5 		strb	r3, [r5, #0]
 6558 548c FEFFFFEB 		bl	uart1_transmit
 6559 5490 0100D6E5 		ldrb	r0, [r6, #1]	@ zero_extendqisi2
 6560 5494 0030D4E5 		ldrb	r3, [r4, #0]	@ zero_extendqisi2
 6561 5498 033080E0 		add	r3, r0, r3
 6562 549c 0030C4E5 		strb	r3, [r4, #0]
 6563 54a0 0030D5E5 		ldrb	r3, [r5, #0]	@ zero_extendqisi2
 6564 54a4 0020D4E5 		ldrb	r2, [r4, #0]	@ zero_extendqisi2
 6565 54a8 023083E0 		add	r3, r3, r2
 6566 54ac 0030C5E5 		strb	r3, [r5, #0]
 6567 54b0 FEFFFFEB 		bl	uart1_transmit
 6568 54b4 0200D6E5 		ldrb	r0, [r6, #2]	@ zero_extendqisi2
 6569 54b8 0030D4E5 		ldrb	r3, [r4, #0]	@ zero_extendqisi2
 6570 54bc 033080E0 		add	r3, r0, r3
 6571 54c0 0030C4E5 		strb	r3, [r4, #0]
 6572 54c4 0030D5E5 		ldrb	r3, [r5, #0]	@ zero_extendqisi2
 6573 54c8 0020D4E5 		ldrb	r2, [r4, #0]	@ zero_extendqisi2
 6574 54cc 023083E0 		add	r3, r3, r2
 6575 54d0 0030C5E5 		strb	r3, [r5, #0]
 6576 54d4 FEFFFFEB 		bl	uart1_transmit
 6577 54d8 0300D6E5 		ldrb	r0, [r6, #3]	@ zero_extendqisi2
 6578 54dc 0030D4E5 		ldrb	r3, [r4, #0]	@ zero_extendqisi2
 6579 54e0 033080E0 		add	r3, r0, r3
 6580 54e4 0030C4E5 		strb	r3, [r4, #0]
 6581 54e8 0030D5E5 		ldrb	r3, [r5, #0]	@ zero_extendqisi2
 6582 54ec 0020D4E5 		ldrb	r2, [r4, #0]	@ zero_extendqisi2
 6583 54f0 E46A1FE5 		ldr	r6, .L367+120
 6584 54f4 023083E0 		add	r3, r3, r2
 6585 54f8 0030C5E5 		strb	r3, [r5, #0]
 6586 54fc FEFFFFEB 		bl	uart1_transmit
 6587 5500 0000D6E5 		ldrb	r0, [r6, #0]	@ zero_extendqisi2
 6588 5504 0030D4E5 		ldrb	r3, [r4, #0]	@ zero_extendqisi2
 6589 5508 033080E0 		add	r3, r0, r3
 6590 550c 0030C4E5 		strb	r3, [r4, #0]
 6591 5510 0030D5E5 		ldrb	r3, [r5, #0]	@ zero_extendqisi2
 6592 5514 0020D4E5 		ldrb	r2, [r4, #0]	@ zero_extendqisi2
 6593 5518 023083E0 		add	r3, r3, r2
 6594 551c 0030C5E5 		strb	r3, [r5, #0]
 6595 5520 FEFFFFEB 		bl	uart1_transmit
 6596 5524 0100D6E5 		ldrb	r0, [r6, #1]	@ zero_extendqisi2
 6597 5528 0030D4E5 		ldrb	r3, [r4, #0]	@ zero_extendqisi2
 6598 552c 033080E0 		add	r3, r0, r3
 6599 5530 0030C4E5 		strb	r3, [r4, #0]
 6600 5534 0030D5E5 		ldrb	r3, [r5, #0]	@ zero_extendqisi2
 6601 5538 0020D4E5 		ldrb	r2, [r4, #0]	@ zero_extendqisi2
 6602 553c 023083E0 		add	r3, r3, r2
 6603 5540 0030C5E5 		strb	r3, [r5, #0]
 6604 5544 FEFFFFEB 		bl	uart1_transmit
 6605 5548 0200D6E5 		ldrb	r0, [r6, #2]	@ zero_extendqisi2
 6606 554c 0030D4E5 		ldrb	r3, [r4, #0]	@ zero_extendqisi2
 6607 5550 033080E0 		add	r3, r0, r3
 6608 5554 0030C4E5 		strb	r3, [r4, #0]
 6609 5558 0030D5E5 		ldrb	r3, [r5, #0]	@ zero_extendqisi2
 6610 555c 0020D4E5 		ldrb	r2, [r4, #0]	@ zero_extendqisi2
 6611 5560 023083E0 		add	r3, r3, r2
 6612 5564 0030C5E5 		strb	r3, [r5, #0]
 6613 5568 FEFFFFEB 		bl	uart1_transmit
 6614 556c 0300D6E5 		ldrb	r0, [r6, #3]	@ zero_extendqisi2
 6615 5570 0030D4E5 		ldrb	r3, [r4, #0]	@ zero_extendqisi2
 6616 5574 033080E0 		add	r3, r0, r3
 6617 5578 0030C4E5 		strb	r3, [r4, #0]
 6618 557c 0030D5E5 		ldrb	r3, [r5, #0]	@ zero_extendqisi2
 6619 5580 0020D4E5 		ldrb	r2, [r4, #0]	@ zero_extendqisi2
 6620 5584 746B1FE5 		ldr	r6, .L367+124
 6621 5588 023083E0 		add	r3, r3, r2
 6622 558c 0030C5E5 		strb	r3, [r5, #0]
 6623 5590 FEFFFFEB 		bl	uart1_transmit
 6624 5594 0000D6E5 		ldrb	r0, [r6, #0]	@ zero_extendqisi2
 6625 5598 0030D4E5 		ldrb	r3, [r4, #0]	@ zero_extendqisi2
 6626 559c 033080E0 		add	r3, r0, r3
 6627 55a0 0030C4E5 		strb	r3, [r4, #0]
 6628 55a4 0030D5E5 		ldrb	r3, [r5, #0]	@ zero_extendqisi2
 6629 55a8 0020D4E5 		ldrb	r2, [r4, #0]	@ zero_extendqisi2
 6630 55ac 023083E0 		add	r3, r3, r2
 6631 55b0 0030C5E5 		strb	r3, [r5, #0]
 6632 55b4 FEFFFFEB 		bl	uart1_transmit
 6633 55b8 0100D6E5 		ldrb	r0, [r6, #1]	@ zero_extendqisi2
 6634 55bc 0030D4E5 		ldrb	r3, [r4, #0]	@ zero_extendqisi2
 6635 55c0 033080E0 		add	r3, r0, r3
 6636 55c4 0030C4E5 		strb	r3, [r4, #0]
 6637 55c8 0030D5E5 		ldrb	r3, [r5, #0]	@ zero_extendqisi2
 6638 55cc 0020D4E5 		ldrb	r2, [r4, #0]	@ zero_extendqisi2
 6639 55d0 023083E0 		add	r3, r3, r2
 6640 55d4 0030C5E5 		strb	r3, [r5, #0]
 6641 55d8 FEFFFFEB 		bl	uart1_transmit
 6642 55dc 0200D6E5 		ldrb	r0, [r6, #2]	@ zero_extendqisi2
 6643 55e0 0030D4E5 		ldrb	r3, [r4, #0]	@ zero_extendqisi2
 6644 55e4 033080E0 		add	r3, r0, r3
 6645 55e8 0030C4E5 		strb	r3, [r4, #0]
 6646 55ec 0030D5E5 		ldrb	r3, [r5, #0]	@ zero_extendqisi2
 6647 55f0 0020D4E5 		ldrb	r2, [r4, #0]	@ zero_extendqisi2
 6648 55f4 023083E0 		add	r3, r3, r2
 6649 55f8 0030C5E5 		strb	r3, [r5, #0]
 6650 55fc FEFFFFEB 		bl	uart1_transmit
 6651 5600 0300D6E5 		ldrb	r0, [r6, #3]	@ zero_extendqisi2
 6652 5604 0030D4E5 		ldrb	r3, [r4, #0]	@ zero_extendqisi2
 6653 5608 033080E0 		add	r3, r0, r3
 6654 560c 0030C4E5 		strb	r3, [r4, #0]
 6655 5610 0030D5E5 		ldrb	r3, [r5, #0]	@ zero_extendqisi2
 6656 5614 0020D4E5 		ldrb	r2, [r4, #0]	@ zero_extendqisi2
 6657 5618 046C1FE5 		ldr	r6, .L367+128
 6658 561c 023083E0 		add	r3, r3, r2
 6659 5620 0030C5E5 		strb	r3, [r5, #0]
 6660 5624 FEFFFFEB 		bl	uart1_transmit
 6661 5628 0000D6E5 		ldrb	r0, [r6, #0]	@ zero_extendqisi2
 6662 562c 0030D4E5 		ldrb	r3, [r4, #0]	@ zero_extendqisi2
 6663 5630 033080E0 		add	r3, r0, r3
 6664 5634 0030C4E5 		strb	r3, [r4, #0]
 6665 5638 0030D5E5 		ldrb	r3, [r5, #0]	@ zero_extendqisi2
 6666 563c 0020D4E5 		ldrb	r2, [r4, #0]	@ zero_extendqisi2
 6667 5640 023083E0 		add	r3, r3, r2
 6668 5644 0030C5E5 		strb	r3, [r5, #0]
 6669 5648 FEFFFFEB 		bl	uart1_transmit
 6670 564c 0100D6E5 		ldrb	r0, [r6, #1]	@ zero_extendqisi2
 6671 5650 0030D4E5 		ldrb	r3, [r4, #0]	@ zero_extendqisi2
 6672 5654 033080E0 		add	r3, r0, r3
 6673 5658 0030C4E5 		strb	r3, [r4, #0]
 6674 565c 0030D5E5 		ldrb	r3, [r5, #0]	@ zero_extendqisi2
 6675 5660 0020D4E5 		ldrb	r2, [r4, #0]	@ zero_extendqisi2
 6676 5664 023083E0 		add	r3, r3, r2
 6677 5668 0030C5E5 		strb	r3, [r5, #0]
 6678 566c FEFFFFEB 		bl	uart1_transmit
 6679 5670 0200D6E5 		ldrb	r0, [r6, #2]	@ zero_extendqisi2
 6680 5674 0030D4E5 		ldrb	r3, [r4, #0]	@ zero_extendqisi2
 6681 5678 033080E0 		add	r3, r0, r3
 6682 567c 0030C4E5 		strb	r3, [r4, #0]
 6683 5680 0030D5E5 		ldrb	r3, [r5, #0]	@ zero_extendqisi2
 6684 5684 0020D4E5 		ldrb	r2, [r4, #0]	@ zero_extendqisi2
 6685 5688 023083E0 		add	r3, r3, r2
 6686 568c 0030C5E5 		strb	r3, [r5, #0]
 6687 5690 FEFFFFEB 		bl	uart1_transmit
 6688 5694 0300D6E5 		ldrb	r0, [r6, #3]	@ zero_extendqisi2
 6689 5698 0030D4E5 		ldrb	r3, [r4, #0]	@ zero_extendqisi2
 6690 569c 033080E0 		add	r3, r0, r3
 6691 56a0 0030C4E5 		strb	r3, [r4, #0]
 6692 56a4 0030D5E5 		ldrb	r3, [r5, #0]	@ zero_extendqisi2
 6693 56a8 0020D4E5 		ldrb	r2, [r4, #0]	@ zero_extendqisi2
 6694 56ac 023083E0 		add	r3, r3, r2
 6695 56b0 0030C5E5 		strb	r3, [r5, #0]
 6696 56b4 FEFFFFEB 		bl	uart1_transmit
 6697 56b8 0000D4E5 		ldrb	r0, [r4, #0]	@ zero_extendqisi2
 6698 56bc FEFFFFEB 		bl	uart1_transmit
 6699 56c0 0000D5E5 		ldrb	r0, [r5, #0]	@ zero_extendqisi2
 6700 56c4 FEFFFFEB 		bl	uart1_transmit
 6701              	.L239:
 6702 56c8 B00C1FE5 		ldr	r0, .L367+132
 6703 56cc B030D0E1 		ldrh	r3, [r0, #0]
 6704 56d0 420053E3 		cmp	r3, #66
 6705 56d4 F115001A 		bne	.L242
 6706 56d8 1700A0E3 		mov	r0, #23
 6707 56dc FEFFFFEB 		bl	uart1_check_free_space
 6708 56e0 FF0010E3 		tst	r0, #255
 6709 56e4 D816000A 		beq	.L255
 6710 56e8 B01C1FE5 		ldr	r1, .L367+164
 6711 56ec B0CC1FE5 		ldr	ip, .L367+168
 6712 56f0 B030D1E1 		ldrh	r3, [r1, #0]
 6713 56f4 B020DCE1 		ldrh	r2, [ip, #0]
 6714 56f8 173083E2 		add	r3, r3, #23
 6715 56fc 012082E2 		add	r2, r2, #1
 6716 5700 B030C1E1 		strh	r3, [r1, #0]	@ movhi 
 6717 5704 B020CCE1 		strh	r2, [ip, #0]	@ movhi 
 6718 5708 9900A0E3 		mov	r0, #153
 6719 570c CC4C1FE5 		ldr	r4, .L367+172
 6720 5710 FEFFFFEB 		bl	uart1_transmit
 6721 5714 1700A0E3 		mov	r0, #23
 6722 5718 FEFFFFEB 		bl	uart1_transmit
 6723 571c D86C1FE5 		ldr	r6, .L367+176
 6724 5720 1B30A0E3 		mov	r3, #27
 6725 5724 0030C4E5 		strb	r3, [r4, #0]
 6726 5728 173083E2 		add	r3, r3, #23
 6727 572c 0400A0E3 		mov	r0, #4
 6728 5730 0030C6E5 		strb	r3, [r6, #0]
 6729 5734 FEFFFFEB 		bl	uart1_transmit
 6730 5738 0030D4E5 		ldrb	r3, [r4, #0]	@ zero_extendqisi2
 6731 573c 023083E2 		add	r3, r3, #2
 6732 5740 0030C4E5 		strb	r3, [r4, #0]
 6733 5744 0030D6E5 		ldrb	r3, [r6, #0]	@ zero_extendqisi2
 6734 5748 0020D4E5 		ldrb	r2, [r4, #0]	@ zero_extendqisi2
 6735 574c 023083E0 		add	r3, r3, r2
 6736 5750 0200A0E3 		mov	r0, #2
 6737 5754 0030C6E5 		strb	r3, [r6, #0]
 6738 5758 FEFFFFEB 		bl	uart1_transmit
 6739 575c 0030D4E5 		ldrb	r3, [r4, #0]	@ zero_extendqisi2
 6740 5760 103083E2 		add	r3, r3, #16
 6741 5764 0030C4E5 		strb	r3, [r4, #0]
 6742 5768 0030D6E5 		ldrb	r3, [r6, #0]	@ zero_extendqisi2
 6743 576c 0020D4E5 		ldrb	r2, [r4, #0]	@ zero_extendqisi2
 6744 5770 023083E0 		add	r3, r3, r2
 6745 5774 1000A0E3 		mov	r0, #16
 6746 5778 0030C6E5 		strb	r3, [r6, #0]
 6747 577c FEFFFFEB 		bl	uart1_transmit
 6748 5780 0050A0E3 		mov	r5, #0
 6749              	.L247:
 6750 5784 683D1FE5 		ldr	r3, .L367+136
 6751 5788 0300D5E7 		ldrb	r0, [r5, r3]	@ zero_extendqisi2
 6752 578c 0030D4E5 		ldrb	r3, [r4, #0]	@ zero_extendqisi2
 6753 5790 033080E0 		add	r3, r0, r3
 6754 5794 0030C4E5 		strb	r3, [r4, #0]
 6755 5798 0030D6E5 		ldrb	r3, [r6, #0]	@ zero_extendqisi2
 6756 579c 0020D4E5 		ldrb	r2, [r4, #0]	@ zero_extendqisi2
 6757 57a0 023083E0 		add	r3, r3, r2
 6758 57a4 0030C6E5 		strb	r3, [r6, #0]
 6759 57a8 FEFFFFEB 		bl	uart1_transmit
 6760 57ac 013085E2 		add	r3, r5, #1
 6761 57b0 FF5003E2 		and	r5, r3, #255
 6762 57b4 0F0055E3 		cmp	r5, #15
 6763 57b8 DF15009A 		bls	.L247
 6764 57bc 0000D4E5 		ldrb	r0, [r4, #0]	@ zero_extendqisi2
 6765 57c0 FEFFFFEB 		bl	uart1_transmit
 6766 57c4 0000D6E5 		ldrb	r0, [r6, #0]	@ zero_extendqisi2
 6767 57c8 D61600EA 		b	.L344
 6768              	.L242:
 6769 57cc 480053E3 		cmp	r3, #72
 6770 57d0 4816001A 		bne	.L250
 6771 57d4 0C00A0E3 		mov	r0, #12
 6772 57d8 FEFFFFEB 		bl	uart1_check_free_space
 6773 57dc FF0010E3 		tst	r0, #255
 6774 57e0 D816000A 		beq	.L255
 6775 57e4 AC1D1FE5 		ldr	r1, .L367+164
 6776 57e8 ACCD1FE5 		ldr	ip, .L367+168
 6777 57ec B030D1E1 		ldrh	r3, [r1, #0]
 6778 57f0 B020DCE1 		ldrh	r2, [ip, #0]
 6779 57f4 0C3083E2 		add	r3, r3, #12
 6780 57f8 012082E2 		add	r2, r2, #1
 6781 57fc B030C1E1 		strh	r3, [r1, #0]	@ movhi 
 6782 5800 B020CCE1 		strh	r2, [ip, #0]	@ movhi 
 6783 5804 9900A0E3 		mov	r0, #153
 6784 5808 C84D1FE5 		ldr	r4, .L367+172
 6785 580c FEFFFFEB 		bl	uart1_transmit
 6786 5810 0C00A0E3 		mov	r0, #12
 6787 5814 D05D1FE5 		ldr	r5, .L367+176
 6788 5818 FEFFFFEB 		bl	uart1_transmit
 6789 581c 1030A0E3 		mov	r3, #16
 6790 5820 0030C4E5 		strb	r3, [r4, #0]
 6791 5824 0C3083E2 		add	r3, r3, #12
 6792 5828 0400A0E3 		mov	r0, #4
 6793 582c 0030C5E5 		strb	r3, [r5, #0]
 6794 5830 FEFFFFEB 		bl	uart1_transmit
 6795 5834 0030D4E5 		ldrb	r3, [r4, #0]	@ zero_extendqisi2
 6796 5838 0B3083E2 		add	r3, r3, #11
 6797 583c 0030C4E5 		strb	r3, [r4, #0]
 6798 5840 0030D5E5 		ldrb	r3, [r5, #0]	@ zero_extendqisi2
 6799 5844 0020D4E5 		ldrb	r2, [r4, #0]	@ zero_extendqisi2
 6800 5848 023083E0 		add	r3, r3, r2
 6801 584c 0B00A0E3 		mov	r0, #11
 6802 5850 0030C5E5 		strb	r3, [r5, #0]
 6803 5854 FEFFFFEB 		bl	uart1_transmit
 6804 5858 383E1FE5 		ldr	r3, .L367+140
 6805 585c 0000D3E5 		ldrb	r0, [r3, #0]	@ zero_extendqisi2
 6806 5860 0030D4E5 		ldrb	r3, [r4, #0]	@ zero_extendqisi2
 6807 5864 033080E0 		add	r3, r0, r3
 6808 5868 0030C4E5 		strb	r3, [r4, #0]
 6809 586c 0030D5E5 		ldrb	r3, [r5, #0]	@ zero_extendqisi2
 6810 5870 0020D4E5 		ldrb	r2, [r4, #0]	@ zero_extendqisi2
 6811 5874 023083E0 		add	r3, r3, r2
 6812 5878 0030C5E5 		strb	r3, [r5, #0]
 6813 587c FEFFFFEB 		bl	uart1_transmit
 6814 5880 5C3E1FE5 		ldr	r3, .L367+144
 6815 5884 0000D3E5 		ldrb	r0, [r3, #0]	@ zero_extendqisi2
 6816 5888 0030D4E5 		ldrb	r3, [r4, #0]	@ zero_extendqisi2
 6817 588c 033080E0 		add	r3, r0, r3
 6818 5890 0030C4E5 		strb	r3, [r4, #0]
 6819 5894 0030D5E5 		ldrb	r3, [r5, #0]	@ zero_extendqisi2
 6820 5898 0020D4E5 		ldrb	r2, [r4, #0]	@ zero_extendqisi2
 6821 589c 023083E0 		add	r3, r3, r2
 6822 58a0 0030C5E5 		strb	r3, [r5, #0]
 6823 58a4 FEFFFFEB 		bl	uart1_transmit
 6824 58a8 803E1FE5 		ldr	r3, .L367+148
 6825 58ac 0000D3E5 		ldrb	r0, [r3, #0]	@ zero_extendqisi2
 6826 58b0 0030D4E5 		ldrb	r3, [r4, #0]	@ zero_extendqisi2
 6827 58b4 033080E0 		add	r3, r0, r3
 6828 58b8 0030C4E5 		strb	r3, [r4, #0]
 6829 58bc 0030D5E5 		ldrb	r3, [r5, #0]	@ zero_extendqisi2
 6830 58c0 0020D4E5 		ldrb	r2, [r4, #0]	@ zero_extendqisi2
 6831 58c4 023083E0 		add	r3, r3, r2
 6832 58c8 0030C5E5 		strb	r3, [r5, #0]
 6833 58cc FEFFFFEB 		bl	uart1_transmit
 6834 58d0 A43E1FE5 		ldr	r3, .L367+152
 6835 58d4 0000D3E5 		ldrb	r0, [r3, #0]	@ zero_extendqisi2
 6836 58d8 0030D4E5 		ldrb	r3, [r4, #0]	@ zero_extendqisi2
 6837 58dc 033080E0 		add	r3, r0, r3
 6838 58e0 0030C4E5 		strb	r3, [r4, #0]
 6839 58e4 0030D5E5 		ldrb	r3, [r5, #0]	@ zero_extendqisi2
 6840 58e8 0020D4E5 		ldrb	r2, [r4, #0]	@ zero_extendqisi2
 6841 58ec 023083E0 		add	r3, r3, r2
 6842 58f0 0030C5E5 		strb	r3, [r5, #0]
 6843 58f4 FEFFFFEB 		bl	uart1_transmit
 6844 58f8 C83E1FE5 		ldr	r3, .L367+156
 6845 58fc 0000D3E5 		ldrb	r0, [r3, #0]	@ zero_extendqisi2
 6846 5900 0030D4E5 		ldrb	r3, [r4, #0]	@ zero_extendqisi2
 6847 5904 033080E0 		add	r3, r0, r3
 6848 5908 0030C4E5 		strb	r3, [r4, #0]
 6849 590c 0030D5E5 		ldrb	r3, [r5, #0]	@ zero_extendqisi2
 6850 5910 0020D4E5 		ldrb	r2, [r4, #0]	@ zero_extendqisi2
 6851 5914 023083E0 		add	r3, r3, r2
 6852 5918 0030C5E5 		strb	r3, [r5, #0]
 6853 591c FEFFFFEB 		bl	uart1_transmit
 6854 5920 EC3E1FE5 		ldr	r3, .L367+160
 6855 5924 CA1600EA 		b	.L343
 6856              	.L250:
 6857 5928 4E0053E3 		cmp	r3, #78
 6858 592c DC16001A 		bne	.L249
 6859 5930 1100A0E3 		mov	r0, #17
 6860 5934 FEFFFFEB 		bl	uart1_check_free_space
 6861 5938 FF0010E3 		tst	r0, #255
 6862 593c D816000A 		beq	.L255
 6863 5940 081F1FE5 		ldr	r1, .L367+164
 6864 5944 08CF1FE5 		ldr	ip, .L367+168
 6865 5948 B030D1E1 		ldrh	r3, [r1, #0]
 6866 594c B020DCE1 		ldrh	r2, [ip, #0]
 6867 5950 113083E2 		add	r3, r3, #17
 6868 5954 012082E2 		add	r2, r2, #1
 6869 5958 B030C1E1 		strh	r3, [r1, #0]	@ movhi 
 6870 595c B020CCE1 		strh	r2, [ip, #0]	@ movhi 
 6871 5960 1170A0E3 		mov	r7, #17
 6872 5964 9900A0E3 		mov	r0, #153
 6873 5968 284F1FE5 		ldr	r4, .L367+172
 6874 596c FEFFFFEB 		bl	uart1_transmit
 6875 5970 0700A0E1 		mov	r0, r7
 6876 5974 305F1FE5 		ldr	r5, .L367+176
 6877 5978 FEFFFFEB 		bl	uart1_transmit
 6878 597c 1530A0E3 		mov	r3, #21
 6879 5980 0030C4E5 		strb	r3, [r4, #0]
 6880 5984 073083E0 		add	r3, r3, r7
 6881 5988 0400A0E3 		mov	r0, #4
 6882 598c 0030C5E5 		strb	r3, [r5, #0]
 6883 5990 FEFFFFEB 		bl	uart1_transmit
 6884 5994 0030D4E5 		ldrb	r3, [r4, #0]	@ zero_extendqisi2
 6885 5998 073083E0 		add	r3, r3, r7
 6886 599c 0030C4E5 		strb	r3, [r4, #0]
 6887 59a0 0030D5E5 		ldrb	r3, [r5, #0]	@ zero_extendqisi2
 6888 59a4 0020D4E5 		ldrb	r2, [r4, #0]	@ zero_extendqisi2
 6889 59a8 606F1FE5 		ldr	r6, .L367+180
 6890 59ac 023083E0 		add	r3, r3, r2
 6891 59b0 0700A0E1 		mov	r0, r7
 6892 59b4 0030C5E5 		strb	r3, [r5, #0]
 6893 59b8 FEFFFFEB 		bl	uart1_transmit
 6894 59bc 0000D6E5 		ldrb	r0, [r6, #0]	@ zero_extendqisi2
 6895 59c0 0030D4E5 		ldrb	r3, [r4, #0]	@ zero_extendqisi2
 6896 59c4 033080E0 		add	r3, r0, r3
 6897 59c8 0030C4E5 		strb	r3, [r4, #0]
 6898 59cc 0030D5E5 		ldrb	r3, [r5, #0]	@ zero_extendqisi2
 6899 59d0 0020D4E5 		ldrb	r2, [r4, #0]	@ zero_extendqisi2
 6900 59d4 023083E0 		add	r3, r3, r2
 6901 59d8 0030C5E5 		strb	r3, [r5, #0]
 6902 59dc FEFFFFEB 		bl	uart1_transmit
 6903 59e0 0100D6E5 		ldrb	r0, [r6, #1]	@ zero_extendqisi2
 6904 59e4 0030D4E5 		ldrb	r3, [r4, #0]	@ zero_extendqisi2
 6905 59e8 033080E0 		add	r3, r0, r3
 6906 59ec 0030C4E5 		strb	r3, [r4, #0]
 6907 59f0 0030D5E5 		ldrb	r3, [r5, #0]	@ zero_extendqisi2
 6908 59f4 0020D4E5 		ldrb	r2, [r4, #0]	@ zero_extendqisi2
 6909 59f8 023083E0 		add	r3, r3, r2
 6910 59fc 0030C5E5 		strb	r3, [r5, #0]
 6911 5a00 FEFFFFEB 		bl	uart1_transmit
 6912 5a04 0200D6E5 		ldrb	r0, [r6, #2]	@ zero_extendqisi2
 6913 5a08 0030D4E5 		ldrb	r3, [r4, #0]	@ zero_extendqisi2
 6914 5a0c 033080E0 		add	r3, r0, r3
 6915 5a10 0030C4E5 		strb	r3, [r4, #0]
 6916 5a14 0030D5E5 		ldrb	r3, [r5, #0]	@ zero_extendqisi2
 6917 5a18 0020D4E5 		ldrb	r2, [r4, #0]	@ zero_extendqisi2
 6918 5a1c 023083E0 		add	r3, r3, r2
 6919 5a20 0030C5E5 		strb	r3, [r5, #0]
 6920 5a24 FEFFFFEB 		bl	uart1_transmit
 6921 5a28 0300D6E5 		ldrb	r0, [r6, #3]	@ zero_extendqisi2
 6922 5a2c 0030D4E5 		ldrb	r3, [r4, #0]	@ zero_extendqisi2
 6923 5a30 033080E0 		add	r3, r0, r3
 6924 5a34 0030C4E5 		strb	r3, [r4, #0]
 6925 5a38 0030D5E5 		ldrb	r3, [r5, #0]	@ zero_extendqisi2
 6926 5a3c 0020D4E5 		ldrb	r2, [r4, #0]	@ zero_extendqisi2
 6927 5a40 F46F1FE5 		ldr	r6, .L367+184
 6928 5a44 023083E0 		add	r3, r3, r2
 6929 5a48 0030C5E5 		strb	r3, [r5, #0]
 6930 5a4c FEFFFFEB 		bl	uart1_transmit
 6931 5a50 0000D6E5 		ldrb	r0, [r6, #0]	@ zero_extendqisi2
 6932 5a54 0030D4E5 		ldrb	r3, [r4, #0]	@ zero_extendqisi2
 6933 5a58 033080E0 		add	r3, r0, r3
 6934 5a5c 0030C4E5 		strb	r3, [r4, #0]
 6935 5a60 0030D5E5 		ldrb	r3, [r5, #0]	@ zero_extendqisi2
 6936 5a64 0020D4E5 		ldrb	r2, [r4, #0]	@ zero_extendqisi2
 6937 5a68 023083E0 		add	r3, r3, r2
 6938 5a6c 0030C5E5 		strb	r3, [r5, #0]
 6939 5a70 FEFFFFEB 		bl	uart1_transmit
 6940 5a74 0100D6E5 		ldrb	r0, [r6, #1]	@ zero_extendqisi2
 6941 5a78 0030D4E5 		ldrb	r3, [r4, #0]	@ zero_extendqisi2
 6942 5a7c 033080E0 		add	r3, r0, r3
 6943 5a80 0030C4E5 		strb	r3, [r4, #0]
 6944 5a84 0030D5E5 		ldrb	r3, [r5, #0]	@ zero_extendqisi2
 6945 5a88 0020D4E5 		ldrb	r2, [r4, #0]	@ zero_extendqisi2
 6946 5a8c 023083E0 		add	r3, r3, r2
 6947 5a90 0030C5E5 		strb	r3, [r5, #0]
 6948 5a94 FEFFFFEB 		bl	uart1_transmit
 6949 5a98 0200D6E5 		ldrb	r0, [r6, #2]	@ zero_extendqisi2
 6950 5a9c 0030D4E5 		ldrb	r3, [r4, #0]	@ zero_extendqisi2
 6951 5aa0 033080E0 		add	r3, r0, r3
 6952 5aa4 0030C4E5 		strb	r3, [r4, #0]
 6953 5aa8 0030D5E5 		ldrb	r3, [r5, #0]	@ zero_extendqisi2
 6954 5aac 0020D4E5 		ldrb	r2, [r4, #0]	@ zero_extendqisi2
 6955 5ab0 023083E0 		add	r3, r3, r2
 6956 5ab4 0030C5E5 		strb	r3, [r5, #0]
 6957 5ab8 FEFFFFEB 		bl	uart1_transmit
 6958 5abc 0300D6E5 		ldrb	r0, [r6, #3]	@ zero_extendqisi2
 6959 5ac0 0030D4E5 		ldrb	r3, [r4, #0]	@ zero_extendqisi2
 6960 5ac4 033080E0 		add	r3, r0, r3
 6961 5ac8 0030C4E5 		strb	r3, [r4, #0]
 6962 5acc 0030D5E5 		ldrb	r3, [r5, #0]	@ zero_extendqisi2
 6963 5ad0 0020D4E5 		ldrb	r2, [r4, #0]	@ zero_extendqisi2
 6964 5ad4 E0619FE5 		ldr	r6, .L370
 6965 5ad8 023083E0 		add	r3, r3, r2
 6966 5adc 0030C5E5 		strb	r3, [r5, #0]
 6967 5ae0 FEFFFFEB 		bl	uart1_transmit
 6968 5ae4 0000D6E5 		ldrb	r0, [r6, #0]	@ zero_extendqisi2
 6969 5ae8 0030D4E5 		ldrb	r3, [r4, #0]	@ zero_extendqisi2
 6970 5aec 033080E0 		add	r3, r0, r3
 6971 5af0 0030C4E5 		strb	r3, [r4, #0]
 6972 5af4 0030D5E5 		ldrb	r3, [r5, #0]	@ zero_extendqisi2
 6973 5af8 0020D4E5 		ldrb	r2, [r4, #0]	@ zero_extendqisi2
 6974 5afc 023083E0 		add	r3, r3, r2
 6975 5b00 0030C5E5 		strb	r3, [r5, #0]
 6976 5b04 FEFFFFEB 		bl	uart1_transmit
 6977 5b08 0100D6E5 		ldrb	r0, [r6, #1]	@ zero_extendqisi2
 6978 5b0c 0030D4E5 		ldrb	r3, [r4, #0]	@ zero_extendqisi2
 6979 5b10 033080E0 		add	r3, r0, r3
 6980 5b14 0030C4E5 		strb	r3, [r4, #0]
 6981 5b18 0030D5E5 		ldrb	r3, [r5, #0]	@ zero_extendqisi2
 6982 5b1c 0020D4E5 		ldrb	r2, [r4, #0]	@ zero_extendqisi2
 6983 5b20 023083E0 		add	r3, r3, r2
 6984 5b24 0030C5E5 		strb	r3, [r5, #0]
 6985 5b28 FEFFFFEB 		bl	uart1_transmit
 6986 5b2c 8C319FE5 		ldr	r3, .L370+4
 6987              	.L343:
 6988 5b30 0000D3E5 		ldrb	r0, [r3, #0]	@ zero_extendqisi2
 6989 5b34 0030D4E5 		ldrb	r3, [r4, #0]	@ zero_extendqisi2
 6990 5b38 033080E0 		add	r3, r0, r3
 6991 5b3c 0030C4E5 		strb	r3, [r4, #0]
 6992 5b40 0030D5E5 		ldrb	r3, [r5, #0]	@ zero_extendqisi2
 6993 5b44 0020D4E5 		ldrb	r2, [r4, #0]	@ zero_extendqisi2
 6994 5b48 023083E0 		add	r3, r3, r2
 6995 5b4c 0030C5E5 		strb	r3, [r5, #0]
 6996 5b50 FEFFFFEB 		bl	uart1_transmit
 6997 5b54 0000D4E5 		ldrb	r0, [r4, #0]	@ zero_extendqisi2
 6998 5b58 FEFFFFEB 		bl	uart1_transmit
 6999 5b5c 0000D5E5 		ldrb	r0, [r5, #0]	@ zero_extendqisi2
 7000              	.L344:
 7001 5b60 FEFFFFEB 		bl	uart1_transmit
 7002 5b64 DC1600EA 		b	.L249
 7003              	.L255:
 7004 5b68 C8219FE5 		ldr	r2, .L370+124
 7005 5b6c 0030D2E5 		ldrb	r3, [r2, #0]	@ zero_extendqisi2
 7006 5b70 013083E2 		add	r3, r3, #1
 7007 5b74 0030C2E5 		strb	r3, [r2, #0]
 7008              	.L249:
 7009 5b78 44219FE5 		ldr	r2, .L370+8
 7010 5b7c B030D2E1 		ldrh	r3, [r2, #0]
 7011 5b80 540053E3 		cmp	r3, #84
 7012 5b84 5617001A 		bne	.L257
 7013 5b88 0B00A0E3 		mov	r0, #11
 7014 5b8c FEFFFFEB 		bl	uart1_check_free_space
 7015 5b90 FF0010E3 		tst	r0, #255
 7016 5b94 9C219F05 		ldreq	r2, .L370+124
 7017 5b98 0030D205 		ldreqb	r3, [r2, #0]	@ zero_extendqisi2
 7018 5b9c 01308302 		addeq	r3, r3, #1
 7019 5ba0 0030C205 		streqb	r3, [r2, #0]
 7020 5ba4 B917000A 		beq	.L260
 7021 5ba8 8C119FE5 		ldr	r1, .L370+128
 7022 5bac 8CC19FE5 		ldr	ip, .L370+132
 7023 5bb0 B030D1E1 		ldrh	r3, [r1, #0]
 7024 5bb4 B020DCE1 		ldrh	r2, [ip, #0]
 7025 5bb8 0B3083E2 		add	r3, r3, #11
 7026 5bbc 012082E2 		add	r2, r2, #1
 7027 5bc0 B030C1E1 		strh	r3, [r1, #0]	@ movhi 
 7028 5bc4 B020CCE1 		strh	r2, [ip, #0]	@ movhi 
 7029 5bc8 9900A0E3 		mov	r0, #153
 7030 5bcc 70419FE5 		ldr	r4, .L370+136
 7031 5bd0 FEFFFFEB 		bl	uart1_transmit
 7032 5bd4 0B00A0E3 		mov	r0, #11
 7033 5bd8 68519FE5 		ldr	r5, .L370+140
 7034 5bdc FEFFFFEB 		bl	uart1_transmit
 7035 5be0 0F30A0E3 		mov	r3, #15
 7036 5be4 0030C4E5 		strb	r3, [r4, #0]
 7037 5be8 0B3083E2 		add	r3, r3, #11
 7038 5bec 0400A0E3 		mov	r0, #4
 7039 5bf0 0030C5E5 		strb	r3, [r5, #0]
 7040 5bf4 FEFFFFEB 		bl	uart1_transmit
 7041 5bf8 0030D4E5 		ldrb	r3, [r4, #0]	@ zero_extendqisi2
 7042 5bfc 0E3083E2 		add	r3, r3, #14
 7043 5c00 0030C4E5 		strb	r3, [r4, #0]
 7044 5c04 0030D5E5 		ldrb	r3, [r5, #0]	@ zero_extendqisi2
 7045 5c08 0020D4E5 		ldrb	r2, [r4, #0]	@ zero_extendqisi2
 7046 5c0c B4609FE5 		ldr	r6, .L370+12
 7047 5c10 023083E0 		add	r3, r3, r2
 7048 5c14 0E00A0E3 		mov	r0, #14
 7049 5c18 0030C5E5 		strb	r3, [r5, #0]
 7050 5c1c FEFFFFEB 		bl	uart1_transmit
 7051 5c20 0000D6E5 		ldrb	r0, [r6, #0]	@ zero_extendqisi2
 7052 5c24 0030D4E5 		ldrb	r3, [r4, #0]	@ zero_extendqisi2
 7053 5c28 033080E0 		add	r3, r0, r3
 7054 5c2c 0030C4E5 		strb	r3, [r4, #0]
 7055 5c30 0030D5E5 		ldrb	r3, [r5, #0]	@ zero_extendqisi2
 7056 5c34 0020D4E5 		ldrb	r2, [r4, #0]	@ zero_extendqisi2
 7057 5c38 023083E0 		add	r3, r3, r2
 7058 5c3c 0030C5E5 		strb	r3, [r5, #0]
 7059 5c40 FEFFFFEB 		bl	uart1_transmit
 7060 5c44 0100D6E5 		ldrb	r0, [r6, #1]	@ zero_extendqisi2
 7061 5c48 0030D4E5 		ldrb	r3, [r4, #0]	@ zero_extendqisi2
 7062 5c4c 033080E0 		add	r3, r0, r3
 7063 5c50 0030C4E5 		strb	r3, [r4, #0]
 7064 5c54 0030D5E5 		ldrb	r3, [r5, #0]	@ zero_extendqisi2
 7065 5c58 0020D4E5 		ldrb	r2, [r4, #0]	@ zero_extendqisi2
 7066 5c5c 023083E0 		add	r3, r3, r2
 7067 5c60 0030C5E5 		strb	r3, [r5, #0]
 7068 5c64 FEFFFFEB 		bl	uart1_transmit
 7069 5c68 0200D6E5 		ldrb	r0, [r6, #2]	@ zero_extendqisi2
 7070 5c6c 0030D4E5 		ldrb	r3, [r4, #0]	@ zero_extendqisi2
 7071 5c70 033080E0 		add	r3, r0, r3
 7072 5c74 0030C4E5 		strb	r3, [r4, #0]
 7073 5c78 0030D5E5 		ldrb	r3, [r5, #0]	@ zero_extendqisi2
 7074 5c7c 0020D4E5 		ldrb	r2, [r4, #0]	@ zero_extendqisi2
 7075 5c80 023083E0 		add	r3, r3, r2
 7076 5c84 0030C5E5 		strb	r3, [r5, #0]
 7077 5c88 FEFFFFEB 		bl	uart1_transmit
 7078 5c8c 0300D6E5 		ldrb	r0, [r6, #3]	@ zero_extendqisi2
 7079 5c90 0030D4E5 		ldrb	r3, [r4, #0]	@ zero_extendqisi2
 7080 5c94 033080E0 		add	r3, r0, r3
 7081 5c98 0030C4E5 		strb	r3, [r4, #0]
 7082 5c9c 0030D5E5 		ldrb	r3, [r5, #0]	@ zero_extendqisi2
 7083 5ca0 0020D4E5 		ldrb	r2, [r4, #0]	@ zero_extendqisi2
 7084 5ca4 023083E0 		add	r3, r3, r2
 7085 5ca8 0030C5E5 		strb	r3, [r5, #0]
 7086 5cac FEFFFFEB 		bl	uart1_transmit
 7087 5cb0 14309FE5 		ldr	r3, .L370+16
 7088 5cb4 0000D3E5 		ldrb	r0, [r3, #0]	@ zero_extendqisi2
 7089 5cb8 AD1700EA 		b	.L345
 7090              	.L371:
 7091              		.align	2
 7092              	.L370:
 7093 5cbc 00000000 		.word	gps_PDOP
 7094 5cc0 00000000 		.word	gps_numSV
 7095 5cc4 00000000 		.word	i306.39
 7096 5cc8 00000000 		.word	v_ctl_auto_throttle_sum_err
 7097 5ccc 00000000 		.word	v_ctl_auto_throttle_submode
 7098 5cd0 00000000 		.word	last.45
 7099 5cd4 00000000 		.word	i312.40
 7100 5cd8 00000000 		.word	infrared
 7101 5cdc 00000000 		.word	i540.41
 7102 5ce0 00000000 		.word	nav_utm_east0
 7103 5ce4 00000000 		.word	nav_utm_north0
 7104 5ce8 00000000 		.word	nav_utm_zone0
 7105 5cec 00000000 		.word	i606.42
 7106 5cf0 00000000 		.word	roll_rate_adc
 7107 5cf4 00000000 		.word	estimator_p
 7108 5cf8 00000000 		.word	temp_comp
 7109 5cfc 00000000 		.word	telemetry_mode_Ap_DefaultChannel
 7110 5d00 00000000 		.word	i300.46
 7111 5d04 00000000 		.word	i306.47
 7112 5d08 31010000 		.word	305
 7113 5d0c 00000000 		.word	i318.48
 7114 5d10 00000000 		.word	i324.49
 7115 5d14 3D010000 		.word	317
 7116 5d18 00000000 		.word	i330.50
 7117 5d1c 49010000 		.word	329
 7118 5d20 00000000 		.word	i342.51
 7119 5d24 55010000 		.word	341
 7120 5d28 00000000 		.word	i606.52
 7121 5d2c 5D020000 		.word	605
 7122 5d30 00000000 		.word	i612.53
 7123 5d34 00000000 		.word	.LC0
 7124 5d38 00000000 		.word	downlink_nb_ovrn
 7125 5d3c 00000000 		.word	downlink_nb_bytes
 7126 5d40 00000000 		.word	downlink_nb_msgs
 7127 5d44 00000000 		.word	ck_a
 7128 5d48 00000000 		.word	ck_b
 7129 5d4c 00000000 		.word	estimator_z
 7130 5d50 00000000 		.word	estimator_z_dot
 7131 5d54 00000000 		.word	nav_circle_radians
 7132 5d58 66661440 		.word	1075078758
 7133 5d5c 66666666 		.word	1717986918
 7134              	.L257:
 7135 5d60 5A0053E3 		cmp	r3, #90
 7136 5d64 B917001A 		bne	.L260
 7137 5d68 A0401FE5 		ldr	r4, .L370+20
 7138 5d6c 38701FE5 		ldr	r7, .L370+128
 7139 5d70 B000D4E1 		ldrh	r0, [r4, #0]
 7140 5d74 B050D7E1 		ldrh	r5, [r7, #0]
 7141 5d78 050060E0 		rsb	r0, r0, r5
 7142 5d7c FEFFFFEB 		bl	__floatsidf
 7143 5d80 30204FE2 		adr	r2, .L370+156
 7144 5d84 0C0092E8 		ldmia	r2, {r2-r3}
 7145 5d88 FEFFFFEB 		bl	__divdf3
 7146 5d8c FEFFFFEB 		bl	__fixunsdfsi
 7147 5d90 BA034BE1 		strh	r0, [fp, #-58]	@ movhi 
 7148 5d94 0B00A0E3 		mov	r0, #11
 7149 5d98 B050C4E1 		strh	r5, [r4, #0]	@ movhi 
 7150 5d9c FEFFFFEB 		bl	uart1_check_free_space
 7151 5da0 70A01FE5 		ldr	sl, .L370+124
 7152 5da4 FF0010E3 		tst	r0, #255
 7153 5da8 0030DA05 		ldreqb	r3, [sl, #0]	@ zero_extendqisi2
 7154 5dac 01308302 		addeq	r3, r3, #1
 7155 5db0 0030CA05 		streqb	r3, [sl, #0]
 7156 5db4 B917000A 		beq	.L260
 7157 5db8 80601FE5 		ldr	r6, .L370+132
 7158 5dbc B030D7E1 		ldrh	r3, [r7, #0]
 7159 5dc0 B020D6E1 		ldrh	r2, [r6, #0]
 7160 5dc4 0B3083E2 		add	r3, r3, #11
 7161 5dc8 012082E2 		add	r2, r2, #1
 7162 5dcc B020C6E1 		strh	r2, [r6, #0]	@ movhi 
 7163 5dd0 B030C7E1 		strh	r3, [r7, #0]	@ movhi 
 7164 5dd4 9900A0E3 		mov	r0, #153
 7165 5dd8 9C401FE5 		ldr	r4, .L370+136
 7166 5ddc FEFFFFEB 		bl	uart1_transmit
 7167 5de0 0B00A0E3 		mov	r0, #11
 7168 5de4 A4501FE5 		ldr	r5, .L370+140
 7169 5de8 FEFFFFEB 		bl	uart1_transmit
 7170 5dec 0F30A0E3 		mov	r3, #15
 7171 5df0 0030C4E5 		strb	r3, [r4, #0]
 7172 5df4 0B3083E2 		add	r3, r3, #11
 7173 5df8 0400A0E3 		mov	r0, #4
 7174 5dfc 0030C5E5 		strb	r3, [r5, #0]
 7175 5e00 FEFFFFEB 		bl	uart1_transmit
 7176 5e04 0030D4E5 		ldrb	r3, [r4, #0]	@ zero_extendqisi2
 7177 5e08 1E3083E2 		add	r3, r3, #30
 7178 5e0c 0030C4E5 		strb	r3, [r4, #0]
 7179 5e10 0030D5E5 		ldrb	r3, [r5, #0]	@ zero_extendqisi2
 7180 5e14 0020D4E5 		ldrb	r2, [r4, #0]	@ zero_extendqisi2
 7181 5e18 023083E0 		add	r3, r3, r2
 7182 5e1c 1E00A0E3 		mov	r0, #30
 7183 5e20 0030C5E5 		strb	r3, [r5, #0]
 7184 5e24 FEFFFFEB 		bl	uart1_transmit
 7185 5e28 0000DAE5 		ldrb	r0, [sl, #0]	@ zero_extendqisi2
 7186 5e2c 0030D4E5 		ldrb	r3, [r4, #0]	@ zero_extendqisi2
 7187 5e30 033080E0 		add	r3, r0, r3
 7188 5e34 0030C4E5 		strb	r3, [r4, #0]
 7189 5e38 0030D5E5 		ldrb	r3, [r5, #0]	@ zero_extendqisi2
 7190 5e3c 0020D4E5 		ldrb	r2, [r4, #0]	@ zero_extendqisi2
 7191 5e40 023083E0 		add	r3, r3, r2
 7192 5e44 0030C5E5 		strb	r3, [r5, #0]
 7193 5e48 FEFFFFEB 		bl	uart1_transmit
 7194 5e4c 3A005BE5 		ldrb	r0, [fp, #-58]	@ zero_extendqisi2
 7195 5e50 0030D4E5 		ldrb	r3, [r4, #0]	@ zero_extendqisi2
 7196 5e54 033080E0 		add	r3, r0, r3
 7197 5e58 0030C4E5 		strb	r3, [r4, #0]
 7198 5e5c 0030D5E5 		ldrb	r3, [r5, #0]	@ zero_extendqisi2
 7199 5e60 0020D4E5 		ldrb	r2, [r4, #0]	@ zero_extendqisi2
 7200 5e64 023083E0 		add	r3, r3, r2
 7201 5e68 0030C5E5 		strb	r3, [r5, #0]
 7202 5e6c FEFFFFEB 		bl	uart1_transmit
 7203 5e70 39005BE5 		ldrb	r0, [fp, #-57]	@ zero_extendqisi2
 7204 5e74 0030D4E5 		ldrb	r3, [r4, #0]	@ zero_extendqisi2
 7205 5e78 033080E0 		add	r3, r0, r3
 7206 5e7c 0030C4E5 		strb	r3, [r4, #0]
 7207 5e80 0030D5E5 		ldrb	r3, [r5, #0]	@ zero_extendqisi2
 7208 5e84 0020D4E5 		ldrb	r2, [r4, #0]	@ zero_extendqisi2
 7209 5e88 023083E0 		add	r3, r3, r2
 7210 5e8c 0030C5E5 		strb	r3, [r5, #0]
 7211 5e90 FEFFFFEB 		bl	uart1_transmit
 7212 5e94 0000D6E5 		ldrb	r0, [r6, #0]	@ zero_extendqisi2
 7213 5e98 0030D4E5 		ldrb	r3, [r4, #0]	@ zero_extendqisi2
 7214 5e9c 033080E0 		add	r3, r0, r3
 7215 5ea0 0030C4E5 		strb	r3, [r4, #0]
 7216 5ea4 0030D5E5 		ldrb	r3, [r5, #0]	@ zero_extendqisi2
 7217 5ea8 0020D4E5 		ldrb	r2, [r4, #0]	@ zero_extendqisi2
 7218 5eac 023083E0 		add	r3, r3, r2
 7219 5eb0 0030C5E5 		strb	r3, [r5, #0]
 7220 5eb4 FEFFFFEB 		bl	uart1_transmit
 7221 5eb8 0100D6E5 		ldrb	r0, [r6, #1]	@ zero_extendqisi2
 7222              	.L345:
 7223 5ebc 0030D4E5 		ldrb	r3, [r4, #0]	@ zero_extendqisi2
 7224 5ec0 033080E0 		add	r3, r0, r3
 7225 5ec4 0030C4E5 		strb	r3, [r4, #0]
 7226 5ec8 0030D5E5 		ldrb	r3, [r5, #0]	@ zero_extendqisi2
 7227 5ecc 0020D4E5 		ldrb	r2, [r4, #0]	@ zero_extendqisi2
 7228 5ed0 023083E0 		add	r3, r3, r2
 7229 5ed4 0030C5E5 		strb	r3, [r5, #0]
 7230 5ed8 FEFFFFEB 		bl	uart1_transmit
 7231 5edc 0000D4E5 		ldrb	r0, [r4, #0]	@ zero_extendqisi2
 7232 5ee0 FEFFFFEB 		bl	uart1_transmit
 7233 5ee4 0000D5E5 		ldrb	r0, [r5, #0]	@ zero_extendqisi2
 7234 5ee8 FEFFFFEB 		bl	uart1_transmit
 7235              	.L260:
 7236 5eec 20021FE5 		ldr	r0, .L370+24
 7237 5ef0 B030D0E1 		ldrh	r3, [r0, #0]
 7238 5ef4 600053E3 		cmp	r3, #96
 7239 5ef8 4118001A 		bne	.L264
 7240 5efc 1000A0E3 		mov	r0, #16
 7241 5f00 FEFFFFEB 		bl	uart1_check_free_space
 7242 5f04 FF0010E3 		tst	r0, #255
 7243 5f08 D8211F05 		ldreq	r2, .L370+124
 7244 5f0c 0030D205 		ldreqb	r3, [r2, #0]	@ zero_extendqisi2
 7245 5f10 01308302 		addeq	r3, r3, #1
 7246 5f14 0030C205 		streqb	r3, [r2, #0]
 7247 5f18 4118000A 		beq	.L264
 7248 5f1c E8111FE5 		ldr	r1, .L370+128
 7249 5f20 E8C11FE5 		ldr	ip, .L370+132
 7250 5f24 B030D1E1 		ldrh	r3, [r1, #0]
 7251 5f28 B020DCE1 		ldrh	r2, [ip, #0]
 7252 5f2c 103083E2 		add	r3, r3, #16
 7253 5f30 012082E2 		add	r2, r2, #1
 7254 5f34 B030C1E1 		strh	r3, [r1, #0]	@ movhi 
 7255 5f38 B020CCE1 		strh	r2, [ip, #0]	@ movhi 
 7256 5f3c 9900A0E3 		mov	r0, #153
 7257 5f40 04421FE5 		ldr	r4, .L370+136
 7258 5f44 FEFFFFEB 		bl	uart1_transmit
 7259 5f48 1000A0E3 		mov	r0, #16
 7260 5f4c 0C521FE5 		ldr	r5, .L370+140
 7261 5f50 FEFFFFEB 		bl	uart1_transmit
 7262 5f54 1430A0E3 		mov	r3, #20
 7263 5f58 0030C4E5 		strb	r3, [r4, #0]
 7264 5f5c 103083E2 		add	r3, r3, #16
 7265 5f60 0400A0E3 		mov	r0, #4
 7266 5f64 0030C5E5 		strb	r3, [r5, #0]
 7267 5f68 FEFFFFEB 		bl	uart1_transmit
 7268 5f6c 0030D4E5 		ldrb	r3, [r4, #0]	@ zero_extendqisi2
 7269 5f70 073083E2 		add	r3, r3, #7
 7270 5f74 0030C4E5 		strb	r3, [r4, #0]
 7271 5f78 0030D5E5 		ldrb	r3, [r5, #0]	@ zero_extendqisi2
 7272 5f7c 0020D4E5 		ldrb	r2, [r4, #0]	@ zero_extendqisi2
 7273 5f80 B0621FE5 		ldr	r6, .L370+28
 7274 5f84 023083E0 		add	r3, r3, r2
 7275 5f88 0700A0E3 		mov	r0, #7
 7276 5f8c 0030C5E5 		strb	r3, [r5, #0]
 7277 5f90 FEFFFFEB 		bl	uart1_transmit
 7278 5f94 0000D6E5 		ldrb	r0, [r6, #0]	@ zero_extendqisi2
 7279 5f98 0030D4E5 		ldrb	r3, [r4, #0]	@ zero_extendqisi2
 7280 5f9c 033080E0 		add	r3, r0, r3
 7281 5fa0 0030C4E5 		strb	r3, [r4, #0]
 7282 5fa4 0030D5E5 		ldrb	r3, [r5, #0]	@ zero_extendqisi2
 7283 5fa8 0020D4E5 		ldrb	r2, [r4, #0]	@ zero_extendqisi2
 7284 5fac 023083E0 		add	r3, r3, r2
 7285 5fb0 0030C5E5 		strb	r3, [r5, #0]
 7286 5fb4 FEFFFFEB 		bl	uart1_transmit
 7287 5fb8 0100D6E5 		ldrb	r0, [r6, #1]	@ zero_extendqisi2
 7288 5fbc 0030D4E5 		ldrb	r3, [r4, #0]	@ zero_extendqisi2
 7289 5fc0 033080E0 		add	r3, r0, r3
 7290 5fc4 0030C4E5 		strb	r3, [r4, #0]
 7291 5fc8 0030D5E5 		ldrb	r3, [r5, #0]	@ zero_extendqisi2
 7292 5fcc 0020D4E5 		ldrb	r2, [r4, #0]	@ zero_extendqisi2
 7293 5fd0 023083E0 		add	r3, r3, r2
 7294 5fd4 0030C5E5 		strb	r3, [r5, #0]
 7295 5fd8 FEFFFFEB 		bl	uart1_transmit
 7296 5fdc 0200D6E5 		ldrb	r0, [r6, #2]	@ zero_extendqisi2
 7297 5fe0 0030D4E5 		ldrb	r3, [r4, #0]	@ zero_extendqisi2
 7298 5fe4 033080E0 		add	r3, r0, r3
 7299 5fe8 0030C4E5 		strb	r3, [r4, #0]
 7300 5fec 0030D5E5 		ldrb	r3, [r5, #0]	@ zero_extendqisi2
 7301 5ff0 0020D4E5 		ldrb	r2, [r4, #0]	@ zero_extendqisi2
 7302 5ff4 023083E0 		add	r3, r3, r2
 7303 5ff8 0030C5E5 		strb	r3, [r5, #0]
 7304 5ffc FEFFFFEB 		bl	uart1_transmit
 7305 6000 0300D6E5 		ldrb	r0, [r6, #3]	@ zero_extendqisi2
 7306 6004 0030D4E5 		ldrb	r3, [r4, #0]	@ zero_extendqisi2
 7307 6008 033080E0 		add	r3, r0, r3
 7308 600c 0030C4E5 		strb	r3, [r4, #0]
 7309 6010 0030D5E5 		ldrb	r3, [r5, #0]	@ zero_extendqisi2
 7310 6014 0020D4E5 		ldrb	r2, [r4, #0]	@ zero_extendqisi2
 7311 6018 023083E0 		add	r3, r3, r2
 7312 601c 0030C5E5 		strb	r3, [r5, #0]
 7313 6020 FEFFFFEB 		bl	uart1_transmit
 7314 6024 1600D6E5 		ldrb	r0, [r6, #22]	@ zero_extendqisi2
 7315 6028 0030D4E5 		ldrb	r3, [r4, #0]	@ zero_extendqisi2
 7316 602c 033080E0 		add	r3, r0, r3
 7317 6030 0030C4E5 		strb	r3, [r4, #0]
 7318 6034 0030D5E5 		ldrb	r3, [r5, #0]	@ zero_extendqisi2
 7319 6038 0020D4E5 		ldrb	r2, [r4, #0]	@ zero_extendqisi2
 7320 603c 023083E0 		add	r3, r3, r2
 7321 6040 0030C5E5 		strb	r3, [r5, #0]
 7322 6044 FEFFFFEB 		bl	uart1_transmit
 7323 6048 1700D6E5 		ldrb	r0, [r6, #23]	@ zero_extendqisi2
 7324 604c 0030D4E5 		ldrb	r3, [r4, #0]	@ zero_extendqisi2
 7325 6050 033080E0 		add	r3, r0, r3
 7326 6054 0030C4E5 		strb	r3, [r4, #0]
 7327 6058 0030D5E5 		ldrb	r3, [r5, #0]	@ zero_extendqisi2
 7328 605c 0020D4E5 		ldrb	r2, [r4, #0]	@ zero_extendqisi2
 7329 6060 023083E0 		add	r3, r3, r2
 7330 6064 0030C5E5 		strb	r3, [r5, #0]
 7331 6068 FEFFFFEB 		bl	uart1_transmit
 7332 606c 1400D6E5 		ldrb	r0, [r6, #20]	@ zero_extendqisi2
 7333 6070 0030D4E5 		ldrb	r3, [r4, #0]	@ zero_extendqisi2
 7334 6074 033080E0 		add	r3, r0, r3
 7335 6078 0030C4E5 		strb	r3, [r4, #0]
 7336 607c 0030D5E5 		ldrb	r3, [r5, #0]	@ zero_extendqisi2
 7337 6080 0020D4E5 		ldrb	r2, [r4, #0]	@ zero_extendqisi2
 7338 6084 023083E0 		add	r3, r3, r2
 7339 6088 0030C5E5 		strb	r3, [r5, #0]
 7340 608c FEFFFFEB 		bl	uart1_transmit
 7341 6090 1500D6E5 		ldrb	r0, [r6, #21]	@ zero_extendqisi2
 7342 6094 0030D4E5 		ldrb	r3, [r4, #0]	@ zero_extendqisi2
 7343 6098 033080E0 		add	r3, r0, r3
 7344 609c 0030C4E5 		strb	r3, [r4, #0]
 7345 60a0 0030D5E5 		ldrb	r3, [r5, #0]	@ zero_extendqisi2
 7346 60a4 0020D4E5 		ldrb	r2, [r4, #0]	@ zero_extendqisi2
 7347 60a8 023083E0 		add	r3, r3, r2
 7348 60ac 0030C5E5 		strb	r3, [r5, #0]
 7349 60b0 FEFFFFEB 		bl	uart1_transmit
 7350 60b4 1800D6E5 		ldrb	r0, [r6, #24]	@ zero_extendqisi2
 7351 60b8 0030D4E5 		ldrb	r3, [r4, #0]	@ zero_extendqisi2
 7352 60bc 033080E0 		add	r3, r0, r3
 7353 60c0 0030C4E5 		strb	r3, [r4, #0]
 7354 60c4 0030D5E5 		ldrb	r3, [r5, #0]	@ zero_extendqisi2
 7355 60c8 0020D4E5 		ldrb	r2, [r4, #0]	@ zero_extendqisi2
 7356 60cc 023083E0 		add	r3, r3, r2
 7357 60d0 0030C5E5 		strb	r3, [r5, #0]
 7358 60d4 FEFFFFEB 		bl	uart1_transmit
 7359 60d8 1900D6E5 		ldrb	r0, [r6, #25]	@ zero_extendqisi2
 7360 60dc 0030D4E5 		ldrb	r3, [r4, #0]	@ zero_extendqisi2
 7361 60e0 033080E0 		add	r3, r0, r3
 7362 60e4 0030C4E5 		strb	r3, [r4, #0]
 7363 60e8 0030D5E5 		ldrb	r3, [r5, #0]	@ zero_extendqisi2
 7364 60ec 0020D4E5 		ldrb	r2, [r4, #0]	@ zero_extendqisi2
 7365 60f0 023083E0 		add	r3, r3, r2
 7366 60f4 0030C5E5 		strb	r3, [r5, #0]
 7367 60f8 FEFFFFEB 		bl	uart1_transmit
 7368 60fc 0000D4E5 		ldrb	r0, [r4, #0]	@ zero_extendqisi2
 7369 6100 FEFFFFEB 		bl	uart1_transmit
 7370 6104 0000D5E5 		ldrb	r0, [r5, #0]	@ zero_extendqisi2
 7371 6108 FEFFFFEB 		bl	uart1_transmit
 7372              	.L264:
 7373 610c 38241FE5 		ldr	r2, .L370+32
 7374 6110 B030D2E1 		ldrh	r3, [r2, #0]
 7375 6114 660053E3 		cmp	r3, #102
 7376 6118 C218001A 		bne	.L267
 7377 611c 0F00A0E3 		mov	r0, #15
 7378 6120 FEFFFFEB 		bl	uart1_check_free_space
 7379 6124 FF0010E3 		tst	r0, #255
 7380 6128 F8231F05 		ldreq	r2, .L370+124
 7381 612c 0030D205 		ldreqb	r3, [r2, #0]	@ zero_extendqisi2
 7382 6130 01308302 		addeq	r3, r3, #1
 7383 6134 0030C205 		streqb	r3, [r2, #0]
 7384 6138 C218000A 		beq	.L267
 7385 613c 08141FE5 		ldr	r1, .L370+128
 7386 6140 08C41FE5 		ldr	ip, .L370+132
 7387 6144 B030D1E1 		ldrh	r3, [r1, #0]
 7388 6148 B020DCE1 		ldrh	r2, [ip, #0]
 7389 614c 0F3083E2 		add	r3, r3, #15
 7390 6150 012082E2 		add	r2, r2, #1
 7391 6154 B030C1E1 		strh	r3, [r1, #0]	@ movhi 
 7392 6158 B020CCE1 		strh	r2, [ip, #0]	@ movhi 
 7393 615c 9900A0E3 		mov	r0, #153
 7394 6160 24441FE5 		ldr	r4, .L370+136
 7395 6164 FEFFFFEB 		bl	uart1_transmit
 7396 6168 0F00A0E3 		mov	r0, #15
 7397 616c 2C541FE5 		ldr	r5, .L370+140
 7398 6170 FEFFFFEB 		bl	uart1_transmit
 7399 6174 1330A0E3 		mov	r3, #19
 7400 6178 0030C4E5 		strb	r3, [r4, #0]
 7401 617c 0F3083E2 		add	r3, r3, #15
 7402 6180 0400A0E3 		mov	r0, #4
 7403 6184 0030C5E5 		strb	r3, [r5, #0]
 7404 6188 FEFFFFEB 		bl	uart1_transmit
 7405 618c 0030D4E5 		ldrb	r3, [r4, #0]	@ zero_extendqisi2
 7406 6190 093083E2 		add	r3, r3, #9
 7407 6194 0030C4E5 		strb	r3, [r4, #0]
 7408 6198 0030D5E5 		ldrb	r3, [r5, #0]	@ zero_extendqisi2
 7409 619c 0020D4E5 		ldrb	r2, [r4, #0]	@ zero_extendqisi2
 7410 61a0 C8641FE5 		ldr	r6, .L370+36
 7411 61a4 023083E0 		add	r3, r3, r2
 7412 61a8 0900A0E3 		mov	r0, #9
 7413 61ac 0030C5E5 		strb	r3, [r5, #0]
 7414 61b0 FEFFFFEB 		bl	uart1_transmit
 7415 61b4 0000D6E5 		ldrb	r0, [r6, #0]	@ zero_extendqisi2
 7416 61b8 0030D4E5 		ldrb	r3, [r4, #0]	@ zero_extendqisi2
 7417 61bc 033080E0 		add	r3, r0, r3
 7418 61c0 0030C4E5 		strb	r3, [r4, #0]
 7419 61c4 0030D5E5 		ldrb	r3, [r5, #0]	@ zero_extendqisi2
 7420 61c8 0020D4E5 		ldrb	r2, [r4, #0]	@ zero_extendqisi2
 7421 61cc 023083E0 		add	r3, r3, r2
 7422 61d0 0030C5E5 		strb	r3, [r5, #0]
 7423 61d4 FEFFFFEB 		bl	uart1_transmit
 7424 61d8 0100D6E5 		ldrb	r0, [r6, #1]	@ zero_extendqisi2
 7425 61dc 0030D4E5 		ldrb	r3, [r4, #0]	@ zero_extendqisi2
 7426 61e0 033080E0 		add	r3, r0, r3
 7427 61e4 0030C4E5 		strb	r3, [r4, #0]
 7428 61e8 0030D5E5 		ldrb	r3, [r5, #0]	@ zero_extendqisi2
 7429 61ec 0020D4E5 		ldrb	r2, [r4, #0]	@ zero_extendqisi2
 7430 61f0 023083E0 		add	r3, r3, r2
 7431 61f4 0030C5E5 		strb	r3, [r5, #0]
 7432 61f8 FEFFFFEB 		bl	uart1_transmit
 7433 61fc 0200D6E5 		ldrb	r0, [r6, #2]	@ zero_extendqisi2
 7434 6200 0030D4E5 		ldrb	r3, [r4, #0]	@ zero_extendqisi2
 7435 6204 033080E0 		add	r3, r0, r3
 7436 6208 0030C4E5 		strb	r3, [r4, #0]
 7437 620c 0030D5E5 		ldrb	r3, [r5, #0]	@ zero_extendqisi2
 7438 6210 0020D4E5 		ldrb	r2, [r4, #0]	@ zero_extendqisi2
 7439 6214 023083E0 		add	r3, r3, r2
 7440 6218 0030C5E5 		strb	r3, [r5, #0]
 7441 621c FEFFFFEB 		bl	uart1_transmit
 7442 6220 0300D6E5 		ldrb	r0, [r6, #3]	@ zero_extendqisi2
 7443 6224 0030D4E5 		ldrb	r3, [r4, #0]	@ zero_extendqisi2
 7444 6228 033080E0 		add	r3, r0, r3
 7445 622c 0030C4E5 		strb	r3, [r4, #0]
 7446 6230 0030D5E5 		ldrb	r3, [r5, #0]	@ zero_extendqisi2
 7447 6234 0020D4E5 		ldrb	r2, [r4, #0]	@ zero_extendqisi2
 7448 6238 5C651FE5 		ldr	r6, .L370+40
 7449 623c 023083E0 		add	r3, r3, r2
 7450 6240 0030C5E5 		strb	r3, [r5, #0]
 7451 6244 FEFFFFEB 		bl	uart1_transmit
 7452 6248 0000D6E5 		ldrb	r0, [r6, #0]	@ zero_extendqisi2
 7453 624c 0030D4E5 		ldrb	r3, [r4, #0]	@ zero_extendqisi2
 7454 6250 033080E0 		add	r3, r0, r3
 7455 6254 0030C4E5 		strb	r3, [r4, #0]
 7456 6258 0030D5E5 		ldrb	r3, [r5, #0]	@ zero_extendqisi2
 7457 625c 0020D4E5 		ldrb	r2, [r4, #0]	@ zero_extendqisi2
 7458 6260 023083E0 		add	r3, r3, r2
 7459 6264 0030C5E5 		strb	r3, [r5, #0]
 7460 6268 FEFFFFEB 		bl	uart1_transmit
 7461 626c 0100D6E5 		ldrb	r0, [r6, #1]	@ zero_extendqisi2
 7462 6270 0030D4E5 		ldrb	r3, [r4, #0]	@ zero_extendqisi2
 7463 6274 033080E0 		add	r3, r0, r3
 7464 6278 0030C4E5 		strb	r3, [r4, #0]
 7465 627c 0030D5E5 		ldrb	r3, [r5, #0]	@ zero_extendqisi2
 7466 6280 0020D4E5 		ldrb	r2, [r4, #0]	@ zero_extendqisi2
 7467 6284 023083E0 		add	r3, r3, r2
 7468 6288 0030C5E5 		strb	r3, [r5, #0]
 7469 628c FEFFFFEB 		bl	uart1_transmit
 7470 6290 0200D6E5 		ldrb	r0, [r6, #2]	@ zero_extendqisi2
 7471 6294 0030D4E5 		ldrb	r3, [r4, #0]	@ zero_extendqisi2
 7472 6298 033080E0 		add	r3, r0, r3
 7473 629c 0030C4E5 		strb	r3, [r4, #0]
 7474 62a0 0030D5E5 		ldrb	r3, [r5, #0]	@ zero_extendqisi2
 7475 62a4 0020D4E5 		ldrb	r2, [r4, #0]	@ zero_extendqisi2
 7476 62a8 023083E0 		add	r3, r3, r2
 7477 62ac 0030C5E5 		strb	r3, [r5, #0]
 7478 62b0 FEFFFFEB 		bl	uart1_transmit
 7479 62b4 0300D6E5 		ldrb	r0, [r6, #3]	@ zero_extendqisi2
 7480 62b8 0030D4E5 		ldrb	r3, [r4, #0]	@ zero_extendqisi2
 7481 62bc 033080E0 		add	r3, r0, r3
 7482 62c0 0030C4E5 		strb	r3, [r4, #0]
 7483 62c4 0030D5E5 		ldrb	r3, [r5, #0]	@ zero_extendqisi2
 7484 62c8 0020D4E5 		ldrb	r2, [r4, #0]	@ zero_extendqisi2
 7485 62cc 023083E0 		add	r3, r3, r2
 7486 62d0 0030C5E5 		strb	r3, [r5, #0]
 7487 62d4 FEFFFFEB 		bl	uart1_transmit
 7488 62d8 F8351FE5 		ldr	r3, .L370+44
 7489 62dc 0000D3E5 		ldrb	r0, [r3, #0]	@ zero_extendqisi2
 7490 62e0 0030D4E5 		ldrb	r3, [r4, #0]	@ zero_extendqisi2
 7491 62e4 033080E0 		add	r3, r0, r3
 7492 62e8 0030C4E5 		strb	r3, [r4, #0]
 7493 62ec 0030D5E5 		ldrb	r3, [r5, #0]	@ zero_extendqisi2
 7494 62f0 0020D4E5 		ldrb	r2, [r4, #0]	@ zero_extendqisi2
 7495 62f4 023083E0 		add	r3, r3, r2
 7496 62f8 0030C5E5 		strb	r3, [r5, #0]
 7497 62fc FEFFFFEB 		bl	uart1_transmit
 7498 6300 0000D4E5 		ldrb	r0, [r4, #0]	@ zero_extendqisi2
 7499 6304 FEFFFFEB 		bl	uart1_transmit
 7500 6308 0000D5E5 		ldrb	r0, [r5, #0]	@ zero_extendqisi2
 7501 630c FEFFFFEB 		bl	uart1_transmit
 7502              	.L267:
 7503 6310 2C061FE5 		ldr	r0, .L370+48
 7504 6314 B030D0E1 		ldrh	r3, [r0, #0]
 7505 6318 6C0053E3 		cmp	r3, #108
 7506 631c 4C19001A 		bne	.L168
 7507 6320 1000A0E3 		mov	r0, #16
 7508 6324 FEFFFFEB 		bl	uart1_check_free_space
 7509 6328 FF0010E3 		tst	r0, #255
 7510 632c FC251F05 		ldreq	r2, .L370+124
 7511 6330 0030D205 		ldreqb	r3, [r2, #0]	@ zero_extendqisi2
 7512 6334 01308302 		addeq	r3, r3, #1
 7513 6338 0030C205 		streqb	r3, [r2, #0]
 7514 633c 4C19000A 		beq	.L168
 7515 6340 0C161FE5 		ldr	r1, .L370+128
 7516 6344 0CC61FE5 		ldr	ip, .L370+132
 7517 6348 B030D1E1 		ldrh	r3, [r1, #0]
 7518 634c B020DCE1 		ldrh	r2, [ip, #0]
 7519 6350 103083E2 		add	r3, r3, #16
 7520 6354 012082E2 		add	r2, r2, #1
 7521 6358 B030C1E1 		strh	r3, [r1, #0]	@ movhi 
 7522 635c B020CCE1 		strh	r2, [ip, #0]	@ movhi 
 7523 6360 9900A0E3 		mov	r0, #153
 7524 6364 28461FE5 		ldr	r4, .L370+136
 7525 6368 28561FE5 		ldr	r5, .L370+140
 7526 636c FEFFFFEB 		bl	uart1_transmit
 7527 6370 1000A0E3 		mov	r0, #16
 7528 6374 FEFFFFEB 		bl	uart1_transmit
 7529 6378 2460A0E3 		mov	r6, #36
 7530 637c 1430A0E3 		mov	r3, #20
 7531 6380 0400A0E3 		mov	r0, #4
 7532 6384 0030C4E5 		strb	r3, [r4, #0]
 7533 6388 0060C5E5 		strb	r6, [r5, #0]
 7534 638c FEFFFFEB 		bl	uart1_transmit
 7535 6390 0030D4E5 		ldrb	r3, [r4, #0]	@ zero_extendqisi2
 7536 6394 063083E0 		add	r3, r3, r6
 7537 6398 0030C4E5 		strb	r3, [r4, #0]
 7538 639c 0030D5E5 		ldrb	r3, [r5, #0]	@ zero_extendqisi2
 7539 63a0 0020D4E5 		ldrb	r2, [r4, #0]	@ zero_extendqisi2
 7540 63a4 BC761FE5 		ldr	r7, .L370+52
 7541 63a8 023083E0 		add	r3, r3, r2
 7542 63ac 0600A0E1 		mov	r0, r6
 7543 63b0 0030C5E5 		strb	r3, [r5, #0]
 7544 63b4 FEFFFFEB 		bl	uart1_transmit
 7545 63b8 0000D7E5 		ldrb	r0, [r7, #0]	@ zero_extendqisi2
 7546 63bc 0030D4E5 		ldrb	r3, [r4, #0]	@ zero_extendqisi2
 7547 63c0 033080E0 		add	r3, r0, r3
 7548 63c4 0030C4E5 		strb	r3, [r4, #0]
 7549 63c8 0030D5E5 		ldrb	r3, [r5, #0]	@ zero_extendqisi2
 7550 63cc 0020D4E5 		ldrb	r2, [r4, #0]	@ zero_extendqisi2
 7551 63d0 023083E0 		add	r3, r3, r2
 7552 63d4 0030C5E5 		strb	r3, [r5, #0]
 7553 63d8 FEFFFFEB 		bl	uart1_transmit
 7554 63dc 0100D7E5 		ldrb	r0, [r7, #1]	@ zero_extendqisi2
 7555 63e0 0030D4E5 		ldrb	r3, [r4, #0]	@ zero_extendqisi2
 7556 63e4 033080E0 		add	r3, r0, r3
 7557 63e8 0030C4E5 		strb	r3, [r4, #0]
 7558 63ec 0030D5E5 		ldrb	r3, [r5, #0]	@ zero_extendqisi2
 7559 63f0 0020D4E5 		ldrb	r2, [r4, #0]	@ zero_extendqisi2
 7560 63f4 08671FE5 		ldr	r6, .L370+56
 7561 63f8 023083E0 		add	r3, r3, r2
 7562 63fc 0030C5E5 		strb	r3, [r5, #0]
 7563 6400 FEFFFFEB 		bl	uart1_transmit
 7564 6404 0000D6E5 		ldrb	r0, [r6, #0]	@ zero_extendqisi2
 7565 6408 0030D4E5 		ldrb	r3, [r4, #0]	@ zero_extendqisi2
 7566 640c 033080E0 		add	r3, r0, r3
 7567 6410 0030C4E5 		strb	r3, [r4, #0]
 7568 6414 0030D5E5 		ldrb	r3, [r5, #0]	@ zero_extendqisi2
 7569 6418 0020D4E5 		ldrb	r2, [r4, #0]	@ zero_extendqisi2
 7570 641c 023083E0 		add	r3, r3, r2
 7571 6420 0030C5E5 		strb	r3, [r5, #0]
 7572 6424 FEFFFFEB 		bl	uart1_transmit
 7573 6428 0100D6E5 		ldrb	r0, [r6, #1]	@ zero_extendqisi2
 7574 642c 0030D4E5 		ldrb	r3, [r4, #0]	@ zero_extendqisi2
 7575 6430 033080E0 		add	r3, r0, r3
 7576 6434 0030C4E5 		strb	r3, [r4, #0]
 7577 6438 0030D5E5 		ldrb	r3, [r5, #0]	@ zero_extendqisi2
 7578 643c 0020D4E5 		ldrb	r2, [r4, #0]	@ zero_extendqisi2
 7579 6440 023083E0 		add	r3, r3, r2
 7580 6444 0030C5E5 		strb	r3, [r5, #0]
 7581 6448 FEFFFFEB 		bl	uart1_transmit
 7582 644c 0200D6E5 		ldrb	r0, [r6, #2]	@ zero_extendqisi2
 7583 6450 0030D4E5 		ldrb	r3, [r4, #0]	@ zero_extendqisi2
 7584 6454 033080E0 		add	r3, r0, r3
 7585 6458 0030C4E5 		strb	r3, [r4, #0]
 7586 645c 0030D5E5 		ldrb	r3, [r5, #0]	@ zero_extendqisi2
 7587 6460 0020D4E5 		ldrb	r2, [r4, #0]	@ zero_extendqisi2
 7588 6464 023083E0 		add	r3, r3, r2
 7589 6468 0030C5E5 		strb	r3, [r5, #0]
 7590 646c FEFFFFEB 		bl	uart1_transmit
 7591 6470 0300D6E5 		ldrb	r0, [r6, #3]	@ zero_extendqisi2
 7592 6474 0030D4E5 		ldrb	r3, [r4, #0]	@ zero_extendqisi2
 7593 6478 033080E0 		add	r3, r0, r3
 7594 647c 0030C4E5 		strb	r3, [r4, #0]
 7595 6480 0030D5E5 		ldrb	r3, [r5, #0]	@ zero_extendqisi2
 7596 6484 0020D4E5 		ldrb	r2, [r4, #0]	@ zero_extendqisi2
 7597 6488 98671FE5 		ldr	r6, .L370+60
 7598 648c 023083E0 		add	r3, r3, r2
 7599 6490 0030C5E5 		strb	r3, [r5, #0]
 7600 6494 FEFFFFEB 		bl	uart1_transmit
 7601 6498 0000D6E5 		ldrb	r0, [r6, #0]	@ zero_extendqisi2
 7602 649c 0030D4E5 		ldrb	r3, [r4, #0]	@ zero_extendqisi2
 7603 64a0 033080E0 		add	r3, r0, r3
 7604 64a4 0030C4E5 		strb	r3, [r4, #0]
 7605 64a8 0030D5E5 		ldrb	r3, [r5, #0]	@ zero_extendqisi2
 7606 64ac 0020D4E5 		ldrb	r2, [r4, #0]	@ zero_extendqisi2
 7607 64b0 023083E0 		add	r3, r3, r2
 7608 64b4 0030C5E5 		strb	r3, [r5, #0]
 7609 64b8 FEFFFFEB 		bl	uart1_transmit
 7610 64bc 0100D6E5 		ldrb	r0, [r6, #1]	@ zero_extendqisi2
 7611 64c0 0030D4E5 		ldrb	r3, [r4, #0]	@ zero_extendqisi2
 7612 64c4 033080E0 		add	r3, r0, r3
 7613 64c8 0030C4E5 		strb	r3, [r4, #0]
 7614 64cc 0030D5E5 		ldrb	r3, [r5, #0]	@ zero_extendqisi2
 7615 64d0 0020D4E5 		ldrb	r2, [r4, #0]	@ zero_extendqisi2
 7616 64d4 023083E0 		add	r3, r3, r2
 7617 64d8 0030C5E5 		strb	r3, [r5, #0]
 7618 64dc FEFFFFEB 		bl	uart1_transmit
 7619 64e0 0200D6E5 		ldrb	r0, [r6, #2]	@ zero_extendqisi2
 7620 64e4 0030D4E5 		ldrb	r3, [r4, #0]	@ zero_extendqisi2
 7621 64e8 033080E0 		add	r3, r0, r3
 7622 64ec 0030C4E5 		strb	r3, [r4, #0]
 7623 64f0 0030D5E5 		ldrb	r3, [r5, #0]	@ zero_extendqisi2
 7624 64f4 0020D4E5 		ldrb	r2, [r4, #0]	@ zero_extendqisi2
 7625 64f8 023083E0 		add	r3, r3, r2
 7626 64fc 0030C5E5 		strb	r3, [r5, #0]
 7627 6500 FEFFFFEB 		bl	uart1_transmit
 7628 6504 0300D6E5 		ldrb	r0, [r6, #3]	@ zero_extendqisi2
 7629 6508 0030D4E5 		ldrb	r3, [r4, #0]	@ zero_extendqisi2
 7630 650c 033080E0 		add	r3, r0, r3
 7631 6510 0030C4E5 		strb	r3, [r4, #0]
 7632 6514 0030D5E5 		ldrb	r3, [r5, #0]	@ zero_extendqisi2
 7633 6518 0020D4E5 		ldrb	r2, [r4, #0]	@ zero_extendqisi2
 7634 651c 023083E0 		add	r3, r3, r2
 7635 6520 0030C5E5 		strb	r3, [r5, #0]
 7636 6524 FEFFFFEB 		bl	uart1_transmit
 7637 6528 0000D4E5 		ldrb	r0, [r4, #0]	@ zero_extendqisi2
 7638 652c FEFFFFEB 		bl	uart1_transmit
 7639 6530 0000D5E5 		ldrb	r0, [r5, #0]	@ zero_extendqisi2
 7640 6534 FEFFFFEB 		bl	uart1_transmit
 7641              	.L168:
 7642 6538 44381FE5 		ldr	r3, .L370+64
 7643 653c 00A0D3E5 		ldrb	sl, [r3, #0]	@ zero_extendqisi2
 7644 6540 02005AE3 		cmp	sl, #2
 7645 6544 221E001A 		bne	.L308
 7646 6548 50181FE5 		ldr	r1, .L370+68
 7647 654c B030D1E1 		ldrh	r3, [r1, #0]
 7648 6550 013083E2 		add	r3, r3, #1
 7649 6554 B030C1E1 		strh	r3, [r1, #0]	@ movhi 
 7650 6558 5C881FE5 		ldr	r8, .L370+72
 7651 655c B030D1E1 		ldrh	r3, [r1, #0]
 7652 6560 4B0F53E3 		cmp	r3, #300
 7653 6564 B030D8E1 		ldrh	r3, [r8, #0]
 7654 6568 013083E2 		add	r3, r3, #1
 7655 656c B030C8E1 		strh	r3, [r8, #0]	@ movhi 
 7656 6570 0020A023 		movcs	r2, #0	@ movhi
 7657 6574 74381FE5 		ldr	r3, .L370+76
 7658 6578 B020C121 		strcsh	r2, [r1, #0]	@ movhi 
 7659 657c B020D8E1 		ldrh	r2, [r8, #0]
 7660 6580 7C781FE5 		ldr	r7, .L370+80
 7661 6584 030052E1 		cmp	r2, r3
 7662 6588 0030A083 		movhi	r3, #0	@ movhi
 7663 658c B030C881 		strhih	r3, [r8, #0]	@ movhi 
 7664 6590 B030D7E1 		ldrh	r3, [r7, #0]
 7665 6594 013083E2 		add	r3, r3, #1
 7666 6598 B030C7E1 		strh	r3, [r7, #0]	@ movhi 
 7667 659c 94981FE5 		ldr	r9, .L370+84
 7668 65a0 B020D7E1 		ldrh	r2, [r7, #0]
 7669 65a4 98381FE5 		ldr	r3, .L370+88
 7670 65a8 030052E1 		cmp	r2, r3
 7671 65ac B030D9E1 		ldrh	r3, [r9, #0]
 7672 65b0 013083E2 		add	r3, r3, #1
 7673 65b4 B030C9E1 		strh	r3, [r9, #0]	@ movhi 
 7674 65b8 0000A083 		movhi	r0, #0	@ movhi
 7675 65bc B030D9E1 		ldrh	r3, [r9, #0]
 7676 65c0 B000C781 		strhih	r0, [r7, #0]	@ movhi 
 7677 65c4 B4081FE5 		ldr	r0, .L370+92
 7678 65c8 510F53E3 		cmp	r3, #324
 7679 65cc B030D0E1 		ldrh	r3, [r0, #0]
 7680 65d0 013083E2 		add	r3, r3, #1
 7681 65d4 B030C0E1 		strh	r3, [r0, #0]	@ movhi 
 7682 65d8 0020A023 		movcs	r2, #0	@ movhi
 7683 65dc B020C921 		strcsh	r2, [r9, #0]	@ movhi 
 7684 65e0 CC381FE5 		ldr	r3, .L370+96
 7685 65e4 B020D0E1 		ldrh	r2, [r0, #0]
 7686 65e8 030052E1 		cmp	r2, r3
 7687 65ec 0020A083 		movhi	r2, #0	@ movhi
 7688 65f0 B020C081 		strhih	r2, [r0, #0]	@ movhi 
 7689 65f4 DC081FE5 		ldr	r0, .L370+100
 7690 65f8 B030D0E1 		ldrh	r3, [r0, #0]
 7691 65fc 013083E2 		add	r3, r3, #1
 7692 6600 B030C0E1 		strh	r3, [r0, #0]	@ movhi 
 7693 6604 E8381FE5 		ldr	r3, .L370+104
 7694 6608 B020D0E1 		ldrh	r2, [r0, #0]
 7695 660c 030052E1 		cmp	r2, r3
 7696 6610 0020A083 		movhi	r2, #0	@ movhi
 7697 6614 B020C081 		strhih	r2, [r0, #0]	@ movhi 
 7698 6618 F8081FE5 		ldr	r0, .L370+108
 7699 661c B030D0E1 		ldrh	r3, [r0, #0]
 7700 6620 013083E2 		add	r3, r3, #1
 7701 6624 B030C0E1 		strh	r3, [r0, #0]	@ movhi 
 7702 6628 04391FE5 		ldr	r3, .L370+112
 7703 662c B020D0E1 		ldrh	r2, [r0, #0]
 7704 6630 030052E1 		cmp	r2, r3
 7705 6634 0020A083 		movhi	r2, #0	@ movhi
 7706 6638 B020C081 		strhih	r2, [r0, #0]	@ movhi 
 7707 663c 14091FE5 		ldr	r0, .L370+116
 7708 6640 B030D0E1 		ldrh	r3, [r0, #0]
 7709 6644 013083E2 		add	r3, r3, #1
 7710 6648 B030C0E1 		strh	r3, [r0, #0]	@ movhi 
 7711 664c B030D0E1 		ldrh	r3, [r0, #0]
 7712 6650 B050D1E1 		ldrh	r5, [r1, #0]
 7713 6654 990F53E3 		cmp	r3, #612
 7714 6658 0020A023 		movcs	r2, #0	@ movhi
 7715 665c B020C021 		strcsh	r2, [r0, #0]	@ movhi 
 7716 6660 000055E3 		cmp	r5, #0
 7717 6664 D819001A 		bne	.L282
 7718 6668 1700A0E3 		mov	r0, #23
 7719 666c FEFFFFEB 		bl	uart1_check_free_space
 7720 6670 FF0010E3 		tst	r0, #255
 7721 6674 44291F05 		ldreq	r2, .L370+124
 7722 6678 0030D205 		ldreqb	r3, [r2, #0]	@ zero_extendqisi2
 7723 667c 01308302 		addeq	r3, r3, #1
 7724 6680 0030C205 		streqb	r3, [r2, #0]
 7725 6684 D819000A 		beq	.L282
 7726 6688 54191FE5 		ldr	r1, .L370+128
 7727 668c 54C91FE5 		ldr	ip, .L370+132
 7728 6690 B030D1E1 		ldrh	r3, [r1, #0]
 7729 6694 B020DCE1 		ldrh	r2, [ip, #0]
 7730 6698 173083E2 		add	r3, r3, #23
 7731 669c 012082E2 		add	r2, r2, #1
 7732 66a0 B030C1E1 		strh	r3, [r1, #0]	@ movhi 
 7733 66a4 B020CCE1 		strh	r2, [ip, #0]	@ movhi 
 7734 66a8 9900A0E3 		mov	r0, #153
 7735 66ac 70491FE5 		ldr	r4, .L370+136
 7736 66b0 FEFFFFEB 		bl	uart1_transmit
 7737 66b4 1700A0E3 		mov	r0, #23
 7738 66b8 FEFFFFEB 		bl	uart1_transmit
 7739 66bc 7C691FE5 		ldr	r6, .L370+140
 7740 66c0 1B30A0E3 		mov	r3, #27
 7741 66c4 0030C4E5 		strb	r3, [r4, #0]
 7742 66c8 173083E2 		add	r3, r3, #23
 7743 66cc 0400A0E3 		mov	r0, #4
 7744 66d0 0030C6E5 		strb	r3, [r6, #0]
 7745 66d4 FEFFFFEB 		bl	uart1_transmit
 7746 66d8 0030D4E5 		ldrb	r3, [r4, #0]	@ zero_extendqisi2
 7747 66dc 023083E2 		add	r3, r3, #2
 7748 66e0 0030C4E5 		strb	r3, [r4, #0]
 7749 66e4 0030D6E5 		ldrb	r3, [r6, #0]	@ zero_extendqisi2
 7750 66e8 0020D4E5 		ldrb	r2, [r4, #0]	@ zero_extendqisi2
 7751 66ec 023083E0 		add	r3, r3, r2
 7752 66f0 0A00A0E1 		mov	r0, sl
 7753 66f4 0030C6E5 		strb	r3, [r6, #0]
 7754 66f8 FEFFFFEB 		bl	uart1_transmit
 7755 66fc 0030D4E5 		ldrb	r3, [r4, #0]	@ zero_extendqisi2
 7756 6700 103083E2 		add	r3, r3, #16
 7757 6704 0030C4E5 		strb	r3, [r4, #0]
 7758 6708 0030D6E5 		ldrb	r3, [r6, #0]	@ zero_extendqisi2
 7759 670c 0020D4E5 		ldrb	r2, [r4, #0]	@ zero_extendqisi2
 7760 6710 023083E0 		add	r3, r3, r2
 7761 6714 1000A0E3 		mov	r0, #16
 7762 6718 0030C6E5 		strb	r3, [r6, #0]
 7763 671c FEFFFFEB 		bl	uart1_transmit
 7764              	.L287:
 7765 6720 F4391FE5 		ldr	r3, .L370+120
 7766 6724 0300D5E7 		ldrb	r0, [r5, r3]	@ zero_extendqisi2
 7767 6728 0030D4E5 		ldrb	r3, [r4, #0]	@ zero_extendqisi2
 7768 672c 033080E0 		add	r3, r0, r3
 7769 6730 0030C4E5 		strb	r3, [r4, #0]
 7770 6734 0030D6E5 		ldrb	r3, [r6, #0]	@ zero_extendqisi2
 7771 6738 0020D4E5 		ldrb	r2, [r4, #0]	@ zero_extendqisi2
 7772 673c 023083E0 		add	r3, r3, r2
 7773 6740 0030C6E5 		strb	r3, [r6, #0]
 7774 6744 FEFFFFEB 		bl	uart1_transmit
 7775 6748 013085E2 		add	r3, r5, #1
 7776 674c FF5003E2 		and	r5, r3, #255
 7777 6750 0F0055E3 		cmp	r5, #15
 7778 6754 C619009A 		bls	.L287
 7779 6758 0000D4E5 		ldrb	r0, [r4, #0]	@ zero_extendqisi2
 7780 675c FEFFFFEB 		bl	uart1_transmit
 7781 6760 0000D6E5 		ldrb	r0, [r6, #0]	@ zero_extendqisi2
 7782 6764 FEFFFFEB 		bl	uart1_transmit
 7783              	.L282:
 7784 6768 B030D8E1 		ldrh	r3, [r8, #0]
 7785 676c 060053E3 		cmp	r3, #6
 7786 6770 FEFFFF0B 		bleq	gps_send
 7787              	.L289:
 7788 6774 B030D7E1 		ldrh	r3, [r7, #0]
 7789 6778 0C0053E3 		cmp	r3, #12
 7790 677c 511A001A 		bne	.L290
 7791 6780 0E00A0E3 		mov	r0, #14
 7792 6784 FEFFFFEB 		bl	uart1_check_free_space
 7793 6788 FF0010E3 		tst	r0, #255
 7794 678c 5C2A1F05 		ldreq	r2, .L370+124
 7795 6790 0030D205 		ldreqb	r3, [r2, #0]	@ zero_extendqisi2
 7796 6794 01308302 		addeq	r3, r3, #1
 7797 6798 0030C205 		streqb	r3, [r2, #0]
 7798 679c 511A000A 		beq	.L290
 7799 67a0 6C1A1FE5 		ldr	r1, .L370+128
 7800 67a4 6CCA1FE5 		ldr	ip, .L370+132
 7801 67a8 B030D1E1 		ldrh	r3, [r1, #0]
 7802 67ac B020DCE1 		ldrh	r2, [ip, #0]
 7803 67b0 0E3083E2 		add	r3, r3, #14
 7804 67b4 012082E2 		add	r2, r2, #1
 7805 67b8 B030C1E1 		strh	r3, [r1, #0]	@ movhi 
 7806 67bc B020CCE1 		strh	r2, [ip, #0]	@ movhi 
 7807 67c0 9900A0E3 		mov	r0, #153
 7808 67c4 884A1FE5 		ldr	r4, .L370+136
 7809 67c8 FEFFFFEB 		bl	uart1_transmit
 7810 67cc 0E00A0E3 		mov	r0, #14
 7811 67d0 905A1FE5 		ldr	r5, .L370+140
 7812 67d4 FEFFFFEB 		bl	uart1_transmit
 7813 67d8 1230A0E3 		mov	r3, #18
 7814 67dc 0030C4E5 		strb	r3, [r4, #0]
 7815 67e0 0E3083E2 		add	r3, r3, #14
 7816 67e4 0400A0E3 		mov	r0, #4
 7817 67e8 0030C5E5 		strb	r3, [r5, #0]
 7818 67ec FEFFFFEB 		bl	uart1_transmit
 7819 67f0 0030D4E5 		ldrb	r3, [r4, #0]	@ zero_extendqisi2
 7820 67f4 2A3083E2 		add	r3, r3, #42
 7821 67f8 0030C4E5 		strb	r3, [r4, #0]
 7822 67fc 0030D5E5 		ldrb	r3, [r5, #0]	@ zero_extendqisi2
 7823 6800 0020D4E5 		ldrb	r2, [r4, #0]	@ zero_extendqisi2
 7824 6804 C06A1FE5 		ldr	r6, .L370+144
 7825 6808 023083E0 		add	r3, r3, r2
 7826 680c 2A00A0E3 		mov	r0, #42
 7827 6810 0030C5E5 		strb	r3, [r5, #0]
 7828 6814 FEFFFFEB 		bl	uart1_transmit
 7829 6818 0000D6E5 		ldrb	r0, [r6, #0]	@ zero_extendqisi2
 7830 681c 0030D4E5 		ldrb	r3, [r4, #0]	@ zero_extendqisi2
 7831 6820 033080E0 		add	r3, r0, r3
 7832 6824 0030C4E5 		strb	r3, [r4, #0]
 7833 6828 0030D5E5 		ldrb	r3, [r5, #0]	@ zero_extendqisi2
 7834 682c 0020D4E5 		ldrb	r2, [r4, #0]	@ zero_extendqisi2
 7835 6830 023083E0 		add	r3, r3, r2
 7836 6834 0030C5E5 		strb	r3, [r5, #0]
 7837 6838 FEFFFFEB 		bl	uart1_transmit
 7838 683c 0100D6E5 		ldrb	r0, [r6, #1]	@ zero_extendqisi2
 7839 6840 0030D4E5 		ldrb	r3, [r4, #0]	@ zero_extendqisi2
 7840 6844 033080E0 		add	r3, r0, r3
 7841 6848 0030C4E5 		strb	r3, [r4, #0]
 7842 684c 0030D5E5 		ldrb	r3, [r5, #0]	@ zero_extendqisi2
 7843 6850 0020D4E5 		ldrb	r2, [r4, #0]	@ zero_extendqisi2
 7844 6854 023083E0 		add	r3, r3, r2
 7845 6858 0030C5E5 		strb	r3, [r5, #0]
 7846 685c FEFFFFEB 		bl	uart1_transmit
 7847 6860 0200D6E5 		ldrb	r0, [r6, #2]	@ zero_extendqisi2
 7848 6864 0030D4E5 		ldrb	r3, [r4, #0]	@ zero_extendqisi2
 7849 6868 033080E0 		add	r3, r0, r3
 7850 686c 0030C4E5 		strb	r3, [r4, #0]
 7851 6870 0030D5E5 		ldrb	r3, [r5, #0]	@ zero_extendqisi2
 7852 6874 0020D4E5 		ldrb	r2, [r4, #0]	@ zero_extendqisi2
 7853 6878 023083E0 		add	r3, r3, r2
 7854 687c 0030C5E5 		strb	r3, [r5, #0]
 7855 6880 FEFFFFEB 		bl	uart1_transmit
 7856 6884 0300D6E5 		ldrb	r0, [r6, #3]	@ zero_extendqisi2
 7857 6888 0030D4E5 		ldrb	r3, [r4, #0]	@ zero_extendqisi2
 7858 688c 033080E0 		add	r3, r0, r3
 7859 6890 0030C4E5 		strb	r3, [r4, #0]
 7860 6894 0030D5E5 		ldrb	r3, [r5, #0]	@ zero_extendqisi2
 7861 6898 0020D4E5 		ldrb	r2, [r4, #0]	@ zero_extendqisi2
 7862 689c 546B1FE5 		ldr	r6, .L370+148
 7863 68a0 023083E0 		add	r3, r3, r2
 7864 68a4 0030C5E5 		strb	r3, [r5, #0]
 7865 68a8 FEFFFFEB 		bl	uart1_transmit
 7866 68ac 0000D6E5 		ldrb	r0, [r6, #0]	@ zero_extendqisi2
 7867 68b0 0030D4E5 		ldrb	r3, [r4, #0]	@ zero_extendqisi2
 7868 68b4 033080E0 		add	r3, r0, r3
 7869 68b8 0030C4E5 		strb	r3, [r4, #0]
 7870 68bc 0030D5E5 		ldrb	r3, [r5, #0]	@ zero_extendqisi2
 7871 68c0 0020D4E5 		ldrb	r2, [r4, #0]	@ zero_extendqisi2
 7872 68c4 023083E0 		add	r3, r3, r2
 7873 68c8 0030C5E5 		strb	r3, [r5, #0]
 7874 68cc FEFFFFEB 		bl	uart1_transmit
 7875 68d0 0100D6E5 		ldrb	r0, [r6, #1]	@ zero_extendqisi2
 7876 68d4 0030D4E5 		ldrb	r3, [r4, #0]	@ zero_extendqisi2
 7877 68d8 033080E0 		add	r3, r0, r3
 7878 68dc 0030C4E5 		strb	r3, [r4, #0]
 7879 68e0 0030D5E5 		ldrb	r3, [r5, #0]	@ zero_extendqisi2
 7880 68e4 0020D4E5 		ldrb	r2, [r4, #0]	@ zero_extendqisi2
 7881 68e8 023083E0 		add	r3, r3, r2
 7882 68ec 0030C5E5 		strb	r3, [r5, #0]
 7883 68f0 FEFFFFEB 		bl	uart1_transmit
 7884 68f4 0200D6E5 		ldrb	r0, [r6, #2]	@ zero_extendqisi2
 7885 68f8 0030D4E5 		ldrb	r3, [r4, #0]	@ zero_extendqisi2
 7886 68fc 033080E0 		add	r3, r0, r3
 7887 6900 0030C4E5 		strb	r3, [r4, #0]
 7888 6904 0030D5E5 		ldrb	r3, [r5, #0]	@ zero_extendqisi2
 7889 6908 0020D4E5 		ldrb	r2, [r4, #0]	@ zero_extendqisi2
 7890 690c 023083E0 		add	r3, r3, r2
 7891 6910 0030C5E5 		strb	r3, [r5, #0]
 7892 6914 FEFFFFEB 		bl	uart1_transmit
 7893 6918 0300D6E5 		ldrb	r0, [r6, #3]	@ zero_extendqisi2
 7894 691c 0030D4E5 		ldrb	r3, [r4, #0]	@ zero_extendqisi2
 7895 6920 033080E0 		add	r3, r0, r3
 7896 6924 0030C4E5 		strb	r3, [r4, #0]
 7897 6928 0030D5E5 		ldrb	r3, [r5, #0]	@ zero_extendqisi2
 7898 692c 0020D4E5 		ldrb	r2, [r4, #0]	@ zero_extendqisi2
 7899 6930 023083E0 		add	r3, r3, r2
 7900 6934 0030C5E5 		strb	r3, [r5, #0]
 7901 6938 FEFFFFEB 		bl	uart1_transmit
 7902 693c 0000D4E5 		ldrb	r0, [r4, #0]	@ zero_extendqisi2
 7903 6940 FEFFFFEB 		bl	uart1_transmit
 7904 6944 0000D5E5 		ldrb	r0, [r5, #0]	@ zero_extendqisi2
 7905 6948 FEFFFFEB 		bl	uart1_transmit
 7906              	.L290:
 7907 694c B030D9E1 		ldrh	r3, [r9, #0]
 7908 6950 120053E3 		cmp	r3, #18
 7909 6954 411B001A 		bne	.L293
 7910 6958 0C3C1FE5 		ldr	r3, .L370+152
 7911 695c 003093E5 		ldr	r3, [r3, #0]
 7912 6960 0201C3E3 		bic	r0, r3, #-2147483648
 7913 6964 FEFFFFEB 		bl	__extendsfdf2
 7914 6968 3F2E8FE2 		adr	r2, .L372
 7915 696c 0C0092E8 		ldmia	r2, {r2-r3}
 7916 6970 FEFFFFEB 		bl	__divdf3
 7917 6974 FEFFFFEB 		bl	__fixunsdfsi
 7918 6978 3B004BE5 		strb	r0, [fp, #-59]
 7919 697c 1A00A0E3 		mov	r0, #26
 7920 6980 FEFFFFEB 		bl	uart1_check_free_space
 7921 6984 FF0010E3 		tst	r0, #255
 7922 6988 34249F05 		ldreq	r2, .L372+100
 7923 698c 0030D205 		ldreqb	r3, [r2, #0]	@ zero_extendqisi2
 7924 6990 01308302 		addeq	r3, r3, #1
 7925 6994 0030C205 		streqb	r3, [r2, #0]
 7926 6998 411B000A 		beq	.L293
 7927 699c 24149FE5 		ldr	r1, .L372+104
 7928 69a0 24C49FE5 		ldr	ip, .L372+108
 7929 69a4 B030D1E1 		ldrh	r3, [r1, #0]
 7930 69a8 B020DCE1 		ldrh	r2, [ip, #0]
 7931 69ac 1A3083E2 		add	r3, r3, #26
 7932 69b0 012082E2 		add	r2, r2, #1
 7933 69b4 B030C1E1 		strh	r3, [r1, #0]	@ movhi 
 7934 69b8 B020CCE1 		strh	r2, [ip, #0]	@ movhi 
 7935 69bc 9900A0E3 		mov	r0, #153
 7936 69c0 08449FE5 		ldr	r4, .L372+112
 7937 69c4 FEFFFFEB 		bl	uart1_transmit
 7938 69c8 1A00A0E3 		mov	r0, #26
 7939 69cc 00549FE5 		ldr	r5, .L372+116
 7940 69d0 FEFFFFEB 		bl	uart1_transmit
 7941 69d4 1E30A0E3 		mov	r3, #30
 7942 69d8 0030C4E5 		strb	r3, [r4, #0]
 7943 69dc 1A3083E2 		add	r3, r3, #26
 7944 69e0 0400A0E3 		mov	r0, #4
 7945 69e4 0030C5E5 		strb	r3, [r5, #0]
 7946 69e8 FEFFFFEB 		bl	uart1_transmit
 7947 69ec 0030D4E5 		ldrb	r3, [r4, #0]	@ zero_extendqisi2
 7948 69f0 0A3083E2 		add	r3, r3, #10
 7949 69f4 0030C4E5 		strb	r3, [r4, #0]
 7950 69f8 0030D5E5 		ldrb	r3, [r5, #0]	@ zero_extendqisi2
 7951 69fc 0020D4E5 		ldrb	r2, [r4, #0]	@ zero_extendqisi2
 7952 6a00 023083E0 		add	r3, r3, r2
 7953 6a04 0A00A0E3 		mov	r0, #10
 7954 6a08 0030C5E5 		strb	r3, [r5, #0]
 7955 6a0c FEFFFFEB 		bl	uart1_transmit
 7956 6a10 50339FE5 		ldr	r3, .L372+8
 7957 6a14 0000D3E5 		ldrb	r0, [r3, #0]	@ zero_extendqisi2
 7958 6a18 0030D4E5 		ldrb	r3, [r4, #0]	@ zero_extendqisi2
 7959 6a1c 033080E0 		add	r3, r0, r3
 7960 6a20 0030C4E5 		strb	r3, [r4, #0]
 7961 6a24 0030D5E5 		ldrb	r3, [r5, #0]	@ zero_extendqisi2
 7962 6a28 0020D4E5 		ldrb	r2, [r4, #0]	@ zero_extendqisi2
 7963 6a2c 023083E0 		add	r3, r3, r2
 7964 6a30 0030C5E5 		strb	r3, [r5, #0]
 7965 6a34 FEFFFFEB 		bl	uart1_transmit
 7966 6a38 2C339FE5 		ldr	r3, .L372+12
 7967 6a3c 0000D3E5 		ldrb	r0, [r3, #0]	@ zero_extendqisi2
 7968 6a40 0030D4E5 		ldrb	r3, [r4, #0]	@ zero_extendqisi2
 7969 6a44 033080E0 		add	r3, r0, r3
 7970 6a48 0030C4E5 		strb	r3, [r4, #0]
 7971 6a4c 0030D5E5 		ldrb	r3, [r5, #0]	@ zero_extendqisi2
 7972 6a50 0020D4E5 		ldrb	r2, [r4, #0]	@ zero_extendqisi2
 7973 6a54 14639FE5 		ldr	r6, .L372+16
 7974 6a58 023083E0 		add	r3, r3, r2
 7975 6a5c 0030C5E5 		strb	r3, [r5, #0]
 7976 6a60 FEFFFFEB 		bl	uart1_transmit
 7977 6a64 0000D6E5 		ldrb	r0, [r6, #0]	@ zero_extendqisi2
 7978 6a68 0030D4E5 		ldrb	r3, [r4, #0]	@ zero_extendqisi2
 7979 6a6c 033080E0 		add	r3, r0, r3
 7980 6a70 0030C4E5 		strb	r3, [r4, #0]
 7981 6a74 0030D5E5 		ldrb	r3, [r5, #0]	@ zero_extendqisi2
 7982 6a78 0020D4E5 		ldrb	r2, [r4, #0]	@ zero_extendqisi2
 7983 6a7c 023083E0 		add	r3, r3, r2
 7984 6a80 0030C5E5 		strb	r3, [r5, #0]
 7985 6a84 FEFFFFEB 		bl	uart1_transmit
 7986 6a88 0100D6E5 		ldrb	r0, [r6, #1]	@ zero_extendqisi2
 7987 6a8c 0030D4E5 		ldrb	r3, [r4, #0]	@ zero_extendqisi2
 7988 6a90 033080E0 		add	r3, r0, r3
 7989 6a94 0030C4E5 		strb	r3, [r4, #0]
 7990 6a98 0030D5E5 		ldrb	r3, [r5, #0]	@ zero_extendqisi2
 7991 6a9c 0020D4E5 		ldrb	r2, [r4, #0]	@ zero_extendqisi2
 7992 6aa0 023083E0 		add	r3, r3, r2
 7993 6aa4 0030C5E5 		strb	r3, [r5, #0]
 7994 6aa8 FEFFFFEB 		bl	uart1_transmit
 7995 6aac 0200D6E5 		ldrb	r0, [r6, #2]	@ zero_extendqisi2
 7996 6ab0 0030D4E5 		ldrb	r3, [r4, #0]	@ zero_extendqisi2
 7997 6ab4 033080E0 		add	r3, r0, r3
 7998 6ab8 0030C4E5 		strb	r3, [r4, #0]
 7999 6abc 0030D5E5 		ldrb	r3, [r5, #0]	@ zero_extendqisi2
 8000 6ac0 0020D4E5 		ldrb	r2, [r4, #0]	@ zero_extendqisi2
 8001 6ac4 023083E0 		add	r3, r3, r2
 8002 6ac8 0030C5E5 		strb	r3, [r5, #0]
 8003 6acc FEFFFFEB 		bl	uart1_transmit
 8004 6ad0 0300D6E5 		ldrb	r0, [r6, #3]	@ zero_extendqisi2
 8005 6ad4 0030D4E5 		ldrb	r3, [r4, #0]	@ zero_extendqisi2
 8006 6ad8 033080E0 		add	r3, r0, r3
 8007 6adc 0030C4E5 		strb	r3, [r4, #0]
 8008 6ae0 0030D5E5 		ldrb	r3, [r5, #0]	@ zero_extendqisi2
 8009 6ae4 0020D4E5 		ldrb	r2, [r4, #0]	@ zero_extendqisi2
 8010 6ae8 84629FE5 		ldr	r6, .L372+20
 8011 6aec 023083E0 		add	r3, r3, r2
 8012 6af0 0030C5E5 		strb	r3, [r5, #0]
 8013 6af4 FEFFFFEB 		bl	uart1_transmit
 8014 6af8 0000D6E5 		ldrb	r0, [r6, #0]	@ zero_extendqisi2
 8015 6afc 0030D4E5 		ldrb	r3, [r4, #0]	@ zero_extendqisi2
 8016 6b00 033080E0 		add	r3, r0, r3
 8017 6b04 0030C4E5 		strb	r3, [r4, #0]
 8018 6b08 0030D5E5 		ldrb	r3, [r5, #0]	@ zero_extendqisi2
 8019 6b0c 0020D4E5 		ldrb	r2, [r4, #0]	@ zero_extendqisi2
 8020 6b10 023083E0 		add	r3, r3, r2
 8021 6b14 0030C5E5 		strb	r3, [r5, #0]
 8022 6b18 FEFFFFEB 		bl	uart1_transmit
 8023 6b1c 0100D6E5 		ldrb	r0, [r6, #1]	@ zero_extendqisi2
 8024 6b20 0030D4E5 		ldrb	r3, [r4, #0]	@ zero_extendqisi2
 8025 6b24 033080E0 		add	r3, r0, r3
 8026 6b28 0030C4E5 		strb	r3, [r4, #0]
 8027 6b2c 0030D5E5 		ldrb	r3, [r5, #0]	@ zero_extendqisi2
 8028 6b30 0020D4E5 		ldrb	r2, [r4, #0]	@ zero_extendqisi2
 8029 6b34 023083E0 		add	r3, r3, r2
 8030 6b38 0030C5E5 		strb	r3, [r5, #0]
 8031 6b3c FEFFFFEB 		bl	uart1_transmit
 8032 6b40 0200D6E5 		ldrb	r0, [r6, #2]	@ zero_extendqisi2
 8033 6b44 0030D4E5 		ldrb	r3, [r4, #0]	@ zero_extendqisi2
 8034 6b48 033080E0 		add	r3, r0, r3
 8035 6b4c 0030C4E5 		strb	r3, [r4, #0]
 8036 6b50 0030D5E5 		ldrb	r3, [r5, #0]	@ zero_extendqisi2
 8037 6b54 0020D4E5 		ldrb	r2, [r4, #0]	@ zero_extendqisi2
 8038 6b58 023083E0 		add	r3, r3, r2
 8039 6b5c 0030C5E5 		strb	r3, [r5, #0]
 8040 6b60 FEFFFFEB 		bl	uart1_transmit
 8041 6b64 0300D6E5 		ldrb	r0, [r6, #3]	@ zero_extendqisi2
 8042 6b68 0030D4E5 		ldrb	r3, [r4, #0]	@ zero_extendqisi2
 8043 6b6c 033080E0 		add	r3, r0, r3
 8044 6b70 0030C4E5 		strb	r3, [r4, #0]
 8045 6b74 0030D5E5 		ldrb	r3, [r5, #0]	@ zero_extendqisi2
 8046 6b78 0020D4E5 		ldrb	r2, [r4, #0]	@ zero_extendqisi2
 8047 6b7c F4619FE5 		ldr	r6, .L372+24
 8048 6b80 023083E0 		add	r3, r3, r2
 8049 6b84 0030C5E5 		strb	r3, [r5, #0]
 8050 6b88 FEFFFFEB 		bl	uart1_transmit
 8051 6b8c 0000D6E5 		ldrb	r0, [r6, #0]	@ zero_extendqisi2
 8052 6b90 0030D4E5 		ldrb	r3, [r4, #0]	@ zero_extendqisi2
 8053 6b94 033080E0 		add	r3, r0, r3
 8054 6b98 0030C4E5 		strb	r3, [r4, #0]
 8055 6b9c 0030D5E5 		ldrb	r3, [r5, #0]	@ zero_extendqisi2
 8056 6ba0 0020D4E5 		ldrb	r2, [r4, #0]	@ zero_extendqisi2
 8057 6ba4 023083E0 		add	r3, r3, r2
 8058 6ba8 0030C5E5 		strb	r3, [r5, #0]
 8059 6bac FEFFFFEB 		bl	uart1_transmit
 8060 6bb0 0100D6E5 		ldrb	r0, [r6, #1]	@ zero_extendqisi2
 8061 6bb4 0030D4E5 		ldrb	r3, [r4, #0]	@ zero_extendqisi2
 8062 6bb8 033080E0 		add	r3, r0, r3
 8063 6bbc 0030C4E5 		strb	r3, [r4, #0]
 8064 6bc0 0030D5E5 		ldrb	r3, [r5, #0]	@ zero_extendqisi2
 8065 6bc4 0020D4E5 		ldrb	r2, [r4, #0]	@ zero_extendqisi2
 8066 6bc8 023083E0 		add	r3, r3, r2
 8067 6bcc 0030C5E5 		strb	r3, [r5, #0]
 8068 6bd0 FEFFFFEB 		bl	uart1_transmit
 8069 6bd4 0200D6E5 		ldrb	r0, [r6, #2]	@ zero_extendqisi2
 8070 6bd8 0030D4E5 		ldrb	r3, [r4, #0]	@ zero_extendqisi2
 8071 6bdc 033080E0 		add	r3, r0, r3
 8072 6be0 0030C4E5 		strb	r3, [r4, #0]
 8073 6be4 0030D5E5 		ldrb	r3, [r5, #0]	@ zero_extendqisi2
 8074 6be8 0020D4E5 		ldrb	r2, [r4, #0]	@ zero_extendqisi2
 8075 6bec 023083E0 		add	r3, r3, r2
 8076 6bf0 0030C5E5 		strb	r3, [r5, #0]
 8077 6bf4 FEFFFFEB 		bl	uart1_transmit
 8078 6bf8 0300D6E5 		ldrb	r0, [r6, #3]	@ zero_extendqisi2
 8079 6bfc 0030D4E5 		ldrb	r3, [r4, #0]	@ zero_extendqisi2
 8080 6c00 033080E0 		add	r3, r0, r3
 8081 6c04 0030C4E5 		strb	r3, [r4, #0]
 8082 6c08 0030D5E5 		ldrb	r3, [r5, #0]	@ zero_extendqisi2
 8083 6c0c 0020D4E5 		ldrb	r2, [r4, #0]	@ zero_extendqisi2
 8084 6c10 64619FE5 		ldr	r6, .L372+28
 8085 6c14 023083E0 		add	r3, r3, r2
 8086 6c18 0030C5E5 		strb	r3, [r5, #0]
 8087 6c1c FEFFFFEB 		bl	uart1_transmit
 8088 6c20 0000D6E5 		ldrb	r0, [r6, #0]	@ zero_extendqisi2
 8089 6c24 0030D4E5 		ldrb	r3, [r4, #0]	@ zero_extendqisi2
 8090 6c28 033080E0 		add	r3, r0, r3
 8091 6c2c 0030C4E5 		strb	r3, [r4, #0]
 8092 6c30 0030D5E5 		ldrb	r3, [r5, #0]	@ zero_extendqisi2
 8093 6c34 0020D4E5 		ldrb	r2, [r4, #0]	@ zero_extendqisi2
 8094 6c38 023083E0 		add	r3, r3, r2
 8095 6c3c 0030C5E5 		strb	r3, [r5, #0]
 8096 6c40 FEFFFFEB 		bl	uart1_transmit
 8097 6c44 0100D6E5 		ldrb	r0, [r6, #1]	@ zero_extendqisi2
 8098 6c48 0030D4E5 		ldrb	r3, [r4, #0]	@ zero_extendqisi2
 8099 6c4c 033080E0 		add	r3, r0, r3
 8100 6c50 0030C4E5 		strb	r3, [r4, #0]
 8101 6c54 0030D5E5 		ldrb	r3, [r5, #0]	@ zero_extendqisi2
 8102 6c58 0020D4E5 		ldrb	r2, [r4, #0]	@ zero_extendqisi2
 8103 6c5c 023083E0 		add	r3, r3, r2
 8104 6c60 0030C5E5 		strb	r3, [r5, #0]
 8105 6c64 FEFFFFEB 		bl	uart1_transmit
 8106 6c68 0200D6E5 		ldrb	r0, [r6, #2]	@ zero_extendqisi2
 8107 6c6c 0030D4E5 		ldrb	r3, [r4, #0]	@ zero_extendqisi2
 8108 6c70 033080E0 		add	r3, r0, r3
 8109 6c74 0030C4E5 		strb	r3, [r4, #0]
 8110 6c78 0030D5E5 		ldrb	r3, [r5, #0]	@ zero_extendqisi2
 8111 6c7c 0020D4E5 		ldrb	r2, [r4, #0]	@ zero_extendqisi2
 8112 6c80 023083E0 		add	r3, r3, r2
 8113 6c84 0030C5E5 		strb	r3, [r5, #0]
 8114 6c88 FEFFFFEB 		bl	uart1_transmit
 8115 6c8c 0300D6E5 		ldrb	r0, [r6, #3]	@ zero_extendqisi2
 8116 6c90 0030D4E5 		ldrb	r3, [r4, #0]	@ zero_extendqisi2
 8117 6c94 033080E0 		add	r3, r0, r3
 8118 6c98 0030C4E5 		strb	r3, [r4, #0]
 8119 6c9c 0030D5E5 		ldrb	r3, [r5, #0]	@ zero_extendqisi2
 8120 6ca0 0020D4E5 		ldrb	r2, [r4, #0]	@ zero_extendqisi2
 8121 6ca4 023083E0 		add	r3, r3, r2
 8122 6ca8 0030C5E5 		strb	r3, [r5, #0]
 8123 6cac FEFFFFEB 		bl	uart1_transmit
 8124 6cb0 3B005BE5 		ldrb	r0, [fp, #-59]	@ zero_extendqisi2
 8125 6cb4 0030D4E5 		ldrb	r3, [r4, #0]	@ zero_extendqisi2
 8126 6cb8 033080E0 		add	r3, r0, r3
 8127 6cbc 0030C4E5 		strb	r3, [r4, #0]
 8128 6cc0 0030D5E5 		ldrb	r3, [r5, #0]	@ zero_extendqisi2
 8129 6cc4 0020D4E5 		ldrb	r2, [r4, #0]	@ zero_extendqisi2
 8130 6cc8 023083E0 		add	r3, r3, r2
 8131 6ccc 0030C5E5 		strb	r3, [r5, #0]
 8132 6cd0 FEFFFFEB 		bl	uart1_transmit
 8133 6cd4 A4309FE5 		ldr	r3, .L372+32
 8134 6cd8 0000D3E5 		ldrb	r0, [r3, #0]	@ zero_extendqisi2
 8135 6cdc 0030D4E5 		ldrb	r3, [r4, #0]	@ zero_extendqisi2
 8136 6ce0 033080E0 		add	r3, r0, r3
 8137 6ce4 0030C4E5 		strb	r3, [r4, #0]
 8138 6ce8 0030D5E5 		ldrb	r3, [r5, #0]	@ zero_extendqisi2
 8139 6cec 0020D4E5 		ldrb	r2, [r4, #0]	@ zero_extendqisi2
 8140 6cf0 023083E0 		add	r3, r3, r2
 8141 6cf4 0030C5E5 		strb	r3, [r5, #0]
 8142 6cf8 FEFFFFEB 		bl	uart1_transmit
 8143 6cfc 0000D4E5 		ldrb	r0, [r4, #0]	@ zero_extendqisi2
 8144 6d00 FEFFFFEB 		bl	uart1_transmit
 8145 6d04 0000D5E5 		ldrb	r0, [r5, #0]	@ zero_extendqisi2
 8146 6d08 FEFFFFEB 		bl	uart1_transmit
 8147              	.L293:
 8148 6d0c 70009FE5 		ldr	r0, .L372+36
 8149 6d10 B030D0E1 		ldrh	r3, [r0, #0]
 8150 6d14 180053E3 		cmp	r3, #24
 8151 6d18 D61B001A 		bne	.L296
 8152 6d1c 0C00A0E3 		mov	r0, #12
 8153 6d20 FEFFFFEB 		bl	uart1_check_free_space
 8154 6d24 FF0010E3 		tst	r0, #255
 8155 6d28 94209F05 		ldreq	r2, .L372+100
 8156 6d2c 0030D205 		ldreqb	r3, [r2, #0]	@ zero_extendqisi2
 8157 6d30 01308302 		addeq	r3, r3, #1
 8158 6d34 0030C205 		streqb	r3, [r2, #0]
 8159 6d38 D61B000A 		beq	.L296
 8160 6d3c 84109FE5 		ldr	r1, .L372+104
 8161 6d40 84C09FE5 		ldr	ip, .L372+108
 8162 6d44 B030D1E1 		ldrh	r3, [r1, #0]
 8163 6d48 B020DCE1 		ldrh	r2, [ip, #0]
 8164 6d4c 0C3083E2 		add	r3, r3, #12
 8165 6d50 012082E2 		add	r2, r2, #1
 8166 6d54 B030C1E1 		strh	r3, [r1, #0]	@ movhi 
 8167 6d58 B020CCE1 		strh	r2, [ip, #0]	@ movhi 
 8168 6d5c 811B00EA 		b	.L373
 8169              	.L374:
 8170              		.align	2
 8171              	.L372:
 8172 6d60 FB211940 		.word	1075388923
 8173 6d64 182D4454 		.word	1413754136
 8174 6d68 00000000 		.word	nav_block
 8175 6d6c 00000000 		.word	nav_stage
 8176 6d70 00000000 		.word	estimator_x
 8177 6d74 00000000 		.word	estimator_y
 8178 6d78 00000000 		.word	dist2_to_wp
 8179 6d7c 00000000 		.word	dist2_to_home
 8180 6d80 00000000 		.word	nav_oval_count
 8181 6d84 00000000 		.word	i330.50
 8182 6d88 00000000 		.word	pprz_mode
 8183 6d8c 00000000 		.word	v_ctl_mode
 8184 6d90 00000000 		.word	lateral_mode
 8185 6d94 00000000 		.word	horizontal_mode
 8186 6d98 00000000 		.word	rc_settings_mode
 8187 6d9c 00000000 		.word	mcu1_status
 8188 6da0 00000000 		.word	i342.51
 8189 6da4 00000000 		.word	last.54
 8190 6da8 00000000 		.word	i606.52
 8191 6dac 00000000 		.word	energy
 8192 6db0 00000000 		.word	v_ctl_throttle_slewed
 8193 6db4 00000000 		.word	kill_throttle
 8194 6db8 00000000 		.word	block_time
 8195 6dbc 00000000 		.word	stage_time
 8196 6dc0 00000000 		.word	i612.53
 8197 6dc4 00000000 		.word	downlink_nb_ovrn
 8198 6dc8 00000000 		.word	downlink_nb_bytes
 8199 6dcc 00000000 		.word	downlink_nb_msgs
 8200 6dd0 00000000 		.word	ck_a
 8201 6dd4 00000000 		.word	ck_b
 8202 6dd8 00000000 		.word	h_ctl_roll_setpoint
 8203 6ddc 00000000 		.word	h_ctl_pitch_loop_setpoint
 8204 6de0 00000000 		.word	h_ctl_course_setpoint
 8205 6de4 00000000 		.word	desired_x
 8206 6de8 00000000 		.word	desired_y
 8207 6dec 00000000 		.word	v_ctl_altitude_setpoint
 8208 6df0 00000000 		.word	v_ctl_climb_setpoint
 8209 6df4 00000000 		.word	_1Hz.8
 8210 6df8 00000000 		.word	estimator_flight_time
 8211 6dfc 00000000 		.word	datalink_time
 8212 6e00 00000000 		.word	vsupply
 8213 6e04 66661440 		.word	1075078758
 8214 6e08 66666666 		.word	1717986918
 8215              	.L373:
 8216 6e0c 9900A0E3 		mov	r0, #153
 8217 6e10 48401FE5 		ldr	r4, .L372+112
 8218 6e14 FEFFFFEB 		bl	uart1_transmit
 8219 6e18 0C00A0E3 		mov	r0, #12
 8220 6e1c 50501FE5 		ldr	r5, .L372+116
 8221 6e20 FEFFFFEB 		bl	uart1_transmit
 8222 6e24 1030A0E3 		mov	r3, #16
 8223 6e28 0030C4E5 		strb	r3, [r4, #0]
 8224 6e2c 0C3083E2 		add	r3, r3, #12
 8225 6e30 0400A0E3 		mov	r0, #4
 8226 6e34 0030C5E5 		strb	r3, [r5, #0]
 8227 6e38 FEFFFFEB 		bl	uart1_transmit
 8228 6e3c 0030D4E5 		ldrb	r3, [r4, #0]	@ zero_extendqisi2
 8229 6e40 0B3083E2 		add	r3, r3, #11
 8230 6e44 0030C4E5 		strb	r3, [r4, #0]
 8231 6e48 0030D5E5 		ldrb	r3, [r5, #0]	@ zero_extendqisi2
 8232 6e4c 0020D4E5 		ldrb	r2, [r4, #0]	@ zero_extendqisi2
 8233 6e50 023083E0 		add	r3, r3, r2
 8234 6e54 0B00A0E3 		mov	r0, #11
 8235 6e58 0030C5E5 		strb	r3, [r5, #0]
 8236 6e5c FEFFFFEB 		bl	uart1_transmit
 8237 6e60 E0301FE5 		ldr	r3, .L372+40
 8238 6e64 0000D3E5 		ldrb	r0, [r3, #0]	@ zero_extendqisi2
 8239 6e68 0030D4E5 		ldrb	r3, [r4, #0]	@ zero_extendqisi2
 8240 6e6c 033080E0 		add	r3, r0, r3
 8241 6e70 0030C4E5 		strb	r3, [r4, #0]
 8242 6e74 0030D5E5 		ldrb	r3, [r5, #0]	@ zero_extendqisi2
 8243 6e78 0020D4E5 		ldrb	r2, [r4, #0]	@ zero_extendqisi2
 8244 6e7c 023083E0 		add	r3, r3, r2
 8245 6e80 0030C5E5 		strb	r3, [r5, #0]
 8246 6e84 FEFFFFEB 		bl	uart1_transmit
 8247 6e88 04311FE5 		ldr	r3, .L372+44
 8248 6e8c 0000D3E5 		ldrb	r0, [r3, #0]	@ zero_extendqisi2
 8249 6e90 0030D4E5 		ldrb	r3, [r4, #0]	@ zero_extendqisi2
 8250 6e94 033080E0 		add	r3, r0, r3
 8251 6e98 0030C4E5 		strb	r3, [r4, #0]
 8252 6e9c 0030D5E5 		ldrb	r3, [r5, #0]	@ zero_extendqisi2
 8253 6ea0 0020D4E5 		ldrb	r2, [r4, #0]	@ zero_extendqisi2
 8254 6ea4 023083E0 		add	r3, r3, r2
 8255 6ea8 0030C5E5 		strb	r3, [r5, #0]
 8256 6eac FEFFFFEB 		bl	uart1_transmit
 8257 6eb0 28311FE5 		ldr	r3, .L372+48
 8258 6eb4 0000D3E5 		ldrb	r0, [r3, #0]	@ zero_extendqisi2
 8259 6eb8 0030D4E5 		ldrb	r3, [r4, #0]	@ zero_extendqisi2
 8260 6ebc 033080E0 		add	r3, r0, r3
 8261 6ec0 0030C4E5 		strb	r3, [r4, #0]
 8262 6ec4 0030D5E5 		ldrb	r3, [r5, #0]	@ zero_extendqisi2
 8263 6ec8 0020D4E5 		ldrb	r2, [r4, #0]	@ zero_extendqisi2
 8264 6ecc 023083E0 		add	r3, r3, r2
 8265 6ed0 0030C5E5 		strb	r3, [r5, #0]
 8266 6ed4 FEFFFFEB 		bl	uart1_transmit
 8267 6ed8 4C311FE5 		ldr	r3, .L372+52
 8268 6edc 0000D3E5 		ldrb	r0, [r3, #0]	@ zero_extendqisi2
 8269 6ee0 0030D4E5 		ldrb	r3, [r4, #0]	@ zero_extendqisi2
 8270 6ee4 033080E0 		add	r3, r0, r3
 8271 6ee8 0030C4E5 		strb	r3, [r4, #0]
 8272 6eec 0030D5E5 		ldrb	r3, [r5, #0]	@ zero_extendqisi2
 8273 6ef0 0020D4E5 		ldrb	r2, [r4, #0]	@ zero_extendqisi2
 8274 6ef4 023083E0 		add	r3, r3, r2
 8275 6ef8 0030C5E5 		strb	r3, [r5, #0]
 8276 6efc FEFFFFEB 		bl	uart1_transmit
 8277 6f00 70311FE5 		ldr	r3, .L372+56
 8278 6f04 0000D3E5 		ldrb	r0, [r3, #0]	@ zero_extendqisi2
 8279 6f08 0030D4E5 		ldrb	r3, [r4, #0]	@ zero_extendqisi2
 8280 6f0c 033080E0 		add	r3, r0, r3
 8281 6f10 0030C4E5 		strb	r3, [r4, #0]
 8282 6f14 0030D5E5 		ldrb	r3, [r5, #0]	@ zero_extendqisi2
 8283 6f18 0020D4E5 		ldrb	r2, [r4, #0]	@ zero_extendqisi2
 8284 6f1c 023083E0 		add	r3, r3, r2
 8285 6f20 0030C5E5 		strb	r3, [r5, #0]
 8286 6f24 FEFFFFEB 		bl	uart1_transmit
 8287 6f28 94311FE5 		ldr	r3, .L372+60
 8288 6f2c 0000D3E5 		ldrb	r0, [r3, #0]	@ zero_extendqisi2
 8289 6f30 0030D4E5 		ldrb	r3, [r4, #0]	@ zero_extendqisi2
 8290 6f34 033080E0 		add	r3, r0, r3
 8291 6f38 0030C4E5 		strb	r3, [r4, #0]
 8292 6f3c 0030D5E5 		ldrb	r3, [r5, #0]	@ zero_extendqisi2
 8293 6f40 0020D4E5 		ldrb	r2, [r4, #0]	@ zero_extendqisi2
 8294 6f44 023083E0 		add	r3, r3, r2
 8295 6f48 0030C5E5 		strb	r3, [r5, #0]
 8296 6f4c FEFFFFEB 		bl	uart1_transmit
 8297 6f50 0000D4E5 		ldrb	r0, [r4, #0]	@ zero_extendqisi2
 8298 6f54 FEFFFFEB 		bl	uart1_transmit
 8299 6f58 0000D5E5 		ldrb	r0, [r5, #0]	@ zero_extendqisi2
 8300 6f5c FEFFFFEB 		bl	uart1_transmit
 8301              	.L296:
 8302 6f60 C8211FE5 		ldr	r2, .L372+64
 8303 6f64 B080D2E1 		ldrh	r8, [r2, #0]
 8304 6f68 1E0058E3 		cmp	r8, #30
 8305 6f6c 3B1C001A 		bne	.L299
 8306 6f70 D4411FE5 		ldr	r4, .L372+68
 8307 6f74 B4711FE5 		ldr	r7, .L372+104
 8308 6f78 B000D4E1 		ldrh	r0, [r4, #0]
 8309 6f7c B050D7E1 		ldrh	r5, [r7, #0]
 8310 6f80 050060E0 		rsb	r0, r0, r5
 8311 6f84 FEFFFFEB 		bl	__floatsidf
 8312 6f88 632F4FE2 		adr	r2, .L372+164
 8313 6f8c 0C0092E8 		ldmia	r2, {r2-r3}
 8314 6f90 FEFFFFEB 		bl	__divdf3
 8315 6f94 FEFFFFEB 		bl	__fixunsdfsi
 8316 6f98 BE034BE1 		strh	r0, [fp, #-62]	@ movhi 
 8317 6f9c 0B00A0E3 		mov	r0, #11
 8318 6fa0 B050C4E1 		strh	r5, [r4, #0]	@ movhi 
 8319 6fa4 FEFFFFEB 		bl	uart1_check_free_space
 8320 6fa8 ECA11FE5 		ldr	sl, .L372+100
 8321 6fac FF0010E3 		tst	r0, #255
 8322 6fb0 0030DA05 		ldreqb	r3, [sl, #0]	@ zero_extendqisi2
 8323 6fb4 01308302 		addeq	r3, r3, #1
 8324 6fb8 0030CA05 		streqb	r3, [sl, #0]
 8325 6fbc 3B1C000A 		beq	.L299
 8326 6fc0 FC611FE5 		ldr	r6, .L372+108
 8327 6fc4 B030D7E1 		ldrh	r3, [r7, #0]
 8328 6fc8 B020D6E1 		ldrh	r2, [r6, #0]
 8329 6fcc 0B3083E2 		add	r3, r3, #11
 8330 6fd0 012082E2 		add	r2, r2, #1
 8331 6fd4 B020C6E1 		strh	r2, [r6, #0]	@ movhi 
 8332 6fd8 B030C7E1 		strh	r3, [r7, #0]	@ movhi 
 8333 6fdc 9900A0E3 		mov	r0, #153
 8334 6fe0 18421FE5 		ldr	r4, .L372+112
 8335 6fe4 FEFFFFEB 		bl	uart1_transmit
 8336 6fe8 0B00A0E3 		mov	r0, #11
 8337 6fec 20521FE5 		ldr	r5, .L372+116
 8338 6ff0 FEFFFFEB 		bl	uart1_transmit
 8339 6ff4 0F30A0E3 		mov	r3, #15
 8340 6ff8 0030C4E5 		strb	r3, [r4, #0]
 8341 6ffc 0B3083E2 		add	r3, r3, #11
 8342 7000 0400A0E3 		mov	r0, #4
 8343 7004 0030C5E5 		strb	r3, [r5, #0]
 8344 7008 FEFFFFEB 		bl	uart1_transmit
 8345 700c 0030D4E5 		ldrb	r3, [r4, #0]	@ zero_extendqisi2
 8346 7010 1E3083E2 		add	r3, r3, #30
 8347 7014 0030C4E5 		strb	r3, [r4, #0]
 8348 7018 0030D5E5 		ldrb	r3, [r5, #0]	@ zero_extendqisi2
 8349 701c 0020D4E5 		ldrb	r2, [r4, #0]	@ zero_extendqisi2
 8350 7020 023083E0 		add	r3, r3, r2
 8351 7024 0800A0E1 		mov	r0, r8
 8352 7028 0030C5E5 		strb	r3, [r5, #0]
 8353 702c FEFFFFEB 		bl	uart1_transmit
 8354 7030 0000DAE5 		ldrb	r0, [sl, #0]	@ zero_extendqisi2
 8355 7034 0030D4E5 		ldrb	r3, [r4, #0]	@ zero_extendqisi2
 8356 7038 033080E0 		add	r3, r0, r3
 8357 703c 0030C4E5 		strb	r3, [r4, #0]
 8358 7040 0030D5E5 		ldrb	r3, [r5, #0]	@ zero_extendqisi2
 8359 7044 0020D4E5 		ldrb	r2, [r4, #0]	@ zero_extendqisi2
 8360 7048 023083E0 		add	r3, r3, r2
 8361 704c 0030C5E5 		strb	r3, [r5, #0]
 8362 7050 FEFFFFEB 		bl	uart1_transmit
 8363 7054 3E005BE5 		ldrb	r0, [fp, #-62]	@ zero_extendqisi2
 8364 7058 0030D4E5 		ldrb	r3, [r4, #0]	@ zero_extendqisi2
 8365 705c 033080E0 		add	r3, r0, r3
 8366 7060 0030C4E5 		strb	r3, [r4, #0]
 8367 7064 0030D5E5 		ldrb	r3, [r5, #0]	@ zero_extendqisi2
 8368 7068 0020D4E5 		ldrb	r2, [r4, #0]	@ zero_extendqisi2
 8369 706c 023083E0 		add	r3, r3, r2
 8370 7070 0030C5E5 		strb	r3, [r5, #0]
 8371 7074 FEFFFFEB 		bl	uart1_transmit
 8372 7078 3D005BE5 		ldrb	r0, [fp, #-61]	@ zero_extendqisi2
 8373 707c 0030D4E5 		ldrb	r3, [r4, #0]	@ zero_extendqisi2
 8374 7080 033080E0 		add	r3, r0, r3
 8375 7084 0030C4E5 		strb	r3, [r4, #0]
 8376 7088 0030D5E5 		ldrb	r3, [r5, #0]	@ zero_extendqisi2
 8377 708c 0020D4E5 		ldrb	r2, [r4, #0]	@ zero_extendqisi2
 8378 7090 023083E0 		add	r3, r3, r2
 8379 7094 0030C5E5 		strb	r3, [r5, #0]
 8380 7098 FEFFFFEB 		bl	uart1_transmit
 8381 709c 0000D6E5 		ldrb	r0, [r6, #0]	@ zero_extendqisi2
 8382 70a0 0030D4E5 		ldrb	r3, [r4, #0]	@ zero_extendqisi2
 8383 70a4 033080E0 		add	r3, r0, r3
 8384 70a8 0030C4E5 		strb	r3, [r4, #0]
 8385 70ac 0030D5E5 		ldrb	r3, [r5, #0]	@ zero_extendqisi2
 8386 70b0 0020D4E5 		ldrb	r2, [r4, #0]	@ zero_extendqisi2
 8387 70b4 023083E0 		add	r3, r3, r2
 8388 70b8 0030C5E5 		strb	r3, [r5, #0]
 8389 70bc FEFFFFEB 		bl	uart1_transmit
 8390 70c0 0100D6E5 		ldrb	r0, [r6, #1]	@ zero_extendqisi2
 8391 70c4 0030D4E5 		ldrb	r3, [r4, #0]	@ zero_extendqisi2
 8392 70c8 033080E0 		add	r3, r0, r3
 8393 70cc 0030C4E5 		strb	r3, [r4, #0]
 8394 70d0 0030D5E5 		ldrb	r3, [r5, #0]	@ zero_extendqisi2
 8395 70d4 0020D4E5 		ldrb	r2, [r4, #0]	@ zero_extendqisi2
 8396 70d8 023083E0 		add	r3, r3, r2
 8397 70dc 0030C5E5 		strb	r3, [r5, #0]
 8398 70e0 FEFFFFEB 		bl	uart1_transmit
 8399 70e4 0000D4E5 		ldrb	r0, [r4, #0]	@ zero_extendqisi2
 8400 70e8 FEFFFFEB 		bl	uart1_transmit
 8401 70ec 0000D5E5 		ldrb	r0, [r5, #0]	@ zero_extendqisi2
 8402 70f0 FEFFFFEB 		bl	uart1_transmit
 8403              	.L299:
 8404 70f4 54031FE5 		ldr	r0, .L372+72
 8405 70f8 B030D0E1 		ldrh	r3, [r0, #0]
 8406 70fc 240053E3 		cmp	r3, #36
 8407 7100 F21C001A 		bne	.L302
 8408 7104 60331FE5 		ldr	r3, .L372+76
 8409 7108 0020A0E3 		mov	r2, #0	@ movhi
 8410 710c 000093E5 		ldr	r0, [r3, #0]	@ float
 8411 7110 B0244BE1 		strh	r2, [fp, #-64]	@ movhi 
 8412 7114 FEFFFFEB 		bl	__fixsfsi
 8413 7118 B2044BE1 		strh	r0, [fp, #-66]	@ movhi 
 8414 711c 1400A0E3 		mov	r0, #20
 8415 7120 FEFFFFEB 		bl	uart1_check_free_space
 8416 7124 FF0010E3 		tst	r0, #255
 8417 7128 6C231F05 		ldreq	r2, .L372+100
 8418 712c 0030D205 		ldreqb	r3, [r2, #0]	@ zero_extendqisi2
 8419 7130 01308302 		addeq	r3, r3, #1
 8420 7134 0030C205 		streqb	r3, [r2, #0]
 8421 7138 F21C000A 		beq	.L302
 8422 713c 7C131FE5 		ldr	r1, .L372+104
 8423 7140 7CC31FE5 		ldr	ip, .L372+108
 8424 7144 B030D1E1 		ldrh	r3, [r1, #0]
 8425 7148 B020DCE1 		ldrh	r2, [ip, #0]
 8426 714c 143083E2 		add	r3, r3, #20
 8427 7150 012082E2 		add	r2, r2, #1
 8428 7154 B030C1E1 		strh	r3, [r1, #0]	@ movhi 
 8429 7158 B020CCE1 		strh	r2, [ip, #0]	@ movhi 
 8430 715c 9900A0E3 		mov	r0, #153
 8431 7160 98431FE5 		ldr	r4, .L372+112
 8432 7164 FEFFFFEB 		bl	uart1_transmit
 8433 7168 1400A0E3 		mov	r0, #20
 8434 716c A0531FE5 		ldr	r5, .L372+116
 8435 7170 FEFFFFEB 		bl	uart1_transmit
 8436 7174 1830A0E3 		mov	r3, #24
 8437 7178 0030C4E5 		strb	r3, [r4, #0]
 8438 717c 143083E2 		add	r3, r3, #20
 8439 7180 0400A0E3 		mov	r0, #4
 8440 7184 0030C5E5 		strb	r3, [r5, #0]
 8441 7188 FEFFFFEB 		bl	uart1_transmit
 8442 718c 0030D4E5 		ldrb	r3, [r4, #0]	@ zero_extendqisi2
 8443 7190 0C3083E2 		add	r3, r3, #12
 8444 7194 0030C4E5 		strb	r3, [r4, #0]
 8445 7198 0030D5E5 		ldrb	r3, [r5, #0]	@ zero_extendqisi2
 8446 719c 0020D4E5 		ldrb	r2, [r4, #0]	@ zero_extendqisi2
 8447 71a0 F8631FE5 		ldr	r6, .L372+80
 8448 71a4 023083E0 		add	r3, r3, r2
 8449 71a8 0C00A0E3 		mov	r0, #12
 8450 71ac 0030C5E5 		strb	r3, [r5, #0]
 8451 71b0 FEFFFFEB 		bl	uart1_transmit
 8452 71b4 0000D6E5 		ldrb	r0, [r6, #0]	@ zero_extendqisi2
 8453 71b8 0030D4E5 		ldrb	r3, [r4, #0]	@ zero_extendqisi2
 8454 71bc 033080E0 		add	r3, r0, r3
 8455 71c0 0030C4E5 		strb	r3, [r4, #0]
 8456 71c4 0030D5E5 		ldrb	r3, [r5, #0]	@ zero_extendqisi2
 8457 71c8 0020D4E5 		ldrb	r2, [r4, #0]	@ zero_extendqisi2
 8458 71cc 023083E0 		add	r3, r3, r2
 8459 71d0 0030C5E5 		strb	r3, [r5, #0]
 8460 71d4 FEFFFFEB 		bl	uart1_transmit
 8461 71d8 0100D6E5 		ldrb	r0, [r6, #1]	@ zero_extendqisi2
 8462 71dc 0030D4E5 		ldrb	r3, [r4, #0]	@ zero_extendqisi2
 8463 71e0 033080E0 		add	r3, r0, r3
 8464 71e4 0030C4E5 		strb	r3, [r4, #0]
 8465 71e8 0030D5E5 		ldrb	r3, [r5, #0]	@ zero_extendqisi2
 8466 71ec 0020D4E5 		ldrb	r2, [r4, #0]	@ zero_extendqisi2
 8467 71f0 023083E0 		add	r3, r3, r2
 8468 71f4 0030C5E5 		strb	r3, [r5, #0]
 8469 71f8 FEFFFFEB 		bl	uart1_transmit
 8470 71fc 04341FE5 		ldr	r3, .L372+160
 8471 7200 0000D3E5 		ldrb	r0, [r3, #0]	@ zero_extendqisi2
 8472 7204 0030D4E5 		ldrb	r3, [r4, #0]	@ zero_extendqisi2
 8473 7208 033080E0 		add	r3, r0, r3
 8474 720c 0030C4E5 		strb	r3, [r4, #0]
 8475 7210 0030D5E5 		ldrb	r3, [r5, #0]	@ zero_extendqisi2
 8476 7214 0020D4E5 		ldrb	r2, [r4, #0]	@ zero_extendqisi2
 8477 7218 023083E0 		add	r3, r3, r2
 8478 721c 0030C5E5 		strb	r3, [r5, #0]
 8479 7220 FEFFFFEB 		bl	uart1_transmit
 8480 7224 40005BE5 		ldrb	r0, [fp, #-64]	@ zero_extendqisi2
 8481 7228 0030D4E5 		ldrb	r3, [r4, #0]	@ zero_extendqisi2
 8482 722c 033080E0 		add	r3, r0, r3
 8483 7230 0030C4E5 		strb	r3, [r4, #0]
 8484 7234 0030D5E5 		ldrb	r3, [r5, #0]	@ zero_extendqisi2
 8485 7238 0020D4E5 		ldrb	r2, [r4, #0]	@ zero_extendqisi2
 8486 723c 023083E0 		add	r3, r3, r2
 8487 7240 0030C5E5 		strb	r3, [r5, #0]
 8488 7244 FEFFFFEB 		bl	uart1_transmit
 8489 7248 3F005BE5 		ldrb	r0, [fp, #-63]	@ zero_extendqisi2
 8490 724c 0030D4E5 		ldrb	r3, [r4, #0]	@ zero_extendqisi2
 8491 7250 033080E0 		add	r3, r0, r3
 8492 7254 0030C4E5 		strb	r3, [r4, #0]
 8493 7258 0030D5E5 		ldrb	r3, [r5, #0]	@ zero_extendqisi2
 8494 725c 0020D4E5 		ldrb	r2, [r4, #0]	@ zero_extendqisi2
 8495 7260 70641FE5 		ldr	r6, .L372+152
 8496 7264 023083E0 		add	r3, r3, r2
 8497 7268 0030C5E5 		strb	r3, [r5, #0]
 8498 726c FEFFFFEB 		bl	uart1_transmit
 8499 7270 0000D6E5 		ldrb	r0, [r6, #0]	@ zero_extendqisi2
 8500 7274 0030D4E5 		ldrb	r3, [r4, #0]	@ zero_extendqisi2
 8501 7278 033080E0 		add	r3, r0, r3
 8502 727c 0030C4E5 		strb	r3, [r4, #0]
 8503 7280 0030D5E5 		ldrb	r3, [r5, #0]	@ zero_extendqisi2
 8504 7284 0020D4E5 		ldrb	r2, [r4, #0]	@ zero_extendqisi2
 8505 7288 023083E0 		add	r3, r3, r2
 8506 728c 0030C5E5 		strb	r3, [r5, #0]
 8507 7290 FEFFFFEB 		bl	uart1_transmit
 8508 7294 0100D6E5 		ldrb	r0, [r6, #1]	@ zero_extendqisi2
 8509 7298 0030D4E5 		ldrb	r3, [r4, #0]	@ zero_extendqisi2
 8510 729c 033080E0 		add	r3, r0, r3
 8511 72a0 0030C4E5 		strb	r3, [r4, #0]
 8512 72a4 0030D5E5 		ldrb	r3, [r5, #0]	@ zero_extendqisi2
 8513 72a8 0020D4E5 		ldrb	r2, [r4, #0]	@ zero_extendqisi2
 8514 72ac 023083E0 		add	r3, r3, r2
 8515 72b0 0030C5E5 		strb	r3, [r5, #0]
 8516 72b4 FEFFFFEB 		bl	uart1_transmit
 8517 72b8 0C351FE5 		ldr	r3, .L372+84
 8518 72bc 0000D3E5 		ldrb	r0, [r3, #0]	@ zero_extendqisi2
 8519 72c0 0030D4E5 		ldrb	r3, [r4, #0]	@ zero_extendqisi2
 8520 72c4 033080E0 		add	r3, r0, r3
 8521 72c8 0030C4E5 		strb	r3, [r4, #0]
 8522 72cc 0030D5E5 		ldrb	r3, [r5, #0]	@ zero_extendqisi2
 8523 72d0 0020D4E5 		ldrb	r2, [r4, #0]	@ zero_extendqisi2
 8524 72d4 24651FE5 		ldr	r6, .L372+88
 8525 72d8 023083E0 		add	r3, r3, r2
 8526 72dc 0030C5E5 		strb	r3, [r5, #0]
 8527 72e0 FEFFFFEB 		bl	uart1_transmit
 8528 72e4 0000D6E5 		ldrb	r0, [r6, #0]	@ zero_extendqisi2
 8529 72e8 0030D4E5 		ldrb	r3, [r4, #0]	@ zero_extendqisi2
 8530 72ec 033080E0 		add	r3, r0, r3
 8531 72f0 0030C4E5 		strb	r3, [r4, #0]
 8532 72f4 0030D5E5 		ldrb	r3, [r5, #0]	@ zero_extendqisi2
 8533 72f8 0020D4E5 		ldrb	r2, [r4, #0]	@ zero_extendqisi2
 8534 72fc 023083E0 		add	r3, r3, r2
 8535 7300 0030C5E5 		strb	r3, [r5, #0]
 8536 7304 FEFFFFEB 		bl	uart1_transmit
 8537 7308 0100D6E5 		ldrb	r0, [r6, #1]	@ zero_extendqisi2
 8538 730c 0030D4E5 		ldrb	r3, [r4, #0]	@ zero_extendqisi2
 8539 7310 033080E0 		add	r3, r0, r3
 8540 7314 0030C4E5 		strb	r3, [r4, #0]
 8541 7318 0030D5E5 		ldrb	r3, [r5, #0]	@ zero_extendqisi2
 8542 731c 0020D4E5 		ldrb	r2, [r4, #0]	@ zero_extendqisi2
 8543 7320 6C651FE5 		ldr	r6, .L372+92
 8544 7324 023083E0 		add	r3, r3, r2
 8545 7328 0030C5E5 		strb	r3, [r5, #0]
 8546 732c FEFFFFEB 		bl	uart1_transmit
 8547 7330 0000D6E5 		ldrb	r0, [r6, #0]	@ zero_extendqisi2
 8548 7334 0030D4E5 		ldrb	r3, [r4, #0]	@ zero_extendqisi2
 8549 7338 033080E0 		add	r3, r0, r3
 8550 733c 0030C4E5 		strb	r3, [r4, #0]
 8551 7340 0030D5E5 		ldrb	r3, [r5, #0]	@ zero_extendqisi2
 8552 7344 0020D4E5 		ldrb	r2, [r4, #0]	@ zero_extendqisi2
 8553 7348 023083E0 		add	r3, r3, r2
 8554 734c 0030C5E5 		strb	r3, [r5, #0]
 8555 7350 FEFFFFEB 		bl	uart1_transmit
 8556 7354 0100D6E5 		ldrb	r0, [r6, #1]	@ zero_extendqisi2
 8557 7358 0030D4E5 		ldrb	r3, [r4, #0]	@ zero_extendqisi2
 8558 735c 033080E0 		add	r3, r0, r3
 8559 7360 0030C4E5 		strb	r3, [r4, #0]
 8560 7364 0030D5E5 		ldrb	r3, [r5, #0]	@ zero_extendqisi2
 8561 7368 0020D4E5 		ldrb	r2, [r4, #0]	@ zero_extendqisi2
 8562 736c 023083E0 		add	r3, r3, r2
 8563 7370 0030C5E5 		strb	r3, [r5, #0]
 8564 7374 FEFFFFEB 		bl	uart1_transmit
 8565 7378 42005BE5 		ldrb	r0, [fp, #-66]	@ zero_extendqisi2
 8566 737c 0030D4E5 		ldrb	r3, [r4, #0]	@ zero_extendqisi2
 8567 7380 033080E0 		add	r3, r0, r3
 8568 7384 0030C4E5 		strb	r3, [r4, #0]
 8569 7388 0030D5E5 		ldrb	r3, [r5, #0]	@ zero_extendqisi2
 8570 738c 0020D4E5 		ldrb	r2, [r4, #0]	@ zero_extendqisi2
 8571 7390 023083E0 		add	r3, r3, r2
 8572 7394 0030C5E5 		strb	r3, [r5, #0]
 8573 7398 FEFFFFEB 		bl	uart1_transmit
 8574 739c 41005BE5 		ldrb	r0, [fp, #-65]	@ zero_extendqisi2
 8575 73a0 0030D4E5 		ldrb	r3, [r4, #0]	@ zero_extendqisi2
 8576 73a4 033080E0 		add	r3, r0, r3
 8577 73a8 0030C4E5 		strb	r3, [r4, #0]
 8578 73ac 0030D5E5 		ldrb	r3, [r5, #0]	@ zero_extendqisi2
 8579 73b0 0020D4E5 		ldrb	r2, [r4, #0]	@ zero_extendqisi2
 8580 73b4 023083E0 		add	r3, r3, r2
 8581 73b8 0030C5E5 		strb	r3, [r5, #0]
 8582 73bc FEFFFFEB 		bl	uart1_transmit
 8583 73c0 0000D4E5 		ldrb	r0, [r4, #0]	@ zero_extendqisi2
 8584 73c4 FEFFFFEB 		bl	uart1_transmit
 8585 73c8 0000D5E5 		ldrb	r0, [r5, #0]	@ zero_extendqisi2
 8586 73cc FEFFFFEB 		bl	uart1_transmit
 8587              	.L302:
 8588 73d0 18061FE5 		ldr	r0, .L372+96
 8589 73d4 B030D0E1 		ldrh	r3, [r0, #0]
 8590 73d8 2A0053E3 		cmp	r3, #42
 8591 73dc 221E001A 		bne	.L308
 8592 73e0 2200A0E3 		mov	r0, #34
 8593 73e4 FEFFFFEB 		bl	uart1_check_free_space
 8594 73e8 FF0010E3 		tst	r0, #255
 8595 73ec 30261F05 		ldreq	r2, .L372+100
 8596 73f0 0030D205 		ldreqb	r3, [r2, #0]	@ zero_extendqisi2
 8597 73f4 01308302 		addeq	r3, r3, #1
 8598 73f8 0030C205 		streqb	r3, [r2, #0]
 8599 73fc 221E000A 		beq	.L308
 8600 7400 40161FE5 		ldr	r1, .L372+104
 8601 7404 40C61FE5 		ldr	ip, .L372+108
 8602 7408 B030D1E1 		ldrh	r3, [r1, #0]
 8603 740c B020DCE1 		ldrh	r2, [ip, #0]
 8604 7410 223083E2 		add	r3, r3, #34
 8605 7414 012082E2 		add	r2, r2, #1
 8606 7418 B030C1E1 		strh	r3, [r1, #0]	@ movhi 
 8607 741c B020CCE1 		strh	r2, [ip, #0]	@ movhi 
 8608 7420 9900A0E3 		mov	r0, #153
 8609 7424 5C461FE5 		ldr	r4, .L372+112
 8610 7428 FEFFFFEB 		bl	uart1_transmit
 8611 742c 2200A0E3 		mov	r0, #34
 8612 7430 64561FE5 		ldr	r5, .L372+116
 8613 7434 FEFFFFEB 		bl	uart1_transmit
 8614 7438 2630A0E3 		mov	r3, #38
 8615 743c 0030C4E5 		strb	r3, [r4, #0]
 8616 7440 223083E2 		add	r3, r3, #34
 8617 7444 0400A0E3 		mov	r0, #4
 8618 7448 0030C5E5 		strb	r3, [r5, #0]
 8619 744c FEFFFFEB 		bl	uart1_transmit
 8620 7450 0030D4E5 		ldrb	r3, [r4, #0]	@ zero_extendqisi2
 8621 7454 103083E2 		add	r3, r3, #16
 8622 7458 0030C4E5 		strb	r3, [r4, #0]
 8623 745c 0030D5E5 		ldrb	r3, [r5, #0]	@ zero_extendqisi2
 8624 7460 0020D4E5 		ldrb	r2, [r4, #0]	@ zero_extendqisi2
 8625 7464 94661FE5 		ldr	r6, .L372+120
 8626 7468 023083E0 		add	r3, r3, r2
 8627 746c 1000A0E3 		mov	r0, #16
 8628 7470 0030C5E5 		strb	r3, [r5, #0]
 8629 7474 FEFFFFEB 		bl	uart1_transmit
 8630 7478 0000D6E5 		ldrb	r0, [r6, #0]	@ zero_extendqisi2
 8631 747c 0030D4E5 		ldrb	r3, [r4, #0]	@ zero_extendqisi2
 8632 7480 033080E0 		add	r3, r0, r3
 8633 7484 0030C4E5 		strb	r3, [r4, #0]
 8634 7488 0030D5E5 		ldrb	r3, [r5, #0]	@ zero_extendqisi2
 8635 748c 0020D4E5 		ldrb	r2, [r4, #0]	@ zero_extendqisi2
 8636 7490 023083E0 		add	r3, r3, r2
 8637 7494 0030C5E5 		strb	r3, [r5, #0]
 8638 7498 FEFFFFEB 		bl	uart1_transmit
 8639 749c 0100D6E5 		ldrb	r0, [r6, #1]	@ zero_extendqisi2
 8640 74a0 0030D4E5 		ldrb	r3, [r4, #0]	@ zero_extendqisi2
 8641 74a4 033080E0 		add	r3, r0, r3
 8642 74a8 0030C4E5 		strb	r3, [r4, #0]
 8643 74ac 0030D5E5 		ldrb	r3, [r5, #0]	@ zero_extendqisi2
 8644 74b0 0020D4E5 		ldrb	r2, [r4, #0]	@ zero_extendqisi2
 8645 74b4 023083E0 		add	r3, r3, r2
 8646 74b8 0030C5E5 		strb	r3, [r5, #0]
 8647 74bc FEFFFFEB 		bl	uart1_transmit
 8648 74c0 0200D6E5 		ldrb	r0, [r6, #2]	@ zero_extendqisi2
 8649 74c4 0030D4E5 		ldrb	r3, [r4, #0]	@ zero_extendqisi2
 8650 74c8 033080E0 		add	r3, r0, r3
 8651 74cc 0030C4E5 		strb	r3, [r4, #0]
 8652 74d0 0030D5E5 		ldrb	r3, [r5, #0]	@ zero_extendqisi2
 8653 74d4 0020D4E5 		ldrb	r2, [r4, #0]	@ zero_extendqisi2
 8654 74d8 023083E0 		add	r3, r3, r2
 8655 74dc 0030C5E5 		strb	r3, [r5, #0]
 8656 74e0 FEFFFFEB 		bl	uart1_transmit
 8657 74e4 0300D6E5 		ldrb	r0, [r6, #3]	@ zero_extendqisi2
 8658 74e8 0030D4E5 		ldrb	r3, [r4, #0]	@ zero_extendqisi2
 8659 74ec 033080E0 		add	r3, r0, r3
 8660 74f0 0030C4E5 		strb	r3, [r4, #0]
 8661 74f4 0030D5E5 		ldrb	r3, [r5, #0]	@ zero_extendqisi2
 8662 74f8 0020D4E5 		ldrb	r2, [r4, #0]	@ zero_extendqisi2
 8663 74fc 28671FE5 		ldr	r6, .L372+124
 8664 7500 023083E0 		add	r3, r3, r2
 8665 7504 0030C5E5 		strb	r3, [r5, #0]
 8666 7508 FEFFFFEB 		bl	uart1_transmit
 8667 750c 0000D6E5 		ldrb	r0, [r6, #0]	@ zero_extendqisi2
 8668 7510 0030D4E5 		ldrb	r3, [r4, #0]	@ zero_extendqisi2
 8669 7514 033080E0 		add	r3, r0, r3
 8670 7518 0030C4E5 		strb	r3, [r4, #0]
 8671 751c 0030D5E5 		ldrb	r3, [r5, #0]	@ zero_extendqisi2
 8672 7520 0020D4E5 		ldrb	r2, [r4, #0]	@ zero_extendqisi2
 8673 7524 023083E0 		add	r3, r3, r2
 8674 7528 0030C5E5 		strb	r3, [r5, #0]
 8675 752c FEFFFFEB 		bl	uart1_transmit
 8676 7530 0100D6E5 		ldrb	r0, [r6, #1]	@ zero_extendqisi2
 8677 7534 0030D4E5 		ldrb	r3, [r4, #0]	@ zero_extendqisi2
 8678 7538 033080E0 		add	r3, r0, r3
 8679 753c 0030C4E5 		strb	r3, [r4, #0]
 8680 7540 0030D5E5 		ldrb	r3, [r5, #0]	@ zero_extendqisi2
 8681 7544 0020D4E5 		ldrb	r2, [r4, #0]	@ zero_extendqisi2
 8682 7548 023083E0 		add	r3, r3, r2
 8683 754c 0030C5E5 		strb	r3, [r5, #0]
 8684 7550 FEFFFFEB 		bl	uart1_transmit
 8685 7554 0200D6E5 		ldrb	r0, [r6, #2]	@ zero_extendqisi2
 8686 7558 0030D4E5 		ldrb	r3, [r4, #0]	@ zero_extendqisi2
 8687 755c 033080E0 		add	r3, r0, r3
 8688 7560 0030C4E5 		strb	r3, [r4, #0]
 8689 7564 0030D5E5 		ldrb	r3, [r5, #0]	@ zero_extendqisi2
 8690 7568 0020D4E5 		ldrb	r2, [r4, #0]	@ zero_extendqisi2
 8691 756c 023083E0 		add	r3, r3, r2
 8692 7570 0030C5E5 		strb	r3, [r5, #0]
 8693 7574 FEFFFFEB 		bl	uart1_transmit
 8694 7578 0300D6E5 		ldrb	r0, [r6, #3]	@ zero_extendqisi2
 8695 757c 0030D4E5 		ldrb	r3, [r4, #0]	@ zero_extendqisi2
 8696 7580 033080E0 		add	r3, r0, r3
 8697 7584 0030C4E5 		strb	r3, [r4, #0]
 8698 7588 0030D5E5 		ldrb	r3, [r5, #0]	@ zero_extendqisi2
 8699 758c 0020D4E5 		ldrb	r2, [r4, #0]	@ zero_extendqisi2
 8700 7590 B8671FE5 		ldr	r6, .L372+128
 8701 7594 023083E0 		add	r3, r3, r2
 8702 7598 0030C5E5 		strb	r3, [r5, #0]
 8703 759c FEFFFFEB 		bl	uart1_transmit
 8704 75a0 0000D6E5 		ldrb	r0, [r6, #0]	@ zero_extendqisi2
 8705 75a4 0030D4E5 		ldrb	r3, [r4, #0]	@ zero_extendqisi2
 8706 75a8 033080E0 		add	r3, r0, r3
 8707 75ac 0030C4E5 		strb	r3, [r4, #0]
 8708 75b0 0030D5E5 		ldrb	r3, [r5, #0]	@ zero_extendqisi2
 8709 75b4 0020D4E5 		ldrb	r2, [r4, #0]	@ zero_extendqisi2
 8710 75b8 023083E0 		add	r3, r3, r2
 8711 75bc 0030C5E5 		strb	r3, [r5, #0]
 8712 75c0 FEFFFFEB 		bl	uart1_transmit
 8713 75c4 0100D6E5 		ldrb	r0, [r6, #1]	@ zero_extendqisi2
 8714 75c8 0030D4E5 		ldrb	r3, [r4, #0]	@ zero_extendqisi2
 8715 75cc 033080E0 		add	r3, r0, r3
 8716 75d0 0030C4E5 		strb	r3, [r4, #0]
 8717 75d4 0030D5E5 		ldrb	r3, [r5, #0]	@ zero_extendqisi2
 8718 75d8 0020D4E5 		ldrb	r2, [r4, #0]	@ zero_extendqisi2
 8719 75dc 023083E0 		add	r3, r3, r2
 8720 75e0 0030C5E5 		strb	r3, [r5, #0]
 8721 75e4 FEFFFFEB 		bl	uart1_transmit
 8722 75e8 0200D6E5 		ldrb	r0, [r6, #2]	@ zero_extendqisi2
 8723 75ec 0030D4E5 		ldrb	r3, [r4, #0]	@ zero_extendqisi2
 8724 75f0 033080E0 		add	r3, r0, r3
 8725 75f4 0030C4E5 		strb	r3, [r4, #0]
 8726 75f8 0030D5E5 		ldrb	r3, [r5, #0]	@ zero_extendqisi2
 8727 75fc 0020D4E5 		ldrb	r2, [r4, #0]	@ zero_extendqisi2
 8728 7600 023083E0 		add	r3, r3, r2
 8729 7604 0030C5E5 		strb	r3, [r5, #0]
 8730 7608 FEFFFFEB 		bl	uart1_transmit
 8731 760c 0300D6E5 		ldrb	r0, [r6, #3]	@ zero_extendqisi2
 8732 7610 0030D4E5 		ldrb	r3, [r4, #0]	@ zero_extendqisi2
 8733 7614 033080E0 		add	r3, r0, r3
 8734 7618 0030C4E5 		strb	r3, [r4, #0]
 8735 761c 0030D5E5 		ldrb	r3, [r5, #0]	@ zero_extendqisi2
 8736 7620 0020D4E5 		ldrb	r2, [r4, #0]	@ zero_extendqisi2
 8737 7624 48681FE5 		ldr	r6, .L372+132
 8738 7628 023083E0 		add	r3, r3, r2
 8739 762c 0030C5E5 		strb	r3, [r5, #0]
 8740 7630 FEFFFFEB 		bl	uart1_transmit
 8741 7634 0000D6E5 		ldrb	r0, [r6, #0]	@ zero_extendqisi2
 8742 7638 0030D4E5 		ldrb	r3, [r4, #0]	@ zero_extendqisi2
 8743 763c 033080E0 		add	r3, r0, r3
 8744 7640 0030C4E5 		strb	r3, [r4, #0]
 8745 7644 0030D5E5 		ldrb	r3, [r5, #0]	@ zero_extendqisi2
 8746 7648 0020D4E5 		ldrb	r2, [r4, #0]	@ zero_extendqisi2
 8747 764c 023083E0 		add	r3, r3, r2
 8748 7650 0030C5E5 		strb	r3, [r5, #0]
 8749 7654 FEFFFFEB 		bl	uart1_transmit
 8750 7658 0100D6E5 		ldrb	r0, [r6, #1]	@ zero_extendqisi2
 8751 765c 0030D4E5 		ldrb	r3, [r4, #0]	@ zero_extendqisi2
 8752 7660 033080E0 		add	r3, r0, r3
 8753 7664 0030C4E5 		strb	r3, [r4, #0]
 8754 7668 0030D5E5 		ldrb	r3, [r5, #0]	@ zero_extendqisi2
 8755 766c 0020D4E5 		ldrb	r2, [r4, #0]	@ zero_extendqisi2
 8756 7670 023083E0 		add	r3, r3, r2
 8757 7674 0030C5E5 		strb	r3, [r5, #0]
 8758 7678 FEFFFFEB 		bl	uart1_transmit
 8759 767c 0200D6E5 		ldrb	r0, [r6, #2]	@ zero_extendqisi2
 8760 7680 0030D4E5 		ldrb	r3, [r4, #0]	@ zero_extendqisi2
 8761 7684 033080E0 		add	r3, r0, r3
 8762 7688 0030C4E5 		strb	r3, [r4, #0]
 8763 768c 0030D5E5 		ldrb	r3, [r5, #0]	@ zero_extendqisi2
 8764 7690 0020D4E5 		ldrb	r2, [r4, #0]	@ zero_extendqisi2
 8765 7694 023083E0 		add	r3, r3, r2
 8766 7698 0030C5E5 		strb	r3, [r5, #0]
 8767 769c FEFFFFEB 		bl	uart1_transmit
 8768 76a0 0300D6E5 		ldrb	r0, [r6, #3]	@ zero_extendqisi2
 8769 76a4 0030D4E5 		ldrb	r3, [r4, #0]	@ zero_extendqisi2
 8770 76a8 033080E0 		add	r3, r0, r3
 8771 76ac 0030C4E5 		strb	r3, [r4, #0]
 8772 76b0 0030D5E5 		ldrb	r3, [r5, #0]	@ zero_extendqisi2
 8773 76b4 0020D4E5 		ldrb	r2, [r4, #0]	@ zero_extendqisi2
 8774 76b8 D8681FE5 		ldr	r6, .L372+136
 8775 76bc 023083E0 		add	r3, r3, r2
 8776 76c0 0030C5E5 		strb	r3, [r5, #0]
 8777 76c4 FEFFFFEB 		bl	uart1_transmit
 8778 76c8 0000D6E5 		ldrb	r0, [r6, #0]	@ zero_extendqisi2
 8779 76cc 0030D4E5 		ldrb	r3, [r4, #0]	@ zero_extendqisi2
 8780 76d0 033080E0 		add	r3, r0, r3
 8781 76d4 0030C4E5 		strb	r3, [r4, #0]
 8782 76d8 0030D5E5 		ldrb	r3, [r5, #0]	@ zero_extendqisi2
 8783 76dc 0020D4E5 		ldrb	r2, [r4, #0]	@ zero_extendqisi2
 8784 76e0 023083E0 		add	r3, r3, r2
 8785 76e4 0030C5E5 		strb	r3, [r5, #0]
 8786 76e8 FEFFFFEB 		bl	uart1_transmit
 8787 76ec 0100D6E5 		ldrb	r0, [r6, #1]	@ zero_extendqisi2
 8788 76f0 0030D4E5 		ldrb	r3, [r4, #0]	@ zero_extendqisi2
 8789 76f4 033080E0 		add	r3, r0, r3
 8790 76f8 0030C4E5 		strb	r3, [r4, #0]
 8791 76fc 0030D5E5 		ldrb	r3, [r5, #0]	@ zero_extendqisi2
 8792 7700 0020D4E5 		ldrb	r2, [r4, #0]	@ zero_extendqisi2
 8793 7704 023083E0 		add	r3, r3, r2
 8794 7708 0030C5E5 		strb	r3, [r5, #0]
 8795 770c FEFFFFEB 		bl	uart1_transmit
 8796 7710 0200D6E5 		ldrb	r0, [r6, #2]	@ zero_extendqisi2
 8797 7714 0030D4E5 		ldrb	r3, [r4, #0]	@ zero_extendqisi2
 8798 7718 033080E0 		add	r3, r0, r3
 8799 771c 0030C4E5 		strb	r3, [r4, #0]
 8800 7720 0030D5E5 		ldrb	r3, [r5, #0]	@ zero_extendqisi2
 8801 7724 0020D4E5 		ldrb	r2, [r4, #0]	@ zero_extendqisi2
 8802 7728 023083E0 		add	r3, r3, r2
 8803 772c 0030C5E5 		strb	r3, [r5, #0]
 8804 7730 FEFFFFEB 		bl	uart1_transmit
 8805 7734 0300D6E5 		ldrb	r0, [r6, #3]	@ zero_extendqisi2
 8806 7738 0030D4E5 		ldrb	r3, [r4, #0]	@ zero_extendqisi2
 8807 773c 033080E0 		add	r3, r0, r3
 8808 7740 0030C4E5 		strb	r3, [r4, #0]
 8809 7744 0030D5E5 		ldrb	r3, [r5, #0]	@ zero_extendqisi2
 8810 7748 0020D4E5 		ldrb	r2, [r4, #0]	@ zero_extendqisi2
 8811 774c 68691FE5 		ldr	r6, .L372+140
 8812 7750 023083E0 		add	r3, r3, r2
 8813 7754 0030C5E5 		strb	r3, [r5, #0]
 8814 7758 FEFFFFEB 		bl	uart1_transmit
 8815 775c 0000D6E5 		ldrb	r0, [r6, #0]	@ zero_extendqisi2
 8816 7760 0030D4E5 		ldrb	r3, [r4, #0]	@ zero_extendqisi2
 8817 7764 033080E0 		add	r3, r0, r3
 8818 7768 0030C4E5 		strb	r3, [r4, #0]
 8819 776c 0030D5E5 		ldrb	r3, [r5, #0]	@ zero_extendqisi2
 8820 7770 0020D4E5 		ldrb	r2, [r4, #0]	@ zero_extendqisi2
 8821 7774 023083E0 		add	r3, r3, r2
 8822 7778 0030C5E5 		strb	r3, [r5, #0]
 8823 777c FEFFFFEB 		bl	uart1_transmit
 8824 7780 0100D6E5 		ldrb	r0, [r6, #1]	@ zero_extendqisi2
 8825 7784 0030D4E5 		ldrb	r3, [r4, #0]	@ zero_extendqisi2
 8826 7788 033080E0 		add	r3, r0, r3
 8827 778c 0030C4E5 		strb	r3, [r4, #0]
 8828 7790 0030D5E5 		ldrb	r3, [r5, #0]	@ zero_extendqisi2
 8829 7794 0020D4E5 		ldrb	r2, [r4, #0]	@ zero_extendqisi2
 8830 7798 023083E0 		add	r3, r3, r2
 8831 779c 0030C5E5 		strb	r3, [r5, #0]
 8832 77a0 FEFFFFEB 		bl	uart1_transmit
 8833 77a4 0200D6E5 		ldrb	r0, [r6, #2]	@ zero_extendqisi2
 8834 77a8 0030D4E5 		ldrb	r3, [r4, #0]	@ zero_extendqisi2
 8835 77ac 033080E0 		add	r3, r0, r3
 8836 77b0 0030C4E5 		strb	r3, [r4, #0]
 8837 77b4 0030D5E5 		ldrb	r3, [r5, #0]	@ zero_extendqisi2
 8838 77b8 0020D4E5 		ldrb	r2, [r4, #0]	@ zero_extendqisi2
 8839 77bc 023083E0 		add	r3, r3, r2
 8840 77c0 0030C5E5 		strb	r3, [r5, #0]
 8841 77c4 FEFFFFEB 		bl	uart1_transmit
 8842 77c8 0300D6E5 		ldrb	r0, [r6, #3]	@ zero_extendqisi2
 8843 77cc 0030D4E5 		ldrb	r3, [r4, #0]	@ zero_extendqisi2
 8844 77d0 033080E0 		add	r3, r0, r3
 8845 77d4 0030C4E5 		strb	r3, [r4, #0]
 8846 77d8 0030D5E5 		ldrb	r3, [r5, #0]	@ zero_extendqisi2
 8847 77dc 0020D4E5 		ldrb	r2, [r4, #0]	@ zero_extendqisi2
 8848 77e0 F8691FE5 		ldr	r6, .L372+144
 8849 77e4 023083E0 		add	r3, r3, r2
 8850 77e8 0030C5E5 		strb	r3, [r5, #0]
 8851 77ec FEFFFFEB 		bl	uart1_transmit
 8852 77f0 0000D6E5 		ldrb	r0, [r6, #0]	@ zero_extendqisi2
 8853 77f4 0030D4E5 		ldrb	r3, [r4, #0]	@ zero_extendqisi2
 8854 77f8 033080E0 		add	r3, r0, r3
 8855 77fc 0030C4E5 		strb	r3, [r4, #0]
 8856 7800 0030D5E5 		ldrb	r3, [r5, #0]	@ zero_extendqisi2
 8857 7804 0020D4E5 		ldrb	r2, [r4, #0]	@ zero_extendqisi2
 8858 7808 023083E0 		add	r3, r3, r2
 8859 780c 0030C5E5 		strb	r3, [r5, #0]
 8860 7810 FEFFFFEB 		bl	uart1_transmit
 8861 7814 0100D6E5 		ldrb	r0, [r6, #1]	@ zero_extendqisi2
 8862 7818 0030D4E5 		ldrb	r3, [r4, #0]	@ zero_extendqisi2
 8863 781c 033080E0 		add	r3, r0, r3
 8864 7820 0030C4E5 		strb	r3, [r4, #0]
 8865 7824 0030D5E5 		ldrb	r3, [r5, #0]	@ zero_extendqisi2
 8866 7828 0020D4E5 		ldrb	r2, [r4, #0]	@ zero_extendqisi2
 8867 782c 023083E0 		add	r3, r3, r2
 8868 7830 0030C5E5 		strb	r3, [r5, #0]
 8869 7834 FEFFFFEB 		bl	uart1_transmit
 8870 7838 0200D6E5 		ldrb	r0, [r6, #2]	@ zero_extendqisi2
 8871 783c 0030D4E5 		ldrb	r3, [r4, #0]	@ zero_extendqisi2
 8872 7840 033080E0 		add	r3, r0, r3
 8873 7844 0030C4E5 		strb	r3, [r4, #0]
 8874 7848 0030D5E5 		ldrb	r3, [r5, #0]	@ zero_extendqisi2
 8875 784c 0020D4E5 		ldrb	r2, [r4, #0]	@ zero_extendqisi2
 8876 7850 023083E0 		add	r3, r3, r2
 8877 7854 0030C5E5 		strb	r3, [r5, #0]
 8878 7858 FEFFFFEB 		bl	uart1_transmit
 8879 785c 0300D6E5 		ldrb	r0, [r6, #3]	@ zero_extendqisi2
 8880 7860 0030D4E5 		ldrb	r3, [r4, #0]	@ zero_extendqisi2
 8881 7864 033080E0 		add	r3, r0, r3
 8882 7868 0030C4E5 		strb	r3, [r4, #0]
 8883 786c 0030D5E5 		ldrb	r3, [r5, #0]	@ zero_extendqisi2
 8884 7870 0020D4E5 		ldrb	r2, [r4, #0]	@ zero_extendqisi2
 8885 7874 023083E0 		add	r3, r3, r2
 8886 7878 0030C5E5 		strb	r3, [r5, #0]
 8887 787c FEFFFFEB 		bl	uart1_transmit
 8888 7880 0000D4E5 		ldrb	r0, [r4, #0]	@ zero_extendqisi2
 8889 7884 FEFFFFEB 		bl	uart1_transmit
 8890 7888 0000D5E5 		ldrb	r0, [r5, #0]	@ zero_extendqisi2
 8891 788c FEFFFFEB 		bl	uart1_transmit
 8892              	.L308:
 8893 7890 A42A1FE5 		ldr	r2, .L372+148
 8894 7894 0040D2E5 		ldrb	r4, [r2, #0]	@ zero_extendqisi2
 8895 7898 000054E3 		cmp	r4, #0
 8896 789c 521E001A 		bne	.L309
 8897 78a0 B02A1FE5 		ldr	r2, .L372+152
 8898 78a4 B030D2E1 		ldrh	r3, [r2, #0]
 8899 78a8 000053E3 		cmp	r3, #0
 8900 78ac 01308312 		addne	r3, r3, #1
 8901 78b0 B030C211 		strneh	r3, [r2, #0]	@ movhi 
 8902 78b4 C03A1FE5 		ldr	r3, .L372+156
 8903 78b8 B020D3E1 		ldrh	r2, [r3, #0]
 8904 78bc C41A1FE5 		ldr	r1, .L372+160
 8905 78c0 012082E2 		add	r2, r2, #1
 8906 78c4 B020C3E1 		strh	r2, [r3, #0]	@ movhi 
 8907 78c8 0000D1E5 		ldrb	r0, [r1, #0]	@ zero_extendqisi2
 8908 78cc FEFFFFEB 		bl	__floatsidf
 8909 78d0 922F8FE2 		adr	r2, .L375
 8910 78d4 0C0092E8 		ldmia	r2, {r2-r3}
 8911 78d8 FEFFFFEB 		bl	__ltdf2
 8912 78dc 44229FE5 		ldr	r2, .L375+8
 8913 78e0 000050E3 		cmp	r0, #0
 8914 78e4 0030D2B5 		ldrltb	r3, [r2, #0]	@ zero_extendqisi2
 8915 78e8 013083B2 		addlt	r3, r3, #1
 8916 78ec 0030C2B5 		strltb	r3, [r2, #0]
 8917 78f0 34329FE5 		ldr	r3, .L375+12
 8918 78f4 0040C2A5 		strgeb	r4, [r2, #0]
 8919 78f8 30029FE5 		ldr	r0, .L375+16
 8920 78fc 0010D3E5 		ldrb	r1, [r3, #0]	@ zero_extendqisi2
 8921 7900 20329FE5 		ldr	r3, .L375+8
 8922 7904 0020D3E5 		ldrb	r2, [r3, #0]	@ zero_extendqisi2
 8923 7908 0030D0E5 		ldrb	r3, [r0, #0]	@ zero_extendqisi2
 8924 790c 1C629FE5 		ldr	r6, .L375+16
 8925 7910 040052E3 		cmp	r2, #4
 8926 7914 01308383 		orrhi	r3, r3, #1
 8927 7918 000051E3 		cmp	r1, #0
 8928 791c 0030C0E5 		strb	r3, [r0, #0]
 8929 7920 0650A0E1 		mov	r5, r6
 8930 7924 0040A0E3 		mov	r4, #0
 8931 7928 4F1E000A 		beq	.L314
 8932 792c 00329FE5 		ldr	r3, .L375+20
 8933 7930 00129FE5 		ldr	r1, .L375+24
 8934 7934 000093E5 		ldr	r0, [r3, #0]	@ float
 8935 7938 FEFFFFEB 		bl	__gtsf2
 8936 793c 000050E3 		cmp	r0, #0
 8937 7940 0140A0C3 		movgt	r4, #1
 8938              	.L314:
 8939 7944 0030D5E5 		ldrb	r3, [r5, #0]	@ zero_extendqisi2
 8940 7948 043083E1 		orr	r3, r3, r4
 8941 794c 0030C6E5 		strb	r3, [r6, #0]
 8942              	.L309:
 8943 7950 E4319FE5 		ldr	r3, .L375+28
 8944 7954 0040D3E5 		ldrb	r4, [r3, #0]	@ zero_extendqisi2
 8945 7958 000054E3 		cmp	r4, #0
 8946 795c 591E000A 		beq	.L317
 8947 7960 010054E3 		cmp	r4, #1
 8948 7964 5C1E000A 		beq	.L318
 8949 7968 A51E00EA 		b	.L316
 8950              	.L317:
 8951 796c FEFFFFEB 		bl	estimator_propagate_state
 8952 7970 FEFFFFEB 		bl	navigation_task
 8953 7974 A51E00EA 		b	.L316
 8954              	.L318:
 8955 7978 C0519FE5 		ldr	r5, .L375+32
 8956 797c B030D5E1 		ldrh	r3, [r5, #0]
 8957 7980 000053E3 		cmp	r3, #0
 8958 7984 A51E001A 		bne	.L316
 8959 7988 B4319FE5 		ldr	r3, .L375+36
 8960 798c B4119FE5 		ldr	r1, .L375+40
 8961 7990 000093E5 		ldr	r0, [r3, #0]	@ float
 8962 7994 FEFFFFEB 		bl	__gtsf2
 8963 7998 000050E3 		cmp	r0, #0
 8964 799c A51E00DA 		ble	.L316
 8965 79a0 84319FE5 		ldr	r3, .L375+12
 8966 79a4 0800A0E3 		mov	r0, #8
 8967 79a8 0040C3E5 		strb	r4, [r3, #0]
 8968 79ac B040C5E1 		strh	r4, [r5, #0]	@ movhi 
 8969 79b0 FEFFFFEB 		bl	uart1_check_free_space
 8970 79b4 FF0010E3 		tst	r0, #255
 8971 79b8 8C219F05 		ldreq	r2, .L375+44
 8972 79bc 0030D205 		ldreqb	r3, [r2, #0]	@ zero_extendqisi2
 8973 79c0 01308302 		addeq	r3, r3, #1
 8974 79c4 0030C205 		streqb	r3, [r2, #0]
 8975 79c8 A51E000A 		beq	.L316
 8976 79cc 7C119FE5 		ldr	r1, .L375+48
 8977 79d0 7CC19FE5 		ldr	ip, .L375+52
 8978 79d4 B030D1E1 		ldrh	r3, [r1, #0]
 8979 79d8 B020DCE1 		ldrh	r2, [ip, #0]
 8980 79dc 083083E2 		add	r3, r3, #8
 8981 79e0 012082E2 		add	r2, r2, #1
 8982 79e4 B030C1E1 		strh	r3, [r1, #0]	@ movhi 
 8983 79e8 B020CCE1 		strh	r2, [ip, #0]	@ movhi 
 8984 79ec 9900A0E3 		mov	r0, #153
 8985 79f0 60419FE5 		ldr	r4, .L375+56
 8986 79f4 FEFFFFEB 		bl	uart1_transmit
 8987 79f8 0800A0E3 		mov	r0, #8
 8988 79fc 58519FE5 		ldr	r5, .L375+60
 8989 7a00 FEFFFFEB 		bl	uart1_transmit
 8990 7a04 0C30A0E3 		mov	r3, #12
 8991 7a08 0030C4E5 		strb	r3, [r4, #0]
 8992 7a0c 083083E2 		add	r3, r3, #8
 8993 7a10 0400A0E3 		mov	r0, #4
 8994 7a14 0030C5E5 		strb	r3, [r5, #0]
 8995 7a18 FEFFFFEB 		bl	uart1_transmit
 8996 7a1c 0030D4E5 		ldrb	r3, [r4, #0]	@ zero_extendqisi2
 8997 7a20 043083E2 		add	r3, r3, #4
 8998 7a24 0030C4E5 		strb	r3, [r4, #0]
 8999 7a28 0030D5E5 		ldrb	r3, [r5, #0]	@ zero_extendqisi2
 9000 7a2c 0020D4E5 		ldrb	r2, [r4, #0]	@ zero_extendqisi2
 9001 7a30 28619FE5 		ldr	r6, .L375+64
 9002 7a34 023083E0 		add	r3, r3, r2
 9003 7a38 0400A0E3 		mov	r0, #4
 9004 7a3c 0030C5E5 		strb	r3, [r5, #0]
 9005 7a40 FEFFFFEB 		bl	uart1_transmit
 9006 7a44 0000D6E5 		ldrb	r0, [r6, #0]	@ zero_extendqisi2
 9007 7a48 0030D4E5 		ldrb	r3, [r4, #0]	@ zero_extendqisi2
 9008 7a4c 033080E0 		add	r3, r0, r3
 9009 7a50 0030C4E5 		strb	r3, [r4, #0]
 9010 7a54 0030D5E5 		ldrb	r3, [r5, #0]	@ zero_extendqisi2
 9011 7a58 0020D4E5 		ldrb	r2, [r4, #0]	@ zero_extendqisi2
 9012 7a5c 023083E0 		add	r3, r3, r2
 9013 7a60 0030C5E5 		strb	r3, [r5, #0]
 9014 7a64 FEFFFFEB 		bl	uart1_transmit
 9015 7a68 0100D6E5 		ldrb	r0, [r6, #1]	@ zero_extendqisi2
 9016 7a6c 0030D4E5 		ldrb	r3, [r4, #0]	@ zero_extendqisi2
 9017 7a70 033080E0 		add	r3, r0, r3
 9018 7a74 0030C4E5 		strb	r3, [r4, #0]
 9019 7a78 0030D5E5 		ldrb	r3, [r5, #0]	@ zero_extendqisi2
 9020 7a7c 0020D4E5 		ldrb	r2, [r4, #0]	@ zero_extendqisi2
 9021 7a80 023083E0 		add	r3, r3, r2
 9022 7a84 0030C5E5 		strb	r3, [r5, #0]
 9023 7a88 FEFFFFEB 		bl	uart1_transmit
 9024 7a8c 0000D4E5 		ldrb	r0, [r4, #0]	@ zero_extendqisi2
 9025 7a90 FEFFFFEB 		bl	uart1_transmit
 9026 7a94 0000D5E5 		ldrb	r0, [r5, #0]	@ zero_extendqisi2
 9027 7a98 FEFFFFEB 		bl	uart1_transmit
 9028              	.L316:
 9029 7a9c FEFFFFEB 		bl	gyro_update
 9030 7aa0 FEFFFFEB 		bl	infrared_update
 9031 7aa4 FEFFFFEB 		bl	estimator_update_state_infrared
 9032 7aa8 FEFFFFEB 		bl	h_ctl_attitude_loop
 9033 7aac FEFFFFEB 		bl	v_ctl_throttle_slew
 9034 7ab0 AC309FE5 		ldr	r3, .L375+68
 9035 7ab4 002093E5 		ldr	r2, [r3, #0]
 9036 7ab8 A8309FE5 		ldr	r3, .L375+72
 9037 7abc A8009FE5 		ldr	r0, .L375+76
 9038 7ac0 B030D3E1 		ldrh	r3, [r3, #0]
 9039 7ac4 0010D0E5 		ldrb	r1, [r0, #0]	@ zero_extendqisi2
 9040 7ac8 B030C2E1 		strh	r3, [r2, #0]	@ movhi 
 9041 7acc 9C309FE5 		ldr	r3, .L375+80
 9042 7ad0 B030D3E1 		ldrh	r3, [r3, #0]
 9043 7ad4 B230C2E1 		strh	r3, [r2, #2]	@ movhi 
 9044 7ad8 94309FE5 		ldr	r3, .L375+84
 9045 7adc B030D3E1 		ldrh	r3, [r3, #0]
 9046 7ae0 011081E2 		add	r1, r1, #1
 9047 7ae4 B430C2E1 		strh	r3, [r2, #4]	@ movhi 
 9048 7ae8 0010C0E5 		strb	r1, [r0, #0]
 9049 7aec 0030D0E5 		ldrb	r3, [r0, #0]	@ zero_extendqisi2
 9050 7af0 050053E3 		cmp	r3, #5
 9051 7af4 7C309FE5 		ldr	r3, .L375+88
 9052 7af8 0120A0E3 		mov	r2, #1
 9053 7afc 0020C3E5 		strb	r2, [r3, #0]
 9054 7b00 0030A083 		movhi	r3, #0
 9055 7b04 0030C085 		strhib	r3, [r0, #0]
 9056 7b08 0030D0E5 		ldrb	r3, [r0, #0]	@ zero_extendqisi2
 9057 7b0c 000053E3 		cmp	r3, #0
 9058 7b10 FEFFFF0B 		bleq	airspeed_ets_read_periodic
 9059              	.L39:
 9060 7b14 28D04BE2 		sub	sp, fp, #40
 9061 7b18 F06F9DE8 		ldmfd	sp, {r4, r5, r6, r7, r8, r9, sl, fp, sp, lr}
 9062 7b1c 1EFF2FE1 		bx	lr
 9063              	.L376:
 9064              		.align	2
 9065              	.L375:
 9066 7b20 00805B40 		.word	1079738368
 9067 7b24 00000000 		.word	0
 9068 7b28 00000000 		.word	t.9
 9069 7b2c 00000000 		.word	launch
 9070 7b30 00000000 		.word	kill_throttle
 9071 7b34 00000000 		.word	dist2_to_home
 9072 7b38 C87E9A4C 		.word	1285193416
 9073 7b3c 00000000 		.word	_4Hz.7
 9074 7b40 00000000 		.word	estimator_flight_time
 9075 7b44 00000000 		.word	estimator_hspeed_mod
 9076 7b48 0000A040 		.word	1084227584
 9077 7b4c 00000000 		.word	downlink_nb_ovrn
 9078 7b50 00000000 		.word	downlink_nb_bytes
 9079 7b54 00000000 		.word	downlink_nb_msgs
 9080 7b58 00000000 		.word	ck_a
 9081 7b5c 00000000 		.word	ck_b
 9082 7b60 00000000 		.word	cpu_time_sec
 9083 7b64 00000000 		.word	ap_state
 9084 7b68 00000000 		.word	v_ctl_throttle_slewed
 9085 7b6c 00000000 		.word	i6.56
 9086 7b70 00000000 		.word	h_ctl_aileron_setpoint
 9087 7b74 00000000 		.word	h_ctl_elevator_setpoint
 9088 7b78 00000000 		.word	inter_mcu_received_ap
 9090              		.global	__adddf3
 9091              		.section	.text.init_ap,"ax",%progbits
 9092              		.align	2
 9093              		.global	init_ap
 9095              	init_ap:
 9096              		@ Function supports interworking.
 9097              		@ args = 0, pretend = 0, frame = 0
 9098              		@ frame_needed = 1, uses_anonymous_args = 0
 9099 0000 0DC0A0E1 		mov	ip, sp
 9100 0004 00D82DE9 		stmfd	sp!, {fp, ip, lr, pc}
 9101 0008 04B04CE2 		sub	fp, ip, #4
 9102 000c FEFFFFEB 		bl	infrared_init
 9103 0010 FEFFFFEB 		bl	gyro_init
 9104 0014 FEFFFFEB 		bl	gps_init
 9105 0018 FEFFFFEB 		bl	h_ctl_init
 9106 001c FEFFFFEB 		bl	v_ctl_init
 9107 0020 FEFFFFEB 		bl	estimator_init
 9108 0024 FEFFFFEB 		bl	alt_kalman_init
 9109 0028 FEFFFFEB 		bl	nav_init
 9110 002c FEFFFFEB 		bl	airspeed_ets_init
 9111 0030 FEFFFFEB 		bl	settings_init
 9112 0034 FEFFFFEB 		bl	enableIRQ
 9113 0038 30309FE5 		ldr	r3, .L384
 9114 003c 30109FE5 		ldr	r1, .L384+4
 9115 0040 082093E5 		ldr	r2, [r3, #8]
 9116              	.L380:
 9117 0044 24309FE5 		ldr	r3, .L384
 9118 0048 083093E5 		ldr	r3, [r3, #8]
 9119 004c 033062E0 		rsb	r3, r2, r3
 9120 0050 010053E1 		cmp	r3, r1
 9121 0054 0F00003A 		bcc	.L380
 9122 0058 18309FE5 		ldr	r3, .L384+8
 9123 005c 0020A0E3 		mov	r2, #0
 9124 0060 0020C3E5 		strb	r2, [r3, #0]
 9125 0064 FEFFFFEB 		bl	traffic_info_init
 9126 0068 00689DE8 		ldmfd	sp, {fp, sp, lr}
 9127 006c 1EFF2FE1 		bx	lr
 9128              	.L385:
 9129              		.align	2
 9130              	.L384:
 9131 0070 004000E0 		.word	-536854528
 9132 0074 E0707200 		.word	7500000
 9133 0078 00000000 		.word	power_switch
 9135              		.section	.data.pprz_status.0,"aw",%progbits
 9138              	pprz_status.0:
 9139 0000 00       		.byte	0
 9140              		.section	.bss._ck_a.1,"aw",%nobits
 9143              	_ck_a.1:
 9144 0000 00       		.space	1
 9145              		.section	.bss._ck_b.2,"aw",%nobits
 9148              	_ck_b.2:
 9149 0000 00       		.space	1
 9150              		.section	.bss.payload_idx.3,"aw",%nobits
 9153              	payload_idx.3:
 9154 0000 00       		.space	1
 9155              		.global	__truncdfsf2
 9156              		.section	.text.event_task_ap,"ax",%progbits
 9157              		.align	2
 9158              		.global	event_task_ap
 9160              	event_task_ap:
 9161              		@ Function supports interworking.
 9162              		@ args = 0, pretend = 0, frame = 0
 9163              		@ frame_needed = 1, uses_anonymous_args = 0
 9164 0000 0DC0A0E1 		mov	ip, sp
 9165 0004 F0D82DE9 		stmfd	sp!, {r4, r5, r6, r7, fp, ip, lr, pc}
 9166 0008 04B04CE2 		sub	fp, ip, #4
 9167 000c FEFFFFEB 		bl	infrared_event
 9168 0010 B8569FE5 		ldr	r5, .L459+24
 9169 0014 B8C69FE5 		ldr	ip, .L459+28
 9170 0018 B020D5E1 		ldrh	r2, [r5, #0]
 9171 001c B030DCE1 		ldrh	r3, [ip, #0]
 9172 0020 030052E1 		cmp	r2, r3
 9173 0024 1800000A 		beq	.L387
 9174 0028 A8469FE5 		ldr	r4, .L459+32
 9175              	.L453:
 9176 002c 0030D4E5 		ldrb	r3, [r4, #0]	@ zero_extendqisi2
 9177 0030 000053E3 		cmp	r3, #0
 9178 0034 1800001A 		bne	.L387
 9179 0038 B010DCE1 		ldrh	r1, [ip, #0]
 9180 003c 98269FE5 		ldr	r2, .L459+36
 9181 0040 013081E2 		add	r3, r1, #1
 9182 0044 7F3003E2 		and	r3, r3, #127
 9183 0048 B030CCE1 		strh	r3, [ip, #0]	@ movhi 
 9184 004c 0100D2E7 		ldrb	r0, [r2, r1]	@ zero_extendqisi2
 9185 0050 FEFFFFEB 		bl	parse_ubx
 9186 0054 78C69FE5 		ldr	ip, .L459+28
 9187 0058 B020D5E1 		ldrh	r2, [r5, #0]
 9188 005c B030DCE1 		ldrh	r3, [ip, #0]
 9189 0060 030052E1 		cmp	r2, r3
 9190 0064 0900001A 		bne	.L453
 9191              	.L387:
 9192 0068 68469FE5 		ldr	r4, .L459+32
 9193 006c 0030D4E5 		ldrb	r3, [r4, #0]	@ zero_extendqisi2
 9194 0070 000053E3 		cmp	r3, #0
 9195 0074 3C00000A 		beq	.L391
 9196 0078 60569FE5 		ldr	r5, .L459+40
 9197 007c FEFFFFEB 		bl	parse_gps_msg
 9198 0080 0030D5E5 		ldrb	r3, [r5, #0]	@ zero_extendqisi2
 9199 0084 000053E3 		cmp	r3, #0
 9200 0088 0030A0E3 		mov	r3, #0
 9201 008c 0030C4E5 		strb	r3, [r4, #0]
 9202 0090 3C00000A 		beq	.L391
 9203 0094 48369FE5 		ldr	r3, .L459+44
 9204 0098 0020D3E5 		ldrb	r2, [r3, #0]	@ zero_extendqisi2
 9205 009c 44369FE5 		ldr	r3, .L459+48
 9206 00a0 0030D3E5 		ldrb	r3, [r3, #0]	@ zero_extendqisi2
 9207 00a4 012072E2 		rsbs	r2, r2, #1
 9208 00a8 0020A033 		movcc	r2, #0
 9209 00ac 030053E3 		cmp	r3, #3
 9210 00b0 34369FE5 		ldr	r3, .L459+52
 9211 00b4 0020C3E5 		strb	r2, [r3, #0]
 9212 00b8 3900001A 		bne	.L393
 9213 00bc 2C369FE5 		ldr	r3, .L459+56
 9214 00c0 2C269FE5 		ldr	r2, .L459+60
 9215 00c4 B030D3E1 		ldrh	r3, [r3, #0]
 9216 00c8 B030C2E1 		strh	r3, [r2, #0]	@ movhi 
 9217 00cc FEFFFFEB 		bl	estimator_update_state_gps
 9218 00d0 20269FE5 		ldr	r2, .L459+64
 9219 00d4 103092E5 		ldr	r3, [r2, #16]
 9220 00d8 010813E3 		tst	r3, #65536
 9221 00dc 0138A013 		movne	r3, #65536
 9222 00e0 0138A003 		moveq	r3, #65536
 9223 00e4 1C308215 		strne	r3, [r2, #28]
 9224 00e8 14308205 		streq	r3, [r2, #20]
 9225              	.L393:
 9226 00ec FEFFFFEB 		bl	gps_downlink
 9227 00f0 0030A0E3 		mov	r3, #0
 9228 00f4 0030C5E5 		strb	r3, [r5, #0]
 9229              	.L391:
 9230 00f8 FC759FE5 		ldr	r7, .L459+68
 9231 00fc FC059FE5 		ldr	r0, .L459+72
 9232 0100 B030D7E1 		ldrh	r3, [r7, #0]
 9233 0104 B010D0E1 		ldrh	r1, [r0, #0]
 9234 0108 010053E1 		cmp	r3, r1
 9235 010c B300000A 		beq	.L396
 9236              	.L454:
 9237 0110 EC359FE5 		ldr	r3, .L459+76
 9238 0114 0030D3E5 		ldrb	r3, [r3, #0]	@ zero_extendqisi2
 9239 0118 000053E3 		cmp	r3, #0
 9240 011c 9C00001A 		bne	.L398
 9241 0120 E0659FE5 		ldr	r6, .L459+80
 9242 0124 013081E2 		add	r3, r1, #1
 9243 0128 7F3003E2 		and	r3, r3, #127
 9244 012c B030C0E1 		strh	r3, [r0, #0]	@ movhi 
 9245 0130 0020D6E5 		ldrb	r2, [r6, #0]	@ zero_extendqisi2
 9246 0134 D0359FE5 		ldr	r3, .L459+84
 9247 0138 0150D3E7 		ldrb	r5, [r3, r1]	@ zero_extendqisi2
 9248 013c 040052E3 		cmp	r2, #4
 9249 0140 02F19F97 		ldrls	pc, [pc, r2, asl #2]
 9250 0144 900000EA 		b	.L404
 9251              		.p2align 2
 9252              	.L413:
 9253 0148 5C010000 		.word	.L400
 9254 014c 64010000 		.word	.L402
 9255 0150 BC010000 		.word	.L405
 9256 0154 10020000 		.word	.L407
 9257 0158 2C020000 		.word	.L409
 9258              	.L400:
 9259 015c 990055E3 		cmp	r5, #153
 9260 0160 800000EA 		b	.L458
 9261              	.L402:
 9262 0164 98359FE5 		ldr	r3, .L459+76
 9263 0168 0030D3E5 		ldrb	r3, [r3, #0]	@ zero_extendqisi2
 9264 016c FF0003E2 		and	r0, r3, #255
 9265 0170 000050E3 		cmp	r0, #0
 9266 0174 94259F15 		ldrne	r2, .L459+88
 9267 0178 0030D215 		ldrneb	r3, [r2, #0]	@ zero_extendqisi2
 9268 017c 01308312 		addne	r3, r3, #1
 9269 0180 0030C215 		strneb	r3, [r2, #0]
 9270 0184 9000001A 		bne	.L404
 9271 0188 84359FE5 		ldr	r3, .L459+92
 9272 018c 041045E2 		sub	r1, r5, #4
 9273 0190 0010C3E5 		strb	r1, [r3, #0]
 9274 0194 7C359FE5 		ldr	r3, .L459+96
 9275 0198 0050C3E5 		strb	r5, [r3, #0]
 9276 019c 78359FE5 		ldr	r3, .L459+100
 9277 01a0 0020D6E5 		ldrb	r2, [r6, #0]	@ zero_extendqisi2
 9278 01a4 0000C3E5 		strb	r0, [r3, #0]
 9279 01a8 70359FE5 		ldr	r3, .L459+104
 9280 01ac 012082E2 		add	r2, r2, #1
 9281 01b0 0020C6E5 		strb	r2, [r6, #0]
 9282 01b4 0050C3E5 		strb	r5, [r3, #0]
 9283 01b8 960000EA 		b	.L397
 9284              	.L405:
 9285 01bc 54259FE5 		ldr	r2, .L459+96
 9286 01c0 54059FE5 		ldr	r0, .L459+100
 9287 01c4 0030D2E5 		ldrb	r3, [r2, #0]	@ zero_extendqisi2
 9288 01c8 0040D0E5 		ldrb	r4, [r0, #0]	@ zero_extendqisi2
 9289 01cc 033085E0 		add	r3, r5, r3
 9290 01d0 0030C2E5 		strb	r3, [r2, #0]
 9291 01d4 44C59FE5 		ldr	ip, .L459+104
 9292 01d8 34359FE5 		ldr	r3, .L459+92
 9293 01dc 011084E2 		add	r1, r4, #1
 9294 01e0 0010C0E5 		strb	r1, [r0, #0]
 9295 01e4 00E0D2E5 		ldrb	lr, [r2, #0]	@ zero_extendqisi2
 9296 01e8 0010D3E5 		ldrb	r1, [r3, #0]	@ zero_extendqisi2
 9297 01ec 0030DCE5 		ldrb	r3, [ip, #0]	@ zero_extendqisi2
 9298 01f0 0E3083E0 		add	r3, r3, lr
 9299 01f4 0030CCE5 		strb	r3, [ip, #0]
 9300 01f8 24359FE5 		ldr	r3, .L459+108
 9301 01fc 0020D0E5 		ldrb	r2, [r0, #0]	@ zero_extendqisi2
 9302 0200 0450C3E7 		strb	r5, [r3, r4]
 9303 0204 010052E1 		cmp	r2, r1
 9304              	.L458:
 9305 0208 9600001A 		bne	.L397
 9306 020c 860000EA 		b	.L457
 9307              	.L407:
 9308 0210 00359FE5 		ldr	r3, .L459+96
 9309 0214 0030D3E5 		ldrb	r3, [r3, #0]	@ zero_extendqisi2
 9310 0218 050053E1 		cmp	r3, r5
 9311 021c 9000001A 		bne	.L404
 9312              	.L457:
 9313 0220 0030D6E5 		ldrb	r3, [r6, #0]	@ zero_extendqisi2
 9314 0224 013083E2 		add	r3, r3, #1
 9315 0228 950000EA 		b	.L455
 9316              	.L409:
 9317 022c EC349FE5 		ldr	r3, .L459+104
 9318 0230 0030D3E5 		ldrb	r3, [r3, #0]	@ zero_extendqisi2
 9319 0234 050053E1 		cmp	r3, r5
 9320 0238 C4349F05 		ldreq	r3, .L459+76
 9321 023c 0120A003 		moveq	r2, #1
 9322 0240 0020C305 		streqb	r2, [r3, #0]
 9323 0244 9400000A 		beq	.L411
 9324              	.L404:
 9325 0248 D8249FE5 		ldr	r2, .L459+112
 9326 024c 0030D2E5 		ldrb	r3, [r2, #0]	@ zero_extendqisi2
 9327 0250 013083E2 		add	r3, r3, #1
 9328 0254 0030C2E5 		strb	r3, [r2, #0]
 9329              	.L411:
 9330 0258 0030A0E3 		mov	r3, #0
 9331              	.L455:
 9332 025c 0030C6E5 		strb	r3, [r6, #0]
 9333              	.L397:
 9334 0260 98349FE5 		ldr	r3, .L459+72
 9335 0264 B010D3E1 		ldrh	r1, [r3, #0]
 9336 0268 B030D7E1 		ldrh	r3, [r7, #0]
 9337 026c 010053E1 		cmp	r3, r1
 9338 0270 88049FE5 		ldr	r0, .L459+72
 9339 0274 4200001A 		bne	.L454
 9340              	.L398:
 9341 0278 84449FE5 		ldr	r4, .L459+76
 9342 027c 0030D4E5 		ldrb	r3, [r4, #0]	@ zero_extendqisi2
 9343 0280 000053E3 		cmp	r3, #0
 9344 0284 B300000A 		beq	.L396
 9345 0288 84E49FE5 		ldr	lr, .L459+92
 9346 028c 0030DEE5 		ldrb	r3, [lr, #0]	@ zero_extendqisi2
 9347 0290 000053E3 		cmp	r3, #0
 9348 0294 00C0A0E3 		mov	ip, #0
 9349 0298 AE00000A 		beq	.L452
 9350              	.L420:
 9351 029c 80349FE5 		ldr	r3, .L459+108
 9352 02a0 0C20D3E7 		ldrb	r2, [r3, ip]	@ zero_extendqisi2
 9353 02a4 80349FE5 		ldr	r3, .L459+116
 9354 02a8 01108CE2 		add	r1, ip, #1
 9355 02ac 0000DEE5 		ldrb	r0, [lr, #0]	@ zero_extendqisi2
 9356 02b0 0C20C3E7 		strb	r2, [r3, ip]
 9357 02b4 FFC001E2 		and	ip, r1, #255
 9358 02b8 0C0050E1 		cmp	r0, ip
 9359 02bc A500008A 		bhi	.L420
 9360              	.L452:
 9361 02c0 68249FE5 		ldr	r2, .L459+120
 9362 02c4 0130A0E3 		mov	r3, #1
 9363 02c8 0030C2E5 		strb	r3, [r2, #0]
 9364 02cc 013043E2 		sub	r3, r3, #1
 9365 02d0 0030C4E5 		strb	r3, [r4, #0]
 9366              	.L396:
 9367 02d4 54449FE5 		ldr	r4, .L459+120
 9368 02d8 0030D4E5 		ldrb	r3, [r4, #0]	@ zero_extendqisi2
 9369 02dc 000053E3 		cmp	r3, #0
 9370 02e0 BA00000A 		beq	.L422
 9371 02e4 FEFFFFEB 		bl	dl_parse_msg
 9372 02e8 0030A0E3 		mov	r3, #0
 9373 02ec 0030C4E5 		strb	r3, [r4, #0]
 9374              	.L422:
 9375 02f0 3C249FE5 		ldr	r2, .L459+124
 9376 02f4 0030D2E5 		ldrb	r3, [r2, #0]	@ zero_extendqisi2
 9377 02f8 000053E3 		cmp	r3, #0
 9378 02fc A601000A 		beq	.L423
 9379 0300 30749FE5 		ldr	r7, .L459+128
 9380 0304 0030A0E3 		mov	r3, #0
 9381 0308 0030C2E5 		strb	r3, [r2, #0]
 9382 030c 002097E5 		ldr	r2, [r7, #0]
 9383 0310 0F20D2E5 		ldrb	r2, [r2, #15]	@ zero_extendqisi2
 9384 0314 020012E3 		tst	r2, #2
 9385 0318 0300A0E1 		mov	r0, r3
 9386 031c 0320A0E1 		mov	r2, r3
 9387 0320 CC00000A 		beq	.L425
 9388 0324 10349FE5 		ldr	r3, .L459+132
 9389 0328 0030D3E5 		ldrb	r3, [r3, #0]	@ zero_extendqisi2
 9390 032c 010053E3 		cmp	r3, #1
 9391 0330 0020A083 		movhi	r2, #0
 9392 0334 0120A093 		movls	r2, #1
 9393              	.L425:
 9394 0338 FC139FE5 		ldr	r1, .L459+132
 9395 033c 0030D1E5 		ldrb	r3, [r1, #0]	@ zero_extendqisi2
 9396 0340 033043E2 		sub	r3, r3, #3
 9397 0344 010053E3 		cmp	r3, #1
 9398 0348 DF00009A 		bls	.L426
 9399 034c 90339FE5 		ldr	r3, .L459+44
 9400 0350 0030D3E5 		ldrb	r3, [r3, #0]	@ zero_extendqisi2
 9401 0354 000053E3 		cmp	r3, #0
 9402 0358 DF00000A 		beq	.L426
 9403 035c DC339FE5 		ldr	r3, .L459+136
 9404 0360 0030D3E5 		ldrb	r3, [r3, #0]	@ zero_extendqisi2
 9405 0364 000053E3 		cmp	r3, #0
 9406 0368 0330A013 		movne	r3, #3
 9407 036c 0030C115 		strneb	r3, [r1, #0]
 9408 0370 0100A013 		movne	r0, #1
 9409 0374 000052E3 		cmp	r2, #0
 9410 0378 0330A013 		movne	r3, #3
 9411 037c 0030C115 		strneb	r3, [r1, #0]
 9412 0380 0100A013 		movne	r0, #1
 9413              	.L426:
 9414 0384 002097E5 		ldr	r2, [r7, #0]
 9415 0388 0F30D2E5 		ldrb	r3, [r2, #15]	@ zero_extendqisi2
 9416 038c 100013E3 		tst	r3, #16
 9417 0390 F600000A 		beq	.L429
 9418 0394 0030D1E5 		ldrb	r3, [r1, #0]	@ zero_extendqisi2
 9419 0398 033043E2 		sub	r3, r3, #3
 9420 039c 010053E3 		cmp	r3, #1
 9421 03a0 0030A093 		movls	r3, #0
 9422 03a4 F500009A 		bls	.L435
 9423 03a8 FC30D2E1 		ldrsh	r3, [r2, #12]
 9424 03ac 4B0D53E3 		cmp	r3, #4800
 9425 03b0 0220A0C3 		movgt	r2, #2
 9426 03b4 EF0000CA 		bgt	.L432
 9427 03b8 4B0D73E3 		cmn	r3, #4800
 9428 03bc 0020A0D3 		movle	r2, #0
 9429 03c0 0120A0C3 		movgt	r2, #1
 9430              	.L432:
 9431 03c4 0030D1E5 		ldrb	r3, [r1, #0]	@ zero_extendqisi2
 9432 03c8 020053E1 		cmp	r3, r2
 9433 03cc 0130A013 		movne	r3, #1
 9434 03d0 0030A003 		moveq	r3, #0
 9435 03d4 0020C115 		strneb	r2, [r1, #0]
 9436 03d8 FF3003E2 		and	r3, r3, #255
 9437              	.L435:
 9438 03dc 030080E1 		orr	r0, r0, r3
 9439              	.L429:
 9440 03e0 003097E5 		ldr	r3, [r7, #0]
 9441 03e4 58639FE5 		ldr	r6, .L459+140
 9442 03e8 0F30D3E5 		ldrb	r3, [r3, #15]	@ zero_extendqisi2
 9443 03ec 0020D6E5 		ldrb	r2, [r6, #0]	@ zero_extendqisi2
 9444 03f0 FF1003E2 		and	r1, r3, #255
 9445 03f4 010052E1 		cmp	r2, r1
 9446 03f8 0020A003 		moveq	r2, #0
 9447 03fc 0301000A 		beq	.L438
 9448 0400 0F2002E2 		and	r2, r2, #15
 9449 0404 0F3003E2 		and	r3, r3, #15
 9450 0408 0010C6E5 		strb	r1, [r6, #0]
 9451 040c 032052E0 		subs	r2, r2, r3
 9452 0410 0120A013 		movne	r2, #1
 9453              	.L438:
 9454 0414 020090E1 		orrs	r0, r0, r2
 9455 0418 6901000A 		beq	.L439
 9456 041c 0C00A0E3 		mov	r0, #12
 9457 0420 FEFFFFEB 		bl	uart1_check_free_space
 9458 0424 FF0010E3 		tst	r0, #255
 9459 0428 18239F05 		ldreq	r2, .L459+144
 9460 042c 0030D205 		ldreqb	r3, [r2, #0]	@ zero_extendqisi2
 9461 0430 01308302 		addeq	r3, r3, #1
 9462 0434 0030C205 		streqb	r3, [r2, #0]
 9463 0438 6901000A 		beq	.L439
 9464 043c 08139FE5 		ldr	r1, .L459+148
 9465 0440 08C39FE5 		ldr	ip, .L459+152
 9466 0444 B030D1E1 		ldrh	r3, [r1, #0]
 9467 0448 B020DCE1 		ldrh	r2, [ip, #0]
 9468 044c 0C3083E2 		add	r3, r3, #12
 9469 0450 012082E2 		add	r2, r2, #1
 9470 0454 B030C1E1 		strh	r3, [r1, #0]	@ movhi 
 9471 0458 B020CCE1 		strh	r2, [ip, #0]	@ movhi 
 9472 045c 9900A0E3 		mov	r0, #153
 9473 0460 EC429FE5 		ldr	r4, .L459+156
 9474 0464 FEFFFFEB 		bl	uart1_transmit
 9475 0468 0C00A0E3 		mov	r0, #12
 9476 046c E4529FE5 		ldr	r5, .L459+160
 9477 0470 FEFFFFEB 		bl	uart1_transmit
 9478 0474 1030A0E3 		mov	r3, #16
 9479 0478 0030C4E5 		strb	r3, [r4, #0]
 9480 047c 0C3083E2 		add	r3, r3, #12
 9481 0480 0400A0E3 		mov	r0, #4
 9482 0484 0030C5E5 		strb	r3, [r5, #0]
 9483 0488 FEFFFFEB 		bl	uart1_transmit
 9484 048c 0030D4E5 		ldrb	r3, [r4, #0]	@ zero_extendqisi2
 9485 0490 0B3083E2 		add	r3, r3, #11
 9486 0494 0030C4E5 		strb	r3, [r4, #0]
 9487 0498 0030D5E5 		ldrb	r3, [r5, #0]	@ zero_extendqisi2
 9488 049c 0020D4E5 		ldrb	r2, [r4, #0]	@ zero_extendqisi2
 9489 04a0 023083E0 		add	r3, r3, r2
 9490 04a4 0B00A0E3 		mov	r0, #11
 9491 04a8 0030C5E5 		strb	r3, [r5, #0]
 9492 04ac FEFFFFEB 		bl	uart1_transmit
 9493 04b0 84329FE5 		ldr	r3, .L459+132
 9494 04b4 0000D3E5 		ldrb	r0, [r3, #0]	@ zero_extendqisi2
 9495 04b8 0030D4E5 		ldrb	r3, [r4, #0]	@ zero_extendqisi2
 9496 04bc 033080E0 		add	r3, r0, r3
 9497 04c0 0030C4E5 		strb	r3, [r4, #0]
 9498 04c4 0030D5E5 		ldrb	r3, [r5, #0]	@ zero_extendqisi2
 9499 04c8 0020D4E5 		ldrb	r2, [r4, #0]	@ zero_extendqisi2
 9500 04cc 023083E0 		add	r3, r3, r2
 9501 04d0 0030C5E5 		strb	r3, [r5, #0]
 9502 04d4 FEFFFFEB 		bl	uart1_transmit
 9503 04d8 7C329FE5 		ldr	r3, .L459+164
 9504 04dc 0000D3E5 		ldrb	r0, [r3, #0]	@ zero_extendqisi2
 9505 04e0 0030D4E5 		ldrb	r3, [r4, #0]	@ zero_extendqisi2
 9506 04e4 033080E0 		add	r3, r0, r3
 9507 04e8 0030C4E5 		strb	r3, [r4, #0]
 9508 04ec 0030D5E5 		ldrb	r3, [r5, #0]	@ zero_extendqisi2
 9509 04f0 0020D4E5 		ldrb	r2, [r4, #0]	@ zero_extendqisi2
 9510 04f4 023083E0 		add	r3, r3, r2
 9511 04f8 0030C5E5 		strb	r3, [r5, #0]
 9512 04fc FEFFFFEB 		bl	uart1_transmit
 9513 0500 58329FE5 		ldr	r3, .L459+168
 9514 0504 0000D3E5 		ldrb	r0, [r3, #0]	@ zero_extendqisi2
 9515 0508 0030D4E5 		ldrb	r3, [r4, #0]	@ zero_extendqisi2
 9516 050c 033080E0 		add	r3, r0, r3
 9517 0510 0030C4E5 		strb	r3, [r4, #0]
 9518 0514 0030D5E5 		ldrb	r3, [r5, #0]	@ zero_extendqisi2
 9519 0518 0020D4E5 		ldrb	r2, [r4, #0]	@ zero_extendqisi2
 9520 051c 023083E0 		add	r3, r3, r2
 9521 0520 0030C5E5 		strb	r3, [r5, #0]
 9522 0524 FEFFFFEB 		bl	uart1_transmit
 9523 0528 34329FE5 		ldr	r3, .L459+172
 9524 052c 0000D3E5 		ldrb	r0, [r3, #0]	@ zero_extendqisi2
 9525 0530 0030D4E5 		ldrb	r3, [r4, #0]	@ zero_extendqisi2
 9526 0534 033080E0 		add	r3, r0, r3
 9527 0538 0030C4E5 		strb	r3, [r4, #0]
 9528 053c 0030D5E5 		ldrb	r3, [r5, #0]	@ zero_extendqisi2
 9529 0540 0020D4E5 		ldrb	r2, [r4, #0]	@ zero_extendqisi2
 9530 0544 023083E0 		add	r3, r3, r2
 9531 0548 0030C5E5 		strb	r3, [r5, #0]
 9532 054c FEFFFFEB 		bl	uart1_transmit
 9533 0550 10329FE5 		ldr	r3, .L459+176
 9534 0554 0000D3E5 		ldrb	r0, [r3, #0]	@ zero_extendqisi2
 9535 0558 0030D4E5 		ldrb	r3, [r4, #0]	@ zero_extendqisi2
 9536 055c 033080E0 		add	r3, r0, r3
 9537 0560 0030C4E5 		strb	r3, [r4, #0]
 9538 0564 0030D5E5 		ldrb	r3, [r5, #0]	@ zero_extendqisi2
 9539 0568 0020D4E5 		ldrb	r2, [r4, #0]	@ zero_extendqisi2
 9540 056c 023083E0 		add	r3, r3, r2
 9541 0570 0030C5E5 		strb	r3, [r5, #0]
 9542 0574 FEFFFFEB 		bl	uart1_transmit
 9543 0578 0000D6E5 		ldrb	r0, [r6, #0]	@ zero_extendqisi2
 9544 057c 0030D4E5 		ldrb	r3, [r4, #0]	@ zero_extendqisi2
 9545 0580 033080E0 		add	r3, r0, r3
 9546 0584 0030C4E5 		strb	r3, [r4, #0]
 9547 0588 0030D5E5 		ldrb	r3, [r5, #0]	@ zero_extendqisi2
 9548 058c 0020D4E5 		ldrb	r2, [r4, #0]	@ zero_extendqisi2
 9549 0590 023083E0 		add	r3, r3, r2
 9550 0594 0030C5E5 		strb	r3, [r5, #0]
 9551 0598 FEFFFFEB 		bl	uart1_transmit
 9552 059c 0000D4E5 		ldrb	r0, [r4, #0]	@ zero_extendqisi2
 9553 05a0 FEFFFFEB 		bl	uart1_transmit
 9554 05a4 0000D5E5 		ldrb	r0, [r5, #0]	@ zero_extendqisi2
 9555 05a8 FEFFFFEB 		bl	uart1_transmit
 9556              	.L439:
 9557 05ac 88319FE5 		ldr	r3, .L459+132
 9558 05b0 0050D3E5 		ldrb	r5, [r3, #0]	@ zero_extendqisi2
 9559 05b4 010055E3 		cmp	r5, #1
 9560 05b8 8A01001A 		bne	.L442
 9561 05bc 004097E5 		ldr	r4, [r7, #0]
 9562 05c0 F000D4E1 		ldrsh	r0, [r4, #0]
 9563 05c4 FEFFFFEB 		bl	__floatsisf
 9564 05c8 9C119FE5 		ldr	r1, .L459+180
 9565 05cc FEFFFFEB 		bl	__divsf3
 9566 05d0 FEFFFFEB 		bl	__extendsfdf2
 9567 05d4 DC208FE2 		adr	r2, .L459
 9568 05d8 0C0092E8 		ldmia	r2, {r2-r3}
 9569 05dc FEFFFFEB 		bl	__muldf3
 9570 05e0 D8208FE2 		adr	r2, .L459+8
 9571 05e4 0C0092E8 		ldmia	r2, {r2-r3}
 9572 05e8 FEFFFFEB 		bl	__adddf3
 9573 05ec FEFFFFEB 		bl	__truncdfsf2
 9574 05f0 78319FE5 		ldr	r3, .L459+184
 9575 05f4 000083E5 		str	r0, [r3, #0]	@ float
 9576 05f8 F200D4E1 		ldrsh	r0, [r4, #2]
 9577 05fc FEFFFFEB 		bl	__floatsisf
 9578 0600 64119FE5 		ldr	r1, .L459+180
 9579 0604 FEFFFFEB 		bl	__divsf3
 9580 0608 FEFFFFEB 		bl	__extendsfdf2
 9581 060c B4208FE2 		adr	r2, .L459+16
 9582 0610 0C0092E8 		ldmia	r2, {r2-r3}
 9583 0614 FEFFFFEB 		bl	__muldf3
 9584 0618 A0208FE2 		adr	r2, .L459+8
 9585 061c 0C0092E8 		ldmia	r2, {r2-r3}
 9586 0620 FEFFFFEB 		bl	__adddf3
 9587 0624 FEFFFFEB 		bl	__truncdfsf2
 9588 0628 44319FE5 		ldr	r3, .L459+188
 9589 062c 000083E5 		str	r0, [r3, #0]	@ float
 9590              	.L442:
 9591 0630 010055E3 		cmp	r5, #1
 9592 0634 FC309F95 		ldrls	r3, .L459+128
 9593 0638 00209395 		ldrls	r2, [r3, #0]
 9594 063c 34319F95 		ldrls	r3, .L459+192
 9595 0640 B620D291 		ldrlsh	r2, [r2, #6]
 9596 0644 B020C391 		strlsh	r2, [r3, #0]	@ movhi 
 9597 0648 E8309FE5 		ldr	r3, .L459+128
 9598 064c 001093E5 		ldr	r1, [r3, #0]
 9599 0650 24319FE5 		ldr	r3, .L459+196
 9600 0654 0E20D1E5 		ldrb	r2, [r1, #14]	@ zero_extendqisi2
 9601 0658 0020C3E5 		strb	r2, [r3, #0]
 9602 065c 1C319FE5 		ldr	r3, .L459+200
 9603 0660 1120D1E5 		ldrb	r2, [r1, #17]	@ zero_extendqisi2
 9604 0664 0020C3E5 		strb	r2, [r3, #0]
 9605 0668 14319FE5 		ldr	r3, .L459+204
 9606 066c B030D3E1 		ldrh	r3, [r3, #0]
 9607 0670 142091E5 		ldr	r2, [r1, #20]
 9608 0674 000053E3 		cmp	r3, #0
 9609 0678 08319FE5 		ldr	r3, .L459+208
 9610 067c 002083E5 		str	r2, [r3, #0]
 9611 0680 A601001A 		bne	.L423
 9612 0684 020055E3 		cmp	r5, #2
 9613 0688 A601001A 		bne	.L423
 9614 068c F630D1E1 		ldrsh	r3, [r1, #6]
 9615 0690 870D53E3 		cmp	r3, #8640
 9616 0694 48309FC5 		ldrgt	r3, .L459+44
 9617 0698 0120A0C3 		movgt	r2, #1
 9618 069c 0020C3C5 		strgtb	r2, [r3, #0]
 9619              	.L423:
 9620 06a0 E4309FE5 		ldr	r3, .L459+212
 9621 06a4 2C3093E5 		ldr	r3, [r3, #44]
 9622 06a8 020053E3 		cmp	r3, #2
 9623 06ac FEFFFF0B 		bleq	airspeed_ets_read_event
 9624              	.L386:
 9625 06b0 F0689DE8 		ldmfd	sp, {r4, r5, r6, r7, fp, sp, lr}
 9626 06b4 1EFF2FE1 		bx	lr
 9627              	.L460:
 9628              		.align	2
 9629              	.L459:
 9630 06b8 6666E6BF 		.word	-1075419546
 9631 06bc 66666666 		.word	1717986918
 9632 06c0 00000000 		.word	0
 9633 06c4 00000000 		.word	0
 9634 06c8 3333E33F 		.word	1071854387
 9635 06cc 33333333 		.word	858993459
 9636 06d0 00000000 		.word	uart0_rx_insert_idx
 9637 06d4 00000000 		.word	uart0_rx_extract_idx
 9638 06d8 00000000 		.word	gps_msg_received
 9639 06dc 00000000 		.word	uart0_rx_buffer
 9640 06e0 00000000 		.word	gps_pos_available
 9641 06e4 00000000 		.word	launch
 9642 06e8 00000000 		.word	gps_mode
 9643 06ec 00000000 		.word	gps_verbose_downlink
 9644 06f0 00000000 		.word	cpu_time_sec
 9645 06f4 00000000 		.word	last_gps_msg_t
 9646 06f8 008002E0 		.word	-536707072
 9647 06fc 00000000 		.word	uart1_rx_insert_idx
 9648 0700 00000000 		.word	uart1_rx_extract_idx
 9649 0704 00000000 		.word	pprz_msg_received
 9650 0708 00000000 		.word	pprz_status.0
 9651 070c 00000000 		.word	uart1_rx_buffer
 9652 0710 00000000 		.word	pprz_ovrn
 9653 0714 00000000 		.word	pprz_payload_len
 9654 0718 00000000 		.word	_ck_a.1
 9655 071c 00000000 		.word	payload_idx.3
 9656 0720 00000000 		.word	_ck_b.2
 9657 0724 00000000 		.word	pprz_payload
 9658 0728 00000000 		.word	pprz_error
 9659 072c 00000000 		.word	dl_buffer
 9660 0730 00000000 		.word	dl_msg_available
 9661 0734 00000000 		.word	inter_mcu_received_fbw
 9662 0738 00000000 		.word	fbw_state
 9663 073c 00000000 		.word	pprz_mode
 9664 0740 00000000 		.word	too_far_from_home
 9665 0744 00000000 		.word	mcu1_status
 9666 0748 00000000 		.word	downlink_nb_ovrn
 9667 074c 00000000 		.word	downlink_nb_bytes
 9668 0750 00000000 		.word	downlink_nb_msgs
 9669 0754 00000000 		.word	ck_a
 9670 0758 00000000 		.word	ck_b
 9671 075c 00000000 		.word	v_ctl_mode
 9672 0760 00000000 		.word	lateral_mode
 9673 0764 00000000 		.word	horizontal_mode
 9674 0768 00000000 		.word	rc_settings_mode
 9675 076c 00001646 		.word	1175846912
 9676 0770 00000000 		.word	h_ctl_roll_setpoint
 9677 0774 00000000 		.word	h_ctl_pitch_setpoint
 9678 0778 00000000 		.word	v_ctl_throttle_setpoint
 9679 077c 00000000 		.word	mcu1_ppm_cpt
 9680 0780 00000000 		.word	vsupply
 9681 0784 00000000 		.word	estimator_flight_time
 9682 0788 00000000 		.word	current
 9683 078c 00000000 		.word	airspeed_ets_i2c_trans
 9685              		.global	vsupply
 9686              		.section	.bss.vsupply,"aw",%nobits
 9689              	vsupply:
 9690 0000 00       		.space	1
 9691              		.global	slider_1_val
 9692              		.section	.bss.slider_1_val,"aw",%nobits
 9693              		.align	2
 9696              	slider_1_val:
 9697 0000 00000000 		.space	4
 9698              		.global	slider_2_val
 9699              		.section	.bss.slider_2_val,"aw",%nobits
 9700              		.align	2
 9703              	slider_2_val:
 9704 0000 00000000 		.space	4
 9705              		.global	power_switch
 9706              		.section	.bss.power_switch,"aw",%nobits
 9709              	power_switch:
 9710 0000 00       		.space	1
 9711              		.section	.bss.mcu1_status,"aw",%nobits
 9714              	mcu1_status:
 9715 0000 00       		.space	1
 9716              		.section	.bss.mcu1_ppm_cpt,"aw",%nobits
 9719              	mcu1_ppm_cpt:
 9720 0000 00       		.space	1
 9721              		.section	.bss.current,"aw",%nobits
 9722              		.align	2
 9725              	current:
 9726 0000 00000000 		.space	4
 9727              		.global	energy
 9728              		.section	.bss.energy,"aw",%nobits
 9729              		.align	2
 9732              	energy:
 9733 0000 00000000 		.space	4
 9734              		.ident	"GCC: (GNU) 3.4.4"
DEFINED SYMBOLS
                            *ABS*:00000000 main_ap.c
     /tmp/ccCpVVIW.s:6      .data.ac_ident:00000000 ac_ident
     /tmp/ccCpVVIW.s:12     .data.gps_lost:00000000 gps_lost
     /tmp/ccCpVVIW.s:18     .data.launch:00000000 launch
     /tmp/ccCpVVIW.s:24     .data.kill_throttle:00000000 kill_throttle
     /tmp/ccCpVVIW.s:30     .data.lateral_mode:00000000 lateral_mode
     /tmp/ccCpVVIW.s:36     .data.pprz_mode:00000000 pprz_mode
     /tmp/ccCpVVIW.s:42     .data.fatal_error_nb:00000000 fatal_error_nb
     /tmp/ccCpVVIW.s:48     .data.rc_settings_mode:00000000 rc_settings_mode
     /tmp/ccCpVVIW.s:54     .rodata.version:00000000 version
     /tmp/ccCpVVIW.s:59     .bss.last_pprz_mode.55:00000000 last_pprz_mode.55
     /tmp/ccCpVVIW.s:77     .text.navigation_task:00000000 navigation_task
     /tmp/ccCpVVIW.s:81     .text.navigation_task:00000000 $a
     /tmp/ccCpVVIW.s:337    .text.navigation_task:000003e4 $d
     /tmp/ccCpVVIW.s:9714   .bss.mcu1_status:00000000 mcu1_status
     /tmp/ccCpVVIW.s:9689   .bss.vsupply:00000000 vsupply
     /tmp/ccCpVVIW.s:367    .text.navigation_task:00000458 $a
     /tmp/ccCpVVIW.s:729    .text.navigation_task:000009c4 $d
     /tmp/ccCpVVIW.s:9725   .bss.current:00000000 current
     /tmp/ccCpVVIW.s:9732   .bss.energy:00000000 energy
     /tmp/ccCpVVIW.s:746    .data._60Hz.4:00000000 _60Hz.4
     /tmp/ccCpVVIW.s:751    .data._20Hz.5:00000000 _20Hz.5
     /tmp/ccCpVVIW.s:756    .data._10Hz.6:00000000 _10Hz.6
     /tmp/ccCpVVIW.s:761    .data._4Hz.7:00000000 _4Hz.7
     /tmp/ccCpVVIW.s:766    .data._1Hz.8:00000000 _1Hz.8
     /tmp/ccCpVVIW.s:771    .data.boot.10:00000000 boot.10
     /tmp/ccCpVVIW.s:776    .data.i15.11:00000000 i15.11
     /tmp/ccCpVVIW.s:781    .data.i30.12:00000000 i30.12
     /tmp/ccCpVVIW.s:786    .data.i60.13:00000000 i60.13
     /tmp/ccCpVVIW.s:791    .data.i63.14:00000000 i63.14
     /tmp/ccCpVVIW.s:796    .data.i66.15:00000000 i66.15
     /tmp/ccCpVVIW.s:801    .data.i72.16:00000000 i72.16
     /tmp/ccCpVVIW.s:806    .data.i90.17:00000000 i90.17
     /tmp/ccCpVVIW.s:811    .data.i120.18:00000000 i120.18
     /tmp/ccCpVVIW.s:816    .data.i126.19:00000000 i126.19
     /tmp/ccCpVVIW.s:821    .data.i150.20:00000000 i150.20
     /tmp/ccCpVVIW.s:827    .data.i300.21:00000000 i300.21
     /tmp/ccCpVVIW.s:833    .data.i306.22:00000000 i306.22
     /tmp/ccCpVVIW.s:839    .data.i540.23:00000000 i540.23
     /tmp/ccCpVVIW.s:844    .bss.i.24:00000000 i.24
     /tmp/ccCpVVIW.s:850    .bss.i.25:00000000 i.25
     /tmp/ccCpVVIW.s:856    .bss.last.26:00000000 last.26
     /tmp/ccCpVVIW.s:861    .data.i63.27:00000000 i63.27
     /tmp/ccCpVVIW.s:866    .data.i66.28:00000000 i66.28
     /tmp/ccCpVVIW.s:871    .data.i78.29:00000000 i78.29
     /tmp/ccCpVVIW.s:876    .data.i84.30:00000000 i84.30
     /tmp/ccCpVVIW.s:881    .data.i90.31:00000000 i90.31
     /tmp/ccCpVVIW.s:886    .data.i126.32:00000000 i126.32
     /tmp/ccCpVVIW.s:891    .data.i180.33:00000000 i180.33
     /tmp/ccCpVVIW.s:896    .data.i183.34:00000000 i183.34
     /tmp/ccCpVVIW.s:901    .data.i192.35:00000000 i192.35
     /tmp/ccCpVVIW.s:906    .data.i240.36:00000000 i240.36
     /tmp/ccCpVVIW.s:911    .data.i243.37:00000000 i243.37
     /tmp/ccCpVVIW.s:917    .data.i300.38:00000000 i300.38
     /tmp/ccCpVVIW.s:923    .data.i306.39:00000000 i306.39
     /tmp/ccCpVVIW.s:929    .data.i312.40:00000000 i312.40
     /tmp/ccCpVVIW.s:935    .data.i540.41:00000000 i540.41
     /tmp/ccCpVVIW.s:941    .data.i606.42:00000000 i606.42
     /tmp/ccCpVVIW.s:946    .bss.i.43:00000000 i.43
     /tmp/ccCpVVIW.s:951    .bss.i.44:00000000 i.44
     /tmp/ccCpVVIW.s:957    .bss.last.45:00000000 last.45
     /tmp/ccCpVVIW.s:963    .data.i300.46:00000000 i300.46
     /tmp/ccCpVVIW.s:969    .data.i306.47:00000000 i306.47
     /tmp/ccCpVVIW.s:975    .data.i318.48:00000000 i318.48
     /tmp/ccCpVVIW.s:981    .data.i324.49:00000000 i324.49
     /tmp/ccCpVVIW.s:987    .data.i330.50:00000000 i330.50
     /tmp/ccCpVVIW.s:993    .data.i342.51:00000000 i342.51
     /tmp/ccCpVVIW.s:999    .data.i606.52:00000000 i606.52
     /tmp/ccCpVVIW.s:1005   .data.i612.53:00000000 i612.53
     /tmp/ccCpVVIW.s:1011   .bss.last.54:00000000 last.54
     /tmp/ccCpVVIW.s:1016   .data.t.9:00000000 t.9
     /tmp/ccCpVVIW.s:1022   .bss.i6.56:00000000 i6.56
     /tmp/ccCpVVIW.s:1032   .text.periodic_task_ap:00000000 periodic_task_ap
     /tmp/ccCpVVIW.s:1036   .text.periodic_task_ap:00000000 $a
     /tmp/ccCpVVIW.s:1856   .text.periodic_task_ap:00000ca0 $d
     /tmp/ccCpVVIW.s:1932   .text.periodic_task_ap:00000dcc $a
     /tmp/ccCpVVIW.s:3239   .text.periodic_task_ap:000021f4 $d
     /tmp/ccCpVVIW.s:3252   .text.periodic_task_ap:00002224 $a
     /tmp/ccCpVVIW.s:3830   .text.periodic_task_ap:00002ac0 $d
     /tmp/ccCpVVIW.s:3882   .text.periodic_task_ap:00002b8c $a
     /tmp/ccCpVVIW.s:4530   .text.periodic_task_ap:00003578 $d
     /tmp/ccCpVVIW.s:4590   .text.periodic_task_ap:00003664 $a
     /tmp/ccCpVVIW.s:5221   .text.periodic_task_ap:00004028 $d
     /tmp/ccCpVVIW.s:5234   .text.periodic_task_ap:00004058 $a
     /tmp/ccCpVVIW.s:5854   .text.periodic_task_ap:0000499c $d
     /tmp/ccCpVVIW.s:5902   .text.periodic_task_ap:00004a58 $a
     /tmp/ccCpVVIW.s:7093   .text.periodic_task_ap:00005cbc $d
     /tmp/ccCpVVIW.s:7135   .text.periodic_task_ap:00005d60 $a
     /tmp/ccCpVVIW.s:8172   .text.periodic_task_ap:00006d60 $d
     /tmp/ccCpVVIW.s:8216   .text.periodic_task_ap:00006e0c $a
     /tmp/ccCpVVIW.s:9066   .text.periodic_task_ap:00007b20 $d
     /tmp/ccCpVVIW.s:9095   .text.init_ap:00000000 init_ap
     /tmp/ccCpVVIW.s:9099   .text.init_ap:00000000 $a
     /tmp/ccCpVVIW.s:9131   .text.init_ap:00000070 $d
     /tmp/ccCpVVIW.s:9709   .bss.power_switch:00000000 power_switch
     /tmp/ccCpVVIW.s:9138   .data.pprz_status.0:00000000 pprz_status.0
     /tmp/ccCpVVIW.s:9143   .bss._ck_a.1:00000000 _ck_a.1
     /tmp/ccCpVVIW.s:9148   .bss._ck_b.2:00000000 _ck_b.2
     /tmp/ccCpVVIW.s:9153   .bss.payload_idx.3:00000000 payload_idx.3
     /tmp/ccCpVVIW.s:9160   .text.event_task_ap:00000000 event_task_ap
     /tmp/ccCpVVIW.s:9164   .text.event_task_ap:00000000 $a
     /tmp/ccCpVVIW.s:9253   .text.event_task_ap:00000148 $d
     /tmp/ccCpVVIW.s:9259   .text.event_task_ap:0000015c $a
     /tmp/ccCpVVIW.s:9630   .text.event_task_ap:000006b8 $d
     /tmp/ccCpVVIW.s:9719   .bss.mcu1_ppm_cpt:00000000 mcu1_ppm_cpt
     /tmp/ccCpVVIW.s:9696   .bss.slider_1_val:00000000 slider_1_val
     /tmp/ccCpVVIW.s:9703   .bss.slider_2_val:00000000 slider_2_val

UNDEFINED SYMBOLS
__extendsfdf2
__divdf3
__fixunsdfsi
__floatsidf
__gtdf2
__floatsisf
__addsf3
__muldf3
__fixdfsi
__gtsf2
__ltsf2
__divsf3
__mulsf3
uart1_check_free_space
uart1_transmit
common_nav_periodic_task_4Hz
nav_home
nav_without_gps
cpu_time_sec
last_gps_msg_t
horizontal_mode
nav_circle_radians
downlink_nb_ovrn
downlink_nb_bytes
downlink_nb_msgs
ck_a
ck_b
nav_block
nav_stage
estimator_x
estimator_y
dist2_to_wp
dist2_to_home
nav_oval_count
v_ctl_mode
nav_throttle_setpoint
v_ctl_throttle_setpoint
nav_periodic_task
v_ctl_altitude_loop
h_ctl_course_loop
v_ctl_climb_loop
nav_pitch
h_ctl_pitch_setpoint
estimator_flight_time
__fixsfsi
__ltdf2
gps_send
telemetry_mode_Ap_DefaultChannel
estimator_phi
estimator_psi
estimator_theta
estimator_z
estimator_z_dot
nb_waypoint
nav_utm_east0
waypoints
nav_utm_north0
nav_utm_zone0
estimator_airspeed
v_ctl_auto_airspeed_setpoint
v_ctl_auto_airspeed_controlled
v_ctl_auto_groundspeed_setpoint
nav_in_circle
nav_circle_x
nav_circle_y
nav_circle_radius
h_ctl_roll_setpoint
h_ctl_pitch_loop_setpoint
h_ctl_course_setpoint
desired_x
desired_y
v_ctl_altitude_setpoint
v_ctl_climb_setpoint
v_ctl_throttle_slewed
block_time
stage_time
roll_rate_adc
estimator_p
temp_comp
nav_in_segment
nav_segment_x_1
nav_segment_y_1
nav_segment_x_2
nav_segment_y_2
infrared
flight_altitude
nav_course
nav_shift
nav_radius
gps_reset
gps_Pacc
gps_Sacc
gps_PDOP
gps_numSV
v_ctl_auto_throttle_sum_err
v_ctl_auto_throttle_submode
nav_survey_active
nav_survey_east
nav_survey_north
nav_survey_west
nav_survey_south
datalink_time
estimator_propagate_state
gyro_update
infrared_update
estimator_update_state_infrared
h_ctl_attitude_loop
v_ctl_throttle_slew
airspeed_ets_read_periodic
estimator_hspeed_mod
ap_state
h_ctl_aileron_setpoint
h_ctl_elevator_setpoint
inter_mcu_received_ap
__adddf3
infrared_init
gyro_init
gps_init
h_ctl_init
v_ctl_init
estimator_init
alt_kalman_init
nav_init
airspeed_ets_init
settings_init
enableIRQ
traffic_info_init
__truncdfsf2
infrared_event
parse_ubx
parse_gps_msg
estimator_update_state_gps
gps_downlink
dl_parse_msg
airspeed_ets_read_event
uart0_rx_insert_idx
uart0_rx_extract_idx
gps_msg_received
uart0_rx_buffer
gps_pos_available
gps_mode
gps_verbose_downlink
uart1_rx_insert_idx
uart1_rx_extract_idx
pprz_msg_received
uart1_rx_buffer
pprz_ovrn
pprz_payload_len
pprz_payload
pprz_error
dl_buffer
dl_msg_available
inter_mcu_received_fbw
fbw_state
too_far_from_home
airspeed_ets_i2c_trans
