   1              		.file	"main_ap.c"
   2              		.global	ac_ident
   3              		.section	.data.ac_ident,"aw",%progbits
   6              	ac_ident:
   7 0000 0B       		.byte	11
   8              		.global	gps_lost
   9              		.section	.data.gps_lost,"aw",%progbits
  12              	gps_lost:
  13 0000 00       		.byte	0
  14              		.global	launch
  15              		.section	.data.launch,"aw",%progbits
  18              	launch:
  19 0000 00       		.byte	0
  20              		.global	kill_throttle
  21              		.section	.data.kill_throttle,"aw",%progbits
  24              	kill_throttle:
  25 0000 00       		.byte	0
  26              		.global	lateral_mode
  27              		.section	.data.lateral_mode,"aw",%progbits
  30              	lateral_mode:
  31 0000 00       		.byte	0
  32              		.global	pprz_mode
  33              		.section	.data.pprz_mode,"aw",%progbits
  36              	pprz_mode:
  37 0000 02       		.byte	2
  38              		.global	fatal_error_nb
  39              		.section	.data.fatal_error_nb,"aw",%progbits
  42              	fatal_error_nb:
  43 0000 00       		.byte	0
  44              		.global	rc_settings_mode
  45              		.section	.data.rc_settings_mode,"aw",%progbits
  48              	rc_settings_mode:
  49 0000 00       		.byte	0
  50              		.section	.rodata.version,"a",%progbits
  51              		.align	1
  54              	version:
  55 0000 0100     		.short	1
  56              		.section	.bss.last_pprz_mode.54,"aw",%nobits
  59              	last_pprz_mode.54:
  60 0000 00       		.space	1
  61              		.global	__extendsfdf2
  62              		.global	__divdf3
  63              		.global	__fixunsdfsi
  64              		.global	__floatsidf
  65              		.global	__gtdf2
  66              		.global	__floatsisf
  67              		.global	__addsf3
  68              		.global	__muldf3
  69              		.global	__fixdfsi
  70              		.global	__ltdf2
  71              		.global	__divsf3
  72              		.global	__mulsf3
  73              		.section	.text.navigation_task,"ax",%progbits
  74              		.align	2
  76              	navigation_task:
  77              		@ Function supports interworking.
  78              		@ args = 0, pretend = 0, frame = 4
  79              		@ frame_needed = 1, uses_anonymous_args = 0
  80 0000 0DC0A0E1 		mov	ip, sp
  81 0004 F0D92DE9 		stmfd	sp!, {r4, r5, r6, r7, r8, fp, ip, lr, pc}
  82 0008 04B04CE2 		sub	fp, ip, #4
  83 000c 04D04DE2 		sub	sp, sp, #4
  84 0010 A0839FE5 		ldr	r8, .L35
  85 0014 0030D8E5 		ldrb	r3, [r8, #0]	@ zero_extendqisi2
  86 0018 000053E3 		cmp	r3, #0
  87 001c E100000A 		beq	.L2
  88 0020 94339FE5 		ldr	r3, .L35+4
  89 0024 94239FE5 		ldr	r2, .L35+8
  90 0028 B030D3E1 		ldrh	r3, [r3, #0]
  91 002c B020D2E1 		ldrh	r2, [r2, #0]
  92 0030 033062E0 		rsb	r3, r2, r3
  93 0034 020053E3 		cmp	r3, #2
  94 0038 790000DA 		ble	.L3
  95 003c 80739FE5 		ldr	r7, .L35+12
  96 0040 0020D7E5 		ldrb	r2, [r7, #0]	@ zero_extendqisi2
  97 0044 023042E2 		sub	r3, r2, #2
  98 0048 010053E3 		cmp	r3, #1
  99 004c E100008A 		bhi	.L2
 100 0050 70339FE5 		ldr	r3, .L35+16
 101 0054 0020C3E5 		strb	r2, [r3, #0]
 102 0058 0430A0E3 		mov	r3, #4
 103 005c 0030C7E5 		strb	r3, [r7, #0]
 104 0060 1100A0E3 		mov	r0, #17
 105 0064 FEFFFFEB 		bl	uart1_check_free_space
 106 0068 FF0010E3 		tst	r0, #255
 107 006c 6C239F05 		ldreq	r2, .L35+40
 108 0070 0030D205 		ldreqb	r3, [r2, #0]	@ zero_extendqisi2
 109 0074 01308302 		addeq	r3, r3, #1
 110 0078 0030C205 		streqb	r3, [r2, #0]
 111 007c 7500000A 		beq	.L6
 112 0080 5C139FE5 		ldr	r1, .L35+44
 113 0084 5CC39FE5 		ldr	ip, .L35+48
 114 0088 B030D1E1 		ldrh	r3, [r1, #0]
 115 008c B020DCE1 		ldrh	r2, [ip, #0]
 116 0090 113083E2 		add	r3, r3, #17
 117 0094 012082E2 		add	r2, r2, #1
 118 0098 B030C1E1 		strh	r3, [r1, #0]	@ movhi 
 119 009c B020CCE1 		strh	r2, [ip, #0]	@ movhi 
 120 00a0 0060A0E3 		mov	r6, #0
 121 00a4 7E00A0E3 		mov	r0, #126
 122 00a8 3C439FE5 		ldr	r4, .L35+52
 123 00ac FEFFFFEB 		bl	uart1_transmit
 124 00b0 0600A0E1 		mov	r0, r6
 125 00b4 FEFFFFEB 		bl	uart1_transmit
 126 00b8 0150A0E3 		mov	r5, #1
 127 00bc 0D00A0E3 		mov	r0, #13
 128 00c0 FEFFFFEB 		bl	uart1_transmit
 129 00c4 0500A0E1 		mov	r0, r5
 130 00c8 0050C4E5 		strb	r5, [r4, #0]
 131 00cc FEFFFFEB 		bl	uart1_transmit
 132 00d0 0600A0E1 		mov	r0, r6
 133 00d4 FEFFFFEB 		bl	uart1_transmit
 134 00d8 0030D4E5 		ldrb	r3, [r4, #0]	@ zero_extendqisi2
 135 00dc 053083E0 		add	r3, r3, r5
 136 00e0 0030C4E5 		strb	r3, [r4, #0]
 137 00e4 0500A0E1 		mov	r0, r5
 138 00e8 FEFFFFEB 		bl	uart1_transmit
 139 00ec 0600A0E1 		mov	r0, r6
 140 00f0 FEFFFFEB 		bl	uart1_transmit
 141 00f4 0600A0E1 		mov	r0, r6
 142 00f8 FEFFFFEB 		bl	uart1_transmit
 143 00fc 0030D4E5 		ldrb	r3, [r4, #0]	@ zero_extendqisi2
 144 0100 0B3083E2 		add	r3, r3, #11
 145 0104 0B00A0E3 		mov	r0, #11
 146 0108 0030C4E5 		strb	r3, [r4, #0]
 147 010c FEFFFFEB 		bl	uart1_transmit
 148 0110 0030D4E5 		ldrb	r3, [r4, #0]	@ zero_extendqisi2
 149 0114 0B3083E2 		add	r3, r3, #11
 150 0118 0B00A0E3 		mov	r0, #11
 151 011c 0030C4E5 		strb	r3, [r4, #0]
 152 0120 FEFFFFEB 		bl	uart1_transmit
 153 0124 0030D7E5 		ldrb	r3, [r7, #0]	@ zero_extendqisi2
 154 0128 0020D4E5 		ldrb	r2, [r4, #0]	@ zero_extendqisi2
 155 012c 0300A0E1 		mov	r0, r3
 156 0130 023083E0 		add	r3, r3, r2
 157 0134 0030C4E5 		strb	r3, [r4, #0]
 158 0138 FEFFFFEB 		bl	uart1_transmit
 159 013c C8329FE5 		ldr	r3, .L35+84
 160 0140 0020D4E5 		ldrb	r2, [r4, #0]	@ zero_extendqisi2
 161 0144 0030D3E5 		ldrb	r3, [r3, #0]	@ zero_extendqisi2
 162 0148 0300A0E1 		mov	r0, r3
 163 014c 023083E0 		add	r3, r3, r2
 164 0150 0030C4E5 		strb	r3, [r4, #0]
 165 0154 FEFFFFEB 		bl	uart1_transmit
 166 0158 B0329FE5 		ldr	r3, .L35+88
 167 015c 0020D4E5 		ldrb	r2, [r4, #0]	@ zero_extendqisi2
 168 0160 0030D3E5 		ldrb	r3, [r3, #0]	@ zero_extendqisi2
 169 0164 0300A0E1 		mov	r0, r3
 170 0168 023083E0 		add	r3, r3, r2
 171 016c 0030C4E5 		strb	r3, [r4, #0]
 172 0170 FEFFFFEB 		bl	uart1_transmit
 173 0174 50329FE5 		ldr	r3, .L35+20
 174 0178 0020D4E5 		ldrb	r2, [r4, #0]	@ zero_extendqisi2
 175 017c 0030D3E5 		ldrb	r3, [r3, #0]	@ zero_extendqisi2
 176 0180 0300A0E1 		mov	r0, r3
 177 0184 023083E0 		add	r3, r3, r2
 178 0188 0030C4E5 		strb	r3, [r4, #0]
 179 018c FEFFFFEB 		bl	uart1_transmit
 180 0190 38329FE5 		ldr	r3, .L35+24
 181 0194 0020D4E5 		ldrb	r2, [r4, #0]	@ zero_extendqisi2
 182 0198 0030D3E5 		ldrb	r3, [r3, #0]	@ zero_extendqisi2
 183 019c 0300A0E1 		mov	r0, r3
 184 01a0 023083E0 		add	r3, r3, r2
 185 01a4 0030C4E5 		strb	r3, [r4, #0]
 186 01a8 FEFFFFEB 		bl	uart1_transmit
 187 01ac 20329FE5 		ldr	r3, .L35+28
 188 01b0 0020D4E5 		ldrb	r2, [r4, #0]	@ zero_extendqisi2
 189 01b4 0030D3E5 		ldrb	r3, [r3, #0]	@ zero_extendqisi2
 190 01b8 0300A0E1 		mov	r0, r3
 191 01bc 023083E0 		add	r3, r3, r2
 192 01c0 0030C4E5 		strb	r3, [r4, #0]
 193 01c4 FEFFFFEB 		bl	uart1_transmit
 194 01c8 0030D4E5 		ldrb	r3, [r4, #0]	@ zero_extendqisi2
 195 01cc 0330E0E1 		mvn	r3, r3
 196 01d0 0030C4E5 		strb	r3, [r4, #0]
 197 01d4 0000D4E5 		ldrb	r0, [r4, #0]	@ zero_extendqisi2
 198 01d8 FEFFFFEB 		bl	uart1_transmit
 199              	.L6:
 200 01dc F4319FE5 		ldr	r3, .L35+32
 201 01e0 0120A0E3 		mov	r2, #1
 202 01e4 0020C3E5 		strb	r2, [r3, #0]
 203 01e8 E10000EA 		b	.L2
 204              	.L3:
 205 01ec E4219FE5 		ldr	r2, .L35+32
 206 01f0 0030D2E5 		ldrb	r3, [r2, #0]	@ zero_extendqisi2
 207 01f4 000053E3 		cmp	r3, #0
 208 01f8 E100000A 		beq	.L2
 209 01fc C4319FE5 		ldr	r3, .L35+16
 210 0200 BC719FE5 		ldr	r7, .L35+12
 211 0204 0030D3E5 		ldrb	r3, [r3, #0]	@ zero_extendqisi2
 212 0208 0060A0E3 		mov	r6, #0
 213 020c 0030C7E5 		strb	r3, [r7, #0]
 214 0210 0060C2E5 		strb	r6, [r2, #0]
 215 0214 1100A0E3 		mov	r0, #17
 216 0218 FEFFFFEB 		bl	uart1_check_free_space
 217 021c FF0010E3 		tst	r0, #255
 218 0220 B8219F05 		ldreq	r2, .L35+40
 219 0224 0030D205 		ldreqb	r3, [r2, #0]	@ zero_extendqisi2
 220 0228 01308302 		addeq	r3, r3, #1
 221 022c 0030C205 		streqb	r3, [r2, #0]
 222 0230 E100000A 		beq	.L2
 223 0234 A8119FE5 		ldr	r1, .L35+44
 224 0238 A8C19FE5 		ldr	ip, .L35+48
 225 023c B030D1E1 		ldrh	r3, [r1, #0]
 226 0240 B020DCE1 		ldrh	r2, [ip, #0]
 227 0244 113083E2 		add	r3, r3, #17
 228 0248 012082E2 		add	r2, r2, #1
 229 024c B030C1E1 		strh	r3, [r1, #0]	@ movhi 
 230 0250 B020CCE1 		strh	r2, [ip, #0]	@ movhi 
 231 0254 7E00A0E3 		mov	r0, #126
 232 0258 8C419FE5 		ldr	r4, .L35+52
 233 025c FEFFFFEB 		bl	uart1_transmit
 234 0260 0600A0E1 		mov	r0, r6
 235 0264 FEFFFFEB 		bl	uart1_transmit
 236 0268 0150A0E3 		mov	r5, #1
 237 026c 0D00A0E3 		mov	r0, #13
 238 0270 FEFFFFEB 		bl	uart1_transmit
 239 0274 0500A0E1 		mov	r0, r5
 240 0278 0050C4E5 		strb	r5, [r4, #0]
 241 027c FEFFFFEB 		bl	uart1_transmit
 242 0280 0600A0E1 		mov	r0, r6
 243 0284 FEFFFFEB 		bl	uart1_transmit
 244 0288 0030D4E5 		ldrb	r3, [r4, #0]	@ zero_extendqisi2
 245 028c 053083E0 		add	r3, r3, r5
 246 0290 0030C4E5 		strb	r3, [r4, #0]
 247 0294 0500A0E1 		mov	r0, r5
 248 0298 FEFFFFEB 		bl	uart1_transmit
 249 029c 0600A0E1 		mov	r0, r6
 250 02a0 FEFFFFEB 		bl	uart1_transmit
 251 02a4 0600A0E1 		mov	r0, r6
 252 02a8 FEFFFFEB 		bl	uart1_transmit
 253 02ac 0030D4E5 		ldrb	r3, [r4, #0]	@ zero_extendqisi2
 254 02b0 0B3083E2 		add	r3, r3, #11
 255 02b4 0B00A0E3 		mov	r0, #11
 256 02b8 0030C4E5 		strb	r3, [r4, #0]
 257 02bc FEFFFFEB 		bl	uart1_transmit
 258 02c0 0030D4E5 		ldrb	r3, [r4, #0]	@ zero_extendqisi2
 259 02c4 0B3083E2 		add	r3, r3, #11
 260 02c8 0B00A0E3 		mov	r0, #11
 261 02cc 0030C4E5 		strb	r3, [r4, #0]
 262 02d0 FEFFFFEB 		bl	uart1_transmit
 263 02d4 0030D7E5 		ldrb	r3, [r7, #0]	@ zero_extendqisi2
 264 02d8 0020D4E5 		ldrb	r2, [r4, #0]	@ zero_extendqisi2
 265 02dc 0300A0E1 		mov	r0, r3
 266 02e0 023083E0 		add	r3, r3, r2
 267 02e4 0030C4E5 		strb	r3, [r4, #0]
 268 02e8 FEFFFFEB 		bl	uart1_transmit
 269 02ec 18319FE5 		ldr	r3, .L35+84
 270 02f0 0020D4E5 		ldrb	r2, [r4, #0]	@ zero_extendqisi2
 271 02f4 0030D3E5 		ldrb	r3, [r3, #0]	@ zero_extendqisi2
 272 02f8 0300A0E1 		mov	r0, r3
 273 02fc 023083E0 		add	r3, r3, r2
 274 0300 0030C4E5 		strb	r3, [r4, #0]
 275 0304 FEFFFFEB 		bl	uart1_transmit
 276 0308 00319FE5 		ldr	r3, .L35+88
 277 030c 0020D4E5 		ldrb	r2, [r4, #0]	@ zero_extendqisi2
 278 0310 0030D3E5 		ldrb	r3, [r3, #0]	@ zero_extendqisi2
 279 0314 0300A0E1 		mov	r0, r3
 280 0318 023083E0 		add	r3, r3, r2
 281 031c 0030C4E5 		strb	r3, [r4, #0]
 282 0320 FEFFFFEB 		bl	uart1_transmit
 283 0324 A0309FE5 		ldr	r3, .L35+20
 284 0328 0020D4E5 		ldrb	r2, [r4, #0]	@ zero_extendqisi2
 285 032c 0030D3E5 		ldrb	r3, [r3, #0]	@ zero_extendqisi2
 286 0330 0300A0E1 		mov	r0, r3
 287 0334 023083E0 		add	r3, r3, r2
 288 0338 0030C4E5 		strb	r3, [r4, #0]
 289 033c FEFFFFEB 		bl	uart1_transmit
 290 0340 88309FE5 		ldr	r3, .L35+24
 291 0344 0020D4E5 		ldrb	r2, [r4, #0]	@ zero_extendqisi2
 292 0348 0030D3E5 		ldrb	r3, [r3, #0]	@ zero_extendqisi2
 293 034c 0300A0E1 		mov	r0, r3
 294 0350 023083E0 		add	r3, r3, r2
 295 0354 0030C4E5 		strb	r3, [r4, #0]
 296 0358 FEFFFFEB 		bl	uart1_transmit
 297 035c 70309FE5 		ldr	r3, .L35+28
 298 0360 0020D4E5 		ldrb	r2, [r4, #0]	@ zero_extendqisi2
 299 0364 0030D3E5 		ldrb	r3, [r3, #0]	@ zero_extendqisi2
 300 0368 0300A0E1 		mov	r0, r3
 301 036c 023083E0 		add	r3, r3, r2
 302 0370 0030C4E5 		strb	r3, [r4, #0]
 303 0374 FEFFFFEB 		bl	uart1_transmit
 304 0378 0030D4E5 		ldrb	r3, [r4, #0]	@ zero_extendqisi2
 305 037c 0330E0E1 		mvn	r3, r3
 306 0380 0030C4E5 		strb	r3, [r4, #0]
 307 0384 0000D4E5 		ldrb	r0, [r4, #0]	@ zero_extendqisi2
 308 0388 FEFFFFEB 		bl	uart1_transmit
 309              	.L2:
 310 038c 30709FE5 		ldr	r7, .L35+12
 311 0390 FEFFFFEB 		bl	common_nav_periodic_task_4Hz
 312 0394 0030D7E5 		ldrb	r3, [r7, #0]	@ zero_extendqisi2
 313 0398 030053E3 		cmp	r3, #3
 314 039c E800001A 		bne	.L11
 315 03a0 FEFFFFEB 		bl	nav_home
 316 03a4 100100EA 		b	.L12
 317              	.L11:
 318 03a8 040053E3 		cmp	r3, #4
 319 03ac 0F01001A 		bne	.L13
 320 03b0 FEFFFFEB 		bl	nav_without_gps
 321 03b4 100100EA 		b	.L12
 322              	.L36:
 323              		.align	2
 324              	.L35:
 325 03b8 00000000 		.word	launch
 326 03bc 00000000 		.word	cpu_time_sec
 327 03c0 00000000 		.word	last_gps_msg_t
 328 03c4 00000000 		.word	pprz_mode
 329 03c8 00000000 		.word	last_pprz_mode.54
 330 03cc 00000000 		.word	horizontal_mode
 331 03d0 00000000 		.word	rc_settings_mode
 332 03d4 00000000 		.word	mcu1_status
 333 03d8 00000000 		.word	gps_lost
 334 03dc 00000000 		.word	nav_circle_radians
 335 03e0 00000000 		.word	downlink_nb_ovrn
 336 03e4 00000000 		.word	downlink_nb_bytes
 337 03e8 00000000 		.word	downlink_nb_msgs
 338 03ec 00000000 		.word	xbee_cs
 339 03f0 00000000 		.word	nav_block
 340 03f4 00000000 		.word	nav_stage
 341 03f8 00000000 		.word	estimator_x
 342 03fc 00000000 		.word	estimator_y
 343 0400 00000000 		.word	dist2_to_wp
 344 0404 00000000 		.word	dist2_to_home
 345 0408 00000000 		.word	nav_oval_count
 346 040c 00000000 		.word	v_ctl_mode
 347 0410 00000000 		.word	lateral_mode
 348 0414 00000000 		.word	nav_throttle_setpoint
 349 0418 00000000 		.word	vsupply
 350 041c 00000000 		.word	v_ctl_throttle_setpoint
 351 0420 00008043 		.word	1132462080
 352 0424 00000000 		.word	nav_pitch
 353 0428 00000000 		.word	h_ctl_pitch_setpoint
 354 042c FB211940 		.word	1075388923
 355 0430 182D4454 		.word	1413754136
 356 0434 00000000 		.word	0
 357 0438 00000000 		.word	0
 358 043c 00C05B40 		.word	1079754752
 359 0440 00000000 		.word	0
 360              	.L13:
 361 0444 FEFFFFEB 		bl	nav_periodic_task
 362              	.L12:
 363 0448 74301FE5 		ldr	r3, .L35+36
 364 044c 003093E5 		ldr	r3, [r3, #0]
 365 0450 0201C3E3 		bic	r0, r3, #-2147483648
 366 0454 FEFFFFEB 		bl	__extendsfdf2
 367 0458 34204FE2 		adr	r2, .L35+116
 368 045c 0C0092E8 		ldmia	r2, {r2-r3}
 369 0460 FEFFFFEB 		bl	__divdf3
 370 0464 FEFFFFEB 		bl	__fixunsdfsi
 371 0468 21004BE5 		strb	r0, [fp, #-33]
 372 046c 1F00A0E3 		mov	r0, #31
 373 0470 FEFFFFEB 		bl	uart1_check_free_space
 374 0474 FF0010E3 		tst	r0, #255
 375 0478 A0201F05 		ldreq	r2, .L35+40
 376 047c 0030D205 		ldreqb	r3, [r2, #0]	@ zero_extendqisi2
 377 0480 01308302 		addeq	r3, r3, #1
 378 0484 0030C205 		streqb	r3, [r2, #0]
 379 0488 CA01000A 		beq	.L16
 380 048c B0101FE5 		ldr	r1, .L35+44
 381 0490 B0C01FE5 		ldr	ip, .L35+48
 382 0494 B030D1E1 		ldrh	r3, [r1, #0]
 383 0498 B020DCE1 		ldrh	r2, [ip, #0]
 384 049c 1F3083E2 		add	r3, r3, #31
 385 04a0 012082E2 		add	r2, r2, #1
 386 04a4 B030C1E1 		strh	r3, [r1, #0]	@ movhi 
 387 04a8 B020CCE1 		strh	r2, [ip, #0]	@ movhi 
 388 04ac 0060A0E3 		mov	r6, #0
 389 04b0 7E00A0E3 		mov	r0, #126
 390 04b4 D0401FE5 		ldr	r4, .L35+52
 391 04b8 FEFFFFEB 		bl	uart1_transmit
 392 04bc 0600A0E1 		mov	r0, r6
 393 04c0 0150A0E3 		mov	r5, #1
 394 04c4 FEFFFFEB 		bl	uart1_transmit
 395 04c8 1B00A0E3 		mov	r0, #27
 396 04cc FEFFFFEB 		bl	uart1_transmit
 397 04d0 0500A0E1 		mov	r0, r5
 398 04d4 0050C4E5 		strb	r5, [r4, #0]
 399 04d8 FEFFFFEB 		bl	uart1_transmit
 400 04dc 0600A0E1 		mov	r0, r6
 401 04e0 FEFFFFEB 		bl	uart1_transmit
 402 04e4 0030D4E5 		ldrb	r3, [r4, #0]	@ zero_extendqisi2
 403 04e8 053083E0 		add	r3, r3, r5
 404 04ec 0030C4E5 		strb	r3, [r4, #0]
 405 04f0 0500A0E1 		mov	r0, r5
 406 04f4 FEFFFFEB 		bl	uart1_transmit
 407 04f8 0600A0E1 		mov	r0, r6
 408 04fc FEFFFFEB 		bl	uart1_transmit
 409 0500 0600A0E1 		mov	r0, r6
 410 0504 FEFFFFEB 		bl	uart1_transmit
 411 0508 0030D4E5 		ldrb	r3, [r4, #0]	@ zero_extendqisi2
 412 050c 0B3083E2 		add	r3, r3, #11
 413 0510 0B00A0E3 		mov	r0, #11
 414 0514 0030C4E5 		strb	r3, [r4, #0]
 415 0518 FEFFFFEB 		bl	uart1_transmit
 416 051c 0030D4E5 		ldrb	r3, [r4, #0]	@ zero_extendqisi2
 417 0520 0A3083E2 		add	r3, r3, #10
 418 0524 0A00A0E3 		mov	r0, #10
 419 0528 0030C4E5 		strb	r3, [r4, #0]
 420 052c FEFFFFEB 		bl	uart1_transmit
 421 0530 48311FE5 		ldr	r3, .L35+56
 422 0534 0020D4E5 		ldrb	r2, [r4, #0]	@ zero_extendqisi2
 423 0538 0030D3E5 		ldrb	r3, [r3, #0]	@ zero_extendqisi2
 424 053c 0300A0E1 		mov	r0, r3
 425 0540 023083E0 		add	r3, r3, r2
 426 0544 0030C4E5 		strb	r3, [r4, #0]
 427 0548 FEFFFFEB 		bl	uart1_transmit
 428 054c 60311FE5 		ldr	r3, .L35+60
 429 0550 0000D3E5 		ldrb	r0, [r3, #0]	@ zero_extendqisi2
 430 0554 0030D4E5 		ldrb	r3, [r4, #0]	@ zero_extendqisi2
 431 0558 68511FE5 		ldr	r5, .L35+64
 432 055c 033080E0 		add	r3, r0, r3
 433 0560 0030C4E5 		strb	r3, [r4, #0]
 434 0564 FEFFFFEB 		bl	uart1_transmit
 435 0568 0030D5E5 		ldrb	r3, [r5, #0]	@ zero_extendqisi2
 436 056c 0020D4E5 		ldrb	r2, [r4, #0]	@ zero_extendqisi2
 437 0570 0300A0E1 		mov	r0, r3
 438 0574 023083E0 		add	r3, r3, r2
 439 0578 0030C4E5 		strb	r3, [r4, #0]
 440 057c FEFFFFEB 		bl	uart1_transmit
 441 0580 0130D5E5 		ldrb	r3, [r5, #1]	@ zero_extendqisi2
 442 0584 0020D4E5 		ldrb	r2, [r4, #0]	@ zero_extendqisi2
 443 0588 0300A0E1 		mov	r0, r3
 444 058c 023083E0 		add	r3, r3, r2
 445 0590 0030C4E5 		strb	r3, [r4, #0]
 446 0594 FEFFFFEB 		bl	uart1_transmit
 447 0598 0230D5E5 		ldrb	r3, [r5, #2]	@ zero_extendqisi2
 448 059c 0020D4E5 		ldrb	r2, [r4, #0]	@ zero_extendqisi2
 449 05a0 0300A0E1 		mov	r0, r3
 450 05a4 023083E0 		add	r3, r3, r2
 451 05a8 0030C4E5 		strb	r3, [r4, #0]
 452 05ac FEFFFFEB 		bl	uart1_transmit
 453 05b0 0300D5E5 		ldrb	r0, [r5, #3]	@ zero_extendqisi2
 454 05b4 0030D4E5 		ldrb	r3, [r4, #0]	@ zero_extendqisi2
 455 05b8 C4511FE5 		ldr	r5, .L35+68
 456 05bc 033080E0 		add	r3, r0, r3
 457 05c0 0030C4E5 		strb	r3, [r4, #0]
 458 05c4 FEFFFFEB 		bl	uart1_transmit
 459 05c8 0030D5E5 		ldrb	r3, [r5, #0]	@ zero_extendqisi2
 460 05cc 0020D4E5 		ldrb	r2, [r4, #0]	@ zero_extendqisi2
 461 05d0 0300A0E1 		mov	r0, r3
 462 05d4 023083E0 		add	r3, r3, r2
 463 05d8 0030C4E5 		strb	r3, [r4, #0]
 464 05dc FEFFFFEB 		bl	uart1_transmit
 465 05e0 0130D5E5 		ldrb	r3, [r5, #1]	@ zero_extendqisi2
 466 05e4 0020D4E5 		ldrb	r2, [r4, #0]	@ zero_extendqisi2
 467 05e8 0300A0E1 		mov	r0, r3
 468 05ec 023083E0 		add	r3, r3, r2
 469 05f0 0030C4E5 		strb	r3, [r4, #0]
 470 05f4 FEFFFFEB 		bl	uart1_transmit
 471 05f8 0230D5E5 		ldrb	r3, [r5, #2]	@ zero_extendqisi2
 472 05fc 0020D4E5 		ldrb	r2, [r4, #0]	@ zero_extendqisi2
 473 0600 0300A0E1 		mov	r0, r3
 474 0604 023083E0 		add	r3, r3, r2
 475 0608 0030C4E5 		strb	r3, [r4, #0]
 476 060c FEFFFFEB 		bl	uart1_transmit
 477 0610 0300D5E5 		ldrb	r0, [r5, #3]	@ zero_extendqisi2
 478 0614 0030D4E5 		ldrb	r3, [r4, #0]	@ zero_extendqisi2
 479 0618 20521FE5 		ldr	r5, .L35+72
 480 061c 033080E0 		add	r3, r0, r3
 481 0620 0030C4E5 		strb	r3, [r4, #0]
 482 0624 FEFFFFEB 		bl	uart1_transmit
 483 0628 0030D5E5 		ldrb	r3, [r5, #0]	@ zero_extendqisi2
 484 062c 0020D4E5 		ldrb	r2, [r4, #0]	@ zero_extendqisi2
 485 0630 0300A0E1 		mov	r0, r3
 486 0634 023083E0 		add	r3, r3, r2
 487 0638 0030C4E5 		strb	r3, [r4, #0]
 488 063c FEFFFFEB 		bl	uart1_transmit
 489 0640 0130D5E5 		ldrb	r3, [r5, #1]	@ zero_extendqisi2
 490 0644 0020D4E5 		ldrb	r2, [r4, #0]	@ zero_extendqisi2
 491 0648 0300A0E1 		mov	r0, r3
 492 064c 023083E0 		add	r3, r3, r2
 493 0650 0030C4E5 		strb	r3, [r4, #0]
 494 0654 FEFFFFEB 		bl	uart1_transmit
 495 0658 0230D5E5 		ldrb	r3, [r5, #2]	@ zero_extendqisi2
 496 065c 0020D4E5 		ldrb	r2, [r4, #0]	@ zero_extendqisi2
 497 0660 0300A0E1 		mov	r0, r3
 498 0664 023083E0 		add	r3, r3, r2
 499 0668 0030C4E5 		strb	r3, [r4, #0]
 500 066c FEFFFFEB 		bl	uart1_transmit
 501 0670 0300D5E5 		ldrb	r0, [r5, #3]	@ zero_extendqisi2
 502 0674 0030D4E5 		ldrb	r3, [r4, #0]	@ zero_extendqisi2
 503 0678 7C521FE5 		ldr	r5, .L35+76
 504 067c 033080E0 		add	r3, r0, r3
 505 0680 0030C4E5 		strb	r3, [r4, #0]
 506 0684 FEFFFFEB 		bl	uart1_transmit
 507 0688 0030D5E5 		ldrb	r3, [r5, #0]	@ zero_extendqisi2
 508 068c 0020D4E5 		ldrb	r2, [r4, #0]	@ zero_extendqisi2
 509 0690 0300A0E1 		mov	r0, r3
 510 0694 023083E0 		add	r3, r3, r2
 511 0698 0030C4E5 		strb	r3, [r4, #0]
 512 069c FEFFFFEB 		bl	uart1_transmit
 513 06a0 0130D5E5 		ldrb	r3, [r5, #1]	@ zero_extendqisi2
 514 06a4 0020D4E5 		ldrb	r2, [r4, #0]	@ zero_extendqisi2
 515 06a8 0300A0E1 		mov	r0, r3
 516 06ac 023083E0 		add	r3, r3, r2
 517 06b0 0030C4E5 		strb	r3, [r4, #0]
 518 06b4 FEFFFFEB 		bl	uart1_transmit
 519 06b8 0230D5E5 		ldrb	r3, [r5, #2]	@ zero_extendqisi2
 520 06bc 0020D4E5 		ldrb	r2, [r4, #0]	@ zero_extendqisi2
 521 06c0 0300A0E1 		mov	r0, r3
 522 06c4 023083E0 		add	r3, r3, r2
 523 06c8 0030C4E5 		strb	r3, [r4, #0]
 524 06cc FEFFFFEB 		bl	uart1_transmit
 525 06d0 0330D5E5 		ldrb	r3, [r5, #3]	@ zero_extendqisi2
 526 06d4 0020D4E5 		ldrb	r2, [r4, #0]	@ zero_extendqisi2
 527 06d8 0300A0E1 		mov	r0, r3
 528 06dc 023083E0 		add	r3, r3, r2
 529 06e0 0030C4E5 		strb	r3, [r4, #0]
 530 06e4 FEFFFFEB 		bl	uart1_transmit
 531 06e8 21305BE5 		ldrb	r3, [fp, #-33]	@ zero_extendqisi2
 532 06ec 0020D4E5 		ldrb	r2, [r4, #0]	@ zero_extendqisi2
 533 06f0 0300A0E1 		mov	r0, r3
 534 06f4 023083E0 		add	r3, r3, r2
 535 06f8 0030C4E5 		strb	r3, [r4, #0]
 536 06fc FEFFFFEB 		bl	uart1_transmit
 537 0700 00331FE5 		ldr	r3, .L35+80
 538 0704 0020D4E5 		ldrb	r2, [r4, #0]	@ zero_extendqisi2
 539 0708 0030D3E5 		ldrb	r3, [r3, #0]	@ zero_extendqisi2
 540 070c 0300A0E1 		mov	r0, r3
 541 0710 023083E0 		add	r3, r3, r2
 542 0714 0030C4E5 		strb	r3, [r4, #0]
 543 0718 FEFFFFEB 		bl	uart1_transmit
 544 071c 0030D4E5 		ldrb	r3, [r4, #0]	@ zero_extendqisi2
 545 0720 0330E0E1 		mvn	r3, r3
 546 0724 0030C4E5 		strb	r3, [r4, #0]
 547 0728 0000D4E5 		ldrb	r0, [r4, #0]	@ zero_extendqisi2
 548 072c FEFFFFEB 		bl	uart1_transmit
 549              	.L16:
 550 0730 2C431FE5 		ldr	r4, .L35+84
 551 0734 0030D4E5 		ldrb	r3, [r4, #0]	@ zero_extendqisi2
 552 0738 030053E3 		cmp	r3, #3
 553 073c FEFFFF0B 		bleq	v_ctl_altitude_loop
 554              	.L17:
 555 0740 0030D7E5 		ldrb	r3, [r7, #0]	@ zero_extendqisi2
 556 0744 023043E2 		sub	r3, r3, #2
 557 0748 020053E3 		cmp	r3, #2
 558 074c 2E02008A 		bhi	.L18
 559 0750 48331FE5 		ldr	r3, .L35+88
 560 0754 0030D3E5 		ldrb	r3, [r3, #0]	@ zero_extendqisi2
 561 0758 020053E3 		cmp	r3, #2
 562 075c FEFFFF8B 		blhi	h_ctl_course_loop
 563              	.L19:
 564 0760 0030D4E5 		ldrb	r3, [r4, #0]	@ zero_extendqisi2
 565 0764 010053E3 		cmp	r3, #1
 566 0768 FEFFFF8B 		blhi	v_ctl_climb_loop
 567              	.L20:
 568 076c 0030D4E5 		ldrb	r3, [r4, #0]	@ zero_extendqisi2
 569 0770 010053E3 		cmp	r3, #1
 570 0774 68231F05 		ldreq	r2, .L35+92
 571 0778 64331F05 		ldreq	r3, .L35+100
 572 077c B020D201 		ldreqh	r2, [r2, #0]
 573 0780 B020C301 		streqh	r2, [r3, #0]	@ movhi 
 574 0784 74331FE5 		ldr	r3, .L35+96
 575 0788 0040D3E5 		ldrb	r4, [r3, #0]	@ zero_extendqisi2
 576 078c 0400A0E1 		mov	r0, r4
 577 0790 FEFFFFEB 		bl	__floatsidf
 578 0794 DA2F4FE2 		adr	r2, .L35+124
 579 0798 0C0092E8 		ldmia	r2, {r2-r3}
 580 079c FEFFFFEB 		bl	__gtdf2
 581 07a0 000050E3 		cmp	r0, #0
 582 07a4 090200DA 		ble	.L22
 583 07a8 94731FE5 		ldr	r7, .L35+100
 584 07ac F000D7E1 		ldrsh	r0, [r7, #0]
 585 07b0 FEFFFFEB 		bl	__floatsidf
 586 07b4 044CA0E1 		mov	r4, r4, asl #24
 587 07b8 444CA0E1 		mov	r4, r4, asr #24
 588 07bc 0160A0E1 		mov	r6, r1
 589 07c0 0050A0E1 		mov	r5, r0
 590 07c4 0400A0E1 		mov	r0, r4
 591 07c8 FEFFFFEB 		bl	__floatsisf
 592 07cc 000054E3 		cmp	r4, #0
 593 07d0 B8131FB5 		ldrlt	r1, .L35+104
 594 07d4 FEFFFFBB 		bllt	__addsf3
 595              	.L24:
 596 07d8 FEFFFFEB 		bl	__extendsfdf2
 597 07dc 0130A0E1 		mov	r3, r1
 598 07e0 0020A0E1 		mov	r2, r0
 599 07e4 3B0E4FE2 		adr	r0, .L35+132
 600 07e8 030090E8 		ldmia	r0, {r0-r1}
 601 07ec FEFFFFEB 		bl	__divdf3
 602 07f0 0130A0E1 		mov	r3, r1
 603 07f4 0020A0E1 		mov	r2, r0
 604 07f8 0610A0E1 		mov	r1, r6
 605 07fc 0500A0E1 		mov	r0, r5
 606 0800 FEFFFFEB 		bl	__muldf3
 607 0804 FEFFFFEB 		bl	__fixdfsi
 608 0808 B000C7E1 		strh	r0, [r7, #0]	@ movhi 
 609 080c F030D7E1 		ldrsh	r3, [r7, #0]
 610 0810 000053E3 		cmp	r3, #0
 611 0814 0720A0E1 		mov	r2, r7
 612 0818 0030A0B3 		movlt	r3, #0	@ movhi
 613 081c 080200BA 		blt	.L26
 614 0820 960D53E3 		cmp	r3, #9600
 615 0824 963DA0A3 		movge	r3, #9600
 616              	.L26:
 617 0828 B030C2E1 		strh	r3, [r2, #0]	@ movhi 
 618              	.L22:
 619 082c 10341FE5 		ldr	r3, .L35+108
 620 0830 10641FE5 		ldr	r6, .L35+112
 621 0834 003093E5 		ldr	r3, [r3, #0]	@ float
 622 0838 0300A0E1 		mov	r0, r3
 623 083c 003086E5 		str	r3, [r6, #0]	@ float
 624 0840 FEFFFFEB 		bl	__extendsfdf2
 625 0844 B0208FE2 		adr	r2, .L37
 626 0848 0C0092E8 		ldmia	r2, {r2-r3}
 627 084c 0150A0E1 		mov	r5, r1
 628 0850 0040A0E1 		mov	r4, r0
 629 0854 FEFFFFEB 		bl	__gtdf2
 630 0858 000050E3 		cmp	r0, #0
 631 085c A8309FC5 		ldrgt	r3, .L37+16
 632 0860 1F0200CA 		bgt	.L34
 633 0864 0510A0E1 		mov	r1, r5
 634 0868 0400A0E1 		mov	r0, r4
 635 086c 90208FE2 		adr	r2, .L37+8
 636 0870 0C0092E8 		ldmia	r2, {r2-r3}
 637 0874 FEFFFFEB 		bl	__ltdf2
 638 0878 000050E3 		cmp	r0, #0
 639 087c 200200AA 		bge	.L29
 640 0880 88309FE5 		ldr	r3, .L37+20
 641              	.L34:
 642 0884 003086E5 		str	r3, [r6, #0]	@ float
 643              	.L29:
 644 0888 84309FE5 		ldr	r3, .L37+24
 645 088c 0030D3E5 		ldrb	r3, [r3, #0]	@ zero_extendqisi2
 646 0890 000053E3 		cmp	r3, #0
 647 0894 2B02001A 		bne	.L33
 648 0898 78309FE5 		ldr	r3, .L37+28
 649 089c B030D3E1 		ldrh	r3, [r3, #0]
 650 08a0 000053E3 		cmp	r3, #0
 651 08a4 2E02001A 		bne	.L18
 652 08a8 0030D8E5 		ldrb	r3, [r8, #0]	@ zero_extendqisi2
 653 08ac 000053E3 		cmp	r3, #0
 654 08b0 2E02001A 		bne	.L18
 655              	.L33:
 656 08b4 60309FE5 		ldr	r3, .L37+32
 657 08b8 0020A0E3 		mov	r2, #0	@ movhi
 658 08bc B020C3E1 		strh	r2, [r3, #0]	@ movhi 
 659              	.L18:
 660 08c0 58309FE5 		ldr	r3, .L37+36
 661 08c4 000093E5 		ldr	r0, [r3, #0]
 662 08c8 FEFFFFEB 		bl	__floatsisf
 663 08cc 50109FE5 		ldr	r1, .L37+40
 664 08d0 FEFFFFEB 		bl	__divsf3
 665 08d4 FA15A0E3 		mov	r1, #1048576000
 666 08d8 FEFFFFEB 		bl	__mulsf3
 667 08dc 44409FE5 		ldr	r4, .L37+44
 668 08e0 0010A0E1 		mov	r1, r0
 669 08e4 000094E5 		ldr	r0, [r4, #0]	@ float
 670 08e8 FEFFFFEB 		bl	__addsf3
 671 08ec 000084E5 		str	r0, [r4, #0]	@ float
 672 08f0 20D04BE2 		sub	sp, fp, #32
 673 08f4 F0699DE8 		ldmfd	sp, {r4, r5, r6, r7, r8, fp, sp, lr}
 674 08f8 1EFF2FE1 		bx	lr
 675              	.L38:
 676              		.align	2
 677              	.L37:
 678 08fc 3333E33F 		.word	1071854387
 679 0900 33333333 		.word	858993459
 680 0904 3333E3BF 		.word	-1075629261
 681 0908 33333333 		.word	858993459
 682 090c 9A99193F 		.word	1058642330
 683 0910 9A9919BF 		.word	-1088841318
 684 0914 00000000 		.word	kill_throttle
 685 0918 00000000 		.word	estimator_flight_time
 686 091c 00000000 		.word	v_ctl_throttle_setpoint
 687 0920 00000000 		.word	current
 688 0924 00006145 		.word	1163984896
 689 0928 00000000 		.word	energy
 691              		.section	.data._60Hz.3,"aw",%progbits
 694              	_60Hz.3:
 695 0000 00       		.byte	0
 696              		.section	.data._20Hz.4,"aw",%progbits
 699              	_20Hz.4:
 700 0000 00       		.byte	0
 701              		.section	.data._10Hz.5,"aw",%progbits
 704              	_10Hz.5:
 705 0000 00       		.byte	0
 706              		.section	.data._4Hz.6,"aw",%progbits
 709              	_4Hz.6:
 710 0000 00       		.byte	0
 711              		.section	.data._1Hz.7,"aw",%progbits
 714              	_1Hz.7:
 715 0000 00       		.byte	0
 716              		.section	.data.boot.9,"aw",%progbits
 719              	boot.9:
 720 0000 01       		.byte	1
 721              		.section	.data.i15.10,"aw",%progbits
 724              	i15.10:
 725 0000 00       		.byte	0
 726              		.section	.data.i30.11,"aw",%progbits
 729              	i30.11:
 730 0000 00       		.byte	0
 731              		.section	.data.i60.12,"aw",%progbits
 734              	i60.12:
 735 0000 00       		.byte	0
 736              		.section	.data.i63.13,"aw",%progbits
 739              	i63.13:
 740 0000 00       		.byte	0
 741              		.section	.data.i66.14,"aw",%progbits
 744              	i66.14:
 745 0000 00       		.byte	0
 746              		.section	.data.i72.15,"aw",%progbits
 749              	i72.15:
 750 0000 00       		.byte	0
 751              		.section	.data.i90.16,"aw",%progbits
 754              	i90.16:
 755 0000 00       		.byte	0
 756              		.section	.data.i120.17,"aw",%progbits
 759              	i120.17:
 760 0000 00       		.byte	0
 761              		.section	.data.i126.18,"aw",%progbits
 764              	i126.18:
 765 0000 00       		.byte	0
 766              		.section	.data.i150.19,"aw",%progbits
 769              	i150.19:
 770 0000 00       		.byte	0
 771              		.section	.data.i300.20,"aw",%progbits
 772              		.align	1
 775              	i300.20:
 776 0000 0000     		.short	0
 777              		.section	.data.i306.21,"aw",%progbits
 778              		.align	1
 781              	i306.21:
 782 0000 0000     		.short	0
 783              		.section	.data.i540.22,"aw",%progbits
 784              		.align	1
 787              	i540.22:
 788 0000 0000     		.short	0
 789              		.section	.bss.i.23,"aw",%nobits
 792              	i.23:
 793 0000 00       		.space	1
 794              		.global	__fixsfsi
 795              		.section	.bss.i.24,"aw",%nobits
 798              	i.24:
 799 0000 00       		.space	1
 800              		.section	.bss.last.25,"aw",%nobits
 801              		.align	1
 804              	last.25:
 805 0000 0000     		.space	2
 806              		.section	.data.i63.26,"aw",%progbits
 809              	i63.26:
 810 0000 00       		.byte	0
 811              		.section	.data.i66.27,"aw",%progbits
 814              	i66.27:
 815 0000 00       		.byte	0
 816              		.section	.data.i78.28,"aw",%progbits
 819              	i78.28:
 820 0000 00       		.byte	0
 821              		.section	.data.i84.29,"aw",%progbits
 824              	i84.29:
 825 0000 00       		.byte	0
 826              		.section	.data.i90.30,"aw",%progbits
 829              	i90.30:
 830 0000 00       		.byte	0
 831              		.section	.data.i126.31,"aw",%progbits
 834              	i126.31:
 835 0000 00       		.byte	0
 836              		.section	.data.i180.32,"aw",%progbits
 839              	i180.32:
 840 0000 00       		.byte	0
 841              		.section	.data.i183.33,"aw",%progbits
 844              	i183.33:
 845 0000 00       		.byte	0
 846              		.section	.data.i192.34,"aw",%progbits
 849              	i192.34:
 850 0000 00       		.byte	0
 851              		.section	.data.i240.35,"aw",%progbits
 854              	i240.35:
 855 0000 00       		.byte	0
 856              		.section	.data.i243.36,"aw",%progbits
 859              	i243.36:
 860 0000 00       		.byte	0
 861              		.section	.data.i300.37,"aw",%progbits
 862              		.align	1
 865              	i300.37:
 866 0000 0000     		.short	0
 867              		.section	.data.i306.38,"aw",%progbits
 868              		.align	1
 871              	i306.38:
 872 0000 0000     		.short	0
 873              		.section	.data.i312.39,"aw",%progbits
 874              		.align	1
 877              	i312.39:
 878 0000 0000     		.short	0
 879              		.section	.data.i540.40,"aw",%progbits
 880              		.align	1
 883              	i540.40:
 884 0000 0000     		.short	0
 885              		.section	.data.i606.41,"aw",%progbits
 886              		.align	1
 889              	i606.41:
 890 0000 0000     		.short	0
 891              		.section	.bss.i.42,"aw",%nobits
 894              	i.42:
 895 0000 00       		.space	1
 896              		.section	.bss.i.43,"aw",%nobits
 899              	i.43:
 900 0000 00       		.space	1
 901              		.section	.bss.last.44,"aw",%nobits
 902              		.align	1
 905              	last.44:
 906 0000 0000     		.space	2
 907              		.section	.data.i300.45,"aw",%progbits
 908              		.align	1
 911              	i300.45:
 912 0000 0000     		.short	0
 913              		.section	.data.i306.46,"aw",%progbits
 914              		.align	1
 917              	i306.46:
 918 0000 0000     		.short	0
 919              		.section	.data.i318.47,"aw",%progbits
 920              		.align	1
 923              	i318.47:
 924 0000 0000     		.short	0
 925              		.section	.data.i324.48,"aw",%progbits
 926              		.align	1
 929              	i324.48:
 930 0000 0000     		.short	0
 931              		.section	.data.i330.49,"aw",%progbits
 932              		.align	1
 935              	i330.49:
 936 0000 0000     		.short	0
 937              		.section	.data.i342.50,"aw",%progbits
 938              		.align	1
 941              	i342.50:
 942 0000 0000     		.short	0
 943              		.section	.data.i606.51,"aw",%progbits
 944              		.align	1
 947              	i606.51:
 948 0000 0000     		.short	0
 949              		.section	.data.i612.52,"aw",%progbits
 950              		.align	1
 953              	i612.52:
 954 0000 0000     		.short	0
 955              		.section	.bss.last.53,"aw",%nobits
 956              		.align	1
 959              	last.53:
 960 0000 0000     		.space	2
 961              		.section	.data.t.8,"aw",%progbits
 964              	t.8:
 965 0000 00       		.byte	0
 966              		.global	__gtsf2
 967              		.section	.bss.i1.55,"aw",%nobits
 970              	i1.55:
 971 0000 00       		.space	1
 972              		.section	.bss.i6.56,"aw",%nobits
 975              	i6.56:
 976 0000 00       		.space	1
 977              		.section	.bss.i7.57,"aw",%nobits
 980              	i7.57:
 981 0000 00       		.space	1
 982              		.section	.bss.i15.58,"aw",%nobits
 985              	i15.58:
 986 0000 00       		.space	1
 987              		.section	.bss.i33.59,"aw",%nobits
 990              	i33.59:
 991 0000 00       		.space	1
 992              		.section	.rodata.str1.4,"aMS",%progbits,1
 993              		.align	2
 994              	.LC0:
 995 0000 8A766960 		.ascii	"\212vi`\017\fR]\356d\253\367\021+\026\210\000"
 995      0F0C525D 
 995      EE64ABF7 
 995      112B1688 
 995      00
 996 0011 000000   		.section	.text.periodic_task_ap,"ax",%progbits
 997              		.align	2
 998              		.global	periodic_task_ap
 1000              	periodic_task_ap:
 1001              		@ Function supports interworking.
 1002              		@ args = 0, pretend = 0, frame = 64
 1003              		@ frame_needed = 1, uses_anonymous_args = 0
 1004 0000 0DC0A0E1 		mov	ip, sp
 1005 0004 F0DF2DE9 		stmfd	sp!, {r4, r5, r6, r7, r8, r9, sl, fp, ip, lr, pc}
 1006 0008 00199FE5 		ldr	r1, .L440
 1007 000c 04B04CE2 		sub	fp, ip, #4
 1008 0010 40D04DE2 		sub	sp, sp, #64
 1009 0014 0030D1E5 		ldrb	r3, [r1, #0]	@ zero_extendqisi2
 1010 0018 013083E2 		add	r3, r3, #1
 1011 001c 0030C1E5 		strb	r3, [r1, #0]
 1012 0020 0030D1E5 		ldrb	r3, [r1, #0]	@ zero_extendqisi2
 1013 0024 000053E3 		cmp	r3, #0
 1014 0028 C319000A 		beq	.L39
 1015 002c E0289FE5 		ldr	r2, .L440+4
 1016 0030 0030D2E5 		ldrb	r3, [r2, #0]	@ zero_extendqisi2
 1017 0034 013083E2 		add	r3, r3, #1
 1018 0038 0030C2E5 		strb	r3, [r2, #0]
 1019 003c 0030D2E5 		ldrb	r3, [r2, #0]	@ zero_extendqisi2
 1020 0040 0060A0E3 		mov	r6, #0
 1021 0044 020053E3 		cmp	r3, #2
 1022 0048 0060C285 		strhib	r6, [r2, #0]
 1023 004c C4289FE5 		ldr	r2, .L440+8
 1024 0050 0030D2E5 		ldrb	r3, [r2, #0]	@ zero_extendqisi2
 1025 0054 013083E2 		add	r3, r3, #1
 1026 0058 0030C2E5 		strb	r3, [r2, #0]
 1027 005c B8089FE5 		ldr	r0, .L440+12
 1028 0060 0030D2E5 		ldrb	r3, [r2, #0]	@ zero_extendqisi2
 1029 0064 050053E3 		cmp	r3, #5
 1030 0068 0030D0E5 		ldrb	r3, [r0, #0]	@ zero_extendqisi2
 1031 006c 013083E2 		add	r3, r3, #1
 1032 0070 0030C0E5 		strb	r3, [r0, #0]
 1033 0074 0060C285 		strhib	r6, [r2, #0]
 1034 0078 0030D0E5 		ldrb	r3, [r0, #0]	@ zero_extendqisi2
 1035 007c 9C289FE5 		ldr	r2, .L440+16
 1036 0080 0E0053E3 		cmp	r3, #14
 1037 0084 0030D2E5 		ldrb	r3, [r2, #0]	@ zero_extendqisi2
 1038 0088 013083E2 		add	r3, r3, #1
 1039 008c 0030C2E5 		strb	r3, [r2, #0]
 1040 0090 8C789FE5 		ldr	r7, .L440+20
 1041 0094 0030D2E5 		ldrb	r3, [r2, #0]	@ zero_extendqisi2
 1042 0098 0060C085 		strhib	r6, [r0, #0]
 1043 009c 3B0053E3 		cmp	r3, #59
 1044 00a0 0030D7E5 		ldrb	r3, [r7, #0]	@ zero_extendqisi2
 1045 00a4 0060C285 		strhib	r6, [r2, #0]
 1046 00a8 000053E3 		cmp	r3, #0
 1047 00ac 0060C1E5 		strb	r6, [r1, #0]
 1048 00b0 7000000A 		beq	.L46
 1049 00b4 0D00A0E3 		mov	r0, #13
 1050 00b8 FEFFFFEB 		bl	uart1_check_free_space
 1051 00bc FF0010E3 		tst	r0, #255
 1052 00c0 082A9F05 		ldreq	r2, .L440+448
 1053 00c4 0030D205 		ldreqb	r3, [r2, #0]	@ zero_extendqisi2
 1054 00c8 01308302 		addeq	r3, r3, #1
 1055 00cc 0030C205 		streqb	r3, [r2, #0]
 1056 00d0 6D00000A 		beq	.L48
 1057 00d4 F8199FE5 		ldr	r1, .L440+452
 1058 00d8 F8C99FE5 		ldr	ip, .L440+456
 1059 00dc B030D1E1 		ldrh	r3, [r1, #0]
 1060 00e0 B020DCE1 		ldrh	r2, [ip, #0]
 1061 00e4 0D3083E2 		add	r3, r3, #13
 1062 00e8 012082E2 		add	r2, r2, #1
 1063 00ec B030C1E1 		strh	r3, [r1, #0]	@ movhi 
 1064 00f0 B020CCE1 		strh	r2, [ip, #0]	@ movhi 
 1065 00f4 7E00A0E3 		mov	r0, #126
 1066 00f8 EC489FE5 		ldr	r4, .L440+220
 1067 00fc FEFFFFEB 		bl	uart1_transmit
 1068 0100 0600A0E1 		mov	r0, r6
 1069 0104 0150A0E3 		mov	r5, #1
 1070 0108 FEFFFFEB 		bl	uart1_transmit
 1071 010c 0900A0E3 		mov	r0, #9
 1072 0110 FEFFFFEB 		bl	uart1_transmit
 1073 0114 0500A0E1 		mov	r0, r5
 1074 0118 0050C4E5 		strb	r5, [r4, #0]
 1075 011c FEFFFFEB 		bl	uart1_transmit
 1076 0120 0600A0E1 		mov	r0, r6
 1077 0124 FEFFFFEB 		bl	uart1_transmit
 1078 0128 0030D4E5 		ldrb	r3, [r4, #0]	@ zero_extendqisi2
 1079 012c 053083E0 		add	r3, r3, r5
 1080 0130 0030C4E5 		strb	r3, [r4, #0]
 1081 0134 0500A0E1 		mov	r0, r5
 1082 0138 FEFFFFEB 		bl	uart1_transmit
 1083 013c 0600A0E1 		mov	r0, r6
 1084 0140 FEFFFFEB 		bl	uart1_transmit
 1085 0144 0600A0E1 		mov	r0, r6
 1086 0148 FEFFFFEB 		bl	uart1_transmit
 1087 014c 0030D4E5 		ldrb	r3, [r4, #0]	@ zero_extendqisi2
 1088 0150 0B3083E2 		add	r3, r3, #11
 1089 0154 0B00A0E3 		mov	r0, #11
 1090 0158 0030C4E5 		strb	r3, [r4, #0]
 1091 015c FEFFFFEB 		bl	uart1_transmit
 1092 0160 0030D4E5 		ldrb	r3, [r4, #0]	@ zero_extendqisi2
 1093 0164 BC679FE5 		ldr	r6, .L440+24
 1094 0168 053083E0 		add	r3, r3, r5
 1095 016c 0500A0E1 		mov	r0, r5
 1096 0170 0030C4E5 		strb	r3, [r4, #0]
 1097 0174 FEFFFFEB 		bl	uart1_transmit
 1098 0178 0030D6E5 		ldrb	r3, [r6, #0]	@ zero_extendqisi2
 1099 017c 0020D4E5 		ldrb	r2, [r4, #0]	@ zero_extendqisi2
 1100 0180 0300A0E1 		mov	r0, r3
 1101 0184 023083E0 		add	r3, r3, r2
 1102 0188 0030C4E5 		strb	r3, [r4, #0]
 1103 018c FEFFFFEB 		bl	uart1_transmit
 1104 0190 0130D6E5 		ldrb	r3, [r6, #1]	@ zero_extendqisi2
 1105 0194 0020D4E5 		ldrb	r2, [r4, #0]	@ zero_extendqisi2
 1106 0198 0300A0E1 		mov	r0, r3
 1107 019c 023083E0 		add	r3, r3, r2
 1108 01a0 0030C4E5 		strb	r3, [r4, #0]
 1109 01a4 FEFFFFEB 		bl	uart1_transmit
 1110 01a8 0030D4E5 		ldrb	r3, [r4, #0]	@ zero_extendqisi2
 1111 01ac 0330E0E1 		mvn	r3, r3
 1112 01b0 0030C4E5 		strb	r3, [r4, #0]
 1113 01b4 0000D4E5 		ldrb	r0, [r4, #0]	@ zero_extendqisi2
 1114 01b8 FEFFFFEB 		bl	uart1_transmit
 1115              	.L48:
 1116 01bc 0030A0E3 		mov	r3, #0
 1117 01c0 0030C7E5 		strb	r3, [r7, #0]
 1118 01c4 EE1800EA 		b	.L374
 1119              	.L46:
 1120 01c8 68389FE5 		ldr	r3, .L440+296
 1121 01cc 0020D3E5 		ldrb	r2, [r3, #0]	@ zero_extendqisi2
 1122 01d0 000052E3 		cmp	r2, #0
 1123 01d4 F60A001A 		bne	.L50
 1124 01d8 4C179FE5 		ldr	r1, .L440+28
 1125 01dc 0030D1E5 		ldrb	r3, [r1, #0]	@ zero_extendqisi2
 1126 01e0 013083E2 		add	r3, r3, #1
 1127 01e4 0030C1E5 		strb	r3, [r1, #0]
 1128 01e8 40479FE5 		ldr	r4, .L440+32
 1129 01ec 0030D1E5 		ldrb	r3, [r1, #0]	@ zero_extendqisi2
 1130 01f0 0E0053E3 		cmp	r3, #14
 1131 01f4 0030D4E5 		ldrb	r3, [r4, #0]	@ zero_extendqisi2
 1132 01f8 013083E2 		add	r3, r3, #1
 1133 01fc 0030C4E5 		strb	r3, [r4, #0]
 1134 0200 2CA79FE5 		ldr	sl, .L440+36
 1135 0204 0030D4E5 		ldrb	r3, [r4, #0]	@ zero_extendqisi2
 1136 0208 0020C185 		strhib	r2, [r1, #0]
 1137 020c 1D0053E3 		cmp	r3, #29
 1138 0210 0030DAE5 		ldrb	r3, [sl, #0]	@ zero_extendqisi2
 1139 0214 013083E2 		add	r3, r3, #1
 1140 0218 0030CAE5 		strb	r3, [sl, #0]
 1141 021c 14979FE5 		ldr	r9, .L440+40
 1142 0220 0030DAE5 		ldrb	r3, [sl, #0]	@ zero_extendqisi2
 1143 0224 0020C485 		strhib	r2, [r4, #0]
 1144 0228 3B0053E3 		cmp	r3, #59
 1145 022c 0030D9E5 		ldrb	r3, [r9, #0]	@ zero_extendqisi2
 1146 0230 013083E2 		add	r3, r3, #1
 1147 0234 0030C9E5 		strb	r3, [r9, #0]
 1148 0238 90079FE5 		ldr	r0, .L440+192
 1149 023c 0030D9E5 		ldrb	r3, [r9, #0]	@ zero_extendqisi2
 1150 0240 0020CA85 		strhib	r2, [sl, #0]
 1151 0244 3E0053E3 		cmp	r3, #62
 1152 0248 0030D0E5 		ldrb	r3, [r0, #0]	@ zero_extendqisi2
 1153 024c 013083E2 		add	r3, r3, #1
 1154 0250 0030C0E5 		strb	r3, [r0, #0]
 1155 0254 0030D0E5 		ldrb	r3, [r0, #0]	@ zero_extendqisi2
 1156 0258 0020C985 		strhib	r2, [r9, #0]
 1157 025c 410053E3 		cmp	r3, #65
 1158 0260 0020C085 		strhib	r2, [r0, #0]
 1159 0264 78079FE5 		ldr	r0, .L440+212
 1160 0268 0030D0E5 		ldrb	r3, [r0, #0]	@ zero_extendqisi2
 1161 026c 013083E2 		add	r3, r3, #1
 1162 0270 0030C0E5 		strb	r3, [r0, #0]
 1163 0274 0030D0E5 		ldrb	r3, [r0, #0]	@ zero_extendqisi2
 1164 0278 470053E3 		cmp	r3, #71
 1165 027c 0020C085 		strhib	r2, [r0, #0]
 1166 0280 80079FE5 		ldr	r0, .L440+248
 1167 0284 0030D0E5 		ldrb	r3, [r0, #0]	@ zero_extendqisi2
 1168 0288 013083E2 		add	r3, r3, #1
 1169 028c 0030C0E5 		strb	r3, [r0, #0]
 1170 0290 0030D0E5 		ldrb	r3, [r0, #0]	@ zero_extendqisi2
 1171 0294 590053E3 		cmp	r3, #89
 1172 0298 0020C085 		strhib	r2, [r0, #0]
 1173 029c 98069FE5 		ldr	r0, .L440+44
 1174 02a0 0030D0E5 		ldrb	r3, [r0, #0]	@ zero_extendqisi2
 1175 02a4 013083E2 		add	r3, r3, #1
 1176 02a8 0030C0E5 		strb	r3, [r0, #0]
 1177 02ac 0030D0E5 		ldrb	r3, [r0, #0]	@ zero_extendqisi2
 1178 02b0 770053E3 		cmp	r3, #119
 1179 02b4 0020C085 		strhib	r2, [r0, #0]
 1180 02b8 80069FE5 		ldr	r0, .L440+48
 1181 02bc 0030D0E5 		ldrb	r3, [r0, #0]	@ zero_extendqisi2
 1182 02c0 013083E2 		add	r3, r3, #1
 1183 02c4 0030C0E5 		strb	r3, [r0, #0]
 1184 02c8 0030D0E5 		ldrb	r3, [r0, #0]	@ zero_extendqisi2
 1185 02cc 7D0053E3 		cmp	r3, #125
 1186 02d0 0020C085 		strhib	r2, [r0, #0]
 1187 02d4 68069FE5 		ldr	r0, .L440+52
 1188 02d8 0030D0E5 		ldrb	r3, [r0, #0]	@ zero_extendqisi2
 1189 02dc 013083E2 		add	r3, r3, #1
 1190 02e0 0030C0E5 		strb	r3, [r0, #0]
 1191 02e4 0030D0E5 		ldrb	r3, [r0, #0]	@ zero_extendqisi2
 1192 02e8 950053E3 		cmp	r3, #149
 1193 02ec 0020C085 		strhib	r2, [r0, #0]
 1194 02f0 50269FE5 		ldr	r2, .L440+56
 1195 02f4 B030D2E1 		ldrh	r3, [r2, #0]
 1196 02f8 013083E2 		add	r3, r3, #1
 1197 02fc B030C2E1 		strh	r3, [r2, #0]	@ movhi 
 1198 0300 B030D2E1 		ldrh	r3, [r2, #0]
 1199 0304 40069FE5 		ldr	r0, .L440+60
 1200 0308 4B0F53E3 		cmp	r3, #300
 1201 030c 0030A023 		movcs	r3, #0	@ movhi
 1202 0310 B030C221 		strcsh	r3, [r2, #0]	@ movhi 
 1203 0314 B030D0E1 		ldrh	r3, [r0, #0]
 1204 0318 013083E2 		add	r3, r3, #1
 1205 031c B030C0E1 		strh	r3, [r0, #0]	@ movhi 
 1206 0320 28369FE5 		ldr	r3, .L440+64
 1207 0324 B020D0E1 		ldrh	r2, [r0, #0]
 1208 0328 030052E1 		cmp	r2, r3
 1209 032c 0020A083 		movhi	r2, #0	@ movhi
 1210 0330 B020C081 		strhih	r2, [r0, #0]	@ movhi 
 1211 0334 18069FE5 		ldr	r0, .L440+68
 1212 0338 B030D0E1 		ldrh	r3, [r0, #0]
 1213 033c 013083E2 		add	r3, r3, #1
 1214 0340 B030C0E1 		strh	r3, [r0, #0]	@ movhi 
 1215 0344 B030D0E1 		ldrh	r3, [r0, #0]
 1216 0348 870F53E3 		cmp	r3, #540
 1217 034c 0030D1E5 		ldrb	r3, [r1, #0]	@ zero_extendqisi2
 1218 0350 0020A023 		movcs	r2, #0	@ movhi
 1219 0354 B020C021 		strcsh	r2, [r0, #0]	@ movhi 
 1220 0358 000053E3 		cmp	r3, #0
 1221 035c FEFFFF0B 		bleq	gps_send
 1222              	.L64:
 1223 0360 0070D4E5 		ldrb	r7, [r4, #0]	@ zero_extendqisi2
 1224 0364 060057E3 		cmp	r7, #6
 1225 0368 3501001A 		bne	.L65
 1226 036c 1700A0E3 		mov	r0, #23
 1227 0370 FEFFFFEB 		bl	uart1_check_free_space
 1228 0374 FF0010E3 		tst	r0, #255
 1229 0378 B502000A 		beq	.L75
 1230 037c 50179FE5 		ldr	r1, .L440+452
 1231 0380 50C79FE5 		ldr	ip, .L440+456
 1232 0384 B030D1E1 		ldrh	r3, [r1, #0]
 1233 0388 B020DCE1 		ldrh	r2, [ip, #0]
 1234 038c 173083E2 		add	r3, r3, #23
 1235 0390 012082E2 		add	r2, r2, #1
 1236 0394 B030C1E1 		strh	r3, [r1, #0]	@ movhi 
 1237 0398 B020CCE1 		strh	r2, [ip, #0]	@ movhi 
 1238 039c 0060A0E3 		mov	r6, #0
 1239 03a0 7E00A0E3 		mov	r0, #126
 1240 03a4 40469FE5 		ldr	r4, .L440+220
 1241 03a8 FEFFFFEB 		bl	uart1_transmit
 1242 03ac 0600A0E1 		mov	r0, r6
 1243 03b0 0150A0E3 		mov	r5, #1
 1244 03b4 FEFFFFEB 		bl	uart1_transmit
 1245 03b8 1300A0E3 		mov	r0, #19
 1246 03bc FEFFFFEB 		bl	uart1_transmit
 1247 03c0 0500A0E1 		mov	r0, r5
 1248 03c4 0050C4E5 		strb	r5, [r4, #0]
 1249 03c8 FEFFFFEB 		bl	uart1_transmit
 1250 03cc 0600A0E1 		mov	r0, r6
 1251 03d0 FEFFFFEB 		bl	uart1_transmit
 1252 03d4 0030D4E5 		ldrb	r3, [r4, #0]	@ zero_extendqisi2
 1253 03d8 053083E0 		add	r3, r3, r5
 1254 03dc 0030C4E5 		strb	r3, [r4, #0]
 1255 03e0 0500A0E1 		mov	r0, r5
 1256 03e4 FEFFFFEB 		bl	uart1_transmit
 1257 03e8 0600A0E1 		mov	r0, r6
 1258 03ec FEFFFFEB 		bl	uart1_transmit
 1259 03f0 0600A0E1 		mov	r0, r6
 1260 03f4 FEFFFFEB 		bl	uart1_transmit
 1261 03f8 0030D4E5 		ldrb	r3, [r4, #0]	@ zero_extendqisi2
 1262 03fc 0B3083E2 		add	r3, r3, #11
 1263 0400 0B00A0E3 		mov	r0, #11
 1264 0404 0030C4E5 		strb	r3, [r4, #0]
 1265 0408 FEFFFFEB 		bl	uart1_transmit
 1266 040c 0030D4E5 		ldrb	r3, [r4, #0]	@ zero_extendqisi2
 1267 0410 40559FE5 		ldr	r5, .L440+72
 1268 0414 063083E2 		add	r3, r3, #6
 1269 0418 0700A0E1 		mov	r0, r7
 1270 041c 0030C4E5 		strb	r3, [r4, #0]
 1271 0420 FEFFFFEB 		bl	uart1_transmit
 1272 0424 0030D5E5 		ldrb	r3, [r5, #0]	@ zero_extendqisi2
 1273 0428 0020D4E5 		ldrb	r2, [r4, #0]	@ zero_extendqisi2
 1274 042c 0300A0E1 		mov	r0, r3
 1275 0430 023083E0 		add	r3, r3, r2
 1276 0434 0030C4E5 		strb	r3, [r4, #0]
 1277 0438 FEFFFFEB 		bl	uart1_transmit
 1278 043c 0130D5E5 		ldrb	r3, [r5, #1]	@ zero_extendqisi2
 1279 0440 0020D4E5 		ldrb	r2, [r4, #0]	@ zero_extendqisi2
 1280 0444 0300A0E1 		mov	r0, r3
 1281 0448 023083E0 		add	r3, r3, r2
 1282 044c 0030C4E5 		strb	r3, [r4, #0]
 1283 0450 FEFFFFEB 		bl	uart1_transmit
 1284 0454 0230D5E5 		ldrb	r3, [r5, #2]	@ zero_extendqisi2
 1285 0458 0020D4E5 		ldrb	r2, [r4, #0]	@ zero_extendqisi2
 1286 045c 0300A0E1 		mov	r0, r3
 1287 0460 023083E0 		add	r3, r3, r2
 1288 0464 0030C4E5 		strb	r3, [r4, #0]
 1289 0468 FEFFFFEB 		bl	uart1_transmit
 1290 046c 0300D5E5 		ldrb	r0, [r5, #3]	@ zero_extendqisi2
 1291 0470 0030D4E5 		ldrb	r3, [r4, #0]	@ zero_extendqisi2
 1292 0474 E0549FE5 		ldr	r5, .L440+76
 1293 0478 033080E0 		add	r3, r0, r3
 1294 047c 0030C4E5 		strb	r3, [r4, #0]
 1295 0480 FEFFFFEB 		bl	uart1_transmit
 1296 0484 0030D5E5 		ldrb	r3, [r5, #0]	@ zero_extendqisi2
 1297 0488 0020D4E5 		ldrb	r2, [r4, #0]	@ zero_extendqisi2
 1298 048c 0300A0E1 		mov	r0, r3
 1299 0490 023083E0 		add	r3, r3, r2
 1300 0494 0030C4E5 		strb	r3, [r4, #0]
 1301 0498 FEFFFFEB 		bl	uart1_transmit
 1302 049c 0130D5E5 		ldrb	r3, [r5, #1]	@ zero_extendqisi2
 1303 04a0 0020D4E5 		ldrb	r2, [r4, #0]	@ zero_extendqisi2
 1304 04a4 0300A0E1 		mov	r0, r3
 1305 04a8 023083E0 		add	r3, r3, r2
 1306 04ac 0030C4E5 		strb	r3, [r4, #0]
 1307 04b0 FEFFFFEB 		bl	uart1_transmit
 1308 04b4 0230D5E5 		ldrb	r3, [r5, #2]	@ zero_extendqisi2
 1309 04b8 0020D4E5 		ldrb	r2, [r4, #0]	@ zero_extendqisi2
 1310 04bc 0300A0E1 		mov	r0, r3
 1311 04c0 023083E0 		add	r3, r3, r2
 1312 04c4 0030C4E5 		strb	r3, [r4, #0]
 1313 04c8 FEFFFFEB 		bl	uart1_transmit
 1314 04cc 0300D5E5 		ldrb	r0, [r5, #3]	@ zero_extendqisi2
 1315 04d0 0030D4E5 		ldrb	r3, [r4, #0]	@ zero_extendqisi2
 1316 04d4 84549FE5 		ldr	r5, .L440+80
 1317 04d8 7A0100EA 		b	.L422
 1318              	.L65:
 1319 04dc 0C0057E3 		cmp	r7, #12
 1320 04e0 9101001A 		bne	.L69
 1321 04e4 1300A0E3 		mov	r0, #19
 1322 04e8 FEFFFFEB 		bl	uart1_check_free_space
 1323 04ec FF0010E3 		tst	r0, #255
 1324 04f0 B502000A 		beq	.L75
 1325 04f4 D8159FE5 		ldr	r1, .L440+452
 1326 04f8 D8C59FE5 		ldr	ip, .L440+456
 1327 04fc B030D1E1 		ldrh	r3, [r1, #0]
 1328 0500 B020DCE1 		ldrh	r2, [ip, #0]
 1329 0504 133083E2 		add	r3, r3, #19
 1330 0508 012082E2 		add	r2, r2, #1
 1331 050c B030C1E1 		strh	r3, [r1, #0]	@ movhi 
 1332 0510 B020CCE1 		strh	r2, [ip, #0]	@ movhi 
 1333 0514 0060A0E3 		mov	r6, #0
 1334 0518 7E00A0E3 		mov	r0, #126
 1335 051c C8449FE5 		ldr	r4, .L440+220
 1336 0520 FEFFFFEB 		bl	uart1_transmit
 1337 0524 0600A0E1 		mov	r0, r6
 1338 0528 0150A0E3 		mov	r5, #1
 1339 052c FEFFFFEB 		bl	uart1_transmit
 1340 0530 0F00A0E3 		mov	r0, #15
 1341 0534 FEFFFFEB 		bl	uart1_transmit
 1342 0538 0500A0E1 		mov	r0, r5
 1343 053c 0050C4E5 		strb	r5, [r4, #0]
 1344 0540 FEFFFFEB 		bl	uart1_transmit
 1345 0544 0600A0E1 		mov	r0, r6
 1346 0548 FEFFFFEB 		bl	uart1_transmit
 1347 054c 0030D4E5 		ldrb	r3, [r4, #0]	@ zero_extendqisi2
 1348 0550 053083E0 		add	r3, r3, r5
 1349 0554 0030C4E5 		strb	r3, [r4, #0]
 1350 0558 0500A0E1 		mov	r0, r5
 1351 055c FEFFFFEB 		bl	uart1_transmit
 1352 0560 0600A0E1 		mov	r0, r6
 1353 0564 FEFFFFEB 		bl	uart1_transmit
 1354 0568 0600A0E1 		mov	r0, r6
 1355 056c FEFFFFEB 		bl	uart1_transmit
 1356 0570 0030D4E5 		ldrb	r3, [r4, #0]	@ zero_extendqisi2
 1357 0574 0B3083E2 		add	r3, r3, #11
 1358 0578 0B00A0E3 		mov	r0, #11
 1359 057c 0030C4E5 		strb	r3, [r4, #0]
 1360 0580 FEFFFFEB 		bl	uart1_transmit
 1361 0584 0030D4E5 		ldrb	r3, [r4, #0]	@ zero_extendqisi2
 1362 0588 D4539FE5 		ldr	r5, .L440+84
 1363 058c 2A3083E2 		add	r3, r3, #42
 1364 0590 2A00A0E3 		mov	r0, #42
 1365 0594 0030C4E5 		strb	r3, [r4, #0]
 1366 0598 FEFFFFEB 		bl	uart1_transmit
 1367 059c 0030D5E5 		ldrb	r3, [r5, #0]	@ zero_extendqisi2
 1368 05a0 0020D4E5 		ldrb	r2, [r4, #0]	@ zero_extendqisi2
 1369 05a4 0300A0E1 		mov	r0, r3
 1370 05a8 023083E0 		add	r3, r3, r2
 1371 05ac 0030C4E5 		strb	r3, [r4, #0]
 1372 05b0 FEFFFFEB 		bl	uart1_transmit
 1373 05b4 0130D5E5 		ldrb	r3, [r5, #1]	@ zero_extendqisi2
 1374 05b8 0020D4E5 		ldrb	r2, [r4, #0]	@ zero_extendqisi2
 1375 05bc 0300A0E1 		mov	r0, r3
 1376 05c0 023083E0 		add	r3, r3, r2
 1377 05c4 0030C4E5 		strb	r3, [r4, #0]
 1378 05c8 FEFFFFEB 		bl	uart1_transmit
 1379 05cc 0230D5E5 		ldrb	r3, [r5, #2]	@ zero_extendqisi2
 1380 05d0 0020D4E5 		ldrb	r2, [r4, #0]	@ zero_extendqisi2
 1381 05d4 0300A0E1 		mov	r0, r3
 1382 05d8 023083E0 		add	r3, r3, r2
 1383 05dc 0030C4E5 		strb	r3, [r4, #0]
 1384 05e0 FEFFFFEB 		bl	uart1_transmit
 1385 05e4 0300D5E5 		ldrb	r0, [r5, #3]	@ zero_extendqisi2
 1386 05e8 0030D4E5 		ldrb	r3, [r4, #0]	@ zero_extendqisi2
 1387 05ec 74539FE5 		ldr	r5, .L440+88
 1388              	.L422:
 1389 05f0 033080E0 		add	r3, r0, r3
 1390 05f4 0030C4E5 		strb	r3, [r4, #0]
 1391 05f8 FEFFFFEB 		bl	uart1_transmit
 1392 05fc 0030D5E5 		ldrb	r3, [r5, #0]	@ zero_extendqisi2
 1393 0600 0020D4E5 		ldrb	r2, [r4, #0]	@ zero_extendqisi2
 1394 0604 0300A0E1 		mov	r0, r3
 1395 0608 023083E0 		add	r3, r3, r2
 1396 060c 0030C4E5 		strb	r3, [r4, #0]
 1397 0610 FEFFFFEB 		bl	uart1_transmit
 1398 0614 0130D5E5 		ldrb	r3, [r5, #1]	@ zero_extendqisi2
 1399 0618 0020D4E5 		ldrb	r2, [r4, #0]	@ zero_extendqisi2
 1400 061c 0300A0E1 		mov	r0, r3
 1401 0620 023083E0 		add	r3, r3, r2
 1402 0624 0030C4E5 		strb	r3, [r4, #0]
 1403 0628 FEFFFFEB 		bl	uart1_transmit
 1404 062c 0230D5E5 		ldrb	r3, [r5, #2]	@ zero_extendqisi2
 1405 0630 0020D4E5 		ldrb	r2, [r4, #0]	@ zero_extendqisi2
 1406 0634 0300A0E1 		mov	r0, r3
 1407 0638 023083E0 		add	r3, r3, r2
 1408 063c 0030C4E5 		strb	r3, [r4, #0]
 1409 0640 FEFFFFEB 		bl	uart1_transmit
 1410 0644 0330D5E5 		ldrb	r3, [r5, #3]	@ zero_extendqisi2
 1411 0648 370200EA 		b	.L411
 1412              	.L69:
 1413 064c 120057E3 		cmp	r7, #18
 1414 0650 B902001A 		bne	.L68
 1415 0654 10739FE5 		ldr	r7, .L440+92
 1416 0658 0030D7E5 		ldrb	r3, [r7, #0]	@ zero_extendqisi2
 1417 065c 013083E2 		add	r3, r3, #1
 1418 0660 0030C7E5 		strb	r3, [r7, #0]
 1419 0664 04339FE5 		ldr	r3, .L440+96
 1420 0668 0020D3E5 		ldrb	r2, [r3, #0]	@ zero_extendqisi2
 1421 066c 0030D7E5 		ldrb	r3, [r7, #0]	@ zero_extendqisi2
 1422 0670 020053E1 		cmp	r3, r2
 1423 0674 0030A023 		movcs	r3, #0
 1424 0678 0030C725 		strcsb	r3, [r7, #0]
 1425 067c F0329FE5 		ldr	r3, .L440+100
 1426 0680 000093E5 		ldr	r0, [r3, #0]
 1427 0684 FEFFFFEB 		bl	__floatsisf
 1428 0688 0040D7E5 		ldrb	r4, [r7, #0]	@ zero_extendqisi2
 1429 068c E4829FE5 		ldr	r8, .L440+104
 1430 0690 844084E0 		add	r4, r4, r4, asl #1
 1431 0694 0441A0E1 		mov	r4, r4, asl #2
 1432 0698 081094E7 		ldr	r1, [r4, r8]	@ float
 1433 069c FEFFFFEB 		bl	__addsf3
 1434 06a0 D4329FE5 		ldr	r3, .L440+108
 1435 06a4 48000BE5 		str	r0, [fp, #-72]	@ float
 1436 06a8 084084E0 		add	r4, r4, r8
 1437 06ac 000093E5 		ldr	r0, [r3, #0]
 1438 06b0 FEFFFFEB 		bl	__floatsisf
 1439 06b4 041094E5 		ldr	r1, [r4, #4]	@ float
 1440 06b8 FEFFFFEB 		bl	__addsf3
 1441 06bc 4C000BE5 		str	r0, [fp, #-76]	@ float
 1442 06c0 1900A0E3 		mov	r0, #25
 1443 06c4 FEFFFFEB 		bl	uart1_check_free_space
 1444 06c8 FF0010E3 		tst	r0, #255
 1445 06cc B502000A 		beq	.L75
 1446 06d0 FC139FE5 		ldr	r1, .L440+452
 1447 06d4 FCC39FE5 		ldr	ip, .L440+456
 1448 06d8 B030D1E1 		ldrh	r3, [r1, #0]
 1449 06dc B020DCE1 		ldrh	r2, [ip, #0]
 1450 06e0 193083E2 		add	r3, r3, #25
 1451 06e4 012082E2 		add	r2, r2, #1
 1452 06e8 B030C1E1 		strh	r3, [r1, #0]	@ movhi 
 1453 06ec B020CCE1 		strh	r2, [ip, #0]	@ movhi 
 1454 06f0 0060A0E3 		mov	r6, #0
 1455 06f4 7E00A0E3 		mov	r0, #126
 1456 06f8 EC429FE5 		ldr	r4, .L440+220
 1457 06fc FEFFFFEB 		bl	uart1_transmit
 1458 0700 0600A0E1 		mov	r0, r6
 1459 0704 FEFFFFEB 		bl	uart1_transmit
 1460 0708 0150A0E3 		mov	r5, #1
 1461 070c 1500A0E3 		mov	r0, #21
 1462 0710 FEFFFFEB 		bl	uart1_transmit
 1463 0714 0500A0E1 		mov	r0, r5
 1464 0718 0050C4E5 		strb	r5, [r4, #0]
 1465 071c FEFFFFEB 		bl	uart1_transmit
 1466 0720 0600A0E1 		mov	r0, r6
 1467 0724 FEFFFFEB 		bl	uart1_transmit
 1468 0728 0030D4E5 		ldrb	r3, [r4, #0]	@ zero_extendqisi2
 1469 072c 053083E0 		add	r3, r3, r5
 1470 0730 0030C4E5 		strb	r3, [r4, #0]
 1471 0734 0500A0E1 		mov	r0, r5
 1472 0738 FEFFFFEB 		bl	uart1_transmit
 1473 073c 0600A0E1 		mov	r0, r6
 1474 0740 FEFFFFEB 		bl	uart1_transmit
 1475 0744 0600A0E1 		mov	r0, r6
 1476 0748 FEFFFFEB 		bl	uart1_transmit
 1477 074c 0030D4E5 		ldrb	r3, [r4, #0]	@ zero_extendqisi2
 1478 0750 0B3083E2 		add	r3, r3, #11
 1479 0754 0B00A0E3 		mov	r0, #11
 1480 0758 0030C4E5 		strb	r3, [r4, #0]
 1481 075c FEFFFFEB 		bl	uart1_transmit
 1482 0760 0030D4E5 		ldrb	r3, [r4, #0]	@ zero_extendqisi2
 1483 0764 233083E2 		add	r3, r3, #35
 1484 0768 2300A0E3 		mov	r0, #35
 1485 076c 0030C4E5 		strb	r3, [r4, #0]
 1486 0770 FEFFFFEB 		bl	uart1_transmit
 1487 0774 0030D7E5 		ldrb	r3, [r7, #0]	@ zero_extendqisi2
 1488 0778 0020D4E5 		ldrb	r2, [r4, #0]	@ zero_extendqisi2
 1489 077c 0300A0E1 		mov	r0, r3
 1490 0780 023083E0 		add	r3, r3, r2
 1491 0784 0030C4E5 		strb	r3, [r4, #0]
 1492 0788 FEFFFFEB 		bl	uart1_transmit
 1493 078c 48305BE5 		ldrb	r3, [fp, #-72]	@ zero_extendqisi2
 1494 0790 0020D4E5 		ldrb	r2, [r4, #0]	@ zero_extendqisi2
 1495 0794 0300A0E1 		mov	r0, r3
 1496 0798 023083E0 		add	r3, r3, r2
 1497 079c 0030C4E5 		strb	r3, [r4, #0]
 1498 07a0 FEFFFFEB 		bl	uart1_transmit
 1499 07a4 47305BE5 		ldrb	r3, [fp, #-71]	@ zero_extendqisi2
 1500 07a8 0020D4E5 		ldrb	r2, [r4, #0]	@ zero_extendqisi2
 1501 07ac 0300A0E1 		mov	r0, r3
 1502 07b0 023083E0 		add	r3, r3, r2
 1503 07b4 0030C4E5 		strb	r3, [r4, #0]
 1504 07b8 FEFFFFEB 		bl	uart1_transmit
 1505 07bc 46305BE5 		ldrb	r3, [fp, #-70]	@ zero_extendqisi2
 1506 07c0 0020D4E5 		ldrb	r2, [r4, #0]	@ zero_extendqisi2
 1507 07c4 0300A0E1 		mov	r0, r3
 1508 07c8 023083E0 		add	r3, r3, r2
 1509 07cc 0030C4E5 		strb	r3, [r4, #0]
 1510 07d0 FEFFFFEB 		bl	uart1_transmit
 1511 07d4 45305BE5 		ldrb	r3, [fp, #-69]	@ zero_extendqisi2
 1512 07d8 0020D4E5 		ldrb	r2, [r4, #0]	@ zero_extendqisi2
 1513 07dc 0300A0E1 		mov	r0, r3
 1514 07e0 023083E0 		add	r3, r3, r2
 1515 07e4 0030C4E5 		strb	r3, [r4, #0]
 1516 07e8 FEFFFFEB 		bl	uart1_transmit
 1517 07ec 4C305BE5 		ldrb	r3, [fp, #-76]	@ zero_extendqisi2
 1518 07f0 0020D4E5 		ldrb	r2, [r4, #0]	@ zero_extendqisi2
 1519 07f4 0300A0E1 		mov	r0, r3
 1520 07f8 023083E0 		add	r3, r3, r2
 1521 07fc 0030C4E5 		strb	r3, [r4, #0]
 1522 0800 FEFFFFEB 		bl	uart1_transmit
 1523 0804 4B305BE5 		ldrb	r3, [fp, #-75]	@ zero_extendqisi2
 1524 0808 0020D4E5 		ldrb	r2, [r4, #0]	@ zero_extendqisi2
 1525 080c 0300A0E1 		mov	r0, r3
 1526 0810 023083E0 		add	r3, r3, r2
 1527 0814 0030C4E5 		strb	r3, [r4, #0]
 1528 0818 FEFFFFEB 		bl	uart1_transmit
 1529 081c 4A305BE5 		ldrb	r3, [fp, #-74]	@ zero_extendqisi2
 1530 0820 0020D4E5 		ldrb	r2, [r4, #0]	@ zero_extendqisi2
 1531 0824 0300A0E1 		mov	r0, r3
 1532 0828 023083E0 		add	r3, r3, r2
 1533 082c 0030C4E5 		strb	r3, [r4, #0]
 1534 0830 FEFFFFEB 		bl	uart1_transmit
 1535 0834 49305BE5 		ldrb	r3, [fp, #-73]	@ zero_extendqisi2
 1536 0838 0020D4E5 		ldrb	r2, [r4, #0]	@ zero_extendqisi2
 1537 083c 0300A0E1 		mov	r0, r3
 1538 0840 023083E0 		add	r3, r3, r2
 1539 0844 0030C4E5 		strb	r3, [r4, #0]
 1540 0848 FEFFFFEB 		bl	uart1_transmit
 1541 084c 0030D7E5 		ldrb	r3, [r7, #0]	@ zero_extendqisi2
 1542 0850 082088E2 		add	r2, r8, #8
 1543 0854 833083E0 		add	r3, r3, r3, asl #1
 1544 0858 0331D2E7 		ldrb	r3, [r2, r3, asl #2]	@ zero_extendqisi2
 1545 085c 0020D4E5 		ldrb	r2, [r4, #0]	@ zero_extendqisi2
 1546 0860 0300A0E1 		mov	r0, r3
 1547 0864 023083E0 		add	r3, r3, r2
 1548 0868 0030C4E5 		strb	r3, [r4, #0]
 1549 086c FEFFFFEB 		bl	uart1_transmit
 1550 0870 0030D7E5 		ldrb	r3, [r7, #0]	@ zero_extendqisi2
 1551 0874 092088E2 		add	r2, r8, #9
 1552 0878 833083E0 		add	r3, r3, r3, asl #1
 1553 087c 0331D2E7 		ldrb	r3, [r2, r3, asl #2]	@ zero_extendqisi2
 1554 0880 0020D4E5 		ldrb	r2, [r4, #0]	@ zero_extendqisi2
 1555 0884 0300A0E1 		mov	r0, r3
 1556 0888 023083E0 		add	r3, r3, r2
 1557 088c 0030C4E5 		strb	r3, [r4, #0]
 1558 0890 FEFFFFEB 		bl	uart1_transmit
 1559 0894 0030D7E5 		ldrb	r3, [r7, #0]	@ zero_extendqisi2
 1560 0898 0A2088E2 		add	r2, r8, #10
 1561 089c 833083E0 		add	r3, r3, r3, asl #1
 1562 08a0 0331D2E7 		ldrb	r3, [r2, r3, asl #2]	@ zero_extendqisi2
 1563 08a4 0020D4E5 		ldrb	r2, [r4, #0]	@ zero_extendqisi2
 1564 08a8 0300A0E1 		mov	r0, r3
 1565 08ac 023083E0 		add	r3, r3, r2
 1566 08b0 0030C4E5 		strb	r3, [r4, #0]
 1567 08b4 FEFFFFEB 		bl	uart1_transmit
 1568 08b8 0030D7E5 		ldrb	r3, [r7, #0]	@ zero_extendqisi2
 1569 08bc 0B2088E2 		add	r2, r8, #11
 1570 08c0 833083E0 		add	r3, r3, r3, asl #1
 1571 08c4 0331D2E7 		ldrb	r3, [r2, r3, asl #2]	@ zero_extendqisi2
 1572 08c8 0020D4E5 		ldrb	r2, [r4, #0]	@ zero_extendqisi2
 1573 08cc 0300A0E1 		mov	r0, r3
 1574 08d0 023083E0 		add	r3, r3, r2
 1575 08d4 0030C4E5 		strb	r3, [r4, #0]
 1576 08d8 FEFFFFEB 		bl	uart1_transmit
 1577 08dc 9C309FE5 		ldr	r3, .L440+112
 1578 08e0 0030D3E5 		ldrb	r3, [r3, #0]	@ zero_extendqisi2
 1579              	.L411:
 1580 08e4 0020D4E5 		ldrb	r2, [r4, #0]	@ zero_extendqisi2
 1581 08e8 0300A0E1 		mov	r0, r3
 1582 08ec 023083E0 		add	r3, r3, r2
 1583 08f0 0030C4E5 		strb	r3, [r4, #0]
 1584 08f4 FEFFFFEB 		bl	uart1_transmit
 1585 08f8 0030D4E5 		ldrb	r3, [r4, #0]	@ zero_extendqisi2
 1586 08fc 0330E0E1 		mvn	r3, r3
 1587 0900 0030C4E5 		strb	r3, [r4, #0]
 1588 0904 0000D4E5 		ldrb	r0, [r4, #0]	@ zero_extendqisi2
 1589 0908 FEFFFFEB 		bl	uart1_transmit
 1590 090c B90200EA 		b	.L68
 1591              	.L441:
 1592              		.align	2
 1593              	.L440:
 1594 0910 00000000 		.word	_60Hz.3
 1595 0914 00000000 		.word	_20Hz.4
 1596 0918 00000000 		.word	_10Hz.5
 1597 091c 00000000 		.word	_4Hz.6
 1598 0920 00000000 		.word	_1Hz.7
 1599 0924 00000000 		.word	boot.9
 1600 0928 00000000 		.word	version
 1601 092c 00000000 		.word	i15.10
 1602 0930 00000000 		.word	i30.11
 1603 0934 00000000 		.word	i60.12
 1604 0938 00000000 		.word	i63.13
 1605 093c 00000000 		.word	i120.17
 1606 0940 00000000 		.word	i126.18
 1607 0944 00000000 		.word	i150.19
 1608 0948 00000000 		.word	i300.20
 1609 094c 00000000 		.word	i306.21
 1610 0950 31010000 		.word	305
 1611 0954 00000000 		.word	i540.22
 1612 0958 00000000 		.word	estimator_phi
 1613 095c 00000000 		.word	estimator_psi
 1614 0960 00000000 		.word	estimator_theta
 1615 0964 00000000 		.word	estimator_z
 1616 0968 00000000 		.word	estimator_z_dot
 1617 096c 00000000 		.word	i.23
 1618 0970 00000000 		.word	nb_waypoint
 1619 0974 00000000 		.word	nav_utm_east0
 1620 0978 00000000 		.word	waypoints
 1621 097c 00000000 		.word	nav_utm_north0
 1622 0980 00000000 		.word	nav_utm_zone0
 1623 0984 00000000 		.word	nav_circle_radians
 1624 0988 00000000 		.word	nav_block
 1625 098c 00000000 		.word	nav_stage
 1626 0990 00000000 		.word	estimator_x
 1627 0994 00000000 		.word	estimator_y
 1628 0998 00000000 		.word	dist2_to_wp
 1629 099c 00000000 		.word	dist2_to_home
 1630 09a0 00000000 		.word	nav_oval_count
 1631 09a4 00000000 		.word	nav_in_circle
 1632 09a8 00000000 		.word	nav_circle_x
 1633 09ac 00000000 		.word	nav_circle_y
 1634 09b0 00000000 		.word	nav_circle_radius
 1635 09b4 00000000 		.word	h_ctl_roll_setpoint
 1636 09b8 00000000 		.word	h_ctl_pitch_loop_setpoint
 1637 09bc 00000000 		.word	h_ctl_course_setpoint
 1638 09c0 00000000 		.word	desired_x
 1639 09c4 00000000 		.word	desired_y
 1640 09c8 00000000 		.word	v_ctl_altitude_setpoint
 1641 09cc 00000000 		.word	v_ctl_climb_setpoint
 1642 09d0 00000000 		.word	i66.14
 1643 09d4 00000000 		.word	energy
 1644 09d8 00000000 		.word	v_ctl_throttle_slewed
 1645 09dc 00000000 		.word	vsupply
 1646 09e0 00000000 		.word	block_time
 1647 09e4 00000000 		.word	i72.15
 1648 09e8 00000000 		.word	nav_in_segment
 1649 09ec 00000000 		.word	xbee_cs
 1650 09f0 00000000 		.word	nav_segment_x_1
 1651 09f4 00000000 		.word	nav_segment_y_1
 1652 09f8 00000000 		.word	nav_segment_x_2
 1653 09fc FB211940 		.word	1075388923
 1654 0a00 182D4454 		.word	1413754136
 1655 0a04 00000000 		.word	nav_segment_y_2
 1656 0a08 00000000 		.word	i90.16
 1657 0a0c 00000000 		.word	i.24
 1658 0a10 00000000 		.word	flight_altitude
 1659 0a14 00000000 		.word	wind_east
 1660 0a18 00000000 		.word	wind_north
 1661 0a1c 00000000 		.word	pprz_mode
 1662 0a20 00000000 		.word	alt_kalman_enabled
 1663 0a24 00000000 		.word	estimator_flight_time
 1664 0a28 00008047 		.word	1199570944
 1665 0a2c 00000000 		.word	stage_time
 1666 0a30 00000000 		.word	launch
 1667 0a34 00000000 		.word	kill_throttle
 1668 0a38 00000000 		.word	telemetry_mode_Ap_DefaultChannel
 1669 0a3c 00000000 		.word	telemetry_mode_Fbw_DefaultChannel
 1670 0a40 00008043 		.word	1132462080
 1671 0a44 00000000 		.word	gps_reset
 1672 0a48 00000000 		.word	ins_roll_neutral
 1673 0a4c 00000000 		.word	ins_pitch_neutral
 1674 0a50 00000000 		.word	h_ctl_roll_pgain
 1675 0a54 00000000 		.word	h_ctl_roll_max_setpoint
 1676 0a58 00000000 		.word	h_ctl_pitch_pgain
 1677 0a5c 00000000 		.word	h_ctl_pitch_dgain
 1678 0a60 00000000 		.word	h_ctl_elevator_of_roll
 1679 0a64 00000000 		.word	h_ctl_aileron_of_throttle
 1680 0a68 00000000 		.word	h_ctl_roll_attitude_gain
 1681 0a6c 00000000 		.word	h_ctl_roll_rate_gain
 1682 0a70 00000000 		.word	v_ctl_altitude_pgain
 1683 0a74 00000000 		.word	v_ctl_auto_throttle_cruise_throttle
 1684 0a78 00000000 		.word	v_ctl_auto_throttle_pgain
 1685 0a7c 00000000 		.word	v_ctl_auto_throttle_igain
 1686 0a80 00000000 		.word	v_ctl_auto_throttle_dgain
 1687 0a84 00000000 		.word	v_ctl_auto_throttle_climb_throttle_increment
 1688 0a88 00000000 		.word	v_ctl_auto_throttle_pitch_of_vz_pgain
 1689 0a8c 00000000 		.word	v_ctl_auto_throttle_pitch_of_vz_dgain
 1690 0a90 00000000 		.word	v_ctl_auto_pitch_pgain
 1691 0a94 00000000 		.word	v_ctl_auto_pitch_igain
 1692 0a98 00000000 		.word	h_ctl_course_pgain
 1693 0a9c 00000000 		.word	h_ctl_course_dgain
 1694 0aa0 00000000 		.word	h_ctl_course_pre_bank_correction
 1695 0aa4 00000000 		.word	nav_glide_pitch_trim
 1696 0aa8 00000000 		.word	h_ctl_roll_slew
 1697 0aac 00000000 		.word	nav_radius
 1698 0ab0 00000000 		.word	nav_course
 1699 0ab4 00000000 		.word	nav_mode
 1700 0ab8 00000000 		.word	nav_climb
 1701 0abc 00000000 		.word	fp_pitch
 1702 0ac0 00000000 		.word	nav_shift
 1703 0ac4 00000000 		.word	nav_ground_speed_setpoint
 1704 0ac8 00000000 		.word	nav_ground_speed_pgain
 1705 0acc 00000000 		.word	nav_survey_shift
 1706 0ad0 00000000 		.word	downlink_nb_ovrn
 1707 0ad4 00000000 		.word	downlink_nb_bytes
 1708 0ad8 00000000 		.word	downlink_nb_msgs
 1709              	.L75:
 1710 0adc 14201FE5 		ldr	r2, .L440+448
 1711 0ae0 0030D2E5 		ldrb	r3, [r2, #0]	@ zero_extendqisi2
 1712 0ae4 013083E2 		add	r3, r3, #1
 1713 0ae8 0030C2E5 		strb	r3, [r2, #0]
 1714              	.L68:
 1715 0aec 0030DAE5 		ldrb	r3, [sl, #0]	@ zero_extendqisi2
 1716 0af0 180053E3 		cmp	r3, #24
 1717 0af4 7803000A 		beq	.L78
 1718 0af8 1E0053E3 		cmp	r3, #30
 1719 0afc 7803001A 		bne	.L78
 1720 0b00 84311FE5 		ldr	r3, .L440+116
 1721 0b04 003093E5 		ldr	r3, [r3, #0]
 1722 0b08 0201C3E3 		bic	r0, r3, #-2147483648
 1723 0b0c FEFFFFEB 		bl	__extendsfdf2
 1724 0b10 472F4FE2 		adr	r2, .L440+236
 1725 0b14 0C0092E8 		ldmia	r2, {r2-r3}
 1726 0b18 FEFFFFEB 		bl	__divdf3
 1727 0b1c FEFFFFEB 		bl	__fixunsdfsi
 1728 0b20 29004BE5 		strb	r0, [fp, #-41]
 1729 0b24 1F00A0E3 		mov	r0, #31
 1730 0b28 FEFFFFEB 		bl	uart1_check_free_space
 1731 0b2c FF0010E3 		tst	r0, #255
 1732 0b30 68201F05 		ldreq	r2, .L440+448
 1733 0b34 0030D205 		ldreqb	r3, [r2, #0]	@ zero_extendqisi2
 1734 0b38 01308302 		addeq	r3, r3, #1
 1735 0b3c 0030C205 		streqb	r3, [r2, #0]
 1736 0b40 7803000A 		beq	.L78
 1737 0b44 78101FE5 		ldr	r1, .L440+452
 1738 0b48 78C01FE5 		ldr	ip, .L440+456
 1739 0b4c B030D1E1 		ldrh	r3, [r1, #0]
 1740 0b50 B020DCE1 		ldrh	r2, [ip, #0]
 1741 0b54 1F3083E2 		add	r3, r3, #31
 1742 0b58 012082E2 		add	r2, r2, #1
 1743 0b5c B030C1E1 		strh	r3, [r1, #0]	@ movhi 
 1744 0b60 B020CCE1 		strh	r2, [ip, #0]	@ movhi 
 1745 0b64 0060A0E3 		mov	r6, #0
 1746 0b68 7E00A0E3 		mov	r0, #126
 1747 0b6c 88411FE5 		ldr	r4, .L440+220
 1748 0b70 FEFFFFEB 		bl	uart1_transmit
 1749 0b74 0600A0E1 		mov	r0, r6
 1750 0b78 0150A0E3 		mov	r5, #1
 1751 0b7c FEFFFFEB 		bl	uart1_transmit
 1752 0b80 1B00A0E3 		mov	r0, #27
 1753 0b84 FEFFFFEB 		bl	uart1_transmit
 1754 0b88 0500A0E1 		mov	r0, r5
 1755 0b8c 0050C4E5 		strb	r5, [r4, #0]
 1756 0b90 FEFFFFEB 		bl	uart1_transmit
 1757 0b94 0600A0E1 		mov	r0, r6
 1758 0b98 FEFFFFEB 		bl	uart1_transmit
 1759 0b9c 0030D4E5 		ldrb	r3, [r4, #0]	@ zero_extendqisi2
 1760 0ba0 053083E0 		add	r3, r3, r5
 1761 0ba4 0030C4E5 		strb	r3, [r4, #0]
 1762 0ba8 0500A0E1 		mov	r0, r5
 1763 0bac FEFFFFEB 		bl	uart1_transmit
 1764 0bb0 0600A0E1 		mov	r0, r6
 1765 0bb4 FEFFFFEB 		bl	uart1_transmit
 1766 0bb8 0600A0E1 		mov	r0, r6
 1767 0bbc FEFFFFEB 		bl	uart1_transmit
 1768 0bc0 0030D4E5 		ldrb	r3, [r4, #0]	@ zero_extendqisi2
 1769 0bc4 0B3083E2 		add	r3, r3, #11
 1770 0bc8 0B00A0E3 		mov	r0, #11
 1771 0bcc 0030C4E5 		strb	r3, [r4, #0]
 1772 0bd0 FEFFFFEB 		bl	uart1_transmit
 1773 0bd4 0030D4E5 		ldrb	r3, [r4, #0]	@ zero_extendqisi2
 1774 0bd8 0A3083E2 		add	r3, r3, #10
 1775 0bdc 0A00A0E3 		mov	r0, #10
 1776 0be0 0030C4E5 		strb	r3, [r4, #0]
 1777 0be4 FEFFFFEB 		bl	uart1_transmit
 1778 0be8 68321FE5 		ldr	r3, .L440+120
 1779 0bec 0020D4E5 		ldrb	r2, [r4, #0]	@ zero_extendqisi2
 1780 0bf0 0030D3E5 		ldrb	r3, [r3, #0]	@ zero_extendqisi2
 1781 0bf4 0300A0E1 		mov	r0, r3
 1782 0bf8 023083E0 		add	r3, r3, r2
 1783 0bfc 0030C4E5 		strb	r3, [r4, #0]
 1784 0c00 FEFFFFEB 		bl	uart1_transmit
 1785 0c04 80321FE5 		ldr	r3, .L440+124
 1786 0c08 0000D3E5 		ldrb	r0, [r3, #0]	@ zero_extendqisi2
 1787 0c0c 0030D4E5 		ldrb	r3, [r4, #0]	@ zero_extendqisi2
 1788 0c10 88521FE5 		ldr	r5, .L440+128
 1789 0c14 033080E0 		add	r3, r0, r3
 1790 0c18 0030C4E5 		strb	r3, [r4, #0]
 1791 0c1c FEFFFFEB 		bl	uart1_transmit
 1792 0c20 0030D5E5 		ldrb	r3, [r5, #0]	@ zero_extendqisi2
 1793 0c24 0020D4E5 		ldrb	r2, [r4, #0]	@ zero_extendqisi2
 1794 0c28 0300A0E1 		mov	r0, r3
 1795 0c2c 023083E0 		add	r3, r3, r2
 1796 0c30 0030C4E5 		strb	r3, [r4, #0]
 1797 0c34 FEFFFFEB 		bl	uart1_transmit
 1798 0c38 0130D5E5 		ldrb	r3, [r5, #1]	@ zero_extendqisi2
 1799 0c3c 0020D4E5 		ldrb	r2, [r4, #0]	@ zero_extendqisi2
 1800 0c40 0300A0E1 		mov	r0, r3
 1801 0c44 023083E0 		add	r3, r3, r2
 1802 0c48 0030C4E5 		strb	r3, [r4, #0]
 1803 0c4c FEFFFFEB 		bl	uart1_transmit
 1804 0c50 0230D5E5 		ldrb	r3, [r5, #2]	@ zero_extendqisi2
 1805 0c54 0020D4E5 		ldrb	r2, [r4, #0]	@ zero_extendqisi2
 1806 0c58 0300A0E1 		mov	r0, r3
 1807 0c5c 023083E0 		add	r3, r3, r2
 1808 0c60 0030C4E5 		strb	r3, [r4, #0]
 1809 0c64 FEFFFFEB 		bl	uart1_transmit
 1810 0c68 0300D5E5 		ldrb	r0, [r5, #3]	@ zero_extendqisi2
 1811 0c6c 0030D4E5 		ldrb	r3, [r4, #0]	@ zero_extendqisi2
 1812 0c70 E4521FE5 		ldr	r5, .L440+132
 1813 0c74 033080E0 		add	r3, r0, r3
 1814 0c78 0030C4E5 		strb	r3, [r4, #0]
 1815 0c7c FEFFFFEB 		bl	uart1_transmit
 1816 0c80 0030D5E5 		ldrb	r3, [r5, #0]	@ zero_extendqisi2
 1817 0c84 0020D4E5 		ldrb	r2, [r4, #0]	@ zero_extendqisi2
 1818 0c88 0300A0E1 		mov	r0, r3
 1819 0c8c 023083E0 		add	r3, r3, r2
 1820 0c90 0030C4E5 		strb	r3, [r4, #0]
 1821 0c94 FEFFFFEB 		bl	uart1_transmit
 1822 0c98 0130D5E5 		ldrb	r3, [r5, #1]	@ zero_extendqisi2
 1823 0c9c 0020D4E5 		ldrb	r2, [r4, #0]	@ zero_extendqisi2
 1824 0ca0 0300A0E1 		mov	r0, r3
 1825 0ca4 023083E0 		add	r3, r3, r2
 1826 0ca8 0030C4E5 		strb	r3, [r4, #0]
 1827 0cac FEFFFFEB 		bl	uart1_transmit
 1828 0cb0 0230D5E5 		ldrb	r3, [r5, #2]	@ zero_extendqisi2
 1829 0cb4 0020D4E5 		ldrb	r2, [r4, #0]	@ zero_extendqisi2
 1830 0cb8 0300A0E1 		mov	r0, r3
 1831 0cbc 023083E0 		add	r3, r3, r2
 1832 0cc0 0030C4E5 		strb	r3, [r4, #0]
 1833 0cc4 FEFFFFEB 		bl	uart1_transmit
 1834 0cc8 0300D5E5 		ldrb	r0, [r5, #3]	@ zero_extendqisi2
 1835 0ccc 0030D4E5 		ldrb	r3, [r4, #0]	@ zero_extendqisi2
 1836 0cd0 40531FE5 		ldr	r5, .L440+136
 1837 0cd4 033080E0 		add	r3, r0, r3
 1838 0cd8 0030C4E5 		strb	r3, [r4, #0]
 1839 0cdc FEFFFFEB 		bl	uart1_transmit
 1840 0ce0 0030D5E5 		ldrb	r3, [r5, #0]	@ zero_extendqisi2
 1841 0ce4 0020D4E5 		ldrb	r2, [r4, #0]	@ zero_extendqisi2
 1842 0ce8 0300A0E1 		mov	r0, r3
 1843 0cec 023083E0 		add	r3, r3, r2
 1844 0cf0 0030C4E5 		strb	r3, [r4, #0]
 1845 0cf4 FEFFFFEB 		bl	uart1_transmit
 1846 0cf8 0130D5E5 		ldrb	r3, [r5, #1]	@ zero_extendqisi2
 1847 0cfc 0020D4E5 		ldrb	r2, [r4, #0]	@ zero_extendqisi2
 1848 0d00 0300A0E1 		mov	r0, r3
 1849 0d04 023083E0 		add	r3, r3, r2
 1850 0d08 0030C4E5 		strb	r3, [r4, #0]
 1851 0d0c FEFFFFEB 		bl	uart1_transmit
 1852 0d10 0230D5E5 		ldrb	r3, [r5, #2]	@ zero_extendqisi2
 1853 0d14 0020D4E5 		ldrb	r2, [r4, #0]	@ zero_extendqisi2
 1854 0d18 0300A0E1 		mov	r0, r3
 1855 0d1c 023083E0 		add	r3, r3, r2
 1856 0d20 0030C4E5 		strb	r3, [r4, #0]
 1857 0d24 FEFFFFEB 		bl	uart1_transmit
 1858 0d28 0300D5E5 		ldrb	r0, [r5, #3]	@ zero_extendqisi2
 1859 0d2c 0030D4E5 		ldrb	r3, [r4, #0]	@ zero_extendqisi2
 1860 0d30 9C531FE5 		ldr	r5, .L440+140
 1861 0d34 033080E0 		add	r3, r0, r3
 1862 0d38 0030C4E5 		strb	r3, [r4, #0]
 1863 0d3c FEFFFFEB 		bl	uart1_transmit
 1864 0d40 0030D5E5 		ldrb	r3, [r5, #0]	@ zero_extendqisi2
 1865 0d44 0020D4E5 		ldrb	r2, [r4, #0]	@ zero_extendqisi2
 1866 0d48 0300A0E1 		mov	r0, r3
 1867 0d4c 023083E0 		add	r3, r3, r2
 1868 0d50 0030C4E5 		strb	r3, [r4, #0]
 1869 0d54 FEFFFFEB 		bl	uart1_transmit
 1870 0d58 0130D5E5 		ldrb	r3, [r5, #1]	@ zero_extendqisi2
 1871 0d5c 0020D4E5 		ldrb	r2, [r4, #0]	@ zero_extendqisi2
 1872 0d60 0300A0E1 		mov	r0, r3
 1873 0d64 023083E0 		add	r3, r3, r2
 1874 0d68 0030C4E5 		strb	r3, [r4, #0]
 1875 0d6c FEFFFFEB 		bl	uart1_transmit
 1876 0d70 0230D5E5 		ldrb	r3, [r5, #2]	@ zero_extendqisi2
 1877 0d74 0020D4E5 		ldrb	r2, [r4, #0]	@ zero_extendqisi2
 1878 0d78 0300A0E1 		mov	r0, r3
 1879 0d7c 023083E0 		add	r3, r3, r2
 1880 0d80 0030C4E5 		strb	r3, [r4, #0]
 1881 0d84 FEFFFFEB 		bl	uart1_transmit
 1882 0d88 0330D5E5 		ldrb	r3, [r5, #3]	@ zero_extendqisi2
 1883 0d8c 0020D4E5 		ldrb	r2, [r4, #0]	@ zero_extendqisi2
 1884 0d90 0300A0E1 		mov	r0, r3
 1885 0d94 023083E0 		add	r3, r3, r2
 1886 0d98 0030C4E5 		strb	r3, [r4, #0]
 1887 0d9c FEFFFFEB 		bl	uart1_transmit
 1888 0da0 29305BE5 		ldrb	r3, [fp, #-41]	@ zero_extendqisi2
 1889 0da4 0020D4E5 		ldrb	r2, [r4, #0]	@ zero_extendqisi2
 1890 0da8 0300A0E1 		mov	r0, r3
 1891 0dac 023083E0 		add	r3, r3, r2
 1892 0db0 0030C4E5 		strb	r3, [r4, #0]
 1893 0db4 FEFFFFEB 		bl	uart1_transmit
 1894 0db8 20341FE5 		ldr	r3, .L440+144
 1895 0dbc 0020D4E5 		ldrb	r2, [r4, #0]	@ zero_extendqisi2
 1896 0dc0 0030D3E5 		ldrb	r3, [r3, #0]	@ zero_extendqisi2
 1897 0dc4 0300A0E1 		mov	r0, r3
 1898 0dc8 023083E0 		add	r3, r3, r2
 1899 0dcc 0030C4E5 		strb	r3, [r4, #0]
 1900 0dd0 FEFFFFEB 		bl	uart1_transmit
 1901 0dd4 0030D4E5 		ldrb	r3, [r4, #0]	@ zero_extendqisi2
 1902 0dd8 0330E0E1 		mvn	r3, r3
 1903 0ddc 0030C4E5 		strb	r3, [r4, #0]
 1904 0de0 0000D4E5 		ldrb	r0, [r4, #0]	@ zero_extendqisi2
 1905 0de4 FEFFFFEB 		bl	uart1_transmit
 1906              	.L78:
 1907 0de8 0030D9E5 		ldrb	r3, [r9, #0]	@ zero_extendqisi2
 1908 0dec 300053E3 		cmp	r3, #48
 1909 0df0 DB03001A 		bne	.L86
 1910 0df4 58341FE5 		ldr	r3, .L440+148
 1911 0df8 0030D3E5 		ldrb	r3, [r3, #0]	@ zero_extendqisi2
 1912 0dfc 000053E3 		cmp	r3, #0
 1913 0e00 BD04000A 		beq	.L90
 1914 0e04 1700A0E3 		mov	r0, #23
 1915 0e08 FEFFFFEB 		bl	uart1_check_free_space
 1916 0e0c FF0010E3 		tst	r0, #255
 1917 0e10 B904000A 		beq	.L92
 1918 0e14 48131FE5 		ldr	r1, .L440+452
 1919 0e18 48C31FE5 		ldr	ip, .L440+456
 1920 0e1c B030D1E1 		ldrh	r3, [r1, #0]
 1921 0e20 B020DCE1 		ldrh	r2, [ip, #0]
 1922 0e24 173083E2 		add	r3, r3, #23
 1923 0e28 012082E2 		add	r2, r2, #1
 1924 0e2c B030C1E1 		strh	r3, [r1, #0]	@ movhi 
 1925 0e30 B020CCE1 		strh	r2, [ip, #0]	@ movhi 
 1926 0e34 0060A0E3 		mov	r6, #0
 1927 0e38 7E00A0E3 		mov	r0, #126
 1928 0e3c 58441FE5 		ldr	r4, .L440+220
 1929 0e40 FEFFFFEB 		bl	uart1_transmit
 1930 0e44 0600A0E1 		mov	r0, r6
 1931 0e48 0150A0E3 		mov	r5, #1
 1932 0e4c FEFFFFEB 		bl	uart1_transmit
 1933 0e50 1300A0E3 		mov	r0, #19
 1934 0e54 FEFFFFEB 		bl	uart1_transmit
 1935 0e58 0500A0E1 		mov	r0, r5
 1936 0e5c 0050C4E5 		strb	r5, [r4, #0]
 1937 0e60 FEFFFFEB 		bl	uart1_transmit
 1938 0e64 0600A0E1 		mov	r0, r6
 1939 0e68 FEFFFFEB 		bl	uart1_transmit
 1940 0e6c 0030D4E5 		ldrb	r3, [r4, #0]	@ zero_extendqisi2
 1941 0e70 053083E0 		add	r3, r3, r5
 1942 0e74 0030C4E5 		strb	r3, [r4, #0]
 1943 0e78 0500A0E1 		mov	r0, r5
 1944 0e7c FEFFFFEB 		bl	uart1_transmit
 1945 0e80 0600A0E1 		mov	r0, r6
 1946 0e84 FEFFFFEB 		bl	uart1_transmit
 1947 0e88 0600A0E1 		mov	r0, r6
 1948 0e8c FEFFFFEB 		bl	uart1_transmit
 1949 0e90 0030D4E5 		ldrb	r3, [r4, #0]	@ zero_extendqisi2
 1950 0e94 0B3083E2 		add	r3, r3, #11
 1951 0e98 0B00A0E3 		mov	r0, #11
 1952 0e9c 0030C4E5 		strb	r3, [r4, #0]
 1953 0ea0 FEFFFFEB 		bl	uart1_transmit
 1954 0ea4 0030D4E5 		ldrb	r3, [r4, #0]	@ zero_extendqisi2
 1955 0ea8 08551FE5 		ldr	r5, .L440+152
 1956 0eac 153083E2 		add	r3, r3, #21
 1957 0eb0 1500A0E3 		mov	r0, #21
 1958 0eb4 0030C4E5 		strb	r3, [r4, #0]
 1959 0eb8 FEFFFFEB 		bl	uart1_transmit
 1960 0ebc 0030D5E5 		ldrb	r3, [r5, #0]	@ zero_extendqisi2
 1961 0ec0 0020D4E5 		ldrb	r2, [r4, #0]	@ zero_extendqisi2
 1962 0ec4 0300A0E1 		mov	r0, r3
 1963 0ec8 023083E0 		add	r3, r3, r2
 1964 0ecc 0030C4E5 		strb	r3, [r4, #0]
 1965 0ed0 FEFFFFEB 		bl	uart1_transmit
 1966 0ed4 0130D5E5 		ldrb	r3, [r5, #1]	@ zero_extendqisi2
 1967 0ed8 0020D4E5 		ldrb	r2, [r4, #0]	@ zero_extendqisi2
 1968 0edc 0300A0E1 		mov	r0, r3
 1969 0ee0 023083E0 		add	r3, r3, r2
 1970 0ee4 0030C4E5 		strb	r3, [r4, #0]
 1971 0ee8 FEFFFFEB 		bl	uart1_transmit
 1972 0eec 0230D5E5 		ldrb	r3, [r5, #2]	@ zero_extendqisi2
 1973 0ef0 0020D4E5 		ldrb	r2, [r4, #0]	@ zero_extendqisi2
 1974 0ef4 0300A0E1 		mov	r0, r3
 1975 0ef8 023083E0 		add	r3, r3, r2
 1976 0efc 0030C4E5 		strb	r3, [r4, #0]
 1977 0f00 FEFFFFEB 		bl	uart1_transmit
 1978 0f04 0300D5E5 		ldrb	r0, [r5, #3]	@ zero_extendqisi2
 1979 0f08 0030D4E5 		ldrb	r3, [r4, #0]	@ zero_extendqisi2
 1980 0f0c 68551FE5 		ldr	r5, .L440+156
 1981 0f10 033080E0 		add	r3, r0, r3
 1982 0f14 0030C4E5 		strb	r3, [r4, #0]
 1983 0f18 FEFFFFEB 		bl	uart1_transmit
 1984 0f1c 0030D5E5 		ldrb	r3, [r5, #0]	@ zero_extendqisi2
 1985 0f20 0020D4E5 		ldrb	r2, [r4, #0]	@ zero_extendqisi2
 1986 0f24 0300A0E1 		mov	r0, r3
 1987 0f28 023083E0 		add	r3, r3, r2
 1988 0f2c 0030C4E5 		strb	r3, [r4, #0]
 1989 0f30 FEFFFFEB 		bl	uart1_transmit
 1990 0f34 0130D5E5 		ldrb	r3, [r5, #1]	@ zero_extendqisi2
 1991 0f38 0020D4E5 		ldrb	r2, [r4, #0]	@ zero_extendqisi2
 1992 0f3c 0300A0E1 		mov	r0, r3
 1993 0f40 023083E0 		add	r3, r3, r2
 1994 0f44 0030C4E5 		strb	r3, [r4, #0]
 1995 0f48 FEFFFFEB 		bl	uart1_transmit
 1996 0f4c 0230D5E5 		ldrb	r3, [r5, #2]	@ zero_extendqisi2
 1997 0f50 0020D4E5 		ldrb	r2, [r4, #0]	@ zero_extendqisi2
 1998 0f54 0300A0E1 		mov	r0, r3
 1999 0f58 023083E0 		add	r3, r3, r2
 2000 0f5c 0030C4E5 		strb	r3, [r4, #0]
 2001 0f60 FEFFFFEB 		bl	uart1_transmit
 2002 0f64 0300D5E5 		ldrb	r0, [r5, #3]	@ zero_extendqisi2
 2003 0f68 0030D4E5 		ldrb	r3, [r4, #0]	@ zero_extendqisi2
 2004 0f6c C4551FE5 		ldr	r5, .L440+160
 2005 0f70 980400EA 		b	.L412
 2006              	.L86:
 2007 0f74 360053E3 		cmp	r3, #54
 2008 0f78 BD04001A 		bne	.L90
 2009 0f7c 2700A0E3 		mov	r0, #39
 2010 0f80 FEFFFFEB 		bl	uart1_check_free_space
 2011 0f84 FF0010E3 		tst	r0, #255
 2012 0f88 B904000A 		beq	.L92
 2013 0f8c C0141FE5 		ldr	r1, .L440+452
 2014 0f90 C0C41FE5 		ldr	ip, .L440+456
 2015 0f94 B030D1E1 		ldrh	r3, [r1, #0]
 2016 0f98 B020DCE1 		ldrh	r2, [ip, #0]
 2017 0f9c 273083E2 		add	r3, r3, #39
 2018 0fa0 012082E2 		add	r2, r2, #1
 2019 0fa4 B030C1E1 		strh	r3, [r1, #0]	@ movhi 
 2020 0fa8 B020CCE1 		strh	r2, [ip, #0]	@ movhi 
 2021 0fac 0060A0E3 		mov	r6, #0
 2022 0fb0 7E00A0E3 		mov	r0, #126
 2023 0fb4 D0451FE5 		ldr	r4, .L440+220
 2024 0fb8 FEFFFFEB 		bl	uart1_transmit
 2025 0fbc 0600A0E1 		mov	r0, r6
 2026 0fc0 0150A0E3 		mov	r5, #1
 2027 0fc4 FEFFFFEB 		bl	uart1_transmit
 2028 0fc8 2300A0E3 		mov	r0, #35
 2029 0fcc FEFFFFEB 		bl	uart1_transmit
 2030 0fd0 0500A0E1 		mov	r0, r5
 2031 0fd4 0050C4E5 		strb	r5, [r4, #0]
 2032 0fd8 FEFFFFEB 		bl	uart1_transmit
 2033 0fdc 0600A0E1 		mov	r0, r6
 2034 0fe0 FEFFFFEB 		bl	uart1_transmit
 2035 0fe4 0030D4E5 		ldrb	r3, [r4, #0]	@ zero_extendqisi2
 2036 0fe8 053083E0 		add	r3, r3, r5
 2037 0fec 0030C4E5 		strb	r3, [r4, #0]
 2038 0ff0 0500A0E1 		mov	r0, r5
 2039 0ff4 FEFFFFEB 		bl	uart1_transmit
 2040 0ff8 0600A0E1 		mov	r0, r6
 2041 0ffc FEFFFFEB 		bl	uart1_transmit
 2042 1000 0600A0E1 		mov	r0, r6
 2043 1004 FEFFFFEB 		bl	uart1_transmit
 2044 1008 0030D4E5 		ldrb	r3, [r4, #0]	@ zero_extendqisi2
 2045 100c 0B3083E2 		add	r3, r3, #11
 2046 1010 0B00A0E3 		mov	r0, #11
 2047 1014 0030C4E5 		strb	r3, [r4, #0]
 2048 1018 FEFFFFEB 		bl	uart1_transmit
 2049 101c 0030D4E5 		ldrb	r3, [r4, #0]	@ zero_extendqisi2
 2050 1020 74561FE5 		ldr	r5, .L440+164
 2051 1024 103083E2 		add	r3, r3, #16
 2052 1028 1000A0E3 		mov	r0, #16
 2053 102c 0030C4E5 		strb	r3, [r4, #0]
 2054 1030 FEFFFFEB 		bl	uart1_transmit
 2055 1034 0030D5E5 		ldrb	r3, [r5, #0]	@ zero_extendqisi2
 2056 1038 0020D4E5 		ldrb	r2, [r4, #0]	@ zero_extendqisi2
 2057 103c 0300A0E1 		mov	r0, r3
 2058 1040 023083E0 		add	r3, r3, r2
 2059 1044 0030C4E5 		strb	r3, [r4, #0]
 2060 1048 FEFFFFEB 		bl	uart1_transmit
 2061 104c 0130D5E5 		ldrb	r3, [r5, #1]	@ zero_extendqisi2
 2062 1050 0020D4E5 		ldrb	r2, [r4, #0]	@ zero_extendqisi2
 2063 1054 0300A0E1 		mov	r0, r3
 2064 1058 023083E0 		add	r3, r3, r2
 2065 105c 0030C4E5 		strb	r3, [r4, #0]
 2066 1060 FEFFFFEB 		bl	uart1_transmit
 2067 1064 0230D5E5 		ldrb	r3, [r5, #2]	@ zero_extendqisi2
 2068 1068 0020D4E5 		ldrb	r2, [r4, #0]	@ zero_extendqisi2
 2069 106c 0300A0E1 		mov	r0, r3
 2070 1070 023083E0 		add	r3, r3, r2
 2071 1074 0030C4E5 		strb	r3, [r4, #0]
 2072 1078 FEFFFFEB 		bl	uart1_transmit
 2073 107c 0300D5E5 		ldrb	r0, [r5, #3]	@ zero_extendqisi2
 2074 1080 0030D4E5 		ldrb	r3, [r4, #0]	@ zero_extendqisi2
 2075 1084 D4561FE5 		ldr	r5, .L440+168
 2076 1088 033080E0 		add	r3, r0, r3
 2077 108c 0030C4E5 		strb	r3, [r4, #0]
 2078 1090 FEFFFFEB 		bl	uart1_transmit
 2079 1094 0030D5E5 		ldrb	r3, [r5, #0]	@ zero_extendqisi2
 2080 1098 0020D4E5 		ldrb	r2, [r4, #0]	@ zero_extendqisi2
 2081 109c 0300A0E1 		mov	r0, r3
 2082 10a0 023083E0 		add	r3, r3, r2
 2083 10a4 0030C4E5 		strb	r3, [r4, #0]
 2084 10a8 FEFFFFEB 		bl	uart1_transmit
 2085 10ac 0130D5E5 		ldrb	r3, [r5, #1]	@ zero_extendqisi2
 2086 10b0 0020D4E5 		ldrb	r2, [r4, #0]	@ zero_extendqisi2
 2087 10b4 0300A0E1 		mov	r0, r3
 2088 10b8 023083E0 		add	r3, r3, r2
 2089 10bc 0030C4E5 		strb	r3, [r4, #0]
 2090 10c0 FEFFFFEB 		bl	uart1_transmit
 2091 10c4 0230D5E5 		ldrb	r3, [r5, #2]	@ zero_extendqisi2
 2092 10c8 0020D4E5 		ldrb	r2, [r4, #0]	@ zero_extendqisi2
 2093 10cc 0300A0E1 		mov	r0, r3
 2094 10d0 023083E0 		add	r3, r3, r2
 2095 10d4 0030C4E5 		strb	r3, [r4, #0]
 2096 10d8 FEFFFFEB 		bl	uart1_transmit
 2097 10dc 0300D5E5 		ldrb	r0, [r5, #3]	@ zero_extendqisi2
 2098 10e0 0030D4E5 		ldrb	r3, [r4, #0]	@ zero_extendqisi2
 2099 10e4 30571FE5 		ldr	r5, .L440+172
 2100 10e8 033080E0 		add	r3, r0, r3
 2101 10ec 0030C4E5 		strb	r3, [r4, #0]
 2102 10f0 FEFFFFEB 		bl	uart1_transmit
 2103 10f4 0030D5E5 		ldrb	r3, [r5, #0]	@ zero_extendqisi2
 2104 10f8 0020D4E5 		ldrb	r2, [r4, #0]	@ zero_extendqisi2
 2105 10fc 0300A0E1 		mov	r0, r3
 2106 1100 023083E0 		add	r3, r3, r2
 2107 1104 0030C4E5 		strb	r3, [r4, #0]
 2108 1108 FEFFFFEB 		bl	uart1_transmit
 2109 110c 0130D5E5 		ldrb	r3, [r5, #1]	@ zero_extendqisi2
 2110 1110 0020D4E5 		ldrb	r2, [r4, #0]	@ zero_extendqisi2
 2111 1114 0300A0E1 		mov	r0, r3
 2112 1118 023083E0 		add	r3, r3, r2
 2113 111c 0030C4E5 		strb	r3, [r4, #0]
 2114 1120 FEFFFFEB 		bl	uart1_transmit
 2115 1124 0230D5E5 		ldrb	r3, [r5, #2]	@ zero_extendqisi2
 2116 1128 0020D4E5 		ldrb	r2, [r4, #0]	@ zero_extendqisi2
 2117 112c 0300A0E1 		mov	r0, r3
 2118 1130 023083E0 		add	r3, r3, r2
 2119 1134 0030C4E5 		strb	r3, [r4, #0]
 2120 1138 FEFFFFEB 		bl	uart1_transmit
 2121 113c 0300D5E5 		ldrb	r0, [r5, #3]	@ zero_extendqisi2
 2122 1140 0030D4E5 		ldrb	r3, [r4, #0]	@ zero_extendqisi2
 2123 1144 8C571FE5 		ldr	r5, .L440+176
 2124 1148 033080E0 		add	r3, r0, r3
 2125 114c 0030C4E5 		strb	r3, [r4, #0]
 2126 1150 FEFFFFEB 		bl	uart1_transmit
 2127 1154 0030D5E5 		ldrb	r3, [r5, #0]	@ zero_extendqisi2
 2128 1158 0020D4E5 		ldrb	r2, [r4, #0]	@ zero_extendqisi2
 2129 115c 0300A0E1 		mov	r0, r3
 2130 1160 023083E0 		add	r3, r3, r2
 2131 1164 0030C4E5 		strb	r3, [r4, #0]
 2132 1168 FEFFFFEB 		bl	uart1_transmit
 2133 116c 0130D5E5 		ldrb	r3, [r5, #1]	@ zero_extendqisi2
 2134 1170 0020D4E5 		ldrb	r2, [r4, #0]	@ zero_extendqisi2
 2135 1174 0300A0E1 		mov	r0, r3
 2136 1178 023083E0 		add	r3, r3, r2
 2137 117c 0030C4E5 		strb	r3, [r4, #0]
 2138 1180 FEFFFFEB 		bl	uart1_transmit
 2139 1184 0230D5E5 		ldrb	r3, [r5, #2]	@ zero_extendqisi2
 2140 1188 0020D4E5 		ldrb	r2, [r4, #0]	@ zero_extendqisi2
 2141 118c 0300A0E1 		mov	r0, r3
 2142 1190 023083E0 		add	r3, r3, r2
 2143 1194 0030C4E5 		strb	r3, [r4, #0]
 2144 1198 FEFFFFEB 		bl	uart1_transmit
 2145 119c 0300D5E5 		ldrb	r0, [r5, #3]	@ zero_extendqisi2
 2146 11a0 0030D4E5 		ldrb	r3, [r4, #0]	@ zero_extendqisi2
 2147 11a4 E8571FE5 		ldr	r5, .L440+180
 2148 11a8 033080E0 		add	r3, r0, r3
 2149 11ac 0030C4E5 		strb	r3, [r4, #0]
 2150 11b0 FEFFFFEB 		bl	uart1_transmit
 2151 11b4 0030D5E5 		ldrb	r3, [r5, #0]	@ zero_extendqisi2
 2152 11b8 0020D4E5 		ldrb	r2, [r4, #0]	@ zero_extendqisi2
 2153 11bc 0300A0E1 		mov	r0, r3
 2154 11c0 023083E0 		add	r3, r3, r2
 2155 11c4 0030C4E5 		strb	r3, [r4, #0]
 2156 11c8 FEFFFFEB 		bl	uart1_transmit
 2157 11cc 0130D5E5 		ldrb	r3, [r5, #1]	@ zero_extendqisi2
 2158 11d0 0020D4E5 		ldrb	r2, [r4, #0]	@ zero_extendqisi2
 2159 11d4 0300A0E1 		mov	r0, r3
 2160 11d8 023083E0 		add	r3, r3, r2
 2161 11dc 0030C4E5 		strb	r3, [r4, #0]
 2162 11e0 FEFFFFEB 		bl	uart1_transmit
 2163 11e4 0230D5E5 		ldrb	r3, [r5, #2]	@ zero_extendqisi2
 2164 11e8 0020D4E5 		ldrb	r2, [r4, #0]	@ zero_extendqisi2
 2165 11ec 0300A0E1 		mov	r0, r3
 2166 11f0 023083E0 		add	r3, r3, r2
 2167 11f4 0030C4E5 		strb	r3, [r4, #0]
 2168 11f8 FEFFFFEB 		bl	uart1_transmit
 2169 11fc 0300D5E5 		ldrb	r0, [r5, #3]	@ zero_extendqisi2
 2170 1200 0030D4E5 		ldrb	r3, [r4, #0]	@ zero_extendqisi2
 2171 1204 44581FE5 		ldr	r5, .L440+184
 2172 1208 033080E0 		add	r3, r0, r3
 2173 120c 0030C4E5 		strb	r3, [r4, #0]
 2174 1210 FEFFFFEB 		bl	uart1_transmit
 2175 1214 0030D5E5 		ldrb	r3, [r5, #0]	@ zero_extendqisi2
 2176 1218 0020D4E5 		ldrb	r2, [r4, #0]	@ zero_extendqisi2
 2177 121c 0300A0E1 		mov	r0, r3
 2178 1220 023083E0 		add	r3, r3, r2
 2179 1224 0030C4E5 		strb	r3, [r4, #0]
 2180 1228 FEFFFFEB 		bl	uart1_transmit
 2181 122c 0130D5E5 		ldrb	r3, [r5, #1]	@ zero_extendqisi2
 2182 1230 0020D4E5 		ldrb	r2, [r4, #0]	@ zero_extendqisi2
 2183 1234 0300A0E1 		mov	r0, r3
 2184 1238 023083E0 		add	r3, r3, r2
 2185 123c 0030C4E5 		strb	r3, [r4, #0]
 2186 1240 FEFFFFEB 		bl	uart1_transmit
 2187 1244 0230D5E5 		ldrb	r3, [r5, #2]	@ zero_extendqisi2
 2188 1248 0020D4E5 		ldrb	r2, [r4, #0]	@ zero_extendqisi2
 2189 124c 0300A0E1 		mov	r0, r3
 2190 1250 023083E0 		add	r3, r3, r2
 2191 1254 0030C4E5 		strb	r3, [r4, #0]
 2192 1258 FEFFFFEB 		bl	uart1_transmit
 2193 125c 0300D5E5 		ldrb	r0, [r5, #3]	@ zero_extendqisi2
 2194 1260 0030D4E5 		ldrb	r3, [r4, #0]	@ zero_extendqisi2
 2195 1264 A0581FE5 		ldr	r5, .L440+188
 2196              	.L412:
 2197 1268 033080E0 		add	r3, r0, r3
 2198 126c 0030C4E5 		strb	r3, [r4, #0]
 2199 1270 FEFFFFEB 		bl	uart1_transmit
 2200 1274 0030D5E5 		ldrb	r3, [r5, #0]	@ zero_extendqisi2
 2201 1278 0020D4E5 		ldrb	r2, [r4, #0]	@ zero_extendqisi2
 2202 127c 0300A0E1 		mov	r0, r3
 2203 1280 023083E0 		add	r3, r3, r2
 2204 1284 0030C4E5 		strb	r3, [r4, #0]
 2205 1288 FEFFFFEB 		bl	uart1_transmit
 2206 128c 0130D5E5 		ldrb	r3, [r5, #1]	@ zero_extendqisi2
 2207 1290 0020D4E5 		ldrb	r2, [r4, #0]	@ zero_extendqisi2
 2208 1294 0300A0E1 		mov	r0, r3
 2209 1298 023083E0 		add	r3, r3, r2
 2210 129c 0030C4E5 		strb	r3, [r4, #0]
 2211 12a0 FEFFFFEB 		bl	uart1_transmit
 2212 12a4 0230D5E5 		ldrb	r3, [r5, #2]	@ zero_extendqisi2
 2213 12a8 0020D4E5 		ldrb	r2, [r4, #0]	@ zero_extendqisi2
 2214 12ac 0300A0E1 		mov	r0, r3
 2215 12b0 023083E0 		add	r3, r3, r2
 2216 12b4 0030C4E5 		strb	r3, [r4, #0]
 2217 12b8 FEFFFFEB 		bl	uart1_transmit
 2218 12bc 0330D5E5 		ldrb	r3, [r5, #3]	@ zero_extendqisi2
 2219 12c0 0020D4E5 		ldrb	r2, [r4, #0]	@ zero_extendqisi2
 2220 12c4 0300A0E1 		mov	r0, r3
 2221 12c8 023083E0 		add	r3, r3, r2
 2222 12cc 0030C4E5 		strb	r3, [r4, #0]
 2223 12d0 FEFFFFEB 		bl	uart1_transmit
 2224 12d4 0030D4E5 		ldrb	r3, [r4, #0]	@ zero_extendqisi2
 2225 12d8 0330E0E1 		mvn	r3, r3
 2226 12dc 0030C4E5 		strb	r3, [r4, #0]
 2227 12e0 0000D4E5 		ldrb	r0, [r4, #0]	@ zero_extendqisi2
 2228 12e4 FEFFFFEB 		bl	uart1_transmit
 2229 12e8 BD0400EA 		b	.L90
 2230              	.L92:
 2231 12ec 24281FE5 		ldr	r2, .L440+448
 2232 12f0 0030D2E5 		ldrb	r3, [r2, #0]	@ zero_extendqisi2
 2233 12f4 013083E2 		add	r3, r3, #1
 2234 12f8 0030C2E5 		strb	r3, [r2, #0]
 2235              	.L90:
 2236 12fc 34091FE5 		ldr	r0, .L440+192
 2237 1300 0030D0E5 		ldrb	r3, [r0, #0]	@ zero_extendqisi2
 2238 1304 3C0053E3 		cmp	r3, #60
 2239 1308 5305001A 		bne	.L97
 2240 130c 40391FE5 		ldr	r3, .L440+196
 2241 1310 0060A0E3 		mov	r6, #0
 2242 1314 000093E5 		ldr	r0, [r3, #0]	@ float
 2243 1318 BC624BE1 		strh	r6, [fp, #-44]	@ movhi 
 2244 131c FEFFFFEB 		bl	__fixsfsi
 2245 1320 BE024BE1 		strh	r0, [fp, #-46]	@ movhi 
 2246 1324 1900A0E3 		mov	r0, #25
 2247 1328 FEFFFFEB 		bl	uart1_check_free_space
 2248 132c FF0010E3 		tst	r0, #255
 2249 1330 68281F05 		ldreq	r2, .L440+448
 2250 1334 0030D205 		ldreqb	r3, [r2, #0]	@ zero_extendqisi2
 2251 1338 01308302 		addeq	r3, r3, #1
 2252 133c 0030C205 		streqb	r3, [r2, #0]
 2253 1340 5305000A 		beq	.L97
 2254 1344 78181FE5 		ldr	r1, .L440+452
 2255 1348 78C81FE5 		ldr	ip, .L440+456
 2256 134c B030D1E1 		ldrh	r3, [r1, #0]
 2257 1350 B020DCE1 		ldrh	r2, [ip, #0]
 2258 1354 193083E2 		add	r3, r3, #25
 2259 1358 012082E2 		add	r2, r2, #1
 2260 135c B030C1E1 		strh	r3, [r1, #0]	@ movhi 
 2261 1360 B020CCE1 		strh	r2, [ip, #0]	@ movhi 
 2262 1364 7E00A0E3 		mov	r0, #126
 2263 1368 84491FE5 		ldr	r4, .L440+220
 2264 136c FEFFFFEB 		bl	uart1_transmit
 2265 1370 0600A0E1 		mov	r0, r6
 2266 1374 0150A0E3 		mov	r5, #1
 2267 1378 FEFFFFEB 		bl	uart1_transmit
 2268 137c 1500A0E3 		mov	r0, #21
 2269 1380 FEFFFFEB 		bl	uart1_transmit
 2270 1384 0500A0E1 		mov	r0, r5
 2271 1388 0050C4E5 		strb	r5, [r4, #0]
 2272 138c FEFFFFEB 		bl	uart1_transmit
 2273 1390 0600A0E1 		mov	r0, r6
 2274 1394 FEFFFFEB 		bl	uart1_transmit
 2275 1398 0030D4E5 		ldrb	r3, [r4, #0]	@ zero_extendqisi2
 2276 139c 053083E0 		add	r3, r3, r5
 2277 13a0 0030C4E5 		strb	r3, [r4, #0]
 2278 13a4 0500A0E1 		mov	r0, r5
 2279 13a8 FEFFFFEB 		bl	uart1_transmit
 2280 13ac 0600A0E1 		mov	r0, r6
 2281 13b0 FEFFFFEB 		bl	uart1_transmit
 2282 13b4 0600A0E1 		mov	r0, r6
 2283 13b8 FEFFFFEB 		bl	uart1_transmit
 2284 13bc 0030D4E5 		ldrb	r3, [r4, #0]	@ zero_extendqisi2
 2285 13c0 0B3083E2 		add	r3, r3, #11
 2286 13c4 0B00A0E3 		mov	r0, #11
 2287 13c8 0030C4E5 		strb	r3, [r4, #0]
 2288 13cc FEFFFFEB 		bl	uart1_transmit
 2289 13d0 0030D4E5 		ldrb	r3, [r4, #0]	@ zero_extendqisi2
 2290 13d4 045A1FE5 		ldr	r5, .L440+200
 2291 13d8 0C3083E2 		add	r3, r3, #12
 2292 13dc 0C00A0E3 		mov	r0, #12
 2293 13e0 0030C4E5 		strb	r3, [r4, #0]
 2294 13e4 FEFFFFEB 		bl	uart1_transmit
 2295 13e8 0030D5E5 		ldrb	r3, [r5, #0]	@ zero_extendqisi2
 2296 13ec 0020D4E5 		ldrb	r2, [r4, #0]	@ zero_extendqisi2
 2297 13f0 0300A0E1 		mov	r0, r3
 2298 13f4 023083E0 		add	r3, r3, r2
 2299 13f8 0030C4E5 		strb	r3, [r4, #0]
 2300 13fc FEFFFFEB 		bl	uart1_transmit
 2301 1400 0130D5E5 		ldrb	r3, [r5, #1]	@ zero_extendqisi2
 2302 1404 0020D4E5 		ldrb	r2, [r4, #0]	@ zero_extendqisi2
 2303 1408 0300A0E1 		mov	r0, r3
 2304 140c 023083E0 		add	r3, r3, r2
 2305 1410 0030C4E5 		strb	r3, [r4, #0]
 2306 1414 FEFFFFEB 		bl	uart1_transmit
 2307 1418 443A1FE5 		ldr	r3, .L440+204
 2308 141c 0020D4E5 		ldrb	r2, [r4, #0]	@ zero_extendqisi2
 2309 1420 0030D3E5 		ldrb	r3, [r3, #0]	@ zero_extendqisi2
 2310 1424 0300A0E1 		mov	r0, r3
 2311 1428 023083E0 		add	r3, r3, r2
 2312 142c 0030C4E5 		strb	r3, [r4, #0]
 2313 1430 FEFFFFEB 		bl	uart1_transmit
 2314 1434 0020D4E5 		ldrb	r2, [r4, #0]	@ zero_extendqisi2
 2315 1438 2C305BE5 		ldrb	r3, [fp, #-44]	@ zero_extendqisi2
 2316 143c 0300A0E1 		mov	r0, r3
 2317 1440 023083E0 		add	r3, r3, r2
 2318 1444 0030C4E5 		strb	r3, [r4, #0]
 2319 1448 FEFFFFEB 		bl	uart1_transmit
 2320 144c 2B005BE5 		ldrb	r0, [fp, #-43]	@ zero_extendqisi2
 2321 1450 0030D4E5 		ldrb	r3, [r4, #0]	@ zero_extendqisi2
 2322 1454 385A1FE5 		ldr	r5, .L440+276
 2323 1458 033080E0 		add	r3, r0, r3
 2324 145c 0030C4E5 		strb	r3, [r4, #0]
 2325 1460 FEFFFFEB 		bl	uart1_transmit
 2326 1464 0030D5E5 		ldrb	r3, [r5, #0]	@ zero_extendqisi2
 2327 1468 0020D4E5 		ldrb	r2, [r4, #0]	@ zero_extendqisi2
 2328 146c 0300A0E1 		mov	r0, r3
 2329 1470 023083E0 		add	r3, r3, r2
 2330 1474 0030C4E5 		strb	r3, [r4, #0]
 2331 1478 FEFFFFEB 		bl	uart1_transmit
 2332 147c 0130D5E5 		ldrb	r3, [r5, #1]	@ zero_extendqisi2
 2333 1480 0020D4E5 		ldrb	r2, [r4, #0]	@ zero_extendqisi2
 2334 1484 0300A0E1 		mov	r0, r3
 2335 1488 023083E0 		add	r3, r3, r2
 2336 148c 0030C4E5 		strb	r3, [r4, #0]
 2337 1490 FEFFFFEB 		bl	uart1_transmit
 2338 1494 683A1FE5 		ldr	r3, .L440+292
 2339 1498 0000D3E5 		ldrb	r0, [r3, #0]	@ zero_extendqisi2
 2340 149c 0030D4E5 		ldrb	r3, [r4, #0]	@ zero_extendqisi2
 2341 14a0 C85A1FE5 		ldr	r5, .L440+208
 2342 14a4 033080E0 		add	r3, r0, r3
 2343 14a8 0030C4E5 		strb	r3, [r4, #0]
 2344 14ac FEFFFFEB 		bl	uart1_transmit
 2345 14b0 0030D5E5 		ldrb	r3, [r5, #0]	@ zero_extendqisi2
 2346 14b4 0020D4E5 		ldrb	r2, [r4, #0]	@ zero_extendqisi2
 2347 14b8 0300A0E1 		mov	r0, r3
 2348 14bc 023083E0 		add	r3, r3, r2
 2349 14c0 0030C4E5 		strb	r3, [r4, #0]
 2350 14c4 FEFFFFEB 		bl	uart1_transmit
 2351 14c8 0100D5E5 		ldrb	r0, [r5, #1]	@ zero_extendqisi2
 2352 14cc 0030D4E5 		ldrb	r3, [r4, #0]	@ zero_extendqisi2
 2353 14d0 AC5A1FE5 		ldr	r5, .L440+284
 2354 14d4 033080E0 		add	r3, r0, r3
 2355 14d8 0030C4E5 		strb	r3, [r4, #0]
 2356 14dc FEFFFFEB 		bl	uart1_transmit
 2357 14e0 0030D5E5 		ldrb	r3, [r5, #0]	@ zero_extendqisi2
 2358 14e4 0020D4E5 		ldrb	r2, [r4, #0]	@ zero_extendqisi2
 2359 14e8 0300A0E1 		mov	r0, r3
 2360 14ec 023083E0 		add	r3, r3, r2
 2361 14f0 0030C4E5 		strb	r3, [r4, #0]
 2362 14f4 FEFFFFEB 		bl	uart1_transmit
 2363 14f8 0130D5E5 		ldrb	r3, [r5, #1]	@ zero_extendqisi2
 2364 14fc 0020D4E5 		ldrb	r2, [r4, #0]	@ zero_extendqisi2
 2365 1500 0300A0E1 		mov	r0, r3
 2366 1504 023083E0 		add	r3, r3, r2
 2367 1508 0030C4E5 		strb	r3, [r4, #0]
 2368 150c FEFFFFEB 		bl	uart1_transmit
 2369 1510 2E305BE5 		ldrb	r3, [fp, #-46]	@ zero_extendqisi2
 2370 1514 0020D4E5 		ldrb	r2, [r4, #0]	@ zero_extendqisi2
 2371 1518 0300A0E1 		mov	r0, r3
 2372 151c 023083E0 		add	r3, r3, r2
 2373 1520 0030C4E5 		strb	r3, [r4, #0]
 2374 1524 FEFFFFEB 		bl	uart1_transmit
 2375 1528 2D305BE5 		ldrb	r3, [fp, #-45]	@ zero_extendqisi2
 2376 152c 0020D4E5 		ldrb	r2, [r4, #0]	@ zero_extendqisi2
 2377 1530 0300A0E1 		mov	r0, r3
 2378 1534 023083E0 		add	r3, r3, r2
 2379 1538 0030C4E5 		strb	r3, [r4, #0]
 2380 153c FEFFFFEB 		bl	uart1_transmit
 2381 1540 0030D4E5 		ldrb	r3, [r4, #0]	@ zero_extendqisi2
 2382 1544 0330E0E1 		mvn	r3, r3
 2383 1548 0030C4E5 		strb	r3, [r4, #0]
 2384 154c 0000D4E5 		ldrb	r0, [r4, #0]	@ zero_extendqisi2
 2385 1550 FEFFFFEB 		bl	uart1_transmit
 2386              	.L97:
 2387 1554 782B1FE5 		ldr	r2, .L440+212
 2388 1558 0030D2E5 		ldrb	r3, [r2, #0]	@ zero_extendqisi2
 2389 155c 060053E3 		cmp	r3, #6
 2390 1560 F205001A 		bne	.L103
 2391 1564 843B1FE5 		ldr	r3, .L440+216
 2392 1568 0030D3E5 		ldrb	r3, [r3, #0]	@ zero_extendqisi2
 2393 156c 000053E3 		cmp	r3, #0
 2394 1570 F205000A 		beq	.L103
 2395 1574 1B00A0E3 		mov	r0, #27
 2396 1578 FEFFFFEB 		bl	uart1_check_free_space
 2397 157c FF0010E3 		tst	r0, #255
 2398 1580 B82A1F05 		ldreq	r2, .L440+448
 2399 1584 0030D205 		ldreqb	r3, [r2, #0]	@ zero_extendqisi2
 2400 1588 01308302 		addeq	r3, r3, #1
 2401 158c 0030C205 		streqb	r3, [r2, #0]
 2402 1590 F205000A 		beq	.L103
 2403 1594 C81A1FE5 		ldr	r1, .L440+452
 2404 1598 C8CA1FE5 		ldr	ip, .L440+456
 2405 159c B030D1E1 		ldrh	r3, [r1, #0]
 2406 15a0 B020DCE1 		ldrh	r2, [ip, #0]
 2407 15a4 1B3083E2 		add	r3, r3, #27
 2408 15a8 012082E2 		add	r2, r2, #1
 2409 15ac B030C1E1 		strh	r3, [r1, #0]	@ movhi 
 2410 15b0 B020CCE1 		strh	r2, [ip, #0]	@ movhi 
 2411 15b4 0060A0E3 		mov	r6, #0
 2412 15b8 7E00A0E3 		mov	r0, #126
 2413 15bc D84B1FE5 		ldr	r4, .L440+220
 2414 15c0 FEFFFFEB 		bl	uart1_transmit
 2415 15c4 0600A0E1 		mov	r0, r6
 2416 15c8 0150A0E3 		mov	r5, #1
 2417 15cc FEFFFFEB 		bl	uart1_transmit
 2418 15d0 1700A0E3 		mov	r0, #23
 2419 15d4 FEFFFFEB 		bl	uart1_transmit
 2420 15d8 0500A0E1 		mov	r0, r5
 2421 15dc 0050C4E5 		strb	r5, [r4, #0]
 2422 15e0 FEFFFFEB 		bl	uart1_transmit
 2423 15e4 0600A0E1 		mov	r0, r6
 2424 15e8 FEFFFFEB 		bl	uart1_transmit
 2425 15ec 0030D4E5 		ldrb	r3, [r4, #0]	@ zero_extendqisi2
 2426 15f0 053083E0 		add	r3, r3, r5
 2427 15f4 0030C4E5 		strb	r3, [r4, #0]
 2428 15f8 0500A0E1 		mov	r0, r5
 2429 15fc FEFFFFEB 		bl	uart1_transmit
 2430 1600 0600A0E1 		mov	r0, r6
 2431 1604 FEFFFFEB 		bl	uart1_transmit
 2432 1608 0600A0E1 		mov	r0, r6
 2433 160c FEFFFFEB 		bl	uart1_transmit
 2434 1610 0030D4E5 		ldrb	r3, [r4, #0]	@ zero_extendqisi2
 2435 1614 0B3083E2 		add	r3, r3, #11
 2436 1618 0B00A0E3 		mov	r0, #11
 2437 161c 0030C4E5 		strb	r3, [r4, #0]
 2438 1620 FEFFFFEB 		bl	uart1_transmit
 2439 1624 0030D4E5 		ldrb	r3, [r4, #0]	@ zero_extendqisi2
 2440 1628 405C1FE5 		ldr	r5, .L440+224
 2441 162c 163083E2 		add	r3, r3, #22
 2442 1630 1600A0E3 		mov	r0, #22
 2443 1634 0030C4E5 		strb	r3, [r4, #0]
 2444 1638 FEFFFFEB 		bl	uart1_transmit
 2445 163c 0030D5E5 		ldrb	r3, [r5, #0]	@ zero_extendqisi2
 2446 1640 0020D4E5 		ldrb	r2, [r4, #0]	@ zero_extendqisi2
 2447 1644 0300A0E1 		mov	r0, r3
 2448 1648 023083E0 		add	r3, r3, r2
 2449 164c 0030C4E5 		strb	r3, [r4, #0]
 2450 1650 FEFFFFEB 		bl	uart1_transmit
 2451 1654 0130D5E5 		ldrb	r3, [r5, #1]	@ zero_extendqisi2
 2452 1658 0020D4E5 		ldrb	r2, [r4, #0]	@ zero_extendqisi2
 2453 165c 0300A0E1 		mov	r0, r3
 2454 1660 023083E0 		add	r3, r3, r2
 2455 1664 0030C4E5 		strb	r3, [r4, #0]
 2456 1668 FEFFFFEB 		bl	uart1_transmit
 2457 166c 0230D5E5 		ldrb	r3, [r5, #2]	@ zero_extendqisi2
 2458 1670 0020D4E5 		ldrb	r2, [r4, #0]	@ zero_extendqisi2
 2459 1674 0300A0E1 		mov	r0, r3
 2460 1678 023083E0 		add	r3, r3, r2
 2461 167c 0030C4E5 		strb	r3, [r4, #0]
 2462 1680 FEFFFFEB 		bl	uart1_transmit
 2463 1684 0300D5E5 		ldrb	r0, [r5, #3]	@ zero_extendqisi2
 2464 1688 0030D4E5 		ldrb	r3, [r4, #0]	@ zero_extendqisi2
 2465 168c A05C1FE5 		ldr	r5, .L440+228
 2466 1690 033080E0 		add	r3, r0, r3
 2467 1694 0030C4E5 		strb	r3, [r4, #0]
 2468 1698 FEFFFFEB 		bl	uart1_transmit
 2469 169c 0030D5E5 		ldrb	r3, [r5, #0]	@ zero_extendqisi2
 2470 16a0 0020D4E5 		ldrb	r2, [r4, #0]	@ zero_extendqisi2
 2471 16a4 0300A0E1 		mov	r0, r3
 2472 16a8 023083E0 		add	r3, r3, r2
 2473 16ac 0030C4E5 		strb	r3, [r4, #0]
 2474 16b0 FEFFFFEB 		bl	uart1_transmit
 2475 16b4 0130D5E5 		ldrb	r3, [r5, #1]	@ zero_extendqisi2
 2476 16b8 0020D4E5 		ldrb	r2, [r4, #0]	@ zero_extendqisi2
 2477 16bc 0300A0E1 		mov	r0, r3
 2478 16c0 023083E0 		add	r3, r3, r2
 2479 16c4 0030C4E5 		strb	r3, [r4, #0]
 2480 16c8 FEFFFFEB 		bl	uart1_transmit
 2481 16cc 0230D5E5 		ldrb	r3, [r5, #2]	@ zero_extendqisi2
 2482 16d0 0020D4E5 		ldrb	r2, [r4, #0]	@ zero_extendqisi2
 2483 16d4 0300A0E1 		mov	r0, r3
 2484 16d8 023083E0 		add	r3, r3, r2
 2485 16dc 0030C4E5 		strb	r3, [r4, #0]
 2486 16e0 FEFFFFEB 		bl	uart1_transmit
 2487 16e4 0300D5E5 		ldrb	r0, [r5, #3]	@ zero_extendqisi2
 2488 16e8 0030D4E5 		ldrb	r3, [r4, #0]	@ zero_extendqisi2
 2489 16ec FC5C1FE5 		ldr	r5, .L440+232
 2490 16f0 033080E0 		add	r3, r0, r3
 2491 16f4 0030C4E5 		strb	r3, [r4, #0]
 2492 16f8 FEFFFFEB 		bl	uart1_transmit
 2493 16fc 0030D5E5 		ldrb	r3, [r5, #0]	@ zero_extendqisi2
 2494 1700 0020D4E5 		ldrb	r2, [r4, #0]	@ zero_extendqisi2
 2495 1704 0300A0E1 		mov	r0, r3
 2496 1708 023083E0 		add	r3, r3, r2
 2497 170c 0030C4E5 		strb	r3, [r4, #0]
 2498 1710 FEFFFFEB 		bl	uart1_transmit
 2499 1714 0130D5E5 		ldrb	r3, [r5, #1]	@ zero_extendqisi2
 2500 1718 0020D4E5 		ldrb	r2, [r4, #0]	@ zero_extendqisi2
 2501 171c 0300A0E1 		mov	r0, r3
 2502 1720 023083E0 		add	r3, r3, r2
 2503 1724 0030C4E5 		strb	r3, [r4, #0]
 2504 1728 FEFFFFEB 		bl	uart1_transmit
 2505 172c 0230D5E5 		ldrb	r3, [r5, #2]	@ zero_extendqisi2
 2506 1730 0020D4E5 		ldrb	r2, [r4, #0]	@ zero_extendqisi2
 2507 1734 0300A0E1 		mov	r0, r3
 2508 1738 023083E0 		add	r3, r3, r2
 2509 173c 0030C4E5 		strb	r3, [r4, #0]
 2510 1740 FEFFFFEB 		bl	uart1_transmit
 2511 1744 0300D5E5 		ldrb	r0, [r5, #3]	@ zero_extendqisi2
 2512 1748 0030D4E5 		ldrb	r3, [r4, #0]	@ zero_extendqisi2
 2513 174c 505D1FE5 		ldr	r5, .L440+244
 2514 1750 033080E0 		add	r3, r0, r3
 2515 1754 0030C4E5 		strb	r3, [r4, #0]
 2516 1758 FEFFFFEB 		bl	uart1_transmit
 2517 175c 0030D5E5 		ldrb	r3, [r5, #0]	@ zero_extendqisi2
 2518 1760 0020D4E5 		ldrb	r2, [r4, #0]	@ zero_extendqisi2
 2519 1764 0300A0E1 		mov	r0, r3
 2520 1768 023083E0 		add	r3, r3, r2
 2521 176c 0030C4E5 		strb	r3, [r4, #0]
 2522 1770 FEFFFFEB 		bl	uart1_transmit
 2523 1774 0130D5E5 		ldrb	r3, [r5, #1]	@ zero_extendqisi2
 2524 1778 0020D4E5 		ldrb	r2, [r4, #0]	@ zero_extendqisi2
 2525 177c 0300A0E1 		mov	r0, r3
 2526 1780 023083E0 		add	r3, r3, r2
 2527 1784 0030C4E5 		strb	r3, [r4, #0]
 2528 1788 FEFFFFEB 		bl	uart1_transmit
 2529 178c 0230D5E5 		ldrb	r3, [r5, #2]	@ zero_extendqisi2
 2530 1790 0020D4E5 		ldrb	r2, [r4, #0]	@ zero_extendqisi2
 2531 1794 0300A0E1 		mov	r0, r3
 2532 1798 023083E0 		add	r3, r3, r2
 2533 179c 0030C4E5 		strb	r3, [r4, #0]
 2534 17a0 FEFFFFEB 		bl	uart1_transmit
 2535 17a4 0330D5E5 		ldrb	r3, [r5, #3]	@ zero_extendqisi2
 2536 17a8 0020D4E5 		ldrb	r2, [r4, #0]	@ zero_extendqisi2
 2537 17ac 0300A0E1 		mov	r0, r3
 2538 17b0 023083E0 		add	r3, r3, r2
 2539 17b4 0030C4E5 		strb	r3, [r4, #0]
 2540 17b8 FEFFFFEB 		bl	uart1_transmit
 2541 17bc 0030D4E5 		ldrb	r3, [r4, #0]	@ zero_extendqisi2
 2542 17c0 0330E0E1 		mvn	r3, r3
 2543 17c4 0030C4E5 		strb	r3, [r4, #0]
 2544 17c8 0000D4E5 		ldrb	r0, [r4, #0]	@ zero_extendqisi2
 2545 17cc FEFFFFEB 		bl	uart1_transmit
 2546              	.L103:
 2547 17d0 D00D1FE5 		ldr	r0, .L440+248
 2548 17d4 0030D0E5 		ldrb	r3, [r0, #0]	@ zero_extendqisi2
 2549 17d8 120053E3 		cmp	r3, #18
 2550 17dc F606001A 		bne	.L105
 2551 17e0 DC7D1FE5 		ldr	r7, .L440+252
 2552 17e4 0030D7E5 		ldrb	r3, [r7, #0]	@ zero_extendqisi2
 2553 17e8 2E0053E3 		cmp	r3, #46
 2554 17ec 0030A083 		movhi	r3, #0
 2555 17f0 0030C785 		strhib	r3, [r7, #0]
 2556 17f4 0030D7E5 		ldrb	r3, [r7, #0]	@ zero_extendqisi2
 2557 17f8 2E0053E3 		cmp	r3, #46
 2558 17fc 03F19F97 		ldrls	pc, [pc, r3, asl #2]
 2559 1800 9C0600EA 		b	.L164
 2560              		.p2align 2
 2561              	.L165:
 2562 1804 C0180000 		.word	.L108
 2563 1808 C8180000 		.word	.L109
 2564 180c D4180000 		.word	.L110
 2565 1810 DC180000 		.word	.L111
 2566 1814 E4180000 		.word	.L113
 2567 1818 EC180000 		.word	.L115
 2568 181c 10190000 		.word	.L117
 2569 1820 18190000 		.word	.L119
 2570 1824 20190000 		.word	.L121
 2571 1828 28190000 		.word	.L123
 2572 182c 34190000 		.word	.L125
 2573 1830 54190000 		.word	.L127
 2574 1834 241A0000 		.word	.L155
 2575 1838 5C190000 		.word	.L130
 2576 183c 64190000 		.word	.L131
 2577 1840 6C190000 		.word	.L132
 2578 1844 74190000 		.word	.L133
 2579 1848 7C190000 		.word	.L134
 2580 184c 84190000 		.word	.L135
 2581 1850 8C190000 		.word	.L136
 2582 1854 94190000 		.word	.L137
 2583 1858 9C190000 		.word	.L138
 2584 185c A4190000 		.word	.L139
 2585 1860 AC190000 		.word	.L140
 2586 1864 B4190000 		.word	.L141
 2587 1868 BC190000 		.word	.L142
 2588 186c C4190000 		.word	.L143
 2589 1870 CC190000 		.word	.L144
 2590 1874 D4190000 		.word	.L145
 2591 1878 DC190000 		.word	.L146
 2592 187c E4190000 		.word	.L147
 2593 1880 EC190000 		.word	.L148
 2594 1884 F4190000 		.word	.L149
 2595 1888 FC190000 		.word	.L150
 2596 188c 041A0000 		.word	.L151
 2597 1890 0C1A0000 		.word	.L152
 2598 1894 141A0000 		.word	.L153
 2599 1898 1C1A0000 		.word	.L154
 2600 189c 241A0000 		.word	.L155
 2601 18a0 2C1A0000 		.word	.L156
 2602 18a4 341A0000 		.word	.L157
 2603 18a8 481A0000 		.word	.L158
 2604 18ac 501A0000 		.word	.L159
 2605 18b0 581A0000 		.word	.L160
 2606 18b4 601A0000 		.word	.L161
 2607 18b8 681A0000 		.word	.L162
 2608 18bc 701A0000 		.word	.L163
 2609              	.L108:
 2610 18c0 B83E1FE5 		ldr	r3, .L440+256
 2611 18c4 310600EA 		b	.L425
 2612              	.L109:
 2613 18c8 BC3E1FE5 		ldr	r3, .L440+260
 2614              	.L425:
 2615 18cc 003093E5 		ldr	r3, [r3, #0]	@ float
 2616 18d0 9D0600EA 		b	.L413
 2617              	.L110:
 2618 18d4 C43E1FE5 		ldr	r3, .L440+264
 2619 18d8 310600EA 		b	.L425
 2620              	.L111:
 2621 18dc C83E1FE5 		ldr	r3, .L440+268
 2622 18e0 4C0600EA 		b	.L432
 2623              	.L113:
 2624 18e4 CC3E1FE5 		ldr	r3, .L440+272
 2625 18e8 4C0600EA 		b	.L432
 2626              	.L115:
 2627 18ec D03E1FE5 		ldr	r3, .L440+276
 2628              	.L438:
 2629 18f0 F040D3E1 		ldrsh	r4, [r3, #0]
 2630 18f4 0400A0E1 		mov	r0, r4
 2631 18f8 FEFFFFEB 		bl	__floatsisf
 2632 18fc 000054E3 		cmp	r4, #0
 2633 1900 8E0600AA 		bge	.L414
 2634 1904 E41E1FE5 		ldr	r1, .L440+280
 2635              	.L424:
 2636 1908 FEFFFFEB 		bl	__addsf3
 2637 190c 8E0600EA 		b	.L414
 2638              	.L117:
 2639 1910 EC3E1FE5 		ldr	r3, .L440+284
 2640 1914 3A0600EA 		b	.L438
 2641              	.L119:
 2642 1918 F03E1FE5 		ldr	r3, .L440+288
 2643 191c 4C0600EA 		b	.L432
 2644              	.L121:
 2645 1920 F43E1FE5 		ldr	r3, .L440+292
 2646 1924 4C0600EA 		b	.L432
 2647              	.L123:
 2648 1928 F82E1FE5 		ldr	r2, .L440+296
 2649 192c D040D2E1 		ldrsb	r4, [r2, #0]
 2650 1930 4D0600EA 		b	.L433
 2651              	.L125:
 2652 1934 003F1FE5 		ldr	r3, .L440+300
 2653              	.L432:
 2654 1938 D040D3E1 		ldrsb	r4, [r3, #0]
 2655              	.L433:
 2656 193c 0400A0E1 		mov	r0, r4
 2657 1940 FEFFFFEB 		bl	__floatsisf
 2658 1944 000054E3 		cmp	r4, #0
 2659 1948 101F1FB5 		ldrlt	r1, .L440+304
 2660 194c 400600BA 		blt	.L424
 2661 1950 8E0600EA 		b	.L414
 2662              	.L127:
 2663 1954 183F1FE5 		ldr	r3, .L440+308
 2664 1958 3A0600EA 		b	.L438
 2665              	.L130:
 2666 195c 1C3F1FE5 		ldr	r3, .L440+312
 2667 1960 310600EA 		b	.L425
 2668              	.L131:
 2669 1964 203F1FE5 		ldr	r3, .L440+316
 2670 1968 310600EA 		b	.L425
 2671              	.L132:
 2672 196c 243F1FE5 		ldr	r3, .L440+320
 2673 1970 310600EA 		b	.L425
 2674              	.L133:
 2675 1974 283F1FE5 		ldr	r3, .L440+324
 2676 1978 310600EA 		b	.L425
 2677              	.L134:
 2678 197c 2C3F1FE5 		ldr	r3, .L440+328
 2679 1980 310600EA 		b	.L425
 2680              	.L135:
 2681 1984 303F1FE5 		ldr	r3, .L440+332
 2682 1988 310600EA 		b	.L425
 2683              	.L136:
 2684 198c 343F1FE5 		ldr	r3, .L440+336
 2685 1990 310600EA 		b	.L425
 2686              	.L137:
 2687 1994 383F1FE5 		ldr	r3, .L440+340
 2688 1998 310600EA 		b	.L425
 2689              	.L138:
 2690 199c 3C3F1FE5 		ldr	r3, .L440+344
 2691 19a0 310600EA 		b	.L425
 2692              	.L139:
 2693 19a4 403F1FE5 		ldr	r3, .L440+348
 2694 19a8 310600EA 		b	.L425
 2695              	.L140:
 2696 19ac 443F1FE5 		ldr	r3, .L440+352
 2697 19b0 310600EA 		b	.L425
 2698              	.L141:
 2699 19b4 483F1FE5 		ldr	r3, .L440+356
 2700 19b8 310600EA 		b	.L425
 2701              	.L142:
 2702 19bc 4C3F1FE5 		ldr	r3, .L440+360
 2703 19c0 310600EA 		b	.L425
 2704              	.L143:
 2705 19c4 503F1FE5 		ldr	r3, .L440+364
 2706 19c8 310600EA 		b	.L425
 2707              	.L144:
 2708 19cc 543F1FE5 		ldr	r3, .L440+368
 2709 19d0 310600EA 		b	.L425
 2710              	.L145:
 2711 19d4 583F1FE5 		ldr	r3, .L440+372
 2712 19d8 310600EA 		b	.L425
 2713              	.L146:
 2714 19dc 5C3F1FE5 		ldr	r3, .L440+376
 2715 19e0 310600EA 		b	.L425
 2716              	.L147:
 2717 19e4 603F1FE5 		ldr	r3, .L440+380
 2718 19e8 310600EA 		b	.L425
 2719              	.L148:
 2720 19ec 643F1FE5 		ldr	r3, .L440+384
 2721 19f0 310600EA 		b	.L425
 2722              	.L149:
 2723 19f4 683F1FE5 		ldr	r3, .L440+388
 2724 19f8 310600EA 		b	.L425
 2725              	.L150:
 2726 19fc 6C3F1FE5 		ldr	r3, .L440+392
 2727 1a00 310600EA 		b	.L425
 2728              	.L151:
 2729 1a04 703F1FE5 		ldr	r3, .L440+396
 2730 1a08 310600EA 		b	.L425
 2731              	.L152:
 2732 1a0c 743F1FE5 		ldr	r3, .L440+400
 2733 1a10 310600EA 		b	.L425
 2734              	.L153:
 2735 1a14 783F1FE5 		ldr	r3, .L440+404
 2736 1a18 310600EA 		b	.L425
 2737              	.L154:
 2738 1a1c 7C3F1FE5 		ldr	r3, .L440+408
 2739 1a20 310600EA 		b	.L425
 2740              	.L155:
 2741 1a24 803F1FE5 		ldr	r3, .L440+412
 2742 1a28 310600EA 		b	.L425
 2743              	.L156:
 2744 1a2c 843F1FE5 		ldr	r3, .L440+416
 2745 1a30 310600EA 		b	.L425
 2746              	.L157:
 2747 1a34 883F1FE5 		ldr	r3, .L440+420
 2748 1a38 000093E5 		ldr	r0, [r3, #0]
 2749 1a3c FEFFFFEB 		bl	__floatsisf
 2750              	.L414:
 2751 1a40 50000BE5 		str	r0, [fp, #-80]	@ float
 2752 1a44 9E0600EA 		b	.L107
 2753              	.L158:
 2754 1a48 983F1FE5 		ldr	r3, .L440+424
 2755 1a4c 310600EA 		b	.L425
 2756              	.L159:
 2757 1a50 9C3F1FE5 		ldr	r3, .L440+428
 2758 1a54 310600EA 		b	.L425
 2759              	.L160:
 2760 1a58 A03F1FE5 		ldr	r3, .L440+432
 2761 1a5c 310600EA 		b	.L425
 2762              	.L161:
 2763 1a60 A43F1FE5 		ldr	r3, .L440+436
 2764 1a64 310600EA 		b	.L425
 2765              	.L162:
 2766 1a68 A83F1FE5 		ldr	r3, .L440+440
 2767 1a6c 310600EA 		b	.L425
 2768              	.L163:
 2769 1a70 AC3F1FE5 		ldr	r3, .L440+444
 2770 1a74 310600EA 		b	.L425
 2771              	.L164:
 2772 1a78 0030A0E3 		mov	r3, #0
 2773              	.L413:
 2774 1a7c 50300BE5 		str	r3, [fp, #-80]	@ float
 2775              	.L107:
 2776 1a80 1000A0E3 		mov	r0, #16
 2777 1a84 FEFFFFEB 		bl	uart1_check_free_space
 2778 1a88 FF0010E3 		tst	r0, #255
 2779 1a8c C42F1F05 		ldreq	r2, .L440+448
 2780 1a90 0030D205 		ldreqb	r3, [r2, #0]	@ zero_extendqisi2
 2781 1a94 01308302 		addeq	r3, r3, #1
 2782 1a98 0030C205 		streqb	r3, [r2, #0]
 2783 1a9c F206000A 		beq	.L167
 2784 1aa0 D41F1FE5 		ldr	r1, .L440+452
 2785 1aa4 D4CF1FE5 		ldr	ip, .L440+456
 2786 1aa8 B030D1E1 		ldrh	r3, [r1, #0]
 2787 1aac B020DCE1 		ldrh	r2, [ip, #0]
 2788 1ab0 103083E2 		add	r3, r3, #16
 2789 1ab4 012082E2 		add	r2, r2, #1
 2790 1ab8 B030C1E1 		strh	r3, [r1, #0]	@ movhi 
 2791 1abc B020CCE1 		strh	r2, [ip, #0]	@ movhi 
 2792 1ac0 0060A0E3 		mov	r6, #0
 2793 1ac4 7E00A0E3 		mov	r0, #126
 2794 1ac8 A84D9FE5 		ldr	r4, .L442+448
 2795 1acc FEFFFFEB 		bl	uart1_transmit
 2796 1ad0 0600A0E1 		mov	r0, r6
 2797 1ad4 FEFFFFEB 		bl	uart1_transmit
 2798 1ad8 0150A0E3 		mov	r5, #1
 2799 1adc 0C00A0E3 		mov	r0, #12
 2800 1ae0 FEFFFFEB 		bl	uart1_transmit
 2801 1ae4 0500A0E1 		mov	r0, r5
 2802 1ae8 0050C4E5 		strb	r5, [r4, #0]
 2803 1aec FEFFFFEB 		bl	uart1_transmit
 2804 1af0 0600A0E1 		mov	r0, r6
 2805 1af4 FEFFFFEB 		bl	uart1_transmit
 2806 1af8 0030D4E5 		ldrb	r3, [r4, #0]	@ zero_extendqisi2
 2807 1afc 053083E0 		add	r3, r3, r5
 2808 1b00 0030C4E5 		strb	r3, [r4, #0]
 2809 1b04 0500A0E1 		mov	r0, r5
 2810 1b08 FEFFFFEB 		bl	uart1_transmit
 2811 1b0c 0600A0E1 		mov	r0, r6
 2812 1b10 FEFFFFEB 		bl	uart1_transmit
 2813 1b14 0600A0E1 		mov	r0, r6
 2814 1b18 FEFFFFEB 		bl	uart1_transmit
 2815 1b1c 0030D4E5 		ldrb	r3, [r4, #0]	@ zero_extendqisi2
 2816 1b20 0B3083E2 		add	r3, r3, #11
 2817 1b24 0B00A0E3 		mov	r0, #11
 2818 1b28 0030C4E5 		strb	r3, [r4, #0]
 2819 1b2c FEFFFFEB 		bl	uart1_transmit
 2820 1b30 0030D4E5 		ldrb	r3, [r4, #0]	@ zero_extendqisi2
 2821 1b34 1F3083E2 		add	r3, r3, #31
 2822 1b38 1F00A0E3 		mov	r0, #31
 2823 1b3c 0030C4E5 		strb	r3, [r4, #0]
 2824 1b40 FEFFFFEB 		bl	uart1_transmit
 2825 1b44 0030D7E5 		ldrb	r3, [r7, #0]	@ zero_extendqisi2
 2826 1b48 0020D4E5 		ldrb	r2, [r4, #0]	@ zero_extendqisi2
 2827 1b4c 0300A0E1 		mov	r0, r3
 2828 1b50 023083E0 		add	r3, r3, r2
 2829 1b54 0030C4E5 		strb	r3, [r4, #0]
 2830 1b58 FEFFFFEB 		bl	uart1_transmit
 2831 1b5c 50305BE5 		ldrb	r3, [fp, #-80]	@ zero_extendqisi2
 2832 1b60 0020D4E5 		ldrb	r2, [r4, #0]	@ zero_extendqisi2
 2833 1b64 0300A0E1 		mov	r0, r3
 2834 1b68 023083E0 		add	r3, r3, r2
 2835 1b6c 0030C4E5 		strb	r3, [r4, #0]
 2836 1b70 FEFFFFEB 		bl	uart1_transmit
 2837 1b74 4F305BE5 		ldrb	r3, [fp, #-79]	@ zero_extendqisi2
 2838 1b78 0020D4E5 		ldrb	r2, [r4, #0]	@ zero_extendqisi2
 2839 1b7c 0300A0E1 		mov	r0, r3
 2840 1b80 023083E0 		add	r3, r3, r2
 2841 1b84 0030C4E5 		strb	r3, [r4, #0]
 2842 1b88 FEFFFFEB 		bl	uart1_transmit
 2843 1b8c 4E305BE5 		ldrb	r3, [fp, #-78]	@ zero_extendqisi2
 2844 1b90 0020D4E5 		ldrb	r2, [r4, #0]	@ zero_extendqisi2
 2845 1b94 0300A0E1 		mov	r0, r3
 2846 1b98 023083E0 		add	r3, r3, r2
 2847 1b9c 0030C4E5 		strb	r3, [r4, #0]
 2848 1ba0 FEFFFFEB 		bl	uart1_transmit
 2849 1ba4 4D305BE5 		ldrb	r3, [fp, #-77]	@ zero_extendqisi2
 2850 1ba8 0020D4E5 		ldrb	r2, [r4, #0]	@ zero_extendqisi2
 2851 1bac 0300A0E1 		mov	r0, r3
 2852 1bb0 023083E0 		add	r3, r3, r2
 2853 1bb4 0030C4E5 		strb	r3, [r4, #0]
 2854 1bb8 FEFFFFEB 		bl	uart1_transmit
 2855 1bbc 0030D4E5 		ldrb	r3, [r4, #0]	@ zero_extendqisi2
 2856 1bc0 0330E0E1 		mvn	r3, r3
 2857 1bc4 0030C4E5 		strb	r3, [r4, #0]
 2858 1bc8 0000D4E5 		ldrb	r0, [r4, #0]	@ zero_extendqisi2
 2859 1bcc FEFFFFEB 		bl	uart1_transmit
 2860              	.L167:
 2861 1bd0 E02A9FE5 		ldr	r2, .L442
 2862 1bd4 0030D2E5 		ldrb	r3, [r2, #0]	@ zero_extendqisi2
 2863 1bd8 013083E2 		add	r3, r3, #1
 2864 1bdc 0030C2E5 		strb	r3, [r2, #0]
 2865              	.L105:
 2866 1be0 D40A9FE5 		ldr	r0, .L442+4
 2867 1be4 0030D0E5 		ldrb	r3, [r0, #0]	@ zero_extendqisi2
 2868 1be8 180053E3 		cmp	r3, #24
 2869 1bec 7407001A 		bne	.L168
 2870 1bf0 1600A0E3 		mov	r0, #22
 2871 1bf4 FEFFFFEB 		bl	uart1_check_free_space
 2872 1bf8 FF0010E3 		tst	r0, #255
 2873 1bfc 682C9F05 		ldreq	r2, .L442+436
 2874 1c00 0030D205 		ldreqb	r3, [r2, #0]	@ zero_extendqisi2
 2875 1c04 01308302 		addeq	r3, r3, #1
 2876 1c08 0030C205 		streqb	r3, [r2, #0]
 2877 1c0c 7407000A 		beq	.L168
 2878 1c10 581C9FE5 		ldr	r1, .L442+440
 2879 1c14 58CC9FE5 		ldr	ip, .L442+444
 2880 1c18 B030D1E1 		ldrh	r3, [r1, #0]
 2881 1c1c B020DCE1 		ldrh	r2, [ip, #0]
 2882 1c20 163083E2 		add	r3, r3, #22
 2883 1c24 012082E2 		add	r2, r2, #1
 2884 1c28 B030C1E1 		strh	r3, [r1, #0]	@ movhi 
 2885 1c2c B020CCE1 		strh	r2, [ip, #0]	@ movhi 
 2886 1c30 0060A0E3 		mov	r6, #0
 2887 1c34 7E00A0E3 		mov	r0, #126
 2888 1c38 384C9FE5 		ldr	r4, .L442+448
 2889 1c3c FEFFFFEB 		bl	uart1_transmit
 2890 1c40 0600A0E1 		mov	r0, r6
 2891 1c44 0150A0E3 		mov	r5, #1
 2892 1c48 FEFFFFEB 		bl	uart1_transmit
 2893 1c4c 1200A0E3 		mov	r0, #18
 2894 1c50 FEFFFFEB 		bl	uart1_transmit
 2895 1c54 0500A0E1 		mov	r0, r5
 2896 1c58 0050C4E5 		strb	r5, [r4, #0]
 2897 1c5c FEFFFFEB 		bl	uart1_transmit
 2898 1c60 0600A0E1 		mov	r0, r6
 2899 1c64 FEFFFFEB 		bl	uart1_transmit
 2900 1c68 0030D4E5 		ldrb	r3, [r4, #0]	@ zero_extendqisi2
 2901 1c6c 053083E0 		add	r3, r3, r5
 2902 1c70 0030C4E5 		strb	r3, [r4, #0]
 2903 1c74 0500A0E1 		mov	r0, r5
 2904 1c78 FEFFFFEB 		bl	uart1_transmit
 2905 1c7c 0600A0E1 		mov	r0, r6
 2906 1c80 FEFFFFEB 		bl	uart1_transmit
 2907 1c84 0600A0E1 		mov	r0, r6
 2908 1c88 FEFFFFEB 		bl	uart1_transmit
 2909 1c8c 0030D4E5 		ldrb	r3, [r4, #0]	@ zero_extendqisi2
 2910 1c90 0B3083E2 		add	r3, r3, #11
 2911 1c94 0B00A0E3 		mov	r0, #11
 2912 1c98 0030C4E5 		strb	r3, [r4, #0]
 2913 1c9c FEFFFFEB 		bl	uart1_transmit
 2914 1ca0 0030D4E5 		ldrb	r3, [r4, #0]	@ zero_extendqisi2
 2915 1ca4 145A9FE5 		ldr	r5, .L442+8
 2916 1ca8 113083E2 		add	r3, r3, #17
 2917 1cac 1100A0E3 		mov	r0, #17
 2918 1cb0 0030C4E5 		strb	r3, [r4, #0]
 2919 1cb4 FEFFFFEB 		bl	uart1_transmit
 2920 1cb8 0030D5E5 		ldrb	r3, [r5, #0]	@ zero_extendqisi2
 2921 1cbc 0020D4E5 		ldrb	r2, [r4, #0]	@ zero_extendqisi2
 2922 1cc0 0300A0E1 		mov	r0, r3
 2923 1cc4 023083E0 		add	r3, r3, r2
 2924 1cc8 0030C4E5 		strb	r3, [r4, #0]
 2925 1ccc FEFFFFEB 		bl	uart1_transmit
 2926 1cd0 0130D5E5 		ldrb	r3, [r5, #1]	@ zero_extendqisi2
 2927 1cd4 0020D4E5 		ldrb	r2, [r4, #0]	@ zero_extendqisi2
 2928 1cd8 0300A0E1 		mov	r0, r3
 2929 1cdc 023083E0 		add	r3, r3, r2
 2930 1ce0 0030C4E5 		strb	r3, [r4, #0]
 2931 1ce4 FEFFFFEB 		bl	uart1_transmit
 2932 1ce8 0230D5E5 		ldrb	r3, [r5, #2]	@ zero_extendqisi2
 2933 1cec 0020D4E5 		ldrb	r2, [r4, #0]	@ zero_extendqisi2
 2934 1cf0 0300A0E1 		mov	r0, r3
 2935 1cf4 023083E0 		add	r3, r3, r2
 2936 1cf8 0030C4E5 		strb	r3, [r4, #0]
 2937 1cfc FEFFFFEB 		bl	uart1_transmit
 2938 1d00 0300D5E5 		ldrb	r0, [r5, #3]	@ zero_extendqisi2
 2939 1d04 0030D4E5 		ldrb	r3, [r4, #0]	@ zero_extendqisi2
 2940 1d08 B4599FE5 		ldr	r5, .L442+12
 2941 1d0c 033080E0 		add	r3, r0, r3
 2942 1d10 0030C4E5 		strb	r3, [r4, #0]
 2943 1d14 FEFFFFEB 		bl	uart1_transmit
 2944 1d18 0030D5E5 		ldrb	r3, [r5, #0]	@ zero_extendqisi2
 2945 1d1c 0020D4E5 		ldrb	r2, [r4, #0]	@ zero_extendqisi2
 2946 1d20 0300A0E1 		mov	r0, r3
 2947 1d24 023083E0 		add	r3, r3, r2
 2948 1d28 0030C4E5 		strb	r3, [r4, #0]
 2949 1d2c FEFFFFEB 		bl	uart1_transmit
 2950 1d30 0130D5E5 		ldrb	r3, [r5, #1]	@ zero_extendqisi2
 2951 1d34 0020D4E5 		ldrb	r2, [r4, #0]	@ zero_extendqisi2
 2952 1d38 0300A0E1 		mov	r0, r3
 2953 1d3c 023083E0 		add	r3, r3, r2
 2954 1d40 0030C4E5 		strb	r3, [r4, #0]
 2955 1d44 FEFFFFEB 		bl	uart1_transmit
 2956 1d48 0230D5E5 		ldrb	r3, [r5, #2]	@ zero_extendqisi2
 2957 1d4c 0020D4E5 		ldrb	r2, [r4, #0]	@ zero_extendqisi2
 2958 1d50 0300A0E1 		mov	r0, r3
 2959 1d54 023083E0 		add	r3, r3, r2
 2960 1d58 0030C4E5 		strb	r3, [r4, #0]
 2961 1d5c FEFFFFEB 		bl	uart1_transmit
 2962 1d60 0300D5E5 		ldrb	r0, [r5, #3]	@ zero_extendqisi2
 2963 1d64 0030D4E5 		ldrb	r3, [r4, #0]	@ zero_extendqisi2
 2964 1d68 58599FE5 		ldr	r5, .L442+16
 2965 1d6c 033080E0 		add	r3, r0, r3
 2966 1d70 0030C4E5 		strb	r3, [r4, #0]
 2967 1d74 FEFFFFEB 		bl	uart1_transmit
 2968 1d78 0030D5E5 		ldrb	r3, [r5, #0]	@ zero_extendqisi2
 2969 1d7c 0020D4E5 		ldrb	r2, [r4, #0]	@ zero_extendqisi2
 2970 1d80 0300A0E1 		mov	r0, r3
 2971 1d84 023083E0 		add	r3, r3, r2
 2972 1d88 0030C4E5 		strb	r3, [r4, #0]
 2973 1d8c FEFFFFEB 		bl	uart1_transmit
 2974 1d90 0130D5E5 		ldrb	r3, [r5, #1]	@ zero_extendqisi2
 2975 1d94 0020D4E5 		ldrb	r2, [r4, #0]	@ zero_extendqisi2
 2976 1d98 0300A0E1 		mov	r0, r3
 2977 1d9c 023083E0 		add	r3, r3, r2
 2978 1da0 0030C4E5 		strb	r3, [r4, #0]
 2979 1da4 FEFFFFEB 		bl	uart1_transmit
 2980 1da8 1C399FE5 		ldr	r3, .L442+20
 2981 1dac 0020D4E5 		ldrb	r2, [r4, #0]	@ zero_extendqisi2
 2982 1db0 0030D3E5 		ldrb	r3, [r3, #0]	@ zero_extendqisi2
 2983 1db4 0300A0E1 		mov	r0, r3
 2984 1db8 023083E0 		add	r3, r3, r2
 2985 1dbc 0030C4E5 		strb	r3, [r4, #0]
 2986 1dc0 FEFFFFEB 		bl	uart1_transmit
 2987 1dc4 0030D4E5 		ldrb	r3, [r4, #0]	@ zero_extendqisi2
 2988 1dc8 0330E0E1 		mvn	r3, r3
 2989 1dcc 0030C4E5 		strb	r3, [r4, #0]
 2990 1dd0 0000D4E5 		ldrb	r0, [r4, #0]	@ zero_extendqisi2
 2991 1dd4 FEFFFFEB 		bl	uart1_transmit
 2992              	.L168:
 2993 1dd8 F0289FE5 		ldr	r2, .L442+24
 2994 1ddc 0030D2E5 		ldrb	r3, [r2, #0]	@ zero_extendqisi2
 2995 1de0 1E0053E3 		cmp	r3, #30
 2996 1de4 C107001A 		bne	.L171
 2997 1de8 1000A0E3 		mov	r0, #16
 2998 1dec FEFFFFEB 		bl	uart1_check_free_space
 2999 1df0 FF0010E3 		tst	r0, #255
 3000 1df4 5B08000A 		beq	.L177
 3001 1df8 701A9FE5 		ldr	r1, .L442+440
 3002 1dfc 70CA9FE5 		ldr	ip, .L442+444
 3003 1e00 B030D1E1 		ldrh	r3, [r1, #0]
 3004 1e04 B020DCE1 		ldrh	r2, [ip, #0]
 3005 1e08 103083E2 		add	r3, r3, #16
 3006 1e0c 012082E2 		add	r2, r2, #1
 3007 1e10 B030C1E1 		strh	r3, [r1, #0]	@ movhi 
 3008 1e14 B020CCE1 		strh	r2, [ip, #0]	@ movhi 
 3009 1e18 0060A0E3 		mov	r6, #0
 3010 1e1c 7E00A0E3 		mov	r0, #126
 3011 1e20 504A9FE5 		ldr	r4, .L442+448
 3012 1e24 FEFFFFEB 		bl	uart1_transmit
 3013 1e28 0600A0E1 		mov	r0, r6
 3014 1e2c 0150A0E3 		mov	r5, #1
 3015 1e30 FEFFFFEB 		bl	uart1_transmit
 3016 1e34 0C00A0E3 		mov	r0, #12
 3017 1e38 FEFFFFEB 		bl	uart1_transmit
 3018 1e3c 0500A0E1 		mov	r0, r5
 3019 1e40 0050C4E5 		strb	r5, [r4, #0]
 3020 1e44 FEFFFFEB 		bl	uart1_transmit
 3021 1e48 0600A0E1 		mov	r0, r6
 3022 1e4c FEFFFFEB 		bl	uart1_transmit
 3023 1e50 0030D4E5 		ldrb	r3, [r4, #0]	@ zero_extendqisi2
 3024 1e54 053083E0 		add	r3, r3, r5
 3025 1e58 0030C4E5 		strb	r3, [r4, #0]
 3026 1e5c 0500A0E1 		mov	r0, r5
 3027 1e60 FEFFFFEB 		bl	uart1_transmit
 3028 1e64 0600A0E1 		mov	r0, r6
 3029 1e68 FEFFFFEB 		bl	uart1_transmit
 3030 1e6c 0600A0E1 		mov	r0, r6
 3031 1e70 FEFFFFEB 		bl	uart1_transmit
 3032 1e74 0030D4E5 		ldrb	r3, [r4, #0]	@ zero_extendqisi2
 3033 1e78 0B3083E2 		add	r3, r3, #11
 3034 1e7c 0B00A0E3 		mov	r0, #11
 3035 1e80 0030C4E5 		strb	r3, [r4, #0]
 3036 1e84 FEFFFFEB 		bl	uart1_transmit
 3037 1e88 0030D4E5 		ldrb	r3, [r4, #0]	@ zero_extendqisi2
 3038 1e8c 40589FE5 		ldr	r5, .L442+28
 3039 1e90 0E3083E2 		add	r3, r3, #14
 3040 1e94 0E00A0E3 		mov	r0, #14
 3041 1e98 0030C4E5 		strb	r3, [r4, #0]
 3042 1e9c FEFFFFEB 		bl	uart1_transmit
 3043 1ea0 0030D5E5 		ldrb	r3, [r5, #0]	@ zero_extendqisi2
 3044 1ea4 0020D4E5 		ldrb	r2, [r4, #0]	@ zero_extendqisi2
 3045 1ea8 0300A0E1 		mov	r0, r3
 3046 1eac 023083E0 		add	r3, r3, r2
 3047 1eb0 0030C4E5 		strb	r3, [r4, #0]
 3048 1eb4 FEFFFFEB 		bl	uart1_transmit
 3049 1eb8 0130D5E5 		ldrb	r3, [r5, #1]	@ zero_extendqisi2
 3050 1ebc 0020D4E5 		ldrb	r2, [r4, #0]	@ zero_extendqisi2
 3051 1ec0 0300A0E1 		mov	r0, r3
 3052 1ec4 023083E0 		add	r3, r3, r2
 3053 1ec8 0030C4E5 		strb	r3, [r4, #0]
 3054 1ecc FEFFFFEB 		bl	uart1_transmit
 3055 1ed0 0230D5E5 		ldrb	r3, [r5, #2]	@ zero_extendqisi2
 3056 1ed4 0020D4E5 		ldrb	r2, [r4, #0]	@ zero_extendqisi2
 3057 1ed8 0300A0E1 		mov	r0, r3
 3058 1edc 023083E0 		add	r3, r3, r2
 3059 1ee0 0030C4E5 		strb	r3, [r4, #0]
 3060 1ee4 FEFFFFEB 		bl	uart1_transmit
 3061 1ee8 0330D5E5 		ldrb	r3, [r5, #3]	@ zero_extendqisi2
 3062 1eec 0020D4E5 		ldrb	r2, [r4, #0]	@ zero_extendqisi2
 3063 1ef0 0300A0E1 		mov	r0, r3
 3064 1ef4 023083E0 		add	r3, r3, r2
 3065 1ef8 0030C4E5 		strb	r3, [r4, #0]
 3066 1efc FEFFFFEB 		bl	uart1_transmit
 3067 1f00 D0379FE5 		ldr	r3, .L442+32
 3068 1f04 0030D3E5 		ldrb	r3, [r3, #0]	@ zero_extendqisi2
 3069 1f08 500800EA 		b	.L415
 3070              	.L171:
 3071 1f0c 240053E3 		cmp	r3, #36
 3072 1f10 5F08001A 		bne	.L174
 3073 1f14 C0379FE5 		ldr	r3, .L442+36
 3074 1f18 0030D3E5 		ldrb	r3, [r3, #0]	@ zero_extendqisi2
 3075 1f1c 000053E3 		cmp	r3, #0
 3076 1f20 5F08000A 		beq	.L174
 3077 1f24 1B00A0E3 		mov	r0, #27
 3078 1f28 FEFFFFEB 		bl	uart1_check_free_space
 3079 1f2c FF0010E3 		tst	r0, #255
 3080 1f30 5B08000A 		beq	.L177
 3081 1f34 34199FE5 		ldr	r1, .L442+440
 3082 1f38 34C99FE5 		ldr	ip, .L442+444
 3083 1f3c B030D1E1 		ldrh	r3, [r1, #0]
 3084 1f40 B020DCE1 		ldrh	r2, [ip, #0]
 3085 1f44 1B3083E2 		add	r3, r3, #27
 3086 1f48 012082E2 		add	r2, r2, #1
 3087 1f4c B030C1E1 		strh	r3, [r1, #0]	@ movhi 
 3088 1f50 B020CCE1 		strh	r2, [ip, #0]	@ movhi 
 3089 1f54 0060A0E3 		mov	r6, #0
 3090 1f58 7E00A0E3 		mov	r0, #126
 3091 1f5c 14499FE5 		ldr	r4, .L442+448
 3092 1f60 FEFFFFEB 		bl	uart1_transmit
 3093 1f64 0600A0E1 		mov	r0, r6
 3094 1f68 0150A0E3 		mov	r5, #1
 3095 1f6c FEFFFFEB 		bl	uart1_transmit
 3096 1f70 1700A0E3 		mov	r0, #23
 3097 1f74 FEFFFFEB 		bl	uart1_transmit
 3098 1f78 0500A0E1 		mov	r0, r5
 3099 1f7c 0050C4E5 		strb	r5, [r4, #0]
 3100 1f80 FEFFFFEB 		bl	uart1_transmit
 3101 1f84 0600A0E1 		mov	r0, r6
 3102 1f88 FEFFFFEB 		bl	uart1_transmit
 3103 1f8c 0030D4E5 		ldrb	r3, [r4, #0]	@ zero_extendqisi2
 3104 1f90 053083E0 		add	r3, r3, r5
 3105 1f94 0030C4E5 		strb	r3, [r4, #0]
 3106 1f98 0500A0E1 		mov	r0, r5
 3107 1f9c FEFFFFEB 		bl	uart1_transmit
 3108 1fa0 0600A0E1 		mov	r0, r6
 3109 1fa4 FEFFFFEB 		bl	uart1_transmit
 3110 1fa8 0600A0E1 		mov	r0, r6
 3111 1fac FEFFFFEB 		bl	uart1_transmit
 3112 1fb0 0030D4E5 		ldrb	r3, [r4, #0]	@ zero_extendqisi2
 3113 1fb4 0B3083E2 		add	r3, r3, #11
 3114 1fb8 0B00A0E3 		mov	r0, #11
 3115 1fbc 0030C4E5 		strb	r3, [r4, #0]
 3116 1fc0 FEFFFFEB 		bl	uart1_transmit
 3117 1fc4 0030D4E5 		ldrb	r3, [r4, #0]	@ zero_extendqisi2
 3118 1fc8 10579FE5 		ldr	r5, .L442+40
 3119 1fcc 1B3083E2 		add	r3, r3, #27
 3120 1fd0 1B00A0E3 		mov	r0, #27
 3121 1fd4 0030C4E5 		strb	r3, [r4, #0]
 3122 1fd8 FEFFFFEB 		bl	uart1_transmit
 3123 1fdc 0030D5E5 		ldrb	r3, [r5, #0]	@ zero_extendqisi2
 3124 1fe0 0020D4E5 		ldrb	r2, [r4, #0]	@ zero_extendqisi2
 3125 1fe4 0300A0E1 		mov	r0, r3
 3126 1fe8 023083E0 		add	r3, r3, r2
 3127 1fec 0030C4E5 		strb	r3, [r4, #0]
 3128 1ff0 FEFFFFEB 		bl	uart1_transmit
 3129 1ff4 0130D5E5 		ldrb	r3, [r5, #1]	@ zero_extendqisi2
 3130 1ff8 0020D4E5 		ldrb	r2, [r4, #0]	@ zero_extendqisi2
 3131 1ffc 0300A0E1 		mov	r0, r3
 3132 2000 023083E0 		add	r3, r3, r2
 3133 2004 0030C4E5 		strb	r3, [r4, #0]
 3134 2008 FEFFFFEB 		bl	uart1_transmit
 3135 200c 0230D5E5 		ldrb	r3, [r5, #2]	@ zero_extendqisi2
 3136 2010 0020D4E5 		ldrb	r2, [r4, #0]	@ zero_extendqisi2
 3137 2014 0300A0E1 		mov	r0, r3
 3138 2018 023083E0 		add	r3, r3, r2
 3139 201c 0030C4E5 		strb	r3, [r4, #0]
 3140 2020 FEFFFFEB 		bl	uart1_transmit
 3141 2024 0300D5E5 		ldrb	r0, [r5, #3]	@ zero_extendqisi2
 3142 2028 0030D4E5 		ldrb	r3, [r4, #0]	@ zero_extendqisi2
 3143 202c B0569FE5 		ldr	r5, .L442+44
 3144 2030 033080E0 		add	r3, r0, r3
 3145 2034 0030C4E5 		strb	r3, [r4, #0]
 3146 2038 FEFFFFEB 		bl	uart1_transmit
 3147 203c 0030D5E5 		ldrb	r3, [r5, #0]	@ zero_extendqisi2
 3148 2040 0020D4E5 		ldrb	r2, [r4, #0]	@ zero_extendqisi2
 3149 2044 0300A0E1 		mov	r0, r3
 3150 2048 023083E0 		add	r3, r3, r2
 3151 204c 0030C4E5 		strb	r3, [r4, #0]
 3152 2050 FEFFFFEB 		bl	uart1_transmit
 3153 2054 0130D5E5 		ldrb	r3, [r5, #1]	@ zero_extendqisi2
 3154 2058 0020D4E5 		ldrb	r2, [r4, #0]	@ zero_extendqisi2
 3155 205c 0300A0E1 		mov	r0, r3
 3156 2060 023083E0 		add	r3, r3, r2
 3157 2064 0030C4E5 		strb	r3, [r4, #0]
 3158 2068 FEFFFFEB 		bl	uart1_transmit
 3159 206c 0230D5E5 		ldrb	r3, [r5, #2]	@ zero_extendqisi2
 3160 2070 0020D4E5 		ldrb	r2, [r4, #0]	@ zero_extendqisi2
 3161 2074 0300A0E1 		mov	r0, r3
 3162 2078 023083E0 		add	r3, r3, r2
 3163 207c 0030C4E5 		strb	r3, [r4, #0]
 3164 2080 FEFFFFEB 		bl	uart1_transmit
 3165 2084 0300D5E5 		ldrb	r0, [r5, #3]	@ zero_extendqisi2
 3166 2088 0030D4E5 		ldrb	r3, [r4, #0]	@ zero_extendqisi2
 3167 208c 54569FE5 		ldr	r5, .L442+48
 3168 2090 033080E0 		add	r3, r0, r3
 3169 2094 0030C4E5 		strb	r3, [r4, #0]
 3170 2098 FEFFFFEB 		bl	uart1_transmit
 3171 209c 0030D5E5 		ldrb	r3, [r5, #0]	@ zero_extendqisi2
 3172 20a0 0020D4E5 		ldrb	r2, [r4, #0]	@ zero_extendqisi2
 3173 20a4 0300A0E1 		mov	r0, r3
 3174 20a8 023083E0 		add	r3, r3, r2
 3175 20ac 0030C4E5 		strb	r3, [r4, #0]
 3176 20b0 FEFFFFEB 		bl	uart1_transmit
 3177 20b4 0130D5E5 		ldrb	r3, [r5, #1]	@ zero_extendqisi2
 3178 20b8 0020D4E5 		ldrb	r2, [r4, #0]	@ zero_extendqisi2
 3179 20bc 0300A0E1 		mov	r0, r3
 3180 20c0 023083E0 		add	r3, r3, r2
 3181 20c4 0030C4E5 		strb	r3, [r4, #0]
 3182 20c8 FEFFFFEB 		bl	uart1_transmit
 3183 20cc 0230D5E5 		ldrb	r3, [r5, #2]	@ zero_extendqisi2
 3184 20d0 0020D4E5 		ldrb	r2, [r4, #0]	@ zero_extendqisi2
 3185 20d4 0300A0E1 		mov	r0, r3
 3186 20d8 023083E0 		add	r3, r3, r2
 3187 20dc 0030C4E5 		strb	r3, [r4, #0]
 3188 20e0 FEFFFFEB 		bl	uart1_transmit
 3189 20e4 0300D5E5 		ldrb	r0, [r5, #3]	@ zero_extendqisi2
 3190 20e8 0030D4E5 		ldrb	r3, [r4, #0]	@ zero_extendqisi2
 3191 20ec F8559FE5 		ldr	r5, .L442+52
 3192 20f0 033080E0 		add	r3, r0, r3
 3193 20f4 0030C4E5 		strb	r3, [r4, #0]
 3194 20f8 FEFFFFEB 		bl	uart1_transmit
 3195 20fc 0030D5E5 		ldrb	r3, [r5, #0]	@ zero_extendqisi2
 3196 2100 0020D4E5 		ldrb	r2, [r4, #0]	@ zero_extendqisi2
 3197 2104 0300A0E1 		mov	r0, r3
 3198 2108 023083E0 		add	r3, r3, r2
 3199 210c 0030C4E5 		strb	r3, [r4, #0]
 3200 2110 FEFFFFEB 		bl	uart1_transmit
 3201 2114 0130D5E5 		ldrb	r3, [r5, #1]	@ zero_extendqisi2
 3202 2118 0020D4E5 		ldrb	r2, [r4, #0]	@ zero_extendqisi2
 3203 211c 0300A0E1 		mov	r0, r3
 3204 2120 023083E0 		add	r3, r3, r2
 3205 2124 0030C4E5 		strb	r3, [r4, #0]
 3206 2128 FEFFFFEB 		bl	uart1_transmit
 3207 212c 0230D5E5 		ldrb	r3, [r5, #2]	@ zero_extendqisi2
 3208 2130 0020D4E5 		ldrb	r2, [r4, #0]	@ zero_extendqisi2
 3209 2134 0300A0E1 		mov	r0, r3
 3210 2138 023083E0 		add	r3, r3, r2
 3211 213c 0030C4E5 		strb	r3, [r4, #0]
 3212 2140 FEFFFFEB 		bl	uart1_transmit
 3213 2144 0330D5E5 		ldrb	r3, [r5, #3]	@ zero_extendqisi2
 3214              	.L415:
 3215 2148 0020D4E5 		ldrb	r2, [r4, #0]	@ zero_extendqisi2
 3216 214c 0300A0E1 		mov	r0, r3
 3217 2150 023083E0 		add	r3, r3, r2
 3218 2154 0030C4E5 		strb	r3, [r4, #0]
 3219 2158 FEFFFFEB 		bl	uart1_transmit
 3220 215c 0030D4E5 		ldrb	r3, [r4, #0]	@ zero_extendqisi2
 3221 2160 0330E0E1 		mvn	r3, r3
 3222 2164 0030C4E5 		strb	r3, [r4, #0]
 3223 2168 0000D4E5 		ldrb	r0, [r4, #0]	@ zero_extendqisi2
 3224 216c FEFFFFEB 		bl	uart1_transmit
 3225 2170 5F0800EA 		b	.L174
 3226              	.L177:
 3227 2174 F0269FE5 		ldr	r2, .L442+436
 3228 2178 0030D2E5 		ldrb	r3, [r2, #0]	@ zero_extendqisi2
 3229 217c 013083E2 		add	r3, r3, #1
 3230 2180 0030C2E5 		strb	r3, [r2, #0]
 3231              	.L174:
 3232 2184 64059FE5 		ldr	r0, .L442+56
 3233 2188 0030D0E5 		ldrb	r3, [r0, #0]	@ zero_extendqisi2
 3234 218c 2A0053E3 		cmp	r3, #42
 3235 2190 0709001A 		bne	.L179
 3236 2194 D4359FE5 		ldr	r3, .L442+184
 3237 2198 000093E5 		ldr	r0, [r3, #0]	@ float
 3238 219c FEFFFFEB 		bl	__fixsfsi
 3239 21a0 D0359FE5 		ldr	r3, .L442+192
 3240 21a4 D040D3E1 		ldrsb	r4, [r3, #0]
 3241 21a8 B0034BE1 		strh	r0, [fp, #-48]	@ movhi 
 3242 21ac 0400A0E1 		mov	r0, r4
 3243 21b0 FEFFFFEB 		bl	__floatsisf
 3244 21b4 000054E3 		cmp	r4, #0
 3245 21b8 1C169FB5 		ldrlt	r1, .L442+292
 3246 21bc FEFFFFBB 		bllt	__addsf3
 3247              	.L180:
 3248 21c0 2C159FE5 		ldr	r1, .L442+60
 3249 21c4 FEFFFFEB 		bl	__divsf3
 3250 21c8 28359FE5 		ldr	r3, .L442+64
 3251 21cc 0040A0E1 		mov	r4, r0
 3252 21d0 000093E5 		ldr	r0, [r3, #0]
 3253 21d4 54400BE5 		str	r4, [fp, #-84]	@ float
 3254 21d8 FEFFFFEB 		bl	__floatsisf
 3255 21dc 18159FE5 		ldr	r1, .L442+68
 3256 21e0 FEFFFFEB 		bl	__divsf3
 3257 21e4 0030A0E1 		mov	r3, r0
 3258 21e8 0010A0E1 		mov	r1, r0
 3259 21ec 0400A0E1 		mov	r0, r4
 3260 21f0 58300BE5 		str	r3, [fp, #-88]	@ float
 3261 21f4 FEFFFFEB 		bl	__mulsf3
 3262 21f8 5C000BE5 		str	r0, [fp, #-92]	@ float
 3263 21fc 1900A0E3 		mov	r0, #25
 3264 2200 FEFFFFEB 		bl	uart1_check_free_space
 3265 2204 FF0010E3 		tst	r0, #255
 3266 2208 5C269F05 		ldreq	r2, .L442+436
 3267 220c 0030D205 		ldreqb	r3, [r2, #0]	@ zero_extendqisi2
 3268 2210 01308302 		addeq	r3, r3, #1
 3269 2214 0030C205 		streqb	r3, [r2, #0]
 3270 2218 0709000A 		beq	.L179
 3271 221c 4C169FE5 		ldr	r1, .L442+440
 3272 2220 4CC69FE5 		ldr	ip, .L442+444
 3273 2224 B030D1E1 		ldrh	r3, [r1, #0]
 3274 2228 B020DCE1 		ldrh	r2, [ip, #0]
 3275 222c 193083E2 		add	r3, r3, #25
 3276 2230 012082E2 		add	r2, r2, #1
 3277 2234 B030C1E1 		strh	r3, [r1, #0]	@ movhi 
 3278 2238 B020CCE1 		strh	r2, [ip, #0]	@ movhi 
 3279 223c 0060A0E3 		mov	r6, #0
 3280 2240 7E00A0E3 		mov	r0, #126
 3281 2244 2C469FE5 		ldr	r4, .L442+448
 3282 2248 FEFFFFEB 		bl	uart1_transmit
 3283 224c 0600A0E1 		mov	r0, r6
 3284 2250 FEFFFFEB 		bl	uart1_transmit
 3285 2254 0150A0E3 		mov	r5, #1
 3286 2258 1500A0E3 		mov	r0, #21
 3287 225c FEFFFFEB 		bl	uart1_transmit
 3288 2260 0500A0E1 		mov	r0, r5
 3289 2264 0050C4E5 		strb	r5, [r4, #0]
 3290 2268 FEFFFFEB 		bl	uart1_transmit
 3291 226c 0600A0E1 		mov	r0, r6
 3292 2270 FEFFFFEB 		bl	uart1_transmit
 3293 2274 0030D4E5 		ldrb	r3, [r4, #0]	@ zero_extendqisi2
 3294 2278 053083E0 		add	r3, r3, r5
 3295 227c 0030C4E5 		strb	r3, [r4, #0]
 3296 2280 0500A0E1 		mov	r0, r5
 3297 2284 FEFFFFEB 		bl	uart1_transmit
 3298 2288 0600A0E1 		mov	r0, r6
 3299 228c FEFFFFEB 		bl	uart1_transmit
 3300 2290 0600A0E1 		mov	r0, r6
 3301 2294 FEFFFFEB 		bl	uart1_transmit
 3302 2298 0030D4E5 		ldrb	r3, [r4, #0]	@ zero_extendqisi2
 3303 229c 0B3083E2 		add	r3, r3, #11
 3304 22a0 0B00A0E3 		mov	r0, #11
 3305 22a4 0030C4E5 		strb	r3, [r4, #0]
 3306 22a8 FEFFFFEB 		bl	uart1_transmit
 3307 22ac 0030D4E5 		ldrb	r3, [r4, #0]	@ zero_extendqisi2
 3308 22b0 253083E2 		add	r3, r3, #37
 3309 22b4 2500A0E3 		mov	r0, #37
 3310 22b8 0030C4E5 		strb	r3, [r4, #0]
 3311 22bc FEFFFFEB 		bl	uart1_transmit
 3312 22c0 54305BE5 		ldrb	r3, [fp, #-84]	@ zero_extendqisi2
 3313 22c4 0020D4E5 		ldrb	r2, [r4, #0]	@ zero_extendqisi2
 3314 22c8 0300A0E1 		mov	r0, r3
 3315 22cc 023083E0 		add	r3, r3, r2
 3316 22d0 0030C4E5 		strb	r3, [r4, #0]
 3317 22d4 FEFFFFEB 		bl	uart1_transmit
 3318 22d8 53305BE5 		ldrb	r3, [fp, #-83]	@ zero_extendqisi2
 3319 22dc 0020D4E5 		ldrb	r2, [r4, #0]	@ zero_extendqisi2
 3320 22e0 0300A0E1 		mov	r0, r3
 3321 22e4 023083E0 		add	r3, r3, r2
 3322 22e8 0030C4E5 		strb	r3, [r4, #0]
 3323 22ec FEFFFFEB 		bl	uart1_transmit
 3324 22f0 52305BE5 		ldrb	r3, [fp, #-82]	@ zero_extendqisi2
 3325 22f4 0020D4E5 		ldrb	r2, [r4, #0]	@ zero_extendqisi2
 3326 22f8 0300A0E1 		mov	r0, r3
 3327 22fc 023083E0 		add	r3, r3, r2
 3328 2300 0030C4E5 		strb	r3, [r4, #0]
 3329 2304 FEFFFFEB 		bl	uart1_transmit
 3330 2308 51305BE5 		ldrb	r3, [fp, #-81]	@ zero_extendqisi2
 3331 230c 0020D4E5 		ldrb	r2, [r4, #0]	@ zero_extendqisi2
 3332 2310 0300A0E1 		mov	r0, r3
 3333 2314 023083E0 		add	r3, r3, r2
 3334 2318 0030C4E5 		strb	r3, [r4, #0]
 3335 231c FEFFFFEB 		bl	uart1_transmit
 3336 2320 58305BE5 		ldrb	r3, [fp, #-88]	@ zero_extendqisi2
 3337 2324 0020D4E5 		ldrb	r2, [r4, #0]	@ zero_extendqisi2
 3338 2328 0300A0E1 		mov	r0, r3
 3339 232c 023083E0 		add	r3, r3, r2
 3340 2330 0030C4E5 		strb	r3, [r4, #0]
 3341 2334 FEFFFFEB 		bl	uart1_transmit
 3342 2338 57305BE5 		ldrb	r3, [fp, #-87]	@ zero_extendqisi2
 3343 233c 0020D4E5 		ldrb	r2, [r4, #0]	@ zero_extendqisi2
 3344 2340 0300A0E1 		mov	r0, r3
 3345 2344 023083E0 		add	r3, r3, r2
 3346 2348 0030C4E5 		strb	r3, [r4, #0]
 3347 234c FEFFFFEB 		bl	uart1_transmit
 3348 2350 56305BE5 		ldrb	r3, [fp, #-86]	@ zero_extendqisi2
 3349 2354 0020D4E5 		ldrb	r2, [r4, #0]	@ zero_extendqisi2
 3350 2358 0300A0E1 		mov	r0, r3
 3351 235c 023083E0 		add	r3, r3, r2
 3352 2360 0030C4E5 		strb	r3, [r4, #0]
 3353 2364 FEFFFFEB 		bl	uart1_transmit
 3354 2368 55305BE5 		ldrb	r3, [fp, #-85]	@ zero_extendqisi2
 3355 236c 0020D4E5 		ldrb	r2, [r4, #0]	@ zero_extendqisi2
 3356 2370 0300A0E1 		mov	r0, r3
 3357 2374 023083E0 		add	r3, r3, r2
 3358 2378 0030C4E5 		strb	r3, [r4, #0]
 3359 237c FEFFFFEB 		bl	uart1_transmit
 3360 2380 30305BE5 		ldrb	r3, [fp, #-48]	@ zero_extendqisi2
 3361 2384 0020D4E5 		ldrb	r2, [r4, #0]	@ zero_extendqisi2
 3362 2388 0300A0E1 		mov	r0, r3
 3363 238c 023083E0 		add	r3, r3, r2
 3364 2390 0030C4E5 		strb	r3, [r4, #0]
 3365 2394 FEFFFFEB 		bl	uart1_transmit
 3366 2398 2F305BE5 		ldrb	r3, [fp, #-47]	@ zero_extendqisi2
 3367 239c 0020D4E5 		ldrb	r2, [r4, #0]	@ zero_extendqisi2
 3368 23a0 0300A0E1 		mov	r0, r3
 3369 23a4 023083E0 		add	r3, r3, r2
 3370 23a8 0030C4E5 		strb	r3, [r4, #0]
 3371 23ac FEFFFFEB 		bl	uart1_transmit
 3372 23b0 5C305BE5 		ldrb	r3, [fp, #-92]	@ zero_extendqisi2
 3373 23b4 0020D4E5 		ldrb	r2, [r4, #0]	@ zero_extendqisi2
 3374 23b8 0300A0E1 		mov	r0, r3
 3375 23bc 023083E0 		add	r3, r3, r2
 3376 23c0 0030C4E5 		strb	r3, [r4, #0]
 3377 23c4 FEFFFFEB 		bl	uart1_transmit
 3378 23c8 5B305BE5 		ldrb	r3, [fp, #-91]	@ zero_extendqisi2
 3379 23cc 0020D4E5 		ldrb	r2, [r4, #0]	@ zero_extendqisi2
 3380 23d0 0300A0E1 		mov	r0, r3
 3381 23d4 023083E0 		add	r3, r3, r2
 3382 23d8 0030C4E5 		strb	r3, [r4, #0]
 3383 23dc FEFFFFEB 		bl	uart1_transmit
 3384 23e0 5A305BE5 		ldrb	r3, [fp, #-90]	@ zero_extendqisi2
 3385 23e4 0020D4E5 		ldrb	r2, [r4, #0]	@ zero_extendqisi2
 3386 23e8 0300A0E1 		mov	r0, r3
 3387 23ec 023083E0 		add	r3, r3, r2
 3388 23f0 0030C4E5 		strb	r3, [r4, #0]
 3389 23f4 FEFFFFEB 		bl	uart1_transmit
 3390 23f8 59305BE5 		ldrb	r3, [fp, #-89]	@ zero_extendqisi2
 3391 23fc 0020D4E5 		ldrb	r2, [r4, #0]	@ zero_extendqisi2
 3392 2400 0300A0E1 		mov	r0, r3
 3393 2404 023083E0 		add	r3, r3, r2
 3394 2408 0030C4E5 		strb	r3, [r4, #0]
 3395 240c FEFFFFEB 		bl	uart1_transmit
 3396 2410 0030D4E5 		ldrb	r3, [r4, #0]	@ zero_extendqisi2
 3397 2414 0330E0E1 		mvn	r3, r3
 3398 2418 0030C4E5 		strb	r3, [r4, #0]
 3399 241c 0000D4E5 		ldrb	r0, [r4, #0]	@ zero_extendqisi2
 3400 2420 FEFFFFEB 		bl	uart1_transmit
 3401              	.L179:
 3402 2424 D4229FE5 		ldr	r2, .L442+72
 3403 2428 B030D2E1 		ldrh	r3, [r2, #0]
 3404 242c 300053E3 		cmp	r3, #48
 3405 2430 4D09001A 		bne	.L183
 3406 2434 1C00A0E3 		mov	r0, #28
 3407 2438 FEFFFFEB 		bl	uart1_check_free_space
 3408 243c FF0010E3 		tst	r0, #255
 3409 2440 1D0A000A 		beq	.L192
 3410 2444 24149FE5 		ldr	r1, .L442+440
 3411 2448 24C49FE5 		ldr	ip, .L442+444
 3412 244c B030D1E1 		ldrh	r3, [r1, #0]
 3413 2450 B020DCE1 		ldrh	r2, [ip, #0]
 3414 2454 1C3083E2 		add	r3, r3, #28
 3415 2458 012082E2 		add	r2, r2, #1
 3416 245c B030C1E1 		strh	r3, [r1, #0]	@ movhi 
 3417 2460 B020CCE1 		strh	r2, [ip, #0]	@ movhi 
 3418 2464 0050A0E3 		mov	r5, #0
 3419 2468 7E00A0E3 		mov	r0, #126
 3420 246c 04649FE5 		ldr	r6, .L442+448
 3421 2470 FEFFFFEB 		bl	uart1_transmit
 3422 2474 0500A0E1 		mov	r0, r5
 3423 2478 0140A0E3 		mov	r4, #1
 3424 247c FEFFFFEB 		bl	uart1_transmit
 3425 2480 1800A0E3 		mov	r0, #24
 3426 2484 FEFFFFEB 		bl	uart1_transmit
 3427 2488 0400A0E1 		mov	r0, r4
 3428 248c 0040C6E5 		strb	r4, [r6, #0]
 3429 2490 FEFFFFEB 		bl	uart1_transmit
 3430 2494 0500A0E1 		mov	r0, r5
 3431 2498 FEFFFFEB 		bl	uart1_transmit
 3432 249c 0030D6E5 		ldrb	r3, [r6, #0]	@ zero_extendqisi2
 3433 24a0 043083E0 		add	r3, r3, r4
 3434 24a4 0030C6E5 		strb	r3, [r6, #0]
 3435 24a8 0400A0E1 		mov	r0, r4
 3436 24ac FEFFFFEB 		bl	uart1_transmit
 3437 24b0 0500A0E1 		mov	r0, r5
 3438 24b4 FEFFFFEB 		bl	uart1_transmit
 3439 24b8 0500A0E1 		mov	r0, r5
 3440 24bc FEFFFFEB 		bl	uart1_transmit
 3441 24c0 0030D6E5 		ldrb	r3, [r6, #0]	@ zero_extendqisi2
 3442 24c4 0B3083E2 		add	r3, r3, #11
 3443 24c8 0B00A0E3 		mov	r0, #11
 3444 24cc 0030C6E5 		strb	r3, [r6, #0]
 3445 24d0 FEFFFFEB 		bl	uart1_transmit
 3446 24d4 0030D6E5 		ldrb	r3, [r6, #0]	@ zero_extendqisi2
 3447 24d8 023083E2 		add	r3, r3, #2
 3448 24dc 0200A0E3 		mov	r0, #2
 3449 24e0 0030C6E5 		strb	r3, [r6, #0]
 3450 24e4 FEFFFFEB 		bl	uart1_transmit
 3451 24e8 0030D6E5 		ldrb	r3, [r6, #0]	@ zero_extendqisi2
 3452 24ec 103083E2 		add	r3, r3, #16
 3453 24f0 1000A0E3 		mov	r0, #16
 3454 24f4 0030C6E5 		strb	r3, [r6, #0]
 3455 24f8 FEFFFFEB 		bl	uart1_transmit
 3456              	.L188:
 3457 24fc 00329FE5 		ldr	r3, .L442+76
 3458 2500 0020D6E5 		ldrb	r2, [r6, #0]	@ zero_extendqisi2
 3459 2504 0330D5E7 		ldrb	r3, [r5, r3]	@ zero_extendqisi2
 3460 2508 0300A0E1 		mov	r0, r3
 3461 250c 023083E0 		add	r3, r3, r2
 3462 2510 0030C6E5 		strb	r3, [r6, #0]
 3463 2514 FEFFFFEB 		bl	uart1_transmit
 3464 2518 013085E2 		add	r3, r5, #1
 3465 251c FF5003E2 		and	r5, r3, #255
 3466 2520 0F0055E3 		cmp	r5, #15
 3467 2524 3D09009A 		bls	.L188
 3468 2528 0030D6E5 		ldrb	r3, [r6, #0]	@ zero_extendqisi2
 3469 252c 0330E0E1 		mvn	r3, r3
 3470 2530 0030C6E5 		strb	r3, [r6, #0]
 3471 2534 0000D6E5 		ldrb	r0, [r6, #0]	@ zero_extendqisi2
 3472 2538 AA0900EA 		b	.L416
 3473              	.L183:
 3474 253c 360053E3 		cmp	r3, #54
 3475 2540 210A001A 		bne	.L190
 3476 2544 1100A0E3 		mov	r0, #17
 3477 2548 FEFFFFEB 		bl	uart1_check_free_space
 3478 254c FF0010E3 		tst	r0, #255
 3479 2550 1D0A000A 		beq	.L192
 3480 2554 14139FE5 		ldr	r1, .L442+440
 3481 2558 14C39FE5 		ldr	ip, .L442+444
 3482 255c B030D1E1 		ldrh	r3, [r1, #0]
 3483 2560 B020DCE1 		ldrh	r2, [ip, #0]
 3484 2564 113083E2 		add	r3, r3, #17
 3485 2568 012082E2 		add	r2, r2, #1
 3486 256c B030C1E1 		strh	r3, [r1, #0]	@ movhi 
 3487 2570 B020CCE1 		strh	r2, [ip, #0]	@ movhi 
 3488 2574 0060A0E3 		mov	r6, #0
 3489 2578 7E00A0E3 		mov	r0, #126
 3490 257c F4429FE5 		ldr	r4, .L442+448
 3491 2580 FEFFFFEB 		bl	uart1_transmit
 3492 2584 0600A0E1 		mov	r0, r6
 3493 2588 FEFFFFEB 		bl	uart1_transmit
 3494 258c 0150A0E3 		mov	r5, #1
 3495 2590 0D00A0E3 		mov	r0, #13
 3496 2594 FEFFFFEB 		bl	uart1_transmit
 3497 2598 0500A0E1 		mov	r0, r5
 3498 259c 0050C4E5 		strb	r5, [r4, #0]
 3499 25a0 FEFFFFEB 		bl	uart1_transmit
 3500 25a4 0600A0E1 		mov	r0, r6
 3501 25a8 FEFFFFEB 		bl	uart1_transmit
 3502 25ac 0030D4E5 		ldrb	r3, [r4, #0]	@ zero_extendqisi2
 3503 25b0 053083E0 		add	r3, r3, r5
 3504 25b4 0030C4E5 		strb	r3, [r4, #0]
 3505 25b8 0500A0E1 		mov	r0, r5
 3506 25bc FEFFFFEB 		bl	uart1_transmit
 3507 25c0 0600A0E1 		mov	r0, r6
 3508 25c4 FEFFFFEB 		bl	uart1_transmit
 3509 25c8 0600A0E1 		mov	r0, r6
 3510 25cc FEFFFFEB 		bl	uart1_transmit
 3511 25d0 0030D4E5 		ldrb	r3, [r4, #0]	@ zero_extendqisi2
 3512 25d4 0B3083E2 		add	r3, r3, #11
 3513 25d8 0B00A0E3 		mov	r0, #11
 3514 25dc 0030C4E5 		strb	r3, [r4, #0]
 3515 25e0 FEFFFFEB 		bl	uart1_transmit
 3516 25e4 0030D4E5 		ldrb	r3, [r4, #0]	@ zero_extendqisi2
 3517 25e8 0B3083E2 		add	r3, r3, #11
 3518 25ec 0B00A0E3 		mov	r0, #11
 3519 25f0 0030C4E5 		strb	r3, [r4, #0]
 3520 25f4 FEFFFFEB 		bl	uart1_transmit
 3521 25f8 B8319FE5 		ldr	r3, .L442+256
 3522 25fc 0020D4E5 		ldrb	r2, [r4, #0]	@ zero_extendqisi2
 3523 2600 0030D3E5 		ldrb	r3, [r3, #0]	@ zero_extendqisi2
 3524 2604 0300A0E1 		mov	r0, r3
 3525 2608 023083E0 		add	r3, r3, r2
 3526 260c 0030C4E5 		strb	r3, [r4, #0]
 3527 2610 FEFFFFEB 		bl	uart1_transmit
 3528 2614 EC309FE5 		ldr	r3, .L442+80
 3529 2618 0020D4E5 		ldrb	r2, [r4, #0]	@ zero_extendqisi2
 3530 261c 0030D3E5 		ldrb	r3, [r3, #0]	@ zero_extendqisi2
 3531 2620 0300A0E1 		mov	r0, r3
 3532 2624 023083E0 		add	r3, r3, r2
 3533 2628 0030C4E5 		strb	r3, [r4, #0]
 3534 262c FEFFFFEB 		bl	uart1_transmit
 3535 2630 D4309FE5 		ldr	r3, .L442+84
 3536 2634 0020D4E5 		ldrb	r2, [r4, #0]	@ zero_extendqisi2
 3537 2638 0030D3E5 		ldrb	r3, [r3, #0]	@ zero_extendqisi2
 3538 263c 0300A0E1 		mov	r0, r3
 3539 2640 023083E0 		add	r3, r3, r2
 3540 2644 0030C4E5 		strb	r3, [r4, #0]
 3541 2648 FEFFFFEB 		bl	uart1_transmit
 3542 264c BC309FE5 		ldr	r3, .L442+88
 3543 2650 0020D4E5 		ldrb	r2, [r4, #0]	@ zero_extendqisi2
 3544 2654 0030D3E5 		ldrb	r3, [r3, #0]	@ zero_extendqisi2
 3545 2658 0300A0E1 		mov	r0, r3
 3546 265c 023083E0 		add	r3, r3, r2
 3547 2660 0030C4E5 		strb	r3, [r4, #0]
 3548 2664 FEFFFFEB 		bl	uart1_transmit
 3549 2668 A4309FE5 		ldr	r3, .L442+92
 3550 266c 0020D4E5 		ldrb	r2, [r4, #0]	@ zero_extendqisi2
 3551 2670 0030D3E5 		ldrb	r3, [r3, #0]	@ zero_extendqisi2
 3552 2674 0300A0E1 		mov	r0, r3
 3553 2678 023083E0 		add	r3, r3, r2
 3554 267c 0030C4E5 		strb	r3, [r4, #0]
 3555 2680 FEFFFFEB 		bl	uart1_transmit
 3556 2684 8C309FE5 		ldr	r3, .L442+96
 3557 2688 0020D4E5 		ldrb	r2, [r4, #0]	@ zero_extendqisi2
 3558 268c 0030D3E5 		ldrb	r3, [r3, #0]	@ zero_extendqisi2
 3559 2690 0300A0E1 		mov	r0, r3
 3560 2694 023083E0 		add	r3, r3, r2
 3561 2698 0030C4E5 		strb	r3, [r4, #0]
 3562 269c FEFFFFEB 		bl	uart1_transmit
 3563 26a0 0030D4E5 		ldrb	r3, [r4, #0]	@ zero_extendqisi2
 3564 26a4 0330E0E1 		mvn	r3, r3
 3565 26a8 0030C4E5 		strb	r3, [r4, #0]
 3566 26ac 0000D4E5 		ldrb	r0, [r4, #0]	@ zero_extendqisi2
 3567              	.L416:
 3568 26b0 FEFFFFEB 		bl	uart1_transmit
 3569 26b4 210A00EA 		b	.L190
 3570              	.L443:
 3571              		.align	2
 3572              	.L442:
 3573 26b8 00000000 		.word	i.24
 3574 26bc 00000000 		.word	i120.17
 3575 26c0 00000000 		.word	gps_Pacc
 3576 26c4 00000000 		.word	gps_Sacc
 3577 26c8 00000000 		.word	gps_PDOP
 3578 26cc 00000000 		.word	gps_numSV
 3579 26d0 00000000 		.word	i126.18
 3580 26d4 00000000 		.word	v_ctl_auto_throttle_sum_err
 3581 26d8 00000000 		.word	v_ctl_auto_throttle_submode
 3582 26dc 00000000 		.word	nav_survey_active
 3583 26e0 00000000 		.word	nav_survey_east
 3584 26e4 00000000 		.word	nav_survey_north
 3585 26e8 00000000 		.word	nav_survey_west
 3586 26ec 00000000 		.word	nav_survey_south
 3587 26f0 00000000 		.word	i150.19
 3588 26f4 00002041 		.word	1092616192
 3589 26f8 00000000 		.word	current
 3590 26fc 00007A44 		.word	1148846080
 3591 2700 00000000 		.word	i300.20
 3592 2704 00000000 		.word	.LC0
 3593 2708 00000000 		.word	v_ctl_mode
 3594 270c 00000000 		.word	lateral_mode
 3595 2710 00000000 		.word	horizontal_mode
 3596 2714 00000000 		.word	rc_settings_mode
 3597 2718 00000000 		.word	mcu1_status
 3598 271c 00000000 		.word	i306.21
 3599 2720 00000000 		.word	last.25
 3600 2724 00000000 		.word	i540.22
 3601 2728 00000000 		.word	i63.26
 3602 272c 00000000 		.word	i66.27
 3603 2730 00000000 		.word	i78.28
 3604 2734 00000000 		.word	i84.29
 3605 2738 00000000 		.word	i90.30
 3606 273c 00000000 		.word	i126.31
 3607 2740 00000000 		.word	i180.32
 3608 2744 00000000 		.word	i183.33
 3609 2748 00000000 		.word	i192.34
 3610 274c 00000000 		.word	i240.35
 3611 2750 00000000 		.word	i243.36
 3612 2754 00000000 		.word	i300.37
 3613 2758 31010000 		.word	305
 3614 275c 00000000 		.word	i306.38
 3615 2760 00000000 		.word	i312.39
 3616 2764 00000000 		.word	i540.40
 3617 2768 00000000 		.word	i606.41
 3618 276c 5D020000 		.word	605
 3619 2770 00000000 		.word	energy
 3620 2774 00000000 		.word	v_ctl_throttle_slewed
 3621 2778 00000000 		.word	vsupply
 3622 277c 00000000 		.word	block_time
 3623 2780 00000000 		.word	estimator_z
 3624 2784 00000000 		.word	estimator_z_dot
 3625 2788 00000000 		.word	i.42
 3626 278c 00000000 		.word	nb_waypoint
 3627 2790 00000000 		.word	nav_utm_east0
 3628 2794 00000000 		.word	waypoints
 3629 2798 00000000 		.word	nav_utm_north0
 3630 279c 00000000 		.word	nav_utm_zone0
 3631 27a0 66661440 		.word	1075078758
 3632 27a4 66666666 		.word	1717986918
 3633 27a8 00000000 		.word	i.43
 3634 27ac 00000000 		.word	flight_altitude
 3635 27b0 00000000 		.word	wind_east
 3636 27b4 00000000 		.word	wind_north
 3637 27b8 00000000 		.word	pprz_mode
 3638 27bc 00000000 		.word	alt_kalman_enabled
 3639 27c0 00000000 		.word	estimator_flight_time
 3640 27c4 00008047 		.word	1199570944
 3641 27c8 00000000 		.word	stage_time
 3642 27cc 00000000 		.word	launch
 3643 27d0 00000000 		.word	kill_throttle
 3644 27d4 00000000 		.word	telemetry_mode_Ap_DefaultChannel
 3645 27d8 00000000 		.word	telemetry_mode_Fbw_DefaultChannel
 3646 27dc 00008043 		.word	1132462080
 3647 27e0 00000000 		.word	gps_reset
 3648 27e4 00000000 		.word	ins_roll_neutral
 3649 27e8 00000000 		.word	ins_pitch_neutral
 3650 27ec 00000000 		.word	h_ctl_roll_pgain
 3651 27f0 00000000 		.word	h_ctl_roll_max_setpoint
 3652 27f4 00000000 		.word	h_ctl_pitch_pgain
 3653 27f8 00000000 		.word	h_ctl_pitch_dgain
 3654 27fc 00000000 		.word	h_ctl_elevator_of_roll
 3655 2800 00000000 		.word	h_ctl_aileron_of_throttle
 3656 2804 00000000 		.word	h_ctl_roll_attitude_gain
 3657 2808 00000000 		.word	h_ctl_roll_rate_gain
 3658 280c 00000000 		.word	v_ctl_altitude_pgain
 3659 2810 00000000 		.word	v_ctl_auto_throttle_cruise_throttle
 3660 2814 00000000 		.word	v_ctl_auto_throttle_pgain
 3661 2818 00000000 		.word	v_ctl_auto_throttle_igain
 3662 281c 00000000 		.word	v_ctl_auto_throttle_dgain
 3663 2820 00000000 		.word	v_ctl_auto_throttle_climb_throttle_increment
 3664 2824 00000000 		.word	v_ctl_auto_throttle_pitch_of_vz_pgain
 3665 2828 00000000 		.word	v_ctl_auto_throttle_pitch_of_vz_dgain
 3666 282c 00000000 		.word	v_ctl_auto_pitch_pgain
 3667 2830 00000000 		.word	v_ctl_auto_pitch_igain
 3668 2834 00000000 		.word	h_ctl_course_pgain
 3669 2838 00000000 		.word	h_ctl_course_dgain
 3670 283c 00000000 		.word	h_ctl_course_pre_bank_correction
 3671 2840 00000000 		.word	nav_glide_pitch_trim
 3672 2844 00000000 		.word	h_ctl_roll_slew
 3673 2848 00000000 		.word	nav_radius
 3674 284c 00000000 		.word	nav_course
 3675 2850 00000000 		.word	nav_mode
 3676 2854 00000000 		.word	nav_climb
 3677 2858 00000000 		.word	fp_pitch
 3678 285c 00000000 		.word	nav_shift
 3679 2860 00000000 		.word	nav_ground_speed_setpoint
 3680 2864 00000000 		.word	nav_ground_speed_pgain
 3681 2868 00000000 		.word	nav_survey_shift
 3682 286c 00000000 		.word	downlink_nb_ovrn
 3683 2870 00000000 		.word	downlink_nb_bytes
 3684 2874 00000000 		.word	downlink_nb_msgs
 3685 2878 00000000 		.word	xbee_cs
 3686              	.L192:
 3687 287c 18201FE5 		ldr	r2, .L442+436
 3688 2880 0030D2E5 		ldrb	r3, [r2, #0]	@ zero_extendqisi2
 3689 2884 013083E2 		add	r3, r3, #1
 3690 2888 0030C2E5 		strb	r3, [r2, #0]
 3691              	.L190:
 3692 288c 78011FE5 		ldr	r0, .L442+100
 3693 2890 B030D0E1 		ldrh	r3, [r0, #0]
 3694 2894 3C0053E3 		cmp	r3, #60
 3695 2898 840A001A 		bne	.L194
 3696 289c 84411FE5 		ldr	r4, .L442+104
 3697 28a0 38801FE5 		ldr	r8, .L442+440
 3698 28a4 B000D4E1 		ldrh	r0, [r4, #0]
 3699 28a8 B050D8E1 		ldrh	r5, [r8, #0]
 3700 28ac 050060E0 		rsb	r0, r0, r5
 3701 28b0 FEFFFFEB 		bl	__floatsidf
 3702 28b4 472F4FE2 		adr	r2, .L442+232
 3703 28b8 0C0092E8 		ldmia	r2, {r2-r3}
 3704 28bc FEFFFFEB 		bl	__divdf3
 3705 28c0 FEFFFFEB 		bl	__fixunsdfsi
 3706 28c4 B2034BE1 		strh	r0, [fp, #-50]	@ movhi 
 3707 28c8 1000A0E3 		mov	r0, #16
 3708 28cc B050C4E1 		strh	r5, [r4, #0]	@ movhi 
 3709 28d0 FEFFFFEB 		bl	uart1_check_free_space
 3710 28d4 70901FE5 		ldr	r9, .L442+436
 3711 28d8 FF0010E3 		tst	r0, #255
 3712 28dc 0030D905 		ldreqb	r3, [r9, #0]	@ zero_extendqisi2
 3713 28e0 01308302 		addeq	r3, r3, #1
 3714 28e4 0030C905 		streqb	r3, [r9, #0]
 3715 28e8 840A000A 		beq	.L194
 3716 28ec 80701FE5 		ldr	r7, .L442+444
 3717 28f0 B030D8E1 		ldrh	r3, [r8, #0]
 3718 28f4 B020D7E1 		ldrh	r2, [r7, #0]
 3719 28f8 103083E2 		add	r3, r3, #16
 3720 28fc 012082E2 		add	r2, r2, #1
 3721 2900 B020C7E1 		strh	r2, [r7, #0]	@ movhi 
 3722 2904 B030C8E1 		strh	r3, [r8, #0]	@ movhi 
 3723 2908 0060A0E3 		mov	r6, #0
 3724 290c 7E00A0E3 		mov	r0, #126
 3725 2910 A0401FE5 		ldr	r4, .L442+448
 3726 2914 FEFFFFEB 		bl	uart1_transmit
 3727 2918 0600A0E1 		mov	r0, r6
 3728 291c FEFFFFEB 		bl	uart1_transmit
 3729 2920 0150A0E3 		mov	r5, #1
 3730 2924 0C00A0E3 		mov	r0, #12
 3731 2928 FEFFFFEB 		bl	uart1_transmit
 3732 292c 0500A0E1 		mov	r0, r5
 3733 2930 0050C4E5 		strb	r5, [r4, #0]
 3734 2934 FEFFFFEB 		bl	uart1_transmit
 3735 2938 0600A0E1 		mov	r0, r6
 3736 293c FEFFFFEB 		bl	uart1_transmit
 3737 2940 0030D4E5 		ldrb	r3, [r4, #0]	@ zero_extendqisi2
 3738 2944 053083E0 		add	r3, r3, r5
 3739 2948 0030C4E5 		strb	r3, [r4, #0]
 3740 294c 0500A0E1 		mov	r0, r5
 3741 2950 FEFFFFEB 		bl	uart1_transmit
 3742 2954 0600A0E1 		mov	r0, r6
 3743 2958 FEFFFFEB 		bl	uart1_transmit
 3744 295c 0600A0E1 		mov	r0, r6
 3745 2960 FEFFFFEB 		bl	uart1_transmit
 3746 2964 0030D4E5 		ldrb	r3, [r4, #0]	@ zero_extendqisi2
 3747 2968 0B3083E2 		add	r3, r3, #11
 3748 296c 0B00A0E3 		mov	r0, #11
 3749 2970 0030C4E5 		strb	r3, [r4, #0]
 3750 2974 FEFFFFEB 		bl	uart1_transmit
 3751 2978 0030D4E5 		ldrb	r3, [r4, #0]	@ zero_extendqisi2
 3752 297c 1E3083E2 		add	r3, r3, #30
 3753 2980 1E00A0E3 		mov	r0, #30
 3754 2984 0030C4E5 		strb	r3, [r4, #0]
 3755 2988 FEFFFFEB 		bl	uart1_transmit
 3756 298c 0030D9E5 		ldrb	r3, [r9, #0]	@ zero_extendqisi2
 3757 2990 0020D4E5 		ldrb	r2, [r4, #0]	@ zero_extendqisi2
 3758 2994 0300A0E1 		mov	r0, r3
 3759 2998 023083E0 		add	r3, r3, r2
 3760 299c 0030C4E5 		strb	r3, [r4, #0]
 3761 29a0 FEFFFFEB 		bl	uart1_transmit
 3762 29a4 32305BE5 		ldrb	r3, [fp, #-50]	@ zero_extendqisi2
 3763 29a8 0020D4E5 		ldrb	r2, [r4, #0]	@ zero_extendqisi2
 3764 29ac 0300A0E1 		mov	r0, r3
 3765 29b0 023083E0 		add	r3, r3, r2
 3766 29b4 0030C4E5 		strb	r3, [r4, #0]
 3767 29b8 FEFFFFEB 		bl	uart1_transmit
 3768 29bc 31305BE5 		ldrb	r3, [fp, #-49]	@ zero_extendqisi2
 3769 29c0 0020D4E5 		ldrb	r2, [r4, #0]	@ zero_extendqisi2
 3770 29c4 0300A0E1 		mov	r0, r3
 3771 29c8 023083E0 		add	r3, r3, r2
 3772 29cc 0030C4E5 		strb	r3, [r4, #0]
 3773 29d0 FEFFFFEB 		bl	uart1_transmit
 3774 29d4 0030D7E5 		ldrb	r3, [r7, #0]	@ zero_extendqisi2
 3775 29d8 0020D4E5 		ldrb	r2, [r4, #0]	@ zero_extendqisi2
 3776 29dc 0300A0E1 		mov	r0, r3
 3777 29e0 023083E0 		add	r3, r3, r2
 3778 29e4 0030C4E5 		strb	r3, [r4, #0]
 3779 29e8 FEFFFFEB 		bl	uart1_transmit
 3780 29ec 0130D7E5 		ldrb	r3, [r7, #1]	@ zero_extendqisi2
 3781 29f0 0020D4E5 		ldrb	r2, [r4, #0]	@ zero_extendqisi2
 3782 29f4 0300A0E1 		mov	r0, r3
 3783 29f8 023083E0 		add	r3, r3, r2
 3784 29fc 0030C4E5 		strb	r3, [r4, #0]
 3785 2a00 FEFFFFEB 		bl	uart1_transmit
 3786 2a04 0030D4E5 		ldrb	r3, [r4, #0]	@ zero_extendqisi2
 3787 2a08 0330E0E1 		mvn	r3, r3
 3788 2a0c 0030C4E5 		strb	r3, [r4, #0]
 3789 2a10 0000D4E5 		ldrb	r0, [r4, #0]	@ zero_extendqisi2
 3790 2a14 FEFFFFEB 		bl	uart1_transmit
 3791              	.L194:
 3792 2a18 FC221FE5 		ldr	r2, .L442+108
 3793 2a1c B030D2E1 		ldrh	r3, [r2, #0]
 3794 2a20 420053E3 		cmp	r3, #66
 3795 2a24 F60A001A 		bne	.L50
 3796 2a28 1400A0E3 		mov	r0, #20
 3797 2a2c FEFFFFEB 		bl	uart1_check_free_space
 3798 2a30 FF0010E3 		tst	r0, #255
 3799 2a34 D0211F05 		ldreq	r2, .L442+436
 3800 2a38 0030D205 		ldreqb	r3, [r2, #0]	@ zero_extendqisi2
 3801 2a3c 01308302 		addeq	r3, r3, #1
 3802 2a40 0030C205 		streqb	r3, [r2, #0]
 3803 2a44 F60A000A 		beq	.L50
 3804 2a48 E0111FE5 		ldr	r1, .L442+440
 3805 2a4c E0C11FE5 		ldr	ip, .L442+444
 3806 2a50 B030D1E1 		ldrh	r3, [r1, #0]
 3807 2a54 B020DCE1 		ldrh	r2, [ip, #0]
 3808 2a58 143083E2 		add	r3, r3, #20
 3809 2a5c 012082E2 		add	r2, r2, #1
 3810 2a60 B030C1E1 		strh	r3, [r1, #0]	@ movhi 
 3811 2a64 B020CCE1 		strh	r2, [ip, #0]	@ movhi 
 3812 2a68 0060A0E3 		mov	r6, #0
 3813 2a6c 7E00A0E3 		mov	r0, #126
 3814 2a70 00421FE5 		ldr	r4, .L442+448
 3815 2a74 FEFFFFEB 		bl	uart1_transmit
 3816 2a78 0600A0E1 		mov	r0, r6
 3817 2a7c 0150A0E3 		mov	r5, #1
 3818 2a80 FEFFFFEB 		bl	uart1_transmit
 3819 2a84 1000A0E3 		mov	r0, #16
 3820 2a88 FEFFFFEB 		bl	uart1_transmit
 3821 2a8c 0500A0E1 		mov	r0, r5
 3822 2a90 0050C4E5 		strb	r5, [r4, #0]
 3823 2a94 FEFFFFEB 		bl	uart1_transmit
 3824 2a98 0600A0E1 		mov	r0, r6
 3825 2a9c FEFFFFEB 		bl	uart1_transmit
 3826 2aa0 0030D4E5 		ldrb	r3, [r4, #0]	@ zero_extendqisi2
 3827 2aa4 053083E0 		add	r3, r3, r5
 3828 2aa8 0030C4E5 		strb	r3, [r4, #0]
 3829 2aac 0500A0E1 		mov	r0, r5
 3830 2ab0 FEFFFFEB 		bl	uart1_transmit
 3831 2ab4 0600A0E1 		mov	r0, r6
 3832 2ab8 FEFFFFEB 		bl	uart1_transmit
 3833 2abc 0600A0E1 		mov	r0, r6
 3834 2ac0 FEFFFFEB 		bl	uart1_transmit
 3835 2ac4 0030D4E5 		ldrb	r3, [r4, #0]	@ zero_extendqisi2
 3836 2ac8 0B3083E2 		add	r3, r3, #11
 3837 2acc 0B00A0E3 		mov	r0, #11
 3838 2ad0 0030C4E5 		strb	r3, [r4, #0]
 3839 2ad4 FEFFFFEB 		bl	uart1_transmit
 3840 2ad8 0030D4E5 		ldrb	r3, [r4, #0]	@ zero_extendqisi2
 3841 2adc 54531FE5 		ldr	r5, .L442+216
 3842 2ae0 093083E2 		add	r3, r3, #9
 3843 2ae4 0900A0E3 		mov	r0, #9
 3844 2ae8 0030C4E5 		strb	r3, [r4, #0]
 3845 2aec FEFFFFEB 		bl	uart1_transmit
 3846 2af0 0030D5E5 		ldrb	r3, [r5, #0]	@ zero_extendqisi2
 3847 2af4 0020D4E5 		ldrb	r2, [r4, #0]	@ zero_extendqisi2
 3848 2af8 0300A0E1 		mov	r0, r3
 3849 2afc 023083E0 		add	r3, r3, r2
 3850 2b00 0030C4E5 		strb	r3, [r4, #0]
 3851 2b04 FEFFFFEB 		bl	uart1_transmit
 3852 2b08 0130D5E5 		ldrb	r3, [r5, #1]	@ zero_extendqisi2
 3853 2b0c 0020D4E5 		ldrb	r2, [r4, #0]	@ zero_extendqisi2
 3854 2b10 0300A0E1 		mov	r0, r3
 3855 2b14 023083E0 		add	r3, r3, r2
 3856 2b18 0030C4E5 		strb	r3, [r4, #0]
 3857 2b1c FEFFFFEB 		bl	uart1_transmit
 3858 2b20 0230D5E5 		ldrb	r3, [r5, #2]	@ zero_extendqisi2
 3859 2b24 0020D4E5 		ldrb	r2, [r4, #0]	@ zero_extendqisi2
 3860 2b28 0300A0E1 		mov	r0, r3
 3861 2b2c 023083E0 		add	r3, r3, r2
 3862 2b30 0030C4E5 		strb	r3, [r4, #0]
 3863 2b34 FEFFFFEB 		bl	uart1_transmit
 3864 2b38 0300D5E5 		ldrb	r0, [r5, #3]	@ zero_extendqisi2
 3865 2b3c 0030D4E5 		ldrb	r3, [r4, #0]	@ zero_extendqisi2
 3866 2b40 B0531FE5 		ldr	r5, .L442+224
 3867 2b44 033080E0 		add	r3, r0, r3
 3868 2b48 0030C4E5 		strb	r3, [r4, #0]
 3869 2b4c FEFFFFEB 		bl	uart1_transmit
 3870 2b50 0030D5E5 		ldrb	r3, [r5, #0]	@ zero_extendqisi2
 3871 2b54 0020D4E5 		ldrb	r2, [r4, #0]	@ zero_extendqisi2
 3872 2b58 0300A0E1 		mov	r0, r3
 3873 2b5c 023083E0 		add	r3, r3, r2
 3874 2b60 0030C4E5 		strb	r3, [r4, #0]
 3875 2b64 FEFFFFEB 		bl	uart1_transmit
 3876 2b68 0130D5E5 		ldrb	r3, [r5, #1]	@ zero_extendqisi2
 3877 2b6c 0020D4E5 		ldrb	r2, [r4, #0]	@ zero_extendqisi2
 3878 2b70 0300A0E1 		mov	r0, r3
 3879 2b74 023083E0 		add	r3, r3, r2
 3880 2b78 0030C4E5 		strb	r3, [r4, #0]
 3881 2b7c FEFFFFEB 		bl	uart1_transmit
 3882 2b80 0230D5E5 		ldrb	r3, [r5, #2]	@ zero_extendqisi2
 3883 2b84 0020D4E5 		ldrb	r2, [r4, #0]	@ zero_extendqisi2
 3884 2b88 0300A0E1 		mov	r0, r3
 3885 2b8c 023083E0 		add	r3, r3, r2
 3886 2b90 0030C4E5 		strb	r3, [r4, #0]
 3887 2b94 FEFFFFEB 		bl	uart1_transmit
 3888 2b98 0330D5E5 		ldrb	r3, [r5, #3]	@ zero_extendqisi2
 3889 2b9c 0020D4E5 		ldrb	r2, [r4, #0]	@ zero_extendqisi2
 3890 2ba0 0300A0E1 		mov	r0, r3
 3891 2ba4 023083E0 		add	r3, r3, r2
 3892 2ba8 0030C4E5 		strb	r3, [r4, #0]
 3893 2bac FEFFFFEB 		bl	uart1_transmit
 3894 2bb0 1C341FE5 		ldr	r3, .L442+228
 3895 2bb4 0020D4E5 		ldrb	r2, [r4, #0]	@ zero_extendqisi2
 3896 2bb8 0030D3E5 		ldrb	r3, [r3, #0]	@ zero_extendqisi2
 3897 2bbc 0300A0E1 		mov	r0, r3
 3898 2bc0 023083E0 		add	r3, r3, r2
 3899 2bc4 0030C4E5 		strb	r3, [r4, #0]
 3900 2bc8 FEFFFFEB 		bl	uart1_transmit
 3901 2bcc 0030D4E5 		ldrb	r3, [r4, #0]	@ zero_extendqisi2
 3902 2bd0 0330E0E1 		mvn	r3, r3
 3903 2bd4 0030C4E5 		strb	r3, [r4, #0]
 3904 2bd8 0000D4E5 		ldrb	r0, [r4, #0]	@ zero_extendqisi2
 3905 2bdc FEFFFFEB 		bl	uart1_transmit
 3906              	.L50:
 3907 2be0 14041FE5 		ldr	r0, .L442+284
 3908 2be4 0030D0E5 		ldrb	r3, [r0, #0]	@ zero_extendqisi2
 3909 2be8 010053E3 		cmp	r3, #1
 3910 2bec 9614001A 		bne	.L200
 3911 2bf0 D0041FE5 		ldr	r0, .L442+112
 3912 2bf4 0030D0E5 		ldrb	r3, [r0, #0]	@ zero_extendqisi2
 3913 2bf8 013083E2 		add	r3, r3, #1
 3914 2bfc 0030C0E5 		strb	r3, [r0, #0]
 3915 2c00 0030D0E5 		ldrb	r3, [r0, #0]	@ zero_extendqisi2
 3916 2c04 E0441FE5 		ldr	r4, .L442+116
 3917 2c08 3E0053E3 		cmp	r3, #62
 3918 2c0c 0030A083 		movhi	r3, #0
 3919 2c10 0030C085 		strhib	r3, [r0, #0]
 3920 2c14 0030D4E5 		ldrb	r3, [r4, #0]	@ zero_extendqisi2
 3921 2c18 013083E2 		add	r3, r3, #1
 3922 2c1c 0030C4E5 		strb	r3, [r4, #0]
 3923 2c20 0030D4E5 		ldrb	r3, [r4, #0]	@ zero_extendqisi2
 3924 2c24 FC741FE5 		ldr	r7, .L442+120
 3925 2c28 410053E3 		cmp	r3, #65
 3926 2c2c 0030A083 		movhi	r3, #0
 3927 2c30 0030C485 		strhib	r3, [r4, #0]
 3928 2c34 0030D7E5 		ldrb	r3, [r7, #0]	@ zero_extendqisi2
 3929 2c38 013083E2 		add	r3, r3, #1
 3930 2c3c 0030C7E5 		strb	r3, [r7, #0]
 3931 2c40 0030D7E5 		ldrb	r3, [r7, #0]	@ zero_extendqisi2
 3932 2c44 18851FE5 		ldr	r8, .L442+124
 3933 2c48 4D0053E3 		cmp	r3, #77
 3934 2c4c 0030A083 		movhi	r3, #0
 3935 2c50 0030C785 		strhib	r3, [r7, #0]
 3936 2c54 0030D8E5 		ldrb	r3, [r8, #0]	@ zero_extendqisi2
 3937 2c58 013083E2 		add	r3, r3, #1
 3938 2c5c 0030C8E5 		strb	r3, [r8, #0]
 3939 2c60 0030D8E5 		ldrb	r3, [r8, #0]	@ zero_extendqisi2
 3940 2c64 34A51FE5 		ldr	sl, .L442+128
 3941 2c68 530053E3 		cmp	r3, #83
 3942 2c6c 0030A083 		movhi	r3, #0
 3943 2c70 0030C885 		strhib	r3, [r8, #0]
 3944 2c74 0030DAE5 		ldrb	r3, [sl, #0]	@ zero_extendqisi2
 3945 2c78 013083E2 		add	r3, r3, #1
 3946 2c7c 0030CAE5 		strb	r3, [sl, #0]
 3947 2c80 0030DAE5 		ldrb	r3, [sl, #0]	@ zero_extendqisi2
 3948 2c84 50951FE5 		ldr	r9, .L442+132
 3949 2c88 590053E3 		cmp	r3, #89
 3950 2c8c 0030A083 		movhi	r3, #0
 3951 2c90 0030CA85 		strhib	r3, [sl, #0]
 3952 2c94 0030D9E5 		ldrb	r3, [r9, #0]	@ zero_extendqisi2
 3953 2c98 013083E2 		add	r3, r3, #1
 3954 2c9c 0030C9E5 		strb	r3, [r9, #0]
 3955 2ca0 0030D9E5 		ldrb	r3, [r9, #0]	@ zero_extendqisi2
 3956 2ca4 6C251FE5 		ldr	r2, .L442+136
 3957 2ca8 7D0053E3 		cmp	r3, #125
 3958 2cac 0030A083 		movhi	r3, #0
 3959 2cb0 0030C985 		strhib	r3, [r9, #0]
 3960 2cb4 0030D2E5 		ldrb	r3, [r2, #0]	@ zero_extendqisi2
 3961 2cb8 013083E2 		add	r3, r3, #1
 3962 2cbc 0030C2E5 		strb	r3, [r2, #0]
 3963 2cc0 0030D2E5 		ldrb	r3, [r2, #0]	@ zero_extendqisi2
 3964 2cc4 B30053E3 		cmp	r3, #179
 3965 2cc8 0030A083 		movhi	r3, #0
 3966 2ccc 0030C285 		strhib	r3, [r2, #0]
 3967 2cd0 94251FE5 		ldr	r2, .L442+140
 3968 2cd4 0030D2E5 		ldrb	r3, [r2, #0]	@ zero_extendqisi2
 3969 2cd8 013083E2 		add	r3, r3, #1
 3970 2cdc 0030C2E5 		strb	r3, [r2, #0]
 3971 2ce0 0030D2E5 		ldrb	r3, [r2, #0]	@ zero_extendqisi2
 3972 2ce4 B60053E3 		cmp	r3, #182
 3973 2ce8 0030A083 		movhi	r3, #0
 3974 2cec 0030C285 		strhib	r3, [r2, #0]
 3975 2cf0 B0251FE5 		ldr	r2, .L442+144
 3976 2cf4 0030D2E5 		ldrb	r3, [r2, #0]	@ zero_extendqisi2
 3977 2cf8 013083E2 		add	r3, r3, #1
 3978 2cfc 0030C2E5 		strb	r3, [r2, #0]
 3979 2d00 0030D2E5 		ldrb	r3, [r2, #0]	@ zero_extendqisi2
 3980 2d04 BF0053E3 		cmp	r3, #191
 3981 2d08 0030A083 		movhi	r3, #0
 3982 2d0c 0030C285 		strhib	r3, [r2, #0]
 3983 2d10 CC251FE5 		ldr	r2, .L442+148
 3984 2d14 0030D2E5 		ldrb	r3, [r2, #0]	@ zero_extendqisi2
 3985 2d18 013083E2 		add	r3, r3, #1
 3986 2d1c 0030C2E5 		strb	r3, [r2, #0]
 3987 2d20 0030D2E5 		ldrb	r3, [r2, #0]	@ zero_extendqisi2
 3988 2d24 EF0053E3 		cmp	r3, #239
 3989 2d28 0030A083 		movhi	r3, #0
 3990 2d2c 0030C285 		strhib	r3, [r2, #0]
 3991 2d30 E8251FE5 		ldr	r2, .L442+152
 3992 2d34 0030D2E5 		ldrb	r3, [r2, #0]	@ zero_extendqisi2
 3993 2d38 013083E2 		add	r3, r3, #1
 3994 2d3c 0030C2E5 		strb	r3, [r2, #0]
 3995 2d40 0030D2E5 		ldrb	r3, [r2, #0]	@ zero_extendqisi2
 3996 2d44 F20053E3 		cmp	r3, #242
 3997 2d48 0030A083 		movhi	r3, #0
 3998 2d4c 0030C285 		strhib	r3, [r2, #0]
 3999 2d50 04261FE5 		ldr	r2, .L442+156
 4000 2d54 B030D2E1 		ldrh	r3, [r2, #0]
 4001 2d58 013083E2 		add	r3, r3, #1
 4002 2d5c B030C2E1 		strh	r3, [r2, #0]	@ movhi 
 4003 2d60 B030D2E1 		ldrh	r3, [r2, #0]
 4004 2d64 4B0F53E3 		cmp	r3, #300
 4005 2d68 0030A023 		movcs	r3, #0	@ movhi
 4006 2d6c B030C221 		strcsh	r3, [r2, #0]	@ movhi 
 4007 2d70 1C261FE5 		ldr	r2, .L442+164
 4008 2d74 B030D2E1 		ldrh	r3, [r2, #0]
 4009 2d78 013083E2 		add	r3, r3, #1
 4010 2d7c B030C2E1 		strh	r3, [r2, #0]	@ movhi 
 4011 2d80 30361FE5 		ldr	r3, .L442+160
 4012 2d84 B020D2E1 		ldrh	r2, [r2, #0]
 4013 2d88 030052E1 		cmp	r2, r3
 4014 2d8c 38361F85 		ldrhi	r3, .L442+164
 4015 2d90 0020A083 		movhi	r2, #0	@ movhi
 4016 2d94 B020C381 		strhih	r2, [r3, #0]	@ movhi 
 4017 2d98 40261FE5 		ldr	r2, .L442+168
 4018 2d9c B030D2E1 		ldrh	r3, [r2, #0]
 4019 2da0 013083E2 		add	r3, r3, #1
 4020 2da4 B030C2E1 		strh	r3, [r2, #0]	@ movhi 
 4021 2da8 B030D2E1 		ldrh	r3, [r2, #0]
 4022 2dac 4E0F53E3 		cmp	r3, #312
 4023 2db0 0030A023 		movcs	r3, #0	@ movhi
 4024 2db4 B030C221 		strcsh	r3, [r2, #0]	@ movhi 
 4025 2db8 5C261FE5 		ldr	r2, .L442+172
 4026 2dbc B030D2E1 		ldrh	r3, [r2, #0]
 4027 2dc0 013083E2 		add	r3, r3, #1
 4028 2dc4 B030C2E1 		strh	r3, [r2, #0]	@ movhi 
 4029 2dc8 B030D2E1 		ldrh	r3, [r2, #0]
 4030 2dcc 6C161FE5 		ldr	r1, .L442+176
 4031 2dd0 870F53E3 		cmp	r3, #540
 4032 2dd4 0030A023 		movcs	r3, #0	@ movhi
 4033 2dd8 B030C221 		strcsh	r3, [r2, #0]	@ movhi 
 4034 2ddc B030D1E1 		ldrh	r3, [r1, #0]
 4035 2de0 013083E2 		add	r3, r3, #1
 4036 2de4 B030C1E1 		strh	r3, [r1, #0]	@ movhi 
 4037 2de8 84361FE5 		ldr	r3, .L442+180
 4038 2dec B020D1E1 		ldrh	r2, [r1, #0]
 4039 2df0 030052E1 		cmp	r2, r3
 4040 2df4 0030D0E5 		ldrb	r3, [r0, #0]	@ zero_extendqisi2
 4041 2df8 0020A083 		movhi	r2, #0	@ movhi
 4042 2dfc B020C181 		strhih	r2, [r1, #0]	@ movhi 
 4043 2e00 000053E3 		cmp	r3, #0
 4044 2e04 FEFFFF0B 		bleq	gps_send
 4045              	.L217:
 4046 2e08 0030D4E5 		ldrb	r3, [r4, #0]	@ zero_extendqisi2
 4047 2e0c 060053E3 		cmp	r3, #6
 4048 2e10 150C001A 		bne	.L218
 4049 2e14 AC361FE5 		ldr	r3, .L442+184
 4050 2e18 0060A0E3 		mov	r6, #0
 4051 2e1c 000093E5 		ldr	r0, [r3, #0]	@ float
 4052 2e20 B4634BE1 		strh	r6, [fp, #-52]	@ movhi 
 4053 2e24 FEFFFFEB 		bl	__fixsfsi
 4054 2e28 B6034BE1 		strh	r0, [fp, #-54]	@ movhi 
 4055 2e2c 1900A0E3 		mov	r0, #25
 4056 2e30 FEFFFFEB 		bl	uart1_check_free_space
 4057 2e34 FF0010E3 		tst	r0, #255
 4058 2e38 D4251F05 		ldreq	r2, .L442+436
 4059 2e3c 0030D205 		ldreqb	r3, [r2, #0]	@ zero_extendqisi2
 4060 2e40 01308302 		addeq	r3, r3, #1
 4061 2e44 0030C205 		streqb	r3, [r2, #0]
 4062 2e48 150C000A 		beq	.L218
 4063 2e4c E4151FE5 		ldr	r1, .L442+440
 4064 2e50 E4C51FE5 		ldr	ip, .L442+444
 4065 2e54 B030D1E1 		ldrh	r3, [r1, #0]
 4066 2e58 B020DCE1 		ldrh	r2, [ip, #0]
 4067 2e5c 193083E2 		add	r3, r3, #25
 4068 2e60 012082E2 		add	r2, r2, #1
 4069 2e64 B030C1E1 		strh	r3, [r1, #0]	@ movhi 
 4070 2e68 B020CCE1 		strh	r2, [ip, #0]	@ movhi 
 4071 2e6c 7E00A0E3 		mov	r0, #126
 4072 2e70 00461FE5 		ldr	r4, .L442+448
 4073 2e74 FEFFFFEB 		bl	uart1_transmit
 4074 2e78 0600A0E1 		mov	r0, r6
 4075 2e7c 0150A0E3 		mov	r5, #1
 4076 2e80 FEFFFFEB 		bl	uart1_transmit
 4077 2e84 1500A0E3 		mov	r0, #21
 4078 2e88 FEFFFFEB 		bl	uart1_transmit
 4079 2e8c 0500A0E1 		mov	r0, r5
 4080 2e90 0050C4E5 		strb	r5, [r4, #0]
 4081 2e94 FEFFFFEB 		bl	uart1_transmit
 4082 2e98 0600A0E1 		mov	r0, r6
 4083 2e9c FEFFFFEB 		bl	uart1_transmit
 4084 2ea0 0030D4E5 		ldrb	r3, [r4, #0]	@ zero_extendqisi2
 4085 2ea4 053083E0 		add	r3, r3, r5
 4086 2ea8 0030C4E5 		strb	r3, [r4, #0]
 4087 2eac 0500A0E1 		mov	r0, r5
 4088 2eb0 FEFFFFEB 		bl	uart1_transmit
 4089 2eb4 0600A0E1 		mov	r0, r6
 4090 2eb8 FEFFFFEB 		bl	uart1_transmit
 4091 2ebc 0600A0E1 		mov	r0, r6
 4092 2ec0 FEFFFFEB 		bl	uart1_transmit
 4093 2ec4 0030D4E5 		ldrb	r3, [r4, #0]	@ zero_extendqisi2
 4094 2ec8 0B3083E2 		add	r3, r3, #11
 4095 2ecc 0B00A0E3 		mov	r0, #11
 4096 2ed0 0030C4E5 		strb	r3, [r4, #0]
 4097 2ed4 FEFFFFEB 		bl	uart1_transmit
 4098 2ed8 0030D4E5 		ldrb	r3, [r4, #0]	@ zero_extendqisi2
 4099 2edc 70571FE5 		ldr	r5, .L442+188
 4100 2ee0 0C3083E2 		add	r3, r3, #12
 4101 2ee4 0C00A0E3 		mov	r0, #12
 4102 2ee8 0030C4E5 		strb	r3, [r4, #0]
 4103 2eec FEFFFFEB 		bl	uart1_transmit
 4104 2ef0 0030D5E5 		ldrb	r3, [r5, #0]	@ zero_extendqisi2
 4105 2ef4 0020D4E5 		ldrb	r2, [r4, #0]	@ zero_extendqisi2
 4106 2ef8 0300A0E1 		mov	r0, r3
 4107 2efc 023083E0 		add	r3, r3, r2
 4108 2f00 0030C4E5 		strb	r3, [r4, #0]
 4109 2f04 FEFFFFEB 		bl	uart1_transmit
 4110 2f08 0130D5E5 		ldrb	r3, [r5, #1]	@ zero_extendqisi2
 4111 2f0c 0020D4E5 		ldrb	r2, [r4, #0]	@ zero_extendqisi2
 4112 2f10 0300A0E1 		mov	r0, r3
 4113 2f14 023083E0 		add	r3, r3, r2
 4114 2f18 0030C4E5 		strb	r3, [r4, #0]
 4115 2f1c FEFFFFEB 		bl	uart1_transmit
 4116 2f20 B0371FE5 		ldr	r3, .L442+192
 4117 2f24 0020D4E5 		ldrb	r2, [r4, #0]	@ zero_extendqisi2
 4118 2f28 0030D3E5 		ldrb	r3, [r3, #0]	@ zero_extendqisi2
 4119 2f2c 0300A0E1 		mov	r0, r3
 4120 2f30 023083E0 		add	r3, r3, r2
 4121 2f34 0030C4E5 		strb	r3, [r4, #0]
 4122 2f38 FEFFFFEB 		bl	uart1_transmit
 4123 2f3c 0020D4E5 		ldrb	r2, [r4, #0]	@ zero_extendqisi2
 4124 2f40 34305BE5 		ldrb	r3, [fp, #-52]	@ zero_extendqisi2
 4125 2f44 0300A0E1 		mov	r0, r3
 4126 2f48 023083E0 		add	r3, r3, r2
 4127 2f4c 0030C4E5 		strb	r3, [r4, #0]
 4128 2f50 FEFFFFEB 		bl	uart1_transmit
 4129 2f54 33005BE5 		ldrb	r0, [fp, #-51]	@ zero_extendqisi2
 4130 2f58 0030D4E5 		ldrb	r3, [r4, #0]	@ zero_extendqisi2
 4131 2f5c A4571FE5 		ldr	r5, .L442+264
 4132 2f60 033080E0 		add	r3, r0, r3
 4133 2f64 0030C4E5 		strb	r3, [r4, #0]
 4134 2f68 FEFFFFEB 		bl	uart1_transmit
 4135 2f6c 0030D5E5 		ldrb	r3, [r5, #0]	@ zero_extendqisi2
 4136 2f70 0020D4E5 		ldrb	r2, [r4, #0]	@ zero_extendqisi2
 4137 2f74 0300A0E1 		mov	r0, r3
 4138 2f78 023083E0 		add	r3, r3, r2
 4139 2f7c 0030C4E5 		strb	r3, [r4, #0]
 4140 2f80 FEFFFFEB 		bl	uart1_transmit
 4141 2f84 0130D5E5 		ldrb	r3, [r5, #1]	@ zero_extendqisi2
 4142 2f88 0020D4E5 		ldrb	r2, [r4, #0]	@ zero_extendqisi2
 4143 2f8c 0300A0E1 		mov	r0, r3
 4144 2f90 023083E0 		add	r3, r3, r2
 4145 2f94 0030C4E5 		strb	r3, [r4, #0]
 4146 2f98 FEFFFFEB 		bl	uart1_transmit
 4147 2f9c D4371FE5 		ldr	r3, .L442+280
 4148 2fa0 0000D3E5 		ldrb	r0, [r3, #0]	@ zero_extendqisi2
 4149 2fa4 0030D4E5 		ldrb	r3, [r4, #0]	@ zero_extendqisi2
 4150 2fa8 34581FE5 		ldr	r5, .L442+196
 4151 2fac 033080E0 		add	r3, r0, r3
 4152 2fb0 0030C4E5 		strb	r3, [r4, #0]
 4153 2fb4 FEFFFFEB 		bl	uart1_transmit
 4154 2fb8 0030D5E5 		ldrb	r3, [r5, #0]	@ zero_extendqisi2
 4155 2fbc 0020D4E5 		ldrb	r2, [r4, #0]	@ zero_extendqisi2
 4156 2fc0 0300A0E1 		mov	r0, r3
 4157 2fc4 023083E0 		add	r3, r3, r2
 4158 2fc8 0030C4E5 		strb	r3, [r4, #0]
 4159 2fcc FEFFFFEB 		bl	uart1_transmit
 4160 2fd0 0100D5E5 		ldrb	r0, [r5, #1]	@ zero_extendqisi2
 4161 2fd4 0030D4E5 		ldrb	r3, [r4, #0]	@ zero_extendqisi2
 4162 2fd8 18581FE5 		ldr	r5, .L442+272
 4163 2fdc 033080E0 		add	r3, r0, r3
 4164 2fe0 0030C4E5 		strb	r3, [r4, #0]
 4165 2fe4 FEFFFFEB 		bl	uart1_transmit
 4166 2fe8 0030D5E5 		ldrb	r3, [r5, #0]	@ zero_extendqisi2
 4167 2fec 0020D4E5 		ldrb	r2, [r4, #0]	@ zero_extendqisi2
 4168 2ff0 0300A0E1 		mov	r0, r3
 4169 2ff4 023083E0 		add	r3, r3, r2
 4170 2ff8 0030C4E5 		strb	r3, [r4, #0]
 4171 2ffc FEFFFFEB 		bl	uart1_transmit
 4172 3000 0130D5E5 		ldrb	r3, [r5, #1]	@ zero_extendqisi2
 4173 3004 0020D4E5 		ldrb	r2, [r4, #0]	@ zero_extendqisi2
 4174 3008 0300A0E1 		mov	r0, r3
 4175 300c 023083E0 		add	r3, r3, r2
 4176 3010 0030C4E5 		strb	r3, [r4, #0]
 4177 3014 FEFFFFEB 		bl	uart1_transmit
 4178 3018 36305BE5 		ldrb	r3, [fp, #-54]	@ zero_extendqisi2
 4179 301c 0020D4E5 		ldrb	r2, [r4, #0]	@ zero_extendqisi2
 4180 3020 0300A0E1 		mov	r0, r3
 4181 3024 023083E0 		add	r3, r3, r2
 4182 3028 0030C4E5 		strb	r3, [r4, #0]
 4183 302c FEFFFFEB 		bl	uart1_transmit
 4184 3030 35305BE5 		ldrb	r3, [fp, #-53]	@ zero_extendqisi2
 4185 3034 0020D4E5 		ldrb	r2, [r4, #0]	@ zero_extendqisi2
 4186 3038 0300A0E1 		mov	r0, r3
 4187 303c 023083E0 		add	r3, r3, r2
 4188 3040 0030C4E5 		strb	r3, [r4, #0]
 4189 3044 FEFFFFEB 		bl	uart1_transmit
 4190 3048 0030D4E5 		ldrb	r3, [r4, #0]	@ zero_extendqisi2
 4191 304c 0330E0E1 		mvn	r3, r3
 4192 3050 0030C4E5 		strb	r3, [r4, #0]
 4193 3054 0000D4E5 		ldrb	r0, [r4, #0]	@ zero_extendqisi2
 4194 3058 FEFFFFEB 		bl	uart1_transmit
 4195              	.L218:
 4196 305c 0030D7E5 		ldrb	r3, [r7, #0]	@ zero_extendqisi2
 4197 3060 0C0053E3 		cmp	r3, #12
 4198 3064 7F0C001A 		bne	.L221
 4199 3068 1300A0E3 		mov	r0, #19
 4200 306c FEFFFFEB 		bl	uart1_check_free_space
 4201 3070 FF0010E3 		tst	r0, #255
 4202 3074 10281F05 		ldreq	r2, .L442+436
 4203 3078 0030D205 		ldreqb	r3, [r2, #0]	@ zero_extendqisi2
 4204 307c 01308302 		addeq	r3, r3, #1
 4205 3080 0030C205 		streqb	r3, [r2, #0]
 4206 3084 7F0C000A 		beq	.L221
 4207 3088 20181FE5 		ldr	r1, .L442+440
 4208 308c 20C81FE5 		ldr	ip, .L442+444
 4209 3090 B030D1E1 		ldrh	r3, [r1, #0]
 4210 3094 B020DCE1 		ldrh	r2, [ip, #0]
 4211 3098 133083E2 		add	r3, r3, #19
 4212 309c 012082E2 		add	r2, r2, #1
 4213 30a0 B030C1E1 		strh	r3, [r1, #0]	@ movhi 
 4214 30a4 B020CCE1 		strh	r2, [ip, #0]	@ movhi 
 4215 30a8 0060A0E3 		mov	r6, #0
 4216 30ac 7E00A0E3 		mov	r0, #126
 4217 30b0 40481FE5 		ldr	r4, .L442+448
 4218 30b4 FEFFFFEB 		bl	uart1_transmit
 4219 30b8 0600A0E1 		mov	r0, r6
 4220 30bc 0150A0E3 		mov	r5, #1
 4221 30c0 FEFFFFEB 		bl	uart1_transmit
 4222 30c4 0F00A0E3 		mov	r0, #15
 4223 30c8 FEFFFFEB 		bl	uart1_transmit
 4224 30cc 0500A0E1 		mov	r0, r5
 4225 30d0 0050C4E5 		strb	r5, [r4, #0]
 4226 30d4 FEFFFFEB 		bl	uart1_transmit
 4227 30d8 0600A0E1 		mov	r0, r6
 4228 30dc FEFFFFEB 		bl	uart1_transmit
 4229 30e0 0030D4E5 		ldrb	r3, [r4, #0]	@ zero_extendqisi2
 4230 30e4 053083E0 		add	r3, r3, r5
 4231 30e8 0030C4E5 		strb	r3, [r4, #0]
 4232 30ec 0500A0E1 		mov	r0, r5
 4233 30f0 FEFFFFEB 		bl	uart1_transmit
 4234 30f4 0600A0E1 		mov	r0, r6
 4235 30f8 FEFFFFEB 		bl	uart1_transmit
 4236 30fc 0600A0E1 		mov	r0, r6
 4237 3100 FEFFFFEB 		bl	uart1_transmit
 4238 3104 0030D4E5 		ldrb	r3, [r4, #0]	@ zero_extendqisi2
 4239 3108 0B3083E2 		add	r3, r3, #11
 4240 310c 0B00A0E3 		mov	r0, #11
 4241 3110 0030C4E5 		strb	r3, [r4, #0]
 4242 3114 FEFFFFEB 		bl	uart1_transmit
 4243 3118 0030D4E5 		ldrb	r3, [r4, #0]	@ zero_extendqisi2
 4244 311c A4591FE5 		ldr	r5, .L442+200
 4245 3120 2A3083E2 		add	r3, r3, #42
 4246 3124 2A00A0E3 		mov	r0, #42
 4247 3128 0030C4E5 		strb	r3, [r4, #0]
 4248 312c FEFFFFEB 		bl	uart1_transmit
 4249 3130 0030D5E5 		ldrb	r3, [r5, #0]	@ zero_extendqisi2
 4250 3134 0020D4E5 		ldrb	r2, [r4, #0]	@ zero_extendqisi2
 4251 3138 0300A0E1 		mov	r0, r3
 4252 313c 023083E0 		add	r3, r3, r2
 4253 3140 0030C4E5 		strb	r3, [r4, #0]
 4254 3144 FEFFFFEB 		bl	uart1_transmit
 4255 3148 0130D5E5 		ldrb	r3, [r5, #1]	@ zero_extendqisi2
 4256 314c 0020D4E5 		ldrb	r2, [r4, #0]	@ zero_extendqisi2
 4257 3150 0300A0E1 		mov	r0, r3
 4258 3154 023083E0 		add	r3, r3, r2
 4259 3158 0030C4E5 		strb	r3, [r4, #0]
 4260 315c FEFFFFEB 		bl	uart1_transmit
 4261 3160 0230D5E5 		ldrb	r3, [r5, #2]	@ zero_extendqisi2
 4262 3164 0020D4E5 		ldrb	r2, [r4, #0]	@ zero_extendqisi2
 4263 3168 0300A0E1 		mov	r0, r3
 4264 316c 023083E0 		add	r3, r3, r2
 4265 3170 0030C4E5 		strb	r3, [r4, #0]
 4266 3174 FEFFFFEB 		bl	uart1_transmit
 4267 3178 0300D5E5 		ldrb	r0, [r5, #3]	@ zero_extendqisi2
 4268 317c 0030D4E5 		ldrb	r3, [r4, #0]	@ zero_extendqisi2
 4269 3180 045A1FE5 		ldr	r5, .L442+204
 4270 3184 033080E0 		add	r3, r0, r3
 4271 3188 0030C4E5 		strb	r3, [r4, #0]
 4272 318c FEFFFFEB 		bl	uart1_transmit
 4273 3190 0030D5E5 		ldrb	r3, [r5, #0]	@ zero_extendqisi2
 4274 3194 0020D4E5 		ldrb	r2, [r4, #0]	@ zero_extendqisi2
 4275 3198 0300A0E1 		mov	r0, r3
 4276 319c 023083E0 		add	r3, r3, r2
 4277 31a0 0030C4E5 		strb	r3, [r4, #0]
 4278 31a4 FEFFFFEB 		bl	uart1_transmit
 4279 31a8 0130D5E5 		ldrb	r3, [r5, #1]	@ zero_extendqisi2
 4280 31ac 0020D4E5 		ldrb	r2, [r4, #0]	@ zero_extendqisi2
 4281 31b0 0300A0E1 		mov	r0, r3
 4282 31b4 023083E0 		add	r3, r3, r2
 4283 31b8 0030C4E5 		strb	r3, [r4, #0]
 4284 31bc FEFFFFEB 		bl	uart1_transmit
 4285 31c0 0230D5E5 		ldrb	r3, [r5, #2]	@ zero_extendqisi2
 4286 31c4 0020D4E5 		ldrb	r2, [r4, #0]	@ zero_extendqisi2
 4287 31c8 0300A0E1 		mov	r0, r3
 4288 31cc 023083E0 		add	r3, r3, r2
 4289 31d0 0030C4E5 		strb	r3, [r4, #0]
 4290 31d4 FEFFFFEB 		bl	uart1_transmit
 4291 31d8 0330D5E5 		ldrb	r3, [r5, #3]	@ zero_extendqisi2
 4292 31dc 0020D4E5 		ldrb	r2, [r4, #0]	@ zero_extendqisi2
 4293 31e0 0300A0E1 		mov	r0, r3
 4294 31e4 023083E0 		add	r3, r3, r2
 4295 31e8 0030C4E5 		strb	r3, [r4, #0]
 4296 31ec FEFFFFEB 		bl	uart1_transmit
 4297 31f0 0030D4E5 		ldrb	r3, [r4, #0]	@ zero_extendqisi2
 4298 31f4 0330E0E1 		mvn	r3, r3
 4299 31f8 0030C4E5 		strb	r3, [r4, #0]
 4300 31fc 0000D4E5 		ldrb	r0, [r4, #0]	@ zero_extendqisi2
 4301 3200 FEFFFFEB 		bl	uart1_transmit
 4302              	.L221:
 4303 3204 0030D8E5 		ldrb	r3, [r8, #0]	@ zero_extendqisi2
 4304 3208 120053E3 		cmp	r3, #18
 4305 320c 340D001A 		bne	.L224
 4306 3210 907A1FE5 		ldr	r7, .L442+208
 4307 3214 0030D7E5 		ldrb	r3, [r7, #0]	@ zero_extendqisi2
 4308 3218 013083E2 		add	r3, r3, #1
 4309 321c 0030C7E5 		strb	r3, [r7, #0]
 4310 3220 9C3A1FE5 		ldr	r3, .L442+212
 4311 3224 0020D3E5 		ldrb	r2, [r3, #0]	@ zero_extendqisi2
 4312 3228 0030D7E5 		ldrb	r3, [r7, #0]	@ zero_extendqisi2
 4313 322c 020053E1 		cmp	r3, r2
 4314 3230 0030A023 		movcs	r3, #0
 4315 3234 0030C725 		strcsb	r3, [r7, #0]
 4316 3238 B03A1FE5 		ldr	r3, .L442+216
 4317 323c 000093E5 		ldr	r0, [r3, #0]
 4318 3240 FEFFFFEB 		bl	__floatsisf
 4319 3244 0040D7E5 		ldrb	r4, [r7, #0]	@ zero_extendqisi2
 4320 3248 BC8A1FE5 		ldr	r8, .L442+220
 4321 324c 844084E0 		add	r4, r4, r4, asl #1
 4322 3250 0441A0E1 		mov	r4, r4, asl #2
 4323 3254 081094E7 		ldr	r1, [r4, r8]	@ float
 4324 3258 FEFFFFEB 		bl	__addsf3
 4325 325c CC3A1FE5 		ldr	r3, .L442+224
 4326 3260 60000BE5 		str	r0, [fp, #-96]	@ float
 4327 3264 084084E0 		add	r4, r4, r8
 4328 3268 000093E5 		ldr	r0, [r3, #0]
 4329 326c FEFFFFEB 		bl	__floatsisf
 4330 3270 041094E5 		ldr	r1, [r4, #4]	@ float
 4331 3274 FEFFFFEB 		bl	__addsf3
 4332 3278 64000BE5 		str	r0, [fp, #-100]	@ float
 4333 327c 1900A0E3 		mov	r0, #25
 4334 3280 FEFFFFEB 		bl	uart1_check_free_space
 4335 3284 FF0010E3 		tst	r0, #255
 4336 3288 242A1F05 		ldreq	r2, .L442+436
 4337 328c 0030D205 		ldreqb	r3, [r2, #0]	@ zero_extendqisi2
 4338 3290 01308302 		addeq	r3, r3, #1
 4339 3294 0030C205 		streqb	r3, [r2, #0]
 4340 3298 340D000A 		beq	.L224
 4341 329c 341A1FE5 		ldr	r1, .L442+440
 4342 32a0 34CA1FE5 		ldr	ip, .L442+444
 4343 32a4 B030D1E1 		ldrh	r3, [r1, #0]
 4344 32a8 B020DCE1 		ldrh	r2, [ip, #0]
 4345 32ac 193083E2 		add	r3, r3, #25
 4346 32b0 012082E2 		add	r2, r2, #1
 4347 32b4 B030C1E1 		strh	r3, [r1, #0]	@ movhi 
 4348 32b8 B020CCE1 		strh	r2, [ip, #0]	@ movhi 
 4349 32bc 0060A0E3 		mov	r6, #0
 4350 32c0 7E00A0E3 		mov	r0, #126
 4351 32c4 544A1FE5 		ldr	r4, .L442+448
 4352 32c8 FEFFFFEB 		bl	uart1_transmit
 4353 32cc 0600A0E1 		mov	r0, r6
 4354 32d0 FEFFFFEB 		bl	uart1_transmit
 4355 32d4 0150A0E3 		mov	r5, #1
 4356 32d8 1500A0E3 		mov	r0, #21
 4357 32dc FEFFFFEB 		bl	uart1_transmit
 4358 32e0 0500A0E1 		mov	r0, r5
 4359 32e4 0050C4E5 		strb	r5, [r4, #0]
 4360 32e8 FEFFFFEB 		bl	uart1_transmit
 4361 32ec 0600A0E1 		mov	r0, r6
 4362 32f0 FEFFFFEB 		bl	uart1_transmit
 4363 32f4 0030D4E5 		ldrb	r3, [r4, #0]	@ zero_extendqisi2
 4364 32f8 053083E0 		add	r3, r3, r5
 4365 32fc 0030C4E5 		strb	r3, [r4, #0]
 4366 3300 0500A0E1 		mov	r0, r5
 4367 3304 FEFFFFEB 		bl	uart1_transmit
 4368 3308 0600A0E1 		mov	r0, r6
 4369 330c FEFFFFEB 		bl	uart1_transmit
 4370 3310 0600A0E1 		mov	r0, r6
 4371 3314 FEFFFFEB 		bl	uart1_transmit
 4372 3318 0030D4E5 		ldrb	r3, [r4, #0]	@ zero_extendqisi2
 4373 331c 0B3083E2 		add	r3, r3, #11
 4374 3320 0B00A0E3 		mov	r0, #11
 4375 3324 0030C4E5 		strb	r3, [r4, #0]
 4376 3328 FEFFFFEB 		bl	uart1_transmit
 4377 332c 0030D4E5 		ldrb	r3, [r4, #0]	@ zero_extendqisi2
 4378 3330 233083E2 		add	r3, r3, #35
 4379 3334 2300A0E3 		mov	r0, #35
 4380 3338 0030C4E5 		strb	r3, [r4, #0]
 4381 333c FEFFFFEB 		bl	uart1_transmit
 4382 3340 0030D7E5 		ldrb	r3, [r7, #0]	@ zero_extendqisi2
 4383 3344 0020D4E5 		ldrb	r2, [r4, #0]	@ zero_extendqisi2
 4384 3348 0300A0E1 		mov	r0, r3
 4385 334c 023083E0 		add	r3, r3, r2
 4386 3350 0030C4E5 		strb	r3, [r4, #0]
 4387 3354 FEFFFFEB 		bl	uart1_transmit
 4388 3358 60305BE5 		ldrb	r3, [fp, #-96]	@ zero_extendqisi2
 4389 335c 0020D4E5 		ldrb	r2, [r4, #0]	@ zero_extendqisi2
 4390 3360 0300A0E1 		mov	r0, r3
 4391 3364 023083E0 		add	r3, r3, r2
 4392 3368 0030C4E5 		strb	r3, [r4, #0]
 4393 336c FEFFFFEB 		bl	uart1_transmit
 4394 3370 5F305BE5 		ldrb	r3, [fp, #-95]	@ zero_extendqisi2
 4395 3374 0020D4E5 		ldrb	r2, [r4, #0]	@ zero_extendqisi2
 4396 3378 0300A0E1 		mov	r0, r3
 4397 337c 023083E0 		add	r3, r3, r2
 4398 3380 0030C4E5 		strb	r3, [r4, #0]
 4399 3384 FEFFFFEB 		bl	uart1_transmit
 4400 3388 5E305BE5 		ldrb	r3, [fp, #-94]	@ zero_extendqisi2
 4401 338c 0020D4E5 		ldrb	r2, [r4, #0]	@ zero_extendqisi2
 4402 3390 0300A0E1 		mov	r0, r3
 4403 3394 023083E0 		add	r3, r3, r2
 4404 3398 0030C4E5 		strb	r3, [r4, #0]
 4405 339c FEFFFFEB 		bl	uart1_transmit
 4406 33a0 5D305BE5 		ldrb	r3, [fp, #-93]	@ zero_extendqisi2
 4407 33a4 0020D4E5 		ldrb	r2, [r4, #0]	@ zero_extendqisi2
 4408 33a8 0300A0E1 		mov	r0, r3
 4409 33ac 023083E0 		add	r3, r3, r2
 4410 33b0 0030C4E5 		strb	r3, [r4, #0]
 4411 33b4 FEFFFFEB 		bl	uart1_transmit
 4412 33b8 64305BE5 		ldrb	r3, [fp, #-100]	@ zero_extendqisi2
 4413 33bc 0020D4E5 		ldrb	r2, [r4, #0]	@ zero_extendqisi2
 4414 33c0 0300A0E1 		mov	r0, r3
 4415 33c4 023083E0 		add	r3, r3, r2
 4416 33c8 0030C4E5 		strb	r3, [r4, #0]
 4417 33cc FEFFFFEB 		bl	uart1_transmit
 4418 33d0 63305BE5 		ldrb	r3, [fp, #-99]	@ zero_extendqisi2
 4419 33d4 0020D4E5 		ldrb	r2, [r4, #0]	@ zero_extendqisi2
 4420 33d8 0300A0E1 		mov	r0, r3
 4421 33dc 023083E0 		add	r3, r3, r2
 4422 33e0 0030C4E5 		strb	r3, [r4, #0]
 4423 33e4 FEFFFFEB 		bl	uart1_transmit
 4424 33e8 62305BE5 		ldrb	r3, [fp, #-98]	@ zero_extendqisi2
 4425 33ec 0020D4E5 		ldrb	r2, [r4, #0]	@ zero_extendqisi2
 4426 33f0 0300A0E1 		mov	r0, r3
 4427 33f4 023083E0 		add	r3, r3, r2
 4428 33f8 0030C4E5 		strb	r3, [r4, #0]
 4429 33fc FEFFFFEB 		bl	uart1_transmit
 4430 3400 61305BE5 		ldrb	r3, [fp, #-97]	@ zero_extendqisi2
 4431 3404 0020D4E5 		ldrb	r2, [r4, #0]	@ zero_extendqisi2
 4432 3408 0300A0E1 		mov	r0, r3
 4433 340c 023083E0 		add	r3, r3, r2
 4434 3410 0030C4E5 		strb	r3, [r4, #0]
 4435 3414 FEFFFFEB 		bl	uart1_transmit
 4436 3418 0030D7E5 		ldrb	r3, [r7, #0]	@ zero_extendqisi2
 4437 341c 082088E2 		add	r2, r8, #8
 4438 3420 833083E0 		add	r3, r3, r3, asl #1
 4439 3424 0331D2E7 		ldrb	r3, [r2, r3, asl #2]	@ zero_extendqisi2
 4440 3428 0020D4E5 		ldrb	r2, [r4, #0]	@ zero_extendqisi2
 4441 342c 0300A0E1 		mov	r0, r3
 4442 3430 023083E0 		add	r3, r3, r2
 4443 3434 0030C4E5 		strb	r3, [r4, #0]
 4444 3438 FEFFFFEB 		bl	uart1_transmit
 4445 343c 0030D7E5 		ldrb	r3, [r7, #0]	@ zero_extendqisi2
 4446 3440 092088E2 		add	r2, r8, #9
 4447 3444 833083E0 		add	r3, r3, r3, asl #1
 4448 3448 0331D2E7 		ldrb	r3, [r2, r3, asl #2]	@ zero_extendqisi2
 4449 344c 0020D4E5 		ldrb	r2, [r4, #0]	@ zero_extendqisi2
 4450 3450 0300A0E1 		mov	r0, r3
 4451 3454 023083E0 		add	r3, r3, r2
 4452 3458 0030C4E5 		strb	r3, [r4, #0]
 4453 345c FEFFFFEB 		bl	uart1_transmit
 4454 3460 0030D7E5 		ldrb	r3, [r7, #0]	@ zero_extendqisi2
 4455 3464 0A2088E2 		add	r2, r8, #10
 4456 3468 833083E0 		add	r3, r3, r3, asl #1
 4457 346c 0331D2E7 		ldrb	r3, [r2, r3, asl #2]	@ zero_extendqisi2
 4458 3470 0020D4E5 		ldrb	r2, [r4, #0]	@ zero_extendqisi2
 4459 3474 0300A0E1 		mov	r0, r3
 4460 3478 023083E0 		add	r3, r3, r2
 4461 347c 0030C4E5 		strb	r3, [r4, #0]
 4462 3480 FEFFFFEB 		bl	uart1_transmit
 4463 3484 0030D7E5 		ldrb	r3, [r7, #0]	@ zero_extendqisi2
 4464 3488 0B2088E2 		add	r2, r8, #11
 4465 348c 833083E0 		add	r3, r3, r3, asl #1
 4466 3490 0331D2E7 		ldrb	r3, [r2, r3, asl #2]	@ zero_extendqisi2
 4467 3494 0020D4E5 		ldrb	r2, [r4, #0]	@ zero_extendqisi2
 4468 3498 0300A0E1 		mov	r0, r3
 4469 349c 023083E0 		add	r3, r3, r2
 4470 34a0 0030C4E5 		strb	r3, [r4, #0]
 4471 34a4 FEFFFFEB 		bl	uart1_transmit
 4472 34a8 143D1FE5 		ldr	r3, .L442+228
 4473 34ac 0020D4E5 		ldrb	r2, [r4, #0]	@ zero_extendqisi2
 4474 34b0 0030D3E5 		ldrb	r3, [r3, #0]	@ zero_extendqisi2
 4475 34b4 0300A0E1 		mov	r0, r3
 4476 34b8 023083E0 		add	r3, r3, r2
 4477 34bc 0030C4E5 		strb	r3, [r4, #0]
 4478 34c0 FEFFFFEB 		bl	uart1_transmit
 4479 34c4 0030D4E5 		ldrb	r3, [r4, #0]	@ zero_extendqisi2
 4480 34c8 0330E0E1 		mvn	r3, r3
 4481 34cc 0030C4E5 		strb	r3, [r4, #0]
 4482 34d0 0000D4E5 		ldrb	r0, [r4, #0]	@ zero_extendqisi2
 4483 34d4 FEFFFFEB 		bl	uart1_transmit
 4484              	.L224:
 4485 34d8 0030DAE5 		ldrb	r3, [sl, #0]	@ zero_extendqisi2
 4486 34dc 180053E3 		cmp	r3, #24
 4487 34e0 360E001A 		bne	.L228
 4488 34e4 447D1FE5 		ldr	r7, .L442+240
 4489 34e8 0030D7E5 		ldrb	r3, [r7, #0]	@ zero_extendqisi2
 4490 34ec 2E0053E3 		cmp	r3, #46
 4491 34f0 0030A083 		movhi	r3, #0
 4492 34f4 0030C785 		strhib	r3, [r7, #0]
 4493 34f8 0030D7E5 		ldrb	r3, [r7, #0]	@ zero_extendqisi2
 4494 34fc 2E0053E3 		cmp	r3, #46
 4495 3500 03F19F97 		ldrls	pc, [pc, r3, asl #2]
 4496 3504 DC0D00EA 		b	.L287
 4497              		.p2align 2
 4498              	.L288:
 4499 3508 C4350000 		.word	.L231
 4500 350c CC350000 		.word	.L232
 4501 3510 D8350000 		.word	.L233
 4502 3514 E0350000 		.word	.L234
 4503 3518 E8350000 		.word	.L236
 4504 351c F0350000 		.word	.L238
 4505 3520 14360000 		.word	.L240
 4506 3524 1C360000 		.word	.L242
 4507 3528 24360000 		.word	.L244
 4508 352c 2C360000 		.word	.L246
 4509 3530 34360000 		.word	.L248
 4510 3534 54360000 		.word	.L250
 4511 3538 24370000 		.word	.L278
 4512 353c 5C360000 		.word	.L253
 4513 3540 64360000 		.word	.L254
 4514 3544 6C360000 		.word	.L255
 4515 3548 74360000 		.word	.L256
 4516 354c 7C360000 		.word	.L257
 4517 3550 84360000 		.word	.L258
 4518 3554 8C360000 		.word	.L259
 4519 3558 94360000 		.word	.L260
 4520 355c 9C360000 		.word	.L261
 4521 3560 A4360000 		.word	.L262
 4522 3564 AC360000 		.word	.L263
 4523 3568 B4360000 		.word	.L264
 4524 356c BC360000 		.word	.L265
 4525 3570 C4360000 		.word	.L266
 4526 3574 CC360000 		.word	.L267
 4527 3578 D4360000 		.word	.L268
 4528 357c DC360000 		.word	.L269
 4529 3580 E4360000 		.word	.L270
 4530 3584 EC360000 		.word	.L271
 4531 3588 F4360000 		.word	.L272
 4532 358c FC360000 		.word	.L273
 4533 3590 04370000 		.word	.L274
 4534 3594 0C370000 		.word	.L275
 4535 3598 14370000 		.word	.L276
 4536 359c 1C370000 		.word	.L277
 4537 35a0 24370000 		.word	.L278
 4538 35a4 2C370000 		.word	.L279
 4539 35a8 34370000 		.word	.L280
 4540 35ac 48370000 		.word	.L281
 4541 35b0 50370000 		.word	.L282
 4542 35b4 58370000 		.word	.L283
 4543 35b8 60370000 		.word	.L284
 4544 35bc 68370000 		.word	.L285
 4545 35c0 70370000 		.word	.L286
 4546              	.L231:
 4547 35c4 203E1FE5 		ldr	r3, .L442+244
 4548 35c8 720D00EA 		b	.L428
 4549              	.L232:
 4550 35cc 243E1FE5 		ldr	r3, .L442+248
 4551              	.L428:
 4552 35d0 003093E5 		ldr	r3, [r3, #0]	@ float
 4553 35d4 DD0D00EA 		b	.L417
 4554              	.L233:
 4555 35d8 2C3E1FE5 		ldr	r3, .L442+252
 4556 35dc 720D00EA 		b	.L428
 4557              	.L234:
 4558 35e0 303E1FE5 		ldr	r3, .L442+256
 4559 35e4 8C0D00EA 		b	.L437
 4560              	.L236:
 4561 35e8 343E1FE5 		ldr	r3, .L442+260
 4562 35ec 8C0D00EA 		b	.L437
 4563              	.L238:
 4564 35f0 383E1FE5 		ldr	r3, .L442+264
 4565              	.L439:
 4566 35f4 F040D3E1 		ldrsh	r4, [r3, #0]
 4567 35f8 0400A0E1 		mov	r0, r4
 4568 35fc FEFFFFEB 		bl	__floatsisf
 4569 3600 000054E3 		cmp	r4, #0
 4570 3604 CE0D00AA 		bge	.L418
 4571 3608 4C1E1FE5 		ldr	r1, .L442+268
 4572              	.L427:
 4573 360c FEFFFFEB 		bl	__addsf3
 4574 3610 CE0D00EA 		b	.L418
 4575              	.L240:
 4576 3614 543E1FE5 		ldr	r3, .L442+272
 4577 3618 7B0D00EA 		b	.L439
 4578              	.L242:
 4579 361c 583E1FE5 		ldr	r3, .L442+276
 4580 3620 8C0D00EA 		b	.L437
 4581              	.L244:
 4582 3624 5C3E1FE5 		ldr	r3, .L442+280
 4583 3628 8C0D00EA 		b	.L437
 4584              	.L246:
 4585 362c 603E1FE5 		ldr	r3, .L442+284
 4586 3630 8C0D00EA 		b	.L437
 4587              	.L248:
 4588 3634 643E1FE5 		ldr	r3, .L442+288
 4589              	.L437:
 4590 3638 D040D3E1 		ldrsb	r4, [r3, #0]
 4591 363c 0400A0E1 		mov	r0, r4
 4592 3640 FEFFFFEB 		bl	__floatsisf
 4593 3644 000054E3 		cmp	r4, #0
 4594 3648 741E1FB5 		ldrlt	r1, .L442+292
 4595 364c 810D00BA 		blt	.L427
 4596 3650 CE0D00EA 		b	.L418
 4597              	.L250:
 4598 3654 7C3E1FE5 		ldr	r3, .L442+296
 4599 3658 7B0D00EA 		b	.L439
 4600              	.L253:
 4601 365c 803E1FE5 		ldr	r3, .L442+300
 4602 3660 720D00EA 		b	.L428
 4603              	.L254:
 4604 3664 843E1FE5 		ldr	r3, .L442+304
 4605 3668 720D00EA 		b	.L428
 4606              	.L255:
 4607 366c 883E1FE5 		ldr	r3, .L442+308
 4608 3670 720D00EA 		b	.L428
 4609              	.L256:
 4610 3674 8C3E1FE5 		ldr	r3, .L442+312
 4611 3678 720D00EA 		b	.L428
 4612              	.L257:
 4613 367c 903E1FE5 		ldr	r3, .L442+316
 4614 3680 720D00EA 		b	.L428
 4615              	.L258:
 4616 3684 943E1FE5 		ldr	r3, .L442+320
 4617 3688 720D00EA 		b	.L428
 4618              	.L259:
 4619 368c 983E1FE5 		ldr	r3, .L442+324
 4620 3690 720D00EA 		b	.L428
 4621              	.L260:
 4622 3694 9C3E1FE5 		ldr	r3, .L442+328
 4623 3698 720D00EA 		b	.L428
 4624              	.L261:
 4625 369c A03E1FE5 		ldr	r3, .L442+332
 4626 36a0 720D00EA 		b	.L428
 4627              	.L262:
 4628 36a4 A43E1FE5 		ldr	r3, .L442+336
 4629 36a8 720D00EA 		b	.L428
 4630              	.L263:
 4631 36ac A83E1FE5 		ldr	r3, .L442+340
 4632 36b0 720D00EA 		b	.L428
 4633              	.L264:
 4634 36b4 AC3E1FE5 		ldr	r3, .L442+344
 4635 36b8 720D00EA 		b	.L428
 4636              	.L265:
 4637 36bc B03E1FE5 		ldr	r3, .L442+348
 4638 36c0 720D00EA 		b	.L428
 4639              	.L266:
 4640 36c4 B43E1FE5 		ldr	r3, .L442+352
 4641 36c8 720D00EA 		b	.L428
 4642              	.L267:
 4643 36cc B83E1FE5 		ldr	r3, .L442+356
 4644 36d0 720D00EA 		b	.L428
 4645              	.L268:
 4646 36d4 BC3E1FE5 		ldr	r3, .L442+360
 4647 36d8 720D00EA 		b	.L428
 4648              	.L269:
 4649 36dc C03E1FE5 		ldr	r3, .L442+364
 4650 36e0 720D00EA 		b	.L428
 4651              	.L270:
 4652 36e4 C43E1FE5 		ldr	r3, .L442+368
 4653 36e8 720D00EA 		b	.L428
 4654              	.L271:
 4655 36ec C83E1FE5 		ldr	r3, .L442+372
 4656 36f0 720D00EA 		b	.L428
 4657              	.L272:
 4658 36f4 CC3E1FE5 		ldr	r3, .L442+376
 4659 36f8 720D00EA 		b	.L428
 4660              	.L273:
 4661 36fc D03E1FE5 		ldr	r3, .L442+380
 4662 3700 720D00EA 		b	.L428
 4663              	.L274:
 4664 3704 D43E1FE5 		ldr	r3, .L442+384
 4665 3708 720D00EA 		b	.L428
 4666              	.L275:
 4667 370c D83E1FE5 		ldr	r3, .L442+388
 4668 3710 720D00EA 		b	.L428
 4669              	.L276:
 4670 3714 DC3E1FE5 		ldr	r3, .L442+392
 4671 3718 720D00EA 		b	.L428
 4672              	.L277:
 4673 371c E03E1FE5 		ldr	r3, .L442+396
 4674 3720 720D00EA 		b	.L428
 4675              	.L278:
 4676 3724 E43E1FE5 		ldr	r3, .L442+400
 4677 3728 720D00EA 		b	.L428
 4678              	.L279:
 4679 372c E83E1FE5 		ldr	r3, .L442+404
 4680 3730 720D00EA 		b	.L428
 4681              	.L280:
 4682 3734 EC3E1FE5 		ldr	r3, .L442+408
 4683 3738 000093E5 		ldr	r0, [r3, #0]
 4684 373c FEFFFFEB 		bl	__floatsisf
 4685              	.L418:
 4686 3740 68000BE5 		str	r0, [fp, #-104]	@ float
 4687 3744 DE0D00EA 		b	.L230
 4688              	.L281:
 4689 3748 FC3E1FE5 		ldr	r3, .L442+412
 4690 374c 720D00EA 		b	.L428
 4691              	.L282:
 4692 3750 003F1FE5 		ldr	r3, .L442+416
 4693 3754 720D00EA 		b	.L428
 4694              	.L283:
 4695 3758 043F1FE5 		ldr	r3, .L442+420
 4696 375c 720D00EA 		b	.L428
 4697              	.L284:
 4698 3760 083F1FE5 		ldr	r3, .L442+424
 4699 3764 720D00EA 		b	.L428
 4700              	.L285:
 4701 3768 0C3F1FE5 		ldr	r3, .L442+428
 4702 376c 720D00EA 		b	.L428
 4703              	.L286:
 4704 3770 103F1FE5 		ldr	r3, .L442+432
 4705 3774 720D00EA 		b	.L428
 4706              	.L287:
 4707 3778 0030A0E3 		mov	r3, #0
 4708              	.L417:
 4709 377c 68300BE5 		str	r3, [fp, #-104]	@ float
 4710              	.L230:
 4711 3780 1000A0E3 		mov	r0, #16
 4712 3784 FEFFFFEB 		bl	uart1_check_free_space
 4713 3788 FF0010E3 		tst	r0, #255
 4714 378c 282F1F05 		ldreq	r2, .L442+436
 4715 3790 0030D205 		ldreqb	r3, [r2, #0]	@ zero_extendqisi2
 4716 3794 01308302 		addeq	r3, r3, #1
 4717 3798 0030C205 		streqb	r3, [r2, #0]
 4718 379c 320E000A 		beq	.L290
 4719 37a0 381F1FE5 		ldr	r1, .L442+440
 4720 37a4 38CF1FE5 		ldr	ip, .L442+444
 4721 37a8 B030D1E1 		ldrh	r3, [r1, #0]
 4722 37ac B020DCE1 		ldrh	r2, [ip, #0]
 4723 37b0 103083E2 		add	r3, r3, #16
 4724 37b4 012082E2 		add	r2, r2, #1
 4725 37b8 B030C1E1 		strh	r3, [r1, #0]	@ movhi 
 4726 37bc B020CCE1 		strh	r2, [ip, #0]	@ movhi 
 4727 37c0 0060A0E3 		mov	r6, #0
 4728 37c4 7E00A0E3 		mov	r0, #126
 4729 37c8 584F1FE5 		ldr	r4, .L442+448
 4730 37cc FEFFFFEB 		bl	uart1_transmit
 4731 37d0 0600A0E1 		mov	r0, r6
 4732 37d4 FEFFFFEB 		bl	uart1_transmit
 4733 37d8 0150A0E3 		mov	r5, #1
 4734 37dc 0C00A0E3 		mov	r0, #12
 4735 37e0 FEFFFFEB 		bl	uart1_transmit
 4736 37e4 0500A0E1 		mov	r0, r5
 4737 37e8 0050C4E5 		strb	r5, [r4, #0]
 4738 37ec FEFFFFEB 		bl	uart1_transmit
 4739 37f0 0600A0E1 		mov	r0, r6
 4740 37f4 FEFFFFEB 		bl	uart1_transmit
 4741 37f8 0030D4E5 		ldrb	r3, [r4, #0]	@ zero_extendqisi2
 4742 37fc 053083E0 		add	r3, r3, r5
 4743 3800 0030C4E5 		strb	r3, [r4, #0]
 4744 3804 0500A0E1 		mov	r0, r5
 4745 3808 FEFFFFEB 		bl	uart1_transmit
 4746 380c 0600A0E1 		mov	r0, r6
 4747 3810 FEFFFFEB 		bl	uart1_transmit
 4748 3814 0600A0E1 		mov	r0, r6
 4749 3818 FEFFFFEB 		bl	uart1_transmit
 4750 381c 0030D4E5 		ldrb	r3, [r4, #0]	@ zero_extendqisi2
 4751 3820 0B3083E2 		add	r3, r3, #11
 4752 3824 0B00A0E3 		mov	r0, #11
 4753 3828 0030C4E5 		strb	r3, [r4, #0]
 4754 382c FEFFFFEB 		bl	uart1_transmit
 4755 3830 0030D4E5 		ldrb	r3, [r4, #0]	@ zero_extendqisi2
 4756 3834 1F3083E2 		add	r3, r3, #31
 4757 3838 1F00A0E3 		mov	r0, #31
 4758 383c 0030C4E5 		strb	r3, [r4, #0]
 4759 3840 FEFFFFEB 		bl	uart1_transmit
 4760 3844 0030D7E5 		ldrb	r3, [r7, #0]	@ zero_extendqisi2
 4761 3848 0020D4E5 		ldrb	r2, [r4, #0]	@ zero_extendqisi2
 4762 384c 0300A0E1 		mov	r0, r3
 4763 3850 023083E0 		add	r3, r3, r2
 4764 3854 0030C4E5 		strb	r3, [r4, #0]
 4765 3858 FEFFFFEB 		bl	uart1_transmit
 4766 385c 68305BE5 		ldrb	r3, [fp, #-104]	@ zero_extendqisi2
 4767 3860 0020D4E5 		ldrb	r2, [r4, #0]	@ zero_extendqisi2
 4768 3864 0300A0E1 		mov	r0, r3
 4769 3868 023083E0 		add	r3, r3, r2
 4770 386c 0030C4E5 		strb	r3, [r4, #0]
 4771 3870 FEFFFFEB 		bl	uart1_transmit
 4772 3874 67305BE5 		ldrb	r3, [fp, #-103]	@ zero_extendqisi2
 4773 3878 0020D4E5 		ldrb	r2, [r4, #0]	@ zero_extendqisi2
 4774 387c 0300A0E1 		mov	r0, r3
 4775 3880 023083E0 		add	r3, r3, r2
 4776 3884 0030C4E5 		strb	r3, [r4, #0]
 4777 3888 FEFFFFEB 		bl	uart1_transmit
 4778 388c 66305BE5 		ldrb	r3, [fp, #-102]	@ zero_extendqisi2
 4779 3890 0020D4E5 		ldrb	r2, [r4, #0]	@ zero_extendqisi2
 4780 3894 0300A0E1 		mov	r0, r3
 4781 3898 023083E0 		add	r3, r3, r2
 4782 389c 0030C4E5 		strb	r3, [r4, #0]
 4783 38a0 FEFFFFEB 		bl	uart1_transmit
 4784 38a4 65305BE5 		ldrb	r3, [fp, #-101]	@ zero_extendqisi2
 4785 38a8 0020D4E5 		ldrb	r2, [r4, #0]	@ zero_extendqisi2
 4786 38ac 0300A0E1 		mov	r0, r3
 4787 38b0 023083E0 		add	r3, r3, r2
 4788 38b4 0030C4E5 		strb	r3, [r4, #0]
 4789 38b8 FEFFFFEB 		bl	uart1_transmit
 4790 38bc 0030D4E5 		ldrb	r3, [r4, #0]	@ zero_extendqisi2
 4791 38c0 0330E0E1 		mvn	r3, r3
 4792 38c4 0030C4E5 		strb	r3, [r4, #0]
 4793 38c8 0000D4E5 		ldrb	r0, [r4, #0]	@ zero_extendqisi2
 4794 38cc FEFFFFEB 		bl	uart1_transmit
 4795              	.L290:
 4796 38d0 A4269FE5 		ldr	r2, .L444+8
 4797 38d4 0030D2E5 		ldrb	r3, [r2, #0]	@ zero_extendqisi2
 4798 38d8 013083E2 		add	r3, r3, #1
 4799 38dc 0030C2E5 		strb	r3, [r2, #0]
 4800              	.L228:
 4801 38e0 0030D9E5 		ldrb	r3, [r9, #0]	@ zero_extendqisi2
 4802 38e4 1E0053E3 		cmp	r3, #30
 4803 38e8 D40E001A 		bne	.L291
 4804 38ec 8C369FE5 		ldr	r3, .L444+12
 4805 38f0 0030D3E5 		ldrb	r3, [r3, #0]	@ zero_extendqisi2
 4806 38f4 000053E3 		cmp	r3, #0
 4807 38f8 D40E000A 		beq	.L291
 4808 38fc 1B00A0E3 		mov	r0, #27
 4809 3900 FEFFFFEB 		bl	uart1_check_free_space
 4810 3904 FF0010E3 		tst	r0, #255
 4811 3908 38279F05 		ldreq	r2, .L444+212
 4812 390c 0030D205 		ldreqb	r3, [r2, #0]	@ zero_extendqisi2
 4813 3910 01308302 		addeq	r3, r3, #1
 4814 3914 0030C205 		streqb	r3, [r2, #0]
 4815 3918 D40E000A 		beq	.L291
 4816 391c 3C179FE5 		ldr	r1, .L444+236
 4817 3920 24C79FE5 		ldr	ip, .L444+216
 4818 3924 B030D1E1 		ldrh	r3, [r1, #0]
 4819 3928 B020DCE1 		ldrh	r2, [ip, #0]
 4820 392c 1B3083E2 		add	r3, r3, #27
 4821 3930 012082E2 		add	r2, r2, #1
 4822 3934 B030C1E1 		strh	r3, [r1, #0]	@ movhi 
 4823 3938 B020CCE1 		strh	r2, [ip, #0]	@ movhi 
 4824 393c 0060A0E3 		mov	r6, #0
 4825 3940 7E00A0E3 		mov	r0, #126
 4826 3944 04479FE5 		ldr	r4, .L444+220
 4827 3948 FEFFFFEB 		bl	uart1_transmit
 4828 394c 0600A0E1 		mov	r0, r6
 4829 3950 0150A0E3 		mov	r5, #1
 4830 3954 FEFFFFEB 		bl	uart1_transmit
 4831 3958 1700A0E3 		mov	r0, #23
 4832 395c FEFFFFEB 		bl	uart1_transmit
 4833 3960 0500A0E1 		mov	r0, r5
 4834 3964 0050C4E5 		strb	r5, [r4, #0]
 4835 3968 FEFFFFEB 		bl	uart1_transmit
 4836 396c 0600A0E1 		mov	r0, r6
 4837 3970 FEFFFFEB 		bl	uart1_transmit
 4838 3974 0030D4E5 		ldrb	r3, [r4, #0]	@ zero_extendqisi2
 4839 3978 053083E0 		add	r3, r3, r5
 4840 397c 0030C4E5 		strb	r3, [r4, #0]
 4841 3980 0500A0E1 		mov	r0, r5
 4842 3984 FEFFFFEB 		bl	uart1_transmit
 4843 3988 0600A0E1 		mov	r0, r6
 4844 398c FEFFFFEB 		bl	uart1_transmit
 4845 3990 0600A0E1 		mov	r0, r6
 4846 3994 FEFFFFEB 		bl	uart1_transmit
 4847 3998 0030D4E5 		ldrb	r3, [r4, #0]	@ zero_extendqisi2
 4848 399c 0B3083E2 		add	r3, r3, #11
 4849 39a0 0B00A0E3 		mov	r0, #11
 4850 39a4 0030C4E5 		strb	r3, [r4, #0]
 4851 39a8 FEFFFFEB 		bl	uart1_transmit
 4852 39ac 0030D4E5 		ldrb	r3, [r4, #0]	@ zero_extendqisi2
 4853 39b0 CC559FE5 		ldr	r5, .L444+16
 4854 39b4 1B3083E2 		add	r3, r3, #27
 4855 39b8 1B00A0E3 		mov	r0, #27
 4856 39bc 0030C4E5 		strb	r3, [r4, #0]
 4857 39c0 FEFFFFEB 		bl	uart1_transmit
 4858 39c4 0030D5E5 		ldrb	r3, [r5, #0]	@ zero_extendqisi2
 4859 39c8 0020D4E5 		ldrb	r2, [r4, #0]	@ zero_extendqisi2
 4860 39cc 0300A0E1 		mov	r0, r3
 4861 39d0 023083E0 		add	r3, r3, r2
 4862 39d4 0030C4E5 		strb	r3, [r4, #0]
 4863 39d8 FEFFFFEB 		bl	uart1_transmit
 4864 39dc 0130D5E5 		ldrb	r3, [r5, #1]	@ zero_extendqisi2
 4865 39e0 0020D4E5 		ldrb	r2, [r4, #0]	@ zero_extendqisi2
 4866 39e4 0300A0E1 		mov	r0, r3
 4867 39e8 023083E0 		add	r3, r3, r2
 4868 39ec 0030C4E5 		strb	r3, [r4, #0]
 4869 39f0 FEFFFFEB 		bl	uart1_transmit
 4870 39f4 0230D5E5 		ldrb	r3, [r5, #2]	@ zero_extendqisi2
 4871 39f8 0020D4E5 		ldrb	r2, [r4, #0]	@ zero_extendqisi2
 4872 39fc 0300A0E1 		mov	r0, r3
 4873 3a00 023083E0 		add	r3, r3, r2
 4874 3a04 0030C4E5 		strb	r3, [r4, #0]
 4875 3a08 FEFFFFEB 		bl	uart1_transmit
 4876 3a0c 0300D5E5 		ldrb	r0, [r5, #3]	@ zero_extendqisi2
 4877 3a10 0030D4E5 		ldrb	r3, [r4, #0]	@ zero_extendqisi2
 4878 3a14 6C559FE5 		ldr	r5, .L444+20
 4879 3a18 033080E0 		add	r3, r0, r3
 4880 3a1c 0030C4E5 		strb	r3, [r4, #0]
 4881 3a20 FEFFFFEB 		bl	uart1_transmit
 4882 3a24 0030D5E5 		ldrb	r3, [r5, #0]	@ zero_extendqisi2
 4883 3a28 0020D4E5 		ldrb	r2, [r4, #0]	@ zero_extendqisi2
 4884 3a2c 0300A0E1 		mov	r0, r3
 4885 3a30 023083E0 		add	r3, r3, r2
 4886 3a34 0030C4E5 		strb	r3, [r4, #0]
 4887 3a38 FEFFFFEB 		bl	uart1_transmit
 4888 3a3c 0130D5E5 		ldrb	r3, [r5, #1]	@ zero_extendqisi2
 4889 3a40 0020D4E5 		ldrb	r2, [r4, #0]	@ zero_extendqisi2
 4890 3a44 0300A0E1 		mov	r0, r3
 4891 3a48 023083E0 		add	r3, r3, r2
 4892 3a4c 0030C4E5 		strb	r3, [r4, #0]
 4893 3a50 FEFFFFEB 		bl	uart1_transmit
 4894 3a54 0230D5E5 		ldrb	r3, [r5, #2]	@ zero_extendqisi2
 4895 3a58 0020D4E5 		ldrb	r2, [r4, #0]	@ zero_extendqisi2
 4896 3a5c 0300A0E1 		mov	r0, r3
 4897 3a60 023083E0 		add	r3, r3, r2
 4898 3a64 0030C4E5 		strb	r3, [r4, #0]
 4899 3a68 FEFFFFEB 		bl	uart1_transmit
 4900 3a6c 0300D5E5 		ldrb	r0, [r5, #3]	@ zero_extendqisi2
 4901 3a70 0030D4E5 		ldrb	r3, [r4, #0]	@ zero_extendqisi2
 4902 3a74 10559FE5 		ldr	r5, .L444+24
 4903 3a78 033080E0 		add	r3, r0, r3
 4904 3a7c 0030C4E5 		strb	r3, [r4, #0]
 4905 3a80 FEFFFFEB 		bl	uart1_transmit
 4906 3a84 0030D5E5 		ldrb	r3, [r5, #0]	@ zero_extendqisi2
 4907 3a88 0020D4E5 		ldrb	r2, [r4, #0]	@ zero_extendqisi2
 4908 3a8c 0300A0E1 		mov	r0, r3
 4909 3a90 023083E0 		add	r3, r3, r2
 4910 3a94 0030C4E5 		strb	r3, [r4, #0]
 4911 3a98 FEFFFFEB 		bl	uart1_transmit
 4912 3a9c 0130D5E5 		ldrb	r3, [r5, #1]	@ zero_extendqisi2
 4913 3aa0 0020D4E5 		ldrb	r2, [r4, #0]	@ zero_extendqisi2
 4914 3aa4 0300A0E1 		mov	r0, r3
 4915 3aa8 023083E0 		add	r3, r3, r2
 4916 3aac 0030C4E5 		strb	r3, [r4, #0]
 4917 3ab0 FEFFFFEB 		bl	uart1_transmit
 4918 3ab4 0230D5E5 		ldrb	r3, [r5, #2]	@ zero_extendqisi2
 4919 3ab8 0020D4E5 		ldrb	r2, [r4, #0]	@ zero_extendqisi2
 4920 3abc 0300A0E1 		mov	r0, r3
 4921 3ac0 023083E0 		add	r3, r3, r2
 4922 3ac4 0030C4E5 		strb	r3, [r4, #0]
 4923 3ac8 FEFFFFEB 		bl	uart1_transmit
 4924 3acc 0300D5E5 		ldrb	r0, [r5, #3]	@ zero_extendqisi2
 4925 3ad0 0030D4E5 		ldrb	r3, [r4, #0]	@ zero_extendqisi2
 4926 3ad4 B4549FE5 		ldr	r5, .L444+28
 4927 3ad8 033080E0 		add	r3, r0, r3
 4928 3adc 0030C4E5 		strb	r3, [r4, #0]
 4929 3ae0 FEFFFFEB 		bl	uart1_transmit
 4930 3ae4 0030D5E5 		ldrb	r3, [r5, #0]	@ zero_extendqisi2
 4931 3ae8 0020D4E5 		ldrb	r2, [r4, #0]	@ zero_extendqisi2
 4932 3aec 0300A0E1 		mov	r0, r3
 4933 3af0 023083E0 		add	r3, r3, r2
 4934 3af4 0030C4E5 		strb	r3, [r4, #0]
 4935 3af8 FEFFFFEB 		bl	uart1_transmit
 4936 3afc 0130D5E5 		ldrb	r3, [r5, #1]	@ zero_extendqisi2
 4937 3b00 0020D4E5 		ldrb	r2, [r4, #0]	@ zero_extendqisi2
 4938 3b04 0300A0E1 		mov	r0, r3
 4939 3b08 023083E0 		add	r3, r3, r2
 4940 3b0c 0030C4E5 		strb	r3, [r4, #0]
 4941 3b10 FEFFFFEB 		bl	uart1_transmit
 4942 3b14 0230D5E5 		ldrb	r3, [r5, #2]	@ zero_extendqisi2
 4943 3b18 0020D4E5 		ldrb	r2, [r4, #0]	@ zero_extendqisi2
 4944 3b1c 0300A0E1 		mov	r0, r3
 4945 3b20 023083E0 		add	r3, r3, r2
 4946 3b24 0030C4E5 		strb	r3, [r4, #0]
 4947 3b28 FEFFFFEB 		bl	uart1_transmit
 4948 3b2c 0330D5E5 		ldrb	r3, [r5, #3]	@ zero_extendqisi2
 4949 3b30 0020D4E5 		ldrb	r2, [r4, #0]	@ zero_extendqisi2
 4950 3b34 0300A0E1 		mov	r0, r3
 4951 3b38 023083E0 		add	r3, r3, r2
 4952 3b3c 0030C4E5 		strb	r3, [r4, #0]
 4953 3b40 FEFFFFEB 		bl	uart1_transmit
 4954 3b44 0030D4E5 		ldrb	r3, [r4, #0]	@ zero_extendqisi2
 4955 3b48 0330E0E1 		mvn	r3, r3
 4956 3b4c 0030C4E5 		strb	r3, [r4, #0]
 4957 3b50 0000D4E5 		ldrb	r0, [r4, #0]	@ zero_extendqisi2
 4958 3b54 FEFFFFEB 		bl	uart1_transmit
 4959              	.L291:
 4960 3b58 34049FE5 		ldr	r0, .L444+32
 4961 3b5c 0030D0E5 		ldrb	r3, [r0, #0]	@ zero_extendqisi2
 4962 3b60 240053E3 		cmp	r3, #36
 4963 3b64 920F001A 		bne	.L295
 4964 3b68 28349FE5 		ldr	r3, .L444+36
 4965 3b6c 003093E5 		ldr	r3, [r3, #0]
 4966 3b70 0201C3E3 		bic	r0, r3, #-2147483648
 4967 3b74 FEFFFFEB 		bl	__extendsfdf2
 4968 3b78 FD2F8FE2 		adr	r2, .L444
 4969 3b7c 0C0092E8 		ldmia	r2, {r2-r3}
 4970 3b80 FEFFFFEB 		bl	__divdf3
 4971 3b84 FEFFFFEB 		bl	__fixunsdfsi
 4972 3b88 37004BE5 		strb	r0, [fp, #-55]
 4973 3b8c 1F00A0E3 		mov	r0, #31
 4974 3b90 FEFFFFEB 		bl	uart1_check_free_space
 4975 3b94 FF0010E3 		tst	r0, #255
 4976 3b98 A8249F05 		ldreq	r2, .L444+212
 4977 3b9c 0030D205 		ldreqb	r3, [r2, #0]	@ zero_extendqisi2
 4978 3ba0 01308302 		addeq	r3, r3, #1
 4979 3ba4 0030C205 		streqb	r3, [r2, #0]
 4980 3ba8 920F000A 		beq	.L295
 4981 3bac AC149FE5 		ldr	r1, .L444+236
 4982 3bb0 94C49FE5 		ldr	ip, .L444+216
 4983 3bb4 B030D1E1 		ldrh	r3, [r1, #0]
 4984 3bb8 B020DCE1 		ldrh	r2, [ip, #0]
 4985 3bbc 1F3083E2 		add	r3, r3, #31
 4986 3bc0 012082E2 		add	r2, r2, #1
 4987 3bc4 B030C1E1 		strh	r3, [r1, #0]	@ movhi 
 4988 3bc8 B020CCE1 		strh	r2, [ip, #0]	@ movhi 
 4989 3bcc 0060A0E3 		mov	r6, #0
 4990 3bd0 7E00A0E3 		mov	r0, #126
 4991 3bd4 74449FE5 		ldr	r4, .L444+220
 4992 3bd8 FEFFFFEB 		bl	uart1_transmit
 4993 3bdc 0600A0E1 		mov	r0, r6
 4994 3be0 0150A0E3 		mov	r5, #1
 4995 3be4 FEFFFFEB 		bl	uart1_transmit
 4996 3be8 1B00A0E3 		mov	r0, #27
 4997 3bec FEFFFFEB 		bl	uart1_transmit
 4998 3bf0 0500A0E1 		mov	r0, r5
 4999 3bf4 0050C4E5 		strb	r5, [r4, #0]
 5000 3bf8 FEFFFFEB 		bl	uart1_transmit
 5001 3bfc 0600A0E1 		mov	r0, r6
 5002 3c00 FEFFFFEB 		bl	uart1_transmit
 5003 3c04 0030D4E5 		ldrb	r3, [r4, #0]	@ zero_extendqisi2
 5004 3c08 053083E0 		add	r3, r3, r5
 5005 3c0c 0030C4E5 		strb	r3, [r4, #0]
 5006 3c10 0500A0E1 		mov	r0, r5
 5007 3c14 FEFFFFEB 		bl	uart1_transmit
 5008 3c18 0600A0E1 		mov	r0, r6
 5009 3c1c FEFFFFEB 		bl	uart1_transmit
 5010 3c20 0600A0E1 		mov	r0, r6
 5011 3c24 FEFFFFEB 		bl	uart1_transmit
 5012 3c28 0030D4E5 		ldrb	r3, [r4, #0]	@ zero_extendqisi2
 5013 3c2c 0B3083E2 		add	r3, r3, #11
 5014 3c30 0B00A0E3 		mov	r0, #11
 5015 3c34 0030C4E5 		strb	r3, [r4, #0]
 5016 3c38 FEFFFFEB 		bl	uart1_transmit
 5017 3c3c 0030D4E5 		ldrb	r3, [r4, #0]	@ zero_extendqisi2
 5018 3c40 0A3083E2 		add	r3, r3, #10
 5019 3c44 0A00A0E3 		mov	r0, #10
 5020 3c48 0030C4E5 		strb	r3, [r4, #0]
 5021 3c4c FEFFFFEB 		bl	uart1_transmit
 5022 3c50 44339FE5 		ldr	r3, .L444+40
 5023 3c54 0020D4E5 		ldrb	r2, [r4, #0]	@ zero_extendqisi2
 5024 3c58 0030D3E5 		ldrb	r3, [r3, #0]	@ zero_extendqisi2
 5025 3c5c 0300A0E1 		mov	r0, r3
 5026 3c60 023083E0 		add	r3, r3, r2
 5027 3c64 0030C4E5 		strb	r3, [r4, #0]
 5028 3c68 FEFFFFEB 		bl	uart1_transmit
 5029 3c6c 2C339FE5 		ldr	r3, .L444+44
 5030 3c70 0000D3E5 		ldrb	r0, [r3, #0]	@ zero_extendqisi2
 5031 3c74 0030D4E5 		ldrb	r3, [r4, #0]	@ zero_extendqisi2
 5032 3c78 24539FE5 		ldr	r5, .L444+48
 5033 3c7c 033080E0 		add	r3, r0, r3
 5034 3c80 0030C4E5 		strb	r3, [r4, #0]
 5035 3c84 FEFFFFEB 		bl	uart1_transmit
 5036 3c88 0030D5E5 		ldrb	r3, [r5, #0]	@ zero_extendqisi2
 5037 3c8c 0020D4E5 		ldrb	r2, [r4, #0]	@ zero_extendqisi2
 5038 3c90 0300A0E1 		mov	r0, r3
 5039 3c94 023083E0 		add	r3, r3, r2
 5040 3c98 0030C4E5 		strb	r3, [r4, #0]
 5041 3c9c FEFFFFEB 		bl	uart1_transmit
 5042 3ca0 0130D5E5 		ldrb	r3, [r5, #1]	@ zero_extendqisi2
 5043 3ca4 0020D4E5 		ldrb	r2, [r4, #0]	@ zero_extendqisi2
 5044 3ca8 0300A0E1 		mov	r0, r3
 5045 3cac 023083E0 		add	r3, r3, r2
 5046 3cb0 0030C4E5 		strb	r3, [r4, #0]
 5047 3cb4 FEFFFFEB 		bl	uart1_transmit
 5048 3cb8 0230D5E5 		ldrb	r3, [r5, #2]	@ zero_extendqisi2
 5049 3cbc 0020D4E5 		ldrb	r2, [r4, #0]	@ zero_extendqisi2
 5050 3cc0 0300A0E1 		mov	r0, r3
 5051 3cc4 023083E0 		add	r3, r3, r2
 5052 3cc8 0030C4E5 		strb	r3, [r4, #0]
 5053 3ccc FEFFFFEB 		bl	uart1_transmit
 5054 3cd0 0300D5E5 		ldrb	r0, [r5, #3]	@ zero_extendqisi2
 5055 3cd4 0030D4E5 		ldrb	r3, [r4, #0]	@ zero_extendqisi2
 5056 3cd8 C8529FE5 		ldr	r5, .L444+52
 5057 3cdc 033080E0 		add	r3, r0, r3
 5058 3ce0 0030C4E5 		strb	r3, [r4, #0]
 5059 3ce4 FEFFFFEB 		bl	uart1_transmit
 5060 3ce8 0030D5E5 		ldrb	r3, [r5, #0]	@ zero_extendqisi2
 5061 3cec 0020D4E5 		ldrb	r2, [r4, #0]	@ zero_extendqisi2
 5062 3cf0 0300A0E1 		mov	r0, r3
 5063 3cf4 023083E0 		add	r3, r3, r2
 5064 3cf8 0030C4E5 		strb	r3, [r4, #0]
 5065 3cfc FEFFFFEB 		bl	uart1_transmit
 5066 3d00 0130D5E5 		ldrb	r3, [r5, #1]	@ zero_extendqisi2
 5067 3d04 0020D4E5 		ldrb	r2, [r4, #0]	@ zero_extendqisi2
 5068 3d08 0300A0E1 		mov	r0, r3
 5069 3d0c 023083E0 		add	r3, r3, r2
 5070 3d10 0030C4E5 		strb	r3, [r4, #0]
 5071 3d14 FEFFFFEB 		bl	uart1_transmit
 5072 3d18 0230D5E5 		ldrb	r3, [r5, #2]	@ zero_extendqisi2
 5073 3d1c 0020D4E5 		ldrb	r2, [r4, #0]	@ zero_extendqisi2
 5074 3d20 0300A0E1 		mov	r0, r3
 5075 3d24 023083E0 		add	r3, r3, r2
 5076 3d28 0030C4E5 		strb	r3, [r4, #0]
 5077 3d2c FEFFFFEB 		bl	uart1_transmit
 5078 3d30 0300D5E5 		ldrb	r0, [r5, #3]	@ zero_extendqisi2
 5079 3d34 0030D4E5 		ldrb	r3, [r4, #0]	@ zero_extendqisi2
 5080 3d38 6C529FE5 		ldr	r5, .L444+56
 5081 3d3c 033080E0 		add	r3, r0, r3
 5082 3d40 0030C4E5 		strb	r3, [r4, #0]
 5083 3d44 FEFFFFEB 		bl	uart1_transmit
 5084 3d48 0030D5E5 		ldrb	r3, [r5, #0]	@ zero_extendqisi2
 5085 3d4c 0020D4E5 		ldrb	r2, [r4, #0]	@ zero_extendqisi2
 5086 3d50 0300A0E1 		mov	r0, r3
 5087 3d54 023083E0 		add	r3, r3, r2
 5088 3d58 0030C4E5 		strb	r3, [r4, #0]
 5089 3d5c FEFFFFEB 		bl	uart1_transmit
 5090 3d60 0130D5E5 		ldrb	r3, [r5, #1]	@ zero_extendqisi2
 5091 3d64 0020D4E5 		ldrb	r2, [r4, #0]	@ zero_extendqisi2
 5092 3d68 0300A0E1 		mov	r0, r3
 5093 3d6c 023083E0 		add	r3, r3, r2
 5094 3d70 0030C4E5 		strb	r3, [r4, #0]
 5095 3d74 FEFFFFEB 		bl	uart1_transmit
 5096 3d78 0230D5E5 		ldrb	r3, [r5, #2]	@ zero_extendqisi2
 5097 3d7c 0020D4E5 		ldrb	r2, [r4, #0]	@ zero_extendqisi2
 5098 3d80 0300A0E1 		mov	r0, r3
 5099 3d84 023083E0 		add	r3, r3, r2
 5100 3d88 0030C4E5 		strb	r3, [r4, #0]
 5101 3d8c FEFFFFEB 		bl	uart1_transmit
 5102 3d90 0300D5E5 		ldrb	r0, [r5, #3]	@ zero_extendqisi2
 5103 3d94 0030D4E5 		ldrb	r3, [r4, #0]	@ zero_extendqisi2
 5104 3d98 10529FE5 		ldr	r5, .L444+60
 5105 3d9c 033080E0 		add	r3, r0, r3
 5106 3da0 0030C4E5 		strb	r3, [r4, #0]
 5107 3da4 FEFFFFEB 		bl	uart1_transmit
 5108 3da8 0030D5E5 		ldrb	r3, [r5, #0]	@ zero_extendqisi2
 5109 3dac 0020D4E5 		ldrb	r2, [r4, #0]	@ zero_extendqisi2
 5110 3db0 0300A0E1 		mov	r0, r3
 5111 3db4 023083E0 		add	r3, r3, r2
 5112 3db8 0030C4E5 		strb	r3, [r4, #0]
 5113 3dbc FEFFFFEB 		bl	uart1_transmit
 5114 3dc0 0130D5E5 		ldrb	r3, [r5, #1]	@ zero_extendqisi2
 5115 3dc4 0020D4E5 		ldrb	r2, [r4, #0]	@ zero_extendqisi2
 5116 3dc8 0300A0E1 		mov	r0, r3
 5117 3dcc 023083E0 		add	r3, r3, r2
 5118 3dd0 0030C4E5 		strb	r3, [r4, #0]
 5119 3dd4 FEFFFFEB 		bl	uart1_transmit
 5120 3dd8 0230D5E5 		ldrb	r3, [r5, #2]	@ zero_extendqisi2
 5121 3ddc 0020D4E5 		ldrb	r2, [r4, #0]	@ zero_extendqisi2
 5122 3de0 0300A0E1 		mov	r0, r3
 5123 3de4 023083E0 		add	r3, r3, r2
 5124 3de8 0030C4E5 		strb	r3, [r4, #0]
 5125 3dec FEFFFFEB 		bl	uart1_transmit
 5126 3df0 0330D5E5 		ldrb	r3, [r5, #3]	@ zero_extendqisi2
 5127 3df4 0020D4E5 		ldrb	r2, [r4, #0]	@ zero_extendqisi2
 5128 3df8 0300A0E1 		mov	r0, r3
 5129 3dfc 023083E0 		add	r3, r3, r2
 5130 3e00 0030C4E5 		strb	r3, [r4, #0]
 5131 3e04 FEFFFFEB 		bl	uart1_transmit
 5132 3e08 37305BE5 		ldrb	r3, [fp, #-55]	@ zero_extendqisi2
 5133 3e0c 0020D4E5 		ldrb	r2, [r4, #0]	@ zero_extendqisi2
 5134 3e10 0300A0E1 		mov	r0, r3
 5135 3e14 023083E0 		add	r3, r3, r2
 5136 3e18 0030C4E5 		strb	r3, [r4, #0]
 5137 3e1c FEFFFFEB 		bl	uart1_transmit
 5138 3e20 8C319FE5 		ldr	r3, .L444+64
 5139 3e24 0020D4E5 		ldrb	r2, [r4, #0]	@ zero_extendqisi2
 5140 3e28 0030D3E5 		ldrb	r3, [r3, #0]	@ zero_extendqisi2
 5141 3e2c 0300A0E1 		mov	r0, r3
 5142 3e30 023083E0 		add	r3, r3, r2
 5143 3e34 0030C4E5 		strb	r3, [r4, #0]
 5144 3e38 FEFFFFEB 		bl	uart1_transmit
 5145 3e3c 0030D4E5 		ldrb	r3, [r4, #0]	@ zero_extendqisi2
 5146 3e40 0330E0E1 		mvn	r3, r3
 5147 3e44 0030C4E5 		strb	r3, [r4, #0]
 5148 3e48 0000D4E5 		ldrb	r0, [r4, #0]	@ zero_extendqisi2
 5149 3e4c FEFFFFEB 		bl	uart1_transmit
 5150              	.L295:
 5151 3e50 60219FE5 		ldr	r2, .L444+68
 5152 3e54 0030D2E5 		ldrb	r3, [r2, #0]	@ zero_extendqisi2
 5153 3e58 2A0053E3 		cmp	r3, #42
 5154 3e5c 5610001A 		bne	.L298
 5155 3e60 54319FE5 		ldr	r3, .L444+72
 5156 3e64 0030D3E5 		ldrb	r3, [r3, #0]	@ zero_extendqisi2
 5157 3e68 000053E3 		cmp	r3, #0
 5158 3e6c 5610000A 		beq	.L298
 5159 3e70 1700A0E3 		mov	r0, #23
 5160 3e74 FEFFFFEB 		bl	uart1_check_free_space
 5161 3e78 FF0010E3 		tst	r0, #255
 5162 3e7c C4219F05 		ldreq	r2, .L444+212
 5163 3e80 0030D205 		ldreqb	r3, [r2, #0]	@ zero_extendqisi2
 5164 3e84 01308302 		addeq	r3, r3, #1
 5165 3e88 0030C205 		streqb	r3, [r2, #0]
 5166 3e8c 5610000A 		beq	.L298
 5167 3e90 C8119FE5 		ldr	r1, .L444+236
 5168 3e94 B0C19FE5 		ldr	ip, .L444+216
 5169 3e98 B030D1E1 		ldrh	r3, [r1, #0]
 5170 3e9c B020DCE1 		ldrh	r2, [ip, #0]
 5171 3ea0 173083E2 		add	r3, r3, #23
 5172 3ea4 012082E2 		add	r2, r2, #1
 5173 3ea8 B030C1E1 		strh	r3, [r1, #0]	@ movhi 
 5174 3eac B020CCE1 		strh	r2, [ip, #0]	@ movhi 
 5175 3eb0 0060A0E3 		mov	r6, #0
 5176 3eb4 7E00A0E3 		mov	r0, #126
 5177 3eb8 90419FE5 		ldr	r4, .L444+220
 5178 3ebc FEFFFFEB 		bl	uart1_transmit
 5179 3ec0 0600A0E1 		mov	r0, r6
 5180 3ec4 0150A0E3 		mov	r5, #1
 5181 3ec8 FEFFFFEB 		bl	uart1_transmit
 5182 3ecc 1300A0E3 		mov	r0, #19
 5183 3ed0 FEFFFFEB 		bl	uart1_transmit
 5184 3ed4 0500A0E1 		mov	r0, r5
 5185 3ed8 0050C4E5 		strb	r5, [r4, #0]
 5186 3edc FEFFFFEB 		bl	uart1_transmit
 5187 3ee0 0600A0E1 		mov	r0, r6
 5188 3ee4 FEFFFFEB 		bl	uart1_transmit
 5189 3ee8 0030D4E5 		ldrb	r3, [r4, #0]	@ zero_extendqisi2
 5190 3eec 053083E0 		add	r3, r3, r5
 5191 3ef0 0030C4E5 		strb	r3, [r4, #0]
 5192 3ef4 0500A0E1 		mov	r0, r5
 5193 3ef8 FEFFFFEB 		bl	uart1_transmit
 5194 3efc 0600A0E1 		mov	r0, r6
 5195 3f00 FEFFFFEB 		bl	uart1_transmit
 5196 3f04 0600A0E1 		mov	r0, r6
 5197 3f08 FEFFFFEB 		bl	uart1_transmit
 5198 3f0c 0030D4E5 		ldrb	r3, [r4, #0]	@ zero_extendqisi2
 5199 3f10 0B3083E2 		add	r3, r3, #11
 5200 3f14 0B00A0E3 		mov	r0, #11
 5201 3f18 0030C4E5 		strb	r3, [r4, #0]
 5202 3f1c FEFFFFEB 		bl	uart1_transmit
 5203 3f20 0030D4E5 		ldrb	r3, [r4, #0]	@ zero_extendqisi2
 5204 3f24 94509FE5 		ldr	r5, .L444+76
 5205 3f28 153083E2 		add	r3, r3, #21
 5206 3f2c 1500A0E3 		mov	r0, #21
 5207 3f30 0030C4E5 		strb	r3, [r4, #0]
 5208 3f34 FEFFFFEB 		bl	uart1_transmit
 5209 3f38 0030D5E5 		ldrb	r3, [r5, #0]	@ zero_extendqisi2
 5210 3f3c 0020D4E5 		ldrb	r2, [r4, #0]	@ zero_extendqisi2
 5211 3f40 0300A0E1 		mov	r0, r3
 5212 3f44 023083E0 		add	r3, r3, r2
 5213 3f48 0030C4E5 		strb	r3, [r4, #0]
 5214 3f4c FEFFFFEB 		bl	uart1_transmit
 5215 3f50 0130D5E5 		ldrb	r3, [r5, #1]	@ zero_extendqisi2
 5216 3f54 0020D4E5 		ldrb	r2, [r4, #0]	@ zero_extendqisi2
 5217 3f58 0300A0E1 		mov	r0, r3
 5218 3f5c 023083E0 		add	r3, r3, r2
 5219 3f60 0030C4E5 		strb	r3, [r4, #0]
 5220 3f64 FEFFFFEB 		bl	uart1_transmit
 5221 3f68 0230D5E5 		ldrb	r3, [r5, #2]	@ zero_extendqisi2
 5222 3f6c 0020D4E5 		ldrb	r2, [r4, #0]	@ zero_extendqisi2
 5223 3f70 171000EA 		b	.L445
 5224              	.L446:
 5225              		.align	2
 5226              	.L444:
 5227 3f74 FB211940 		.word	1075388923
 5228 3f78 182D4454 		.word	1413754136
 5229 3f7c 00000000 		.word	i.43
 5230 3f80 00000000 		.word	nav_survey_active
 5231 3f84 00000000 		.word	nav_survey_east
 5232 3f88 00000000 		.word	nav_survey_north
 5233 3f8c 00000000 		.word	nav_survey_west
 5234 3f90 00000000 		.word	nav_survey_south
 5235 3f94 00000000 		.word	i180.32
 5236 3f98 00000000 		.word	nav_circle_radians
 5237 3f9c 00000000 		.word	nav_block
 5238 3fa0 00000000 		.word	nav_stage
 5239 3fa4 00000000 		.word	estimator_x
 5240 3fa8 00000000 		.word	estimator_y
 5241 3fac 00000000 		.word	dist2_to_wp
 5242 3fb0 00000000 		.word	dist2_to_home
 5243 3fb4 00000000 		.word	nav_oval_count
 5244 3fb8 00000000 		.word	i183.33
 5245 3fbc 00000000 		.word	nav_in_circle
 5246 3fc0 00000000 		.word	nav_circle_x
 5247 3fc4 00000000 		.word	nav_circle_y
 5248 3fc8 00000000 		.word	nav_circle_radius
 5249 3fcc 00000000 		.word	i192.34
 5250 3fd0 00000000 		.word	nav_in_segment
 5251 3fd4 00000000 		.word	nav_segment_x_1
 5252 3fd8 00000000 		.word	nav_segment_y_1
 5253 3fdc 00000000 		.word	nav_segment_x_2
 5254 3fe0 00000000 		.word	nav_segment_y_2
 5255 3fe4 00000000 		.word	i240.35
 5256 3fe8 00000000 		.word	estimator_phi
 5257 3fec 00000000 		.word	estimator_psi
 5258 3ff0 00000000 		.word	estimator_theta
 5259 3ff4 00000000 		.word	i243.36
 5260 3ff8 00000000 		.word	h_ctl_roll_setpoint
 5261 3ffc 00000000 		.word	h_ctl_pitch_loop_setpoint
 5262 4000 00000000 		.word	h_ctl_course_setpoint
 5263 4004 00000000 		.word	desired_x
 5264 4008 00000000 		.word	desired_y
 5265 400c 00000000 		.word	v_ctl_altitude_setpoint
 5266 4010 00000000 		.word	v_ctl_climb_setpoint
 5267 4014 00000000 		.word	i300.37
 5268 4018 00000000 		.word	.LC0
 5269 401c 00000000 		.word	pprz_mode
 5270 4020 00000000 		.word	v_ctl_mode
 5271 4024 00000000 		.word	lateral_mode
 5272 4028 00000000 		.word	horizontal_mode
 5273 402c 00000000 		.word	rc_settings_mode
 5274 4030 00000000 		.word	mcu1_status
 5275 4034 00000000 		.word	gps_Pacc
 5276 4038 00000000 		.word	gps_Sacc
 5277 403c 00000000 		.word	gps_PDOP
 5278 4040 00000000 		.word	gps_numSV
 5279 4044 00000000 		.word	i306.38
 5280 4048 00000000 		.word	downlink_nb_ovrn
 5281 404c 00000000 		.word	downlink_nb_msgs
 5282 4050 00000000 		.word	xbee_cs
 5283 4054 00000000 		.word	v_ctl_auto_throttle_sum_err
 5284 4058 00000000 		.word	v_ctl_auto_throttle_submode
 5285 405c 00000000 		.word	last.44
 5286 4060 00000000 		.word	downlink_nb_bytes
 5287              	.L445:
 5288 4064 0300A0E1 		mov	r0, r3
 5289 4068 023083E0 		add	r3, r3, r2
 5290 406c 0030C4E5 		strb	r3, [r4, #0]
 5291 4070 FEFFFFEB 		bl	uart1_transmit
 5292 4074 0300D5E5 		ldrb	r0, [r5, #3]	@ zero_extendqisi2
 5293 4078 0030D4E5 		ldrb	r3, [r4, #0]	@ zero_extendqisi2
 5294 407c C0501FE5 		ldr	r5, .L444+80
 5295 4080 033080E0 		add	r3, r0, r3
 5296 4084 0030C4E5 		strb	r3, [r4, #0]
 5297 4088 FEFFFFEB 		bl	uart1_transmit
 5298 408c 0030D5E5 		ldrb	r3, [r5, #0]	@ zero_extendqisi2
 5299 4090 0020D4E5 		ldrb	r2, [r4, #0]	@ zero_extendqisi2
 5300 4094 0300A0E1 		mov	r0, r3
 5301 4098 023083E0 		add	r3, r3, r2
 5302 409c 0030C4E5 		strb	r3, [r4, #0]
 5303 40a0 FEFFFFEB 		bl	uart1_transmit
 5304 40a4 0130D5E5 		ldrb	r3, [r5, #1]	@ zero_extendqisi2
 5305 40a8 0020D4E5 		ldrb	r2, [r4, #0]	@ zero_extendqisi2
 5306 40ac 0300A0E1 		mov	r0, r3
 5307 40b0 023083E0 		add	r3, r3, r2
 5308 40b4 0030C4E5 		strb	r3, [r4, #0]
 5309 40b8 FEFFFFEB 		bl	uart1_transmit
 5310 40bc 0230D5E5 		ldrb	r3, [r5, #2]	@ zero_extendqisi2
 5311 40c0 0020D4E5 		ldrb	r2, [r4, #0]	@ zero_extendqisi2
 5312 40c4 0300A0E1 		mov	r0, r3
 5313 40c8 023083E0 		add	r3, r3, r2
 5314 40cc 0030C4E5 		strb	r3, [r4, #0]
 5315 40d0 FEFFFFEB 		bl	uart1_transmit
 5316 40d4 0300D5E5 		ldrb	r0, [r5, #3]	@ zero_extendqisi2
 5317 40d8 0030D4E5 		ldrb	r3, [r4, #0]	@ zero_extendqisi2
 5318 40dc 1C511FE5 		ldr	r5, .L444+84
 5319 40e0 033080E0 		add	r3, r0, r3
 5320 40e4 0030C4E5 		strb	r3, [r4, #0]
 5321 40e8 FEFFFFEB 		bl	uart1_transmit
 5322 40ec 0030D5E5 		ldrb	r3, [r5, #0]	@ zero_extendqisi2
 5323 40f0 0020D4E5 		ldrb	r2, [r4, #0]	@ zero_extendqisi2
 5324 40f4 0300A0E1 		mov	r0, r3
 5325 40f8 023083E0 		add	r3, r3, r2
 5326 40fc 0030C4E5 		strb	r3, [r4, #0]
 5327 4100 FEFFFFEB 		bl	uart1_transmit
 5328 4104 0130D5E5 		ldrb	r3, [r5, #1]	@ zero_extendqisi2
 5329 4108 0020D4E5 		ldrb	r2, [r4, #0]	@ zero_extendqisi2
 5330 410c 0300A0E1 		mov	r0, r3
 5331 4110 023083E0 		add	r3, r3, r2
 5332 4114 0030C4E5 		strb	r3, [r4, #0]
 5333 4118 FEFFFFEB 		bl	uart1_transmit
 5334 411c 0230D5E5 		ldrb	r3, [r5, #2]	@ zero_extendqisi2
 5335 4120 0020D4E5 		ldrb	r2, [r4, #0]	@ zero_extendqisi2
 5336 4124 0300A0E1 		mov	r0, r3
 5337 4128 023083E0 		add	r3, r3, r2
 5338 412c 0030C4E5 		strb	r3, [r4, #0]
 5339 4130 FEFFFFEB 		bl	uart1_transmit
 5340 4134 0330D5E5 		ldrb	r3, [r5, #3]	@ zero_extendqisi2
 5341 4138 0020D4E5 		ldrb	r2, [r4, #0]	@ zero_extendqisi2
 5342 413c 0300A0E1 		mov	r0, r3
 5343 4140 023083E0 		add	r3, r3, r2
 5344 4144 0030C4E5 		strb	r3, [r4, #0]
 5345 4148 FEFFFFEB 		bl	uart1_transmit
 5346 414c 0030D4E5 		ldrb	r3, [r4, #0]	@ zero_extendqisi2
 5347 4150 0330E0E1 		mvn	r3, r3
 5348 4154 0030C4E5 		strb	r3, [r4, #0]
 5349 4158 0000D4E5 		ldrb	r0, [r4, #0]	@ zero_extendqisi2
 5350 415c FEFFFFEB 		bl	uart1_transmit
 5351              	.L298:
 5352 4160 9C011FE5 		ldr	r0, .L444+88
 5353 4164 0030D0E5 		ldrb	r3, [r0, #0]	@ zero_extendqisi2
 5354 4168 300053E3 		cmp	r3, #48
 5355 416c F510001A 		bne	.L302
 5356 4170 A8311FE5 		ldr	r3, .L444+92
 5357 4174 0030D3E5 		ldrb	r3, [r3, #0]	@ zero_extendqisi2
 5358 4178 000053E3 		cmp	r3, #0
 5359 417c F510000A 		beq	.L302
 5360 4180 1B00A0E3 		mov	r0, #27
 5361 4184 FEFFFFEB 		bl	uart1_check_free_space
 5362 4188 FF0010E3 		tst	r0, #255
 5363 418c 4C211F05 		ldreq	r2, .L444+212
 5364 4190 0030D205 		ldreqb	r3, [r2, #0]	@ zero_extendqisi2
 5365 4194 01308302 		addeq	r3, r3, #1
 5366 4198 0030C205 		streqb	r3, [r2, #0]
 5367 419c F510000A 		beq	.L302
 5368 41a0 48111FE5 		ldr	r1, .L444+236
 5369 41a4 60C11FE5 		ldr	ip, .L444+216
 5370 41a8 B030D1E1 		ldrh	r3, [r1, #0]
 5371 41ac B020DCE1 		ldrh	r2, [ip, #0]
 5372 41b0 1B3083E2 		add	r3, r3, #27
 5373 41b4 012082E2 		add	r2, r2, #1
 5374 41b8 B030C1E1 		strh	r3, [r1, #0]	@ movhi 
 5375 41bc B020CCE1 		strh	r2, [ip, #0]	@ movhi 
 5376 41c0 0060A0E3 		mov	r6, #0
 5377 41c4 7E00A0E3 		mov	r0, #126
 5378 41c8 80411FE5 		ldr	r4, .L444+220
 5379 41cc FEFFFFEB 		bl	uart1_transmit
 5380 41d0 0600A0E1 		mov	r0, r6
 5381 41d4 0150A0E3 		mov	r5, #1
 5382 41d8 FEFFFFEB 		bl	uart1_transmit
 5383 41dc 1700A0E3 		mov	r0, #23
 5384 41e0 FEFFFFEB 		bl	uart1_transmit
 5385 41e4 0500A0E1 		mov	r0, r5
 5386 41e8 0050C4E5 		strb	r5, [r4, #0]
 5387 41ec FEFFFFEB 		bl	uart1_transmit
 5388 41f0 0600A0E1 		mov	r0, r6
 5389 41f4 FEFFFFEB 		bl	uart1_transmit
 5390 41f8 0030D4E5 		ldrb	r3, [r4, #0]	@ zero_extendqisi2
 5391 41fc 053083E0 		add	r3, r3, r5
 5392 4200 0030C4E5 		strb	r3, [r4, #0]
 5393 4204 0500A0E1 		mov	r0, r5
 5394 4208 FEFFFFEB 		bl	uart1_transmit
 5395 420c 0600A0E1 		mov	r0, r6
 5396 4210 FEFFFFEB 		bl	uart1_transmit
 5397 4214 0600A0E1 		mov	r0, r6
 5398 4218 FEFFFFEB 		bl	uart1_transmit
 5399 421c 0030D4E5 		ldrb	r3, [r4, #0]	@ zero_extendqisi2
 5400 4220 0B3083E2 		add	r3, r3, #11
 5401 4224 0B00A0E3 		mov	r0, #11
 5402 4228 0030C4E5 		strb	r3, [r4, #0]
 5403 422c FEFFFFEB 		bl	uart1_transmit
 5404 4230 0030D4E5 		ldrb	r3, [r4, #0]	@ zero_extendqisi2
 5405 4234 68521FE5 		ldr	r5, .L444+96
 5406 4238 163083E2 		add	r3, r3, #22
 5407 423c 1600A0E3 		mov	r0, #22
 5408 4240 0030C4E5 		strb	r3, [r4, #0]
 5409 4244 FEFFFFEB 		bl	uart1_transmit
 5410 4248 0030D5E5 		ldrb	r3, [r5, #0]	@ zero_extendqisi2
 5411 424c 0020D4E5 		ldrb	r2, [r4, #0]	@ zero_extendqisi2
 5412 4250 0300A0E1 		mov	r0, r3
 5413 4254 023083E0 		add	r3, r3, r2
 5414 4258 0030C4E5 		strb	r3, [r4, #0]
 5415 425c FEFFFFEB 		bl	uart1_transmit
 5416 4260 0130D5E5 		ldrb	r3, [r5, #1]	@ zero_extendqisi2
 5417 4264 0020D4E5 		ldrb	r2, [r4, #0]	@ zero_extendqisi2
 5418 4268 0300A0E1 		mov	r0, r3
 5419 426c 023083E0 		add	r3, r3, r2
 5420 4270 0030C4E5 		strb	r3, [r4, #0]
 5421 4274 FEFFFFEB 		bl	uart1_transmit
 5422 4278 0230D5E5 		ldrb	r3, [r5, #2]	@ zero_extendqisi2
 5423 427c 0020D4E5 		ldrb	r2, [r4, #0]	@ zero_extendqisi2
 5424 4280 0300A0E1 		mov	r0, r3
 5425 4284 023083E0 		add	r3, r3, r2
 5426 4288 0030C4E5 		strb	r3, [r4, #0]
 5427 428c FEFFFFEB 		bl	uart1_transmit
 5428 4290 0300D5E5 		ldrb	r0, [r5, #3]	@ zero_extendqisi2
 5429 4294 0030D4E5 		ldrb	r3, [r4, #0]	@ zero_extendqisi2
 5430 4298 C8521FE5 		ldr	r5, .L444+100
 5431 429c 033080E0 		add	r3, r0, r3
 5432 42a0 0030C4E5 		strb	r3, [r4, #0]
 5433 42a4 FEFFFFEB 		bl	uart1_transmit
 5434 42a8 0030D5E5 		ldrb	r3, [r5, #0]	@ zero_extendqisi2
 5435 42ac 0020D4E5 		ldrb	r2, [r4, #0]	@ zero_extendqisi2
 5436 42b0 0300A0E1 		mov	r0, r3
 5437 42b4 023083E0 		add	r3, r3, r2
 5438 42b8 0030C4E5 		strb	r3, [r4, #0]
 5439 42bc FEFFFFEB 		bl	uart1_transmit
 5440 42c0 0130D5E5 		ldrb	r3, [r5, #1]	@ zero_extendqisi2
 5441 42c4 0020D4E5 		ldrb	r2, [r4, #0]	@ zero_extendqisi2
 5442 42c8 0300A0E1 		mov	r0, r3
 5443 42cc 023083E0 		add	r3, r3, r2
 5444 42d0 0030C4E5 		strb	r3, [r4, #0]
 5445 42d4 FEFFFFEB 		bl	uart1_transmit
 5446 42d8 0230D5E5 		ldrb	r3, [r5, #2]	@ zero_extendqisi2
 5447 42dc 0020D4E5 		ldrb	r2, [r4, #0]	@ zero_extendqisi2
 5448 42e0 0300A0E1 		mov	r0, r3
 5449 42e4 023083E0 		add	r3, r3, r2
 5450 42e8 0030C4E5 		strb	r3, [r4, #0]
 5451 42ec FEFFFFEB 		bl	uart1_transmit
 5452 42f0 0300D5E5 		ldrb	r0, [r5, #3]	@ zero_extendqisi2
 5453 42f4 0030D4E5 		ldrb	r3, [r4, #0]	@ zero_extendqisi2
 5454 42f8 24531FE5 		ldr	r5, .L444+104
 5455 42fc 033080E0 		add	r3, r0, r3
 5456 4300 0030C4E5 		strb	r3, [r4, #0]
 5457 4304 FEFFFFEB 		bl	uart1_transmit
 5458 4308 0030D5E5 		ldrb	r3, [r5, #0]	@ zero_extendqisi2
 5459 430c 0020D4E5 		ldrb	r2, [r4, #0]	@ zero_extendqisi2
 5460 4310 0300A0E1 		mov	r0, r3
 5461 4314 023083E0 		add	r3, r3, r2
 5462 4318 0030C4E5 		strb	r3, [r4, #0]
 5463 431c FEFFFFEB 		bl	uart1_transmit
 5464 4320 0130D5E5 		ldrb	r3, [r5, #1]	@ zero_extendqisi2
 5465 4324 0020D4E5 		ldrb	r2, [r4, #0]	@ zero_extendqisi2
 5466 4328 0300A0E1 		mov	r0, r3
 5467 432c 023083E0 		add	r3, r3, r2
 5468 4330 0030C4E5 		strb	r3, [r4, #0]
 5469 4334 FEFFFFEB 		bl	uart1_transmit
 5470 4338 0230D5E5 		ldrb	r3, [r5, #2]	@ zero_extendqisi2
 5471 433c 0020D4E5 		ldrb	r2, [r4, #0]	@ zero_extendqisi2
 5472 4340 0300A0E1 		mov	r0, r3
 5473 4344 023083E0 		add	r3, r3, r2
 5474 4348 0030C4E5 		strb	r3, [r4, #0]
 5475 434c FEFFFFEB 		bl	uart1_transmit
 5476 4350 0300D5E5 		ldrb	r0, [r5, #3]	@ zero_extendqisi2
 5477 4354 0030D4E5 		ldrb	r3, [r4, #0]	@ zero_extendqisi2
 5478 4358 80531FE5 		ldr	r5, .L444+108
 5479 435c 033080E0 		add	r3, r0, r3
 5480 4360 0030C4E5 		strb	r3, [r4, #0]
 5481 4364 FEFFFFEB 		bl	uart1_transmit
 5482 4368 0030D5E5 		ldrb	r3, [r5, #0]	@ zero_extendqisi2
 5483 436c 0020D4E5 		ldrb	r2, [r4, #0]	@ zero_extendqisi2
 5484 4370 0300A0E1 		mov	r0, r3
 5485 4374 023083E0 		add	r3, r3, r2
 5486 4378 0030C4E5 		strb	r3, [r4, #0]
 5487 437c FEFFFFEB 		bl	uart1_transmit
 5488 4380 0130D5E5 		ldrb	r3, [r5, #1]	@ zero_extendqisi2
 5489 4384 0020D4E5 		ldrb	r2, [r4, #0]	@ zero_extendqisi2
 5490 4388 0300A0E1 		mov	r0, r3
 5491 438c 023083E0 		add	r3, r3, r2
 5492 4390 0030C4E5 		strb	r3, [r4, #0]
 5493 4394 FEFFFFEB 		bl	uart1_transmit
 5494 4398 0230D5E5 		ldrb	r3, [r5, #2]	@ zero_extendqisi2
 5495 439c 0020D4E5 		ldrb	r2, [r4, #0]	@ zero_extendqisi2
 5496 43a0 0300A0E1 		mov	r0, r3
 5497 43a4 023083E0 		add	r3, r3, r2
 5498 43a8 0030C4E5 		strb	r3, [r4, #0]
 5499 43ac FEFFFFEB 		bl	uart1_transmit
 5500 43b0 0330D5E5 		ldrb	r3, [r5, #3]	@ zero_extendqisi2
 5501 43b4 0020D4E5 		ldrb	r2, [r4, #0]	@ zero_extendqisi2
 5502 43b8 0300A0E1 		mov	r0, r3
 5503 43bc 023083E0 		add	r3, r3, r2
 5504 43c0 0030C4E5 		strb	r3, [r4, #0]
 5505 43c4 FEFFFFEB 		bl	uart1_transmit
 5506 43c8 0030D4E5 		ldrb	r3, [r4, #0]	@ zero_extendqisi2
 5507 43cc 0330E0E1 		mvn	r3, r3
 5508 43d0 0030C4E5 		strb	r3, [r4, #0]
 5509 43d4 0000D4E5 		ldrb	r0, [r4, #0]	@ zero_extendqisi2
 5510 43d8 FEFFFFEB 		bl	uart1_transmit
 5511              	.L302:
 5512 43dc 00241FE5 		ldr	r2, .L444+112
 5513 43e0 0030D2E5 		ldrb	r3, [r2, #0]	@ zero_extendqisi2
 5514 43e4 360053E3 		cmp	r3, #54
 5515 43e8 7811001A 		bne	.L306
 5516 43ec 1700A0E3 		mov	r0, #23
 5517 43f0 FEFFFFEB 		bl	uart1_check_free_space
 5518 43f4 FF0010E3 		tst	r0, #255
 5519 43f8 B8231F05 		ldreq	r2, .L444+212
 5520 43fc 0030D205 		ldreqb	r3, [r2, #0]	@ zero_extendqisi2
 5521 4400 01308302 		addeq	r3, r3, #1
 5522 4404 0030C205 		streqb	r3, [r2, #0]
 5523 4408 7811000A 		beq	.L306
 5524 440c B4131FE5 		ldr	r1, .L444+236
 5525 4410 CCC31FE5 		ldr	ip, .L444+216
 5526 4414 B030D1E1 		ldrh	r3, [r1, #0]
 5527 4418 B020DCE1 		ldrh	r2, [ip, #0]
 5528 441c 173083E2 		add	r3, r3, #23
 5529 4420 012082E2 		add	r2, r2, #1
 5530 4424 B030C1E1 		strh	r3, [r1, #0]	@ movhi 
 5531 4428 B020CCE1 		strh	r2, [ip, #0]	@ movhi 
 5532 442c 0060A0E3 		mov	r6, #0
 5533 4430 7E00A0E3 		mov	r0, #126
 5534 4434 EC431FE5 		ldr	r4, .L444+220
 5535 4438 FEFFFFEB 		bl	uart1_transmit
 5536 443c 0600A0E1 		mov	r0, r6
 5537 4440 0150A0E3 		mov	r5, #1
 5538 4444 FEFFFFEB 		bl	uart1_transmit
 5539 4448 1300A0E3 		mov	r0, #19
 5540 444c FEFFFFEB 		bl	uart1_transmit
 5541 4450 0500A0E1 		mov	r0, r5
 5542 4454 0050C4E5 		strb	r5, [r4, #0]
 5543 4458 FEFFFFEB 		bl	uart1_transmit
 5544 445c 0600A0E1 		mov	r0, r6
 5545 4460 FEFFFFEB 		bl	uart1_transmit
 5546 4464 0030D4E5 		ldrb	r3, [r4, #0]	@ zero_extendqisi2
 5547 4468 053083E0 		add	r3, r3, r5
 5548 446c 0030C4E5 		strb	r3, [r4, #0]
 5549 4470 0500A0E1 		mov	r0, r5
 5550 4474 FEFFFFEB 		bl	uart1_transmit
 5551 4478 0600A0E1 		mov	r0, r6
 5552 447c FEFFFFEB 		bl	uart1_transmit
 5553 4480 0600A0E1 		mov	r0, r6
 5554 4484 FEFFFFEB 		bl	uart1_transmit
 5555 4488 0030D4E5 		ldrb	r3, [r4, #0]	@ zero_extendqisi2
 5556 448c 0B3083E2 		add	r3, r3, #11
 5557 4490 0B00A0E3 		mov	r0, #11
 5558 4494 0030C4E5 		strb	r3, [r4, #0]
 5559 4498 FEFFFFEB 		bl	uart1_transmit
 5560 449c 0030D4E5 		ldrb	r3, [r4, #0]	@ zero_extendqisi2
 5561 44a0 C0541FE5 		ldr	r5, .L444+116
 5562 44a4 063083E2 		add	r3, r3, #6
 5563 44a8 0600A0E3 		mov	r0, #6
 5564 44ac 0030C4E5 		strb	r3, [r4, #0]
 5565 44b0 FEFFFFEB 		bl	uart1_transmit
 5566 44b4 0030D5E5 		ldrb	r3, [r5, #0]	@ zero_extendqisi2
 5567 44b8 0020D4E5 		ldrb	r2, [r4, #0]	@ zero_extendqisi2
 5568 44bc 0300A0E1 		mov	r0, r3
 5569 44c0 023083E0 		add	r3, r3, r2
 5570 44c4 0030C4E5 		strb	r3, [r4, #0]
 5571 44c8 FEFFFFEB 		bl	uart1_transmit
 5572 44cc 0130D5E5 		ldrb	r3, [r5, #1]	@ zero_extendqisi2
 5573 44d0 0020D4E5 		ldrb	r2, [r4, #0]	@ zero_extendqisi2
 5574 44d4 0300A0E1 		mov	r0, r3
 5575 44d8 023083E0 		add	r3, r3, r2
 5576 44dc 0030C4E5 		strb	r3, [r4, #0]
 5577 44e0 FEFFFFEB 		bl	uart1_transmit
 5578 44e4 0230D5E5 		ldrb	r3, [r5, #2]	@ zero_extendqisi2
 5579 44e8 0020D4E5 		ldrb	r2, [r4, #0]	@ zero_extendqisi2
 5580 44ec 0300A0E1 		mov	r0, r3
 5581 44f0 023083E0 		add	r3, r3, r2
 5582 44f4 0030C4E5 		strb	r3, [r4, #0]
 5583 44f8 FEFFFFEB 		bl	uart1_transmit
 5584 44fc 0300D5E5 		ldrb	r0, [r5, #3]	@ zero_extendqisi2
 5585 4500 0030D4E5 		ldrb	r3, [r4, #0]	@ zero_extendqisi2
 5586 4504 20551FE5 		ldr	r5, .L444+120
 5587 4508 033080E0 		add	r3, r0, r3
 5588 450c 0030C4E5 		strb	r3, [r4, #0]
 5589 4510 FEFFFFEB 		bl	uart1_transmit
 5590 4514 0030D5E5 		ldrb	r3, [r5, #0]	@ zero_extendqisi2
 5591 4518 0020D4E5 		ldrb	r2, [r4, #0]	@ zero_extendqisi2
 5592 451c 0300A0E1 		mov	r0, r3
 5593 4520 023083E0 		add	r3, r3, r2
 5594 4524 0030C4E5 		strb	r3, [r4, #0]
 5595 4528 FEFFFFEB 		bl	uart1_transmit
 5596 452c 0130D5E5 		ldrb	r3, [r5, #1]	@ zero_extendqisi2
 5597 4530 0020D4E5 		ldrb	r2, [r4, #0]	@ zero_extendqisi2
 5598 4534 0300A0E1 		mov	r0, r3
 5599 4538 023083E0 		add	r3, r3, r2
 5600 453c 0030C4E5 		strb	r3, [r4, #0]
 5601 4540 FEFFFFEB 		bl	uart1_transmit
 5602 4544 0230D5E5 		ldrb	r3, [r5, #2]	@ zero_extendqisi2
 5603 4548 0020D4E5 		ldrb	r2, [r4, #0]	@ zero_extendqisi2
 5604 454c 0300A0E1 		mov	r0, r3
 5605 4550 023083E0 		add	r3, r3, r2
 5606 4554 0030C4E5 		strb	r3, [r4, #0]
 5607 4558 FEFFFFEB 		bl	uart1_transmit
 5608 455c 0300D5E5 		ldrb	r0, [r5, #3]	@ zero_extendqisi2
 5609 4560 0030D4E5 		ldrb	r3, [r4, #0]	@ zero_extendqisi2
 5610 4564 7C551FE5 		ldr	r5, .L444+124
 5611 4568 033080E0 		add	r3, r0, r3
 5612 456c 0030C4E5 		strb	r3, [r4, #0]
 5613 4570 FEFFFFEB 		bl	uart1_transmit
 5614 4574 0030D5E5 		ldrb	r3, [r5, #0]	@ zero_extendqisi2
 5615 4578 0020D4E5 		ldrb	r2, [r4, #0]	@ zero_extendqisi2
 5616 457c 0300A0E1 		mov	r0, r3
 5617 4580 023083E0 		add	r3, r3, r2
 5618 4584 0030C4E5 		strb	r3, [r4, #0]
 5619 4588 FEFFFFEB 		bl	uart1_transmit
 5620 458c 0130D5E5 		ldrb	r3, [r5, #1]	@ zero_extendqisi2
 5621 4590 0020D4E5 		ldrb	r2, [r4, #0]	@ zero_extendqisi2
 5622 4594 0300A0E1 		mov	r0, r3
 5623 4598 023083E0 		add	r3, r3, r2
 5624 459c 0030C4E5 		strb	r3, [r4, #0]
 5625 45a0 FEFFFFEB 		bl	uart1_transmit
 5626 45a4 0230D5E5 		ldrb	r3, [r5, #2]	@ zero_extendqisi2
 5627 45a8 0020D4E5 		ldrb	r2, [r4, #0]	@ zero_extendqisi2
 5628 45ac 0300A0E1 		mov	r0, r3
 5629 45b0 023083E0 		add	r3, r3, r2
 5630 45b4 0030C4E5 		strb	r3, [r4, #0]
 5631 45b8 FEFFFFEB 		bl	uart1_transmit
 5632 45bc 0330D5E5 		ldrb	r3, [r5, #3]	@ zero_extendqisi2
 5633 45c0 0020D4E5 		ldrb	r2, [r4, #0]	@ zero_extendqisi2
 5634 45c4 0300A0E1 		mov	r0, r3
 5635 45c8 023083E0 		add	r3, r3, r2
 5636 45cc 0030C4E5 		strb	r3, [r4, #0]
 5637 45d0 FEFFFFEB 		bl	uart1_transmit
 5638 45d4 0030D4E5 		ldrb	r3, [r4, #0]	@ zero_extendqisi2
 5639 45d8 0330E0E1 		mvn	r3, r3
 5640 45dc 0030C4E5 		strb	r3, [r4, #0]
 5641 45e0 0000D4E5 		ldrb	r0, [r4, #0]	@ zero_extendqisi2
 5642 45e4 FEFFFFEB 		bl	uart1_transmit
 5643              	.L306:
 5644 45e8 FC051FE5 		ldr	r0, .L444+128
 5645 45ec 0030D0E5 		ldrb	r3, [r0, #0]	@ zero_extendqisi2
 5646 45f0 3C0053E3 		cmp	r3, #60
 5647 45f4 5B12001A 		bne	.L309
 5648 45f8 2700A0E3 		mov	r0, #39
 5649 45fc FEFFFFEB 		bl	uart1_check_free_space
 5650 4600 FF0010E3 		tst	r0, #255
 5651 4604 C4251F05 		ldreq	r2, .L444+212
 5652 4608 0030D205 		ldreqb	r3, [r2, #0]	@ zero_extendqisi2
 5653 460c 01308302 		addeq	r3, r3, #1
 5654 4610 0030C205 		streqb	r3, [r2, #0]
 5655 4614 5B12000A 		beq	.L309
 5656 4618 C0151FE5 		ldr	r1, .L444+236
 5657 461c D8C51FE5 		ldr	ip, .L444+216
 5658 4620 B030D1E1 		ldrh	r3, [r1, #0]
 5659 4624 B020DCE1 		ldrh	r2, [ip, #0]
 5660 4628 273083E2 		add	r3, r3, #39
 5661 462c 012082E2 		add	r2, r2, #1
 5662 4630 B030C1E1 		strh	r3, [r1, #0]	@ movhi 
 5663 4634 B020CCE1 		strh	r2, [ip, #0]	@ movhi 
 5664 4638 0060A0E3 		mov	r6, #0
 5665 463c 7E00A0E3 		mov	r0, #126
 5666 4640 F8451FE5 		ldr	r4, .L444+220
 5667 4644 FEFFFFEB 		bl	uart1_transmit
 5668 4648 0600A0E1 		mov	r0, r6
 5669 464c FEFFFFEB 		bl	uart1_transmit
 5670 4650 0150A0E3 		mov	r5, #1
 5671 4654 2300A0E3 		mov	r0, #35
 5672 4658 FEFFFFEB 		bl	uart1_transmit
 5673 465c 0500A0E1 		mov	r0, r5
 5674 4660 0050C4E5 		strb	r5, [r4, #0]
 5675 4664 FEFFFFEB 		bl	uart1_transmit
 5676 4668 0600A0E1 		mov	r0, r6
 5677 466c FEFFFFEB 		bl	uart1_transmit
 5678 4670 0030D4E5 		ldrb	r3, [r4, #0]	@ zero_extendqisi2
 5679 4674 053083E0 		add	r3, r3, r5
 5680 4678 0030C4E5 		strb	r3, [r4, #0]
 5681 467c 0500A0E1 		mov	r0, r5
 5682 4680 FEFFFFEB 		bl	uart1_transmit
 5683 4684 0600A0E1 		mov	r0, r6
 5684 4688 FEFFFFEB 		bl	uart1_transmit
 5685 468c 0600A0E1 		mov	r0, r6
 5686 4690 FEFFFFEB 		bl	uart1_transmit
 5687 4694 0030D4E5 		ldrb	r3, [r4, #0]	@ zero_extendqisi2
 5688 4698 0B3083E2 		add	r3, r3, #11
 5689 469c 0B00A0E3 		mov	r0, #11
 5690 46a0 0030C4E5 		strb	r3, [r4, #0]
 5691 46a4 FEFFFFEB 		bl	uart1_transmit
 5692 46a8 0030D4E5 		ldrb	r3, [r4, #0]	@ zero_extendqisi2
 5693 46ac BC561FE5 		ldr	r5, .L444+132
 5694 46b0 103083E2 		add	r3, r3, #16
 5695 46b4 1000A0E3 		mov	r0, #16
 5696 46b8 0030C4E5 		strb	r3, [r4, #0]
 5697 46bc FEFFFFEB 		bl	uart1_transmit
 5698 46c0 0030D5E5 		ldrb	r3, [r5, #0]	@ zero_extendqisi2
 5699 46c4 0020D4E5 		ldrb	r2, [r4, #0]	@ zero_extendqisi2
 5700 46c8 0300A0E1 		mov	r0, r3
 5701 46cc 023083E0 		add	r3, r3, r2
 5702 46d0 0030C4E5 		strb	r3, [r4, #0]
 5703 46d4 FEFFFFEB 		bl	uart1_transmit
 5704 46d8 0130D5E5 		ldrb	r3, [r5, #1]	@ zero_extendqisi2
 5705 46dc 0020D4E5 		ldrb	r2, [r4, #0]	@ zero_extendqisi2
 5706 46e0 0300A0E1 		mov	r0, r3
 5707 46e4 023083E0 		add	r3, r3, r2
 5708 46e8 0030C4E5 		strb	r3, [r4, #0]
 5709 46ec FEFFFFEB 		bl	uart1_transmit
 5710 46f0 0230D5E5 		ldrb	r3, [r5, #2]	@ zero_extendqisi2
 5711 46f4 0020D4E5 		ldrb	r2, [r4, #0]	@ zero_extendqisi2
 5712 46f8 0300A0E1 		mov	r0, r3
 5713 46fc 023083E0 		add	r3, r3, r2
 5714 4700 0030C4E5 		strb	r3, [r4, #0]
 5715 4704 FEFFFFEB 		bl	uart1_transmit
 5716 4708 0300D5E5 		ldrb	r0, [r5, #3]	@ zero_extendqisi2
 5717 470c 0030D4E5 		ldrb	r3, [r4, #0]	@ zero_extendqisi2
 5718 4710 1C571FE5 		ldr	r5, .L444+136
 5719 4714 033080E0 		add	r3, r0, r3
 5720 4718 0030C4E5 		strb	r3, [r4, #0]
 5721 471c FEFFFFEB 		bl	uart1_transmit
 5722 4720 0030D5E5 		ldrb	r3, [r5, #0]	@ zero_extendqisi2
 5723 4724 0020D4E5 		ldrb	r2, [r4, #0]	@ zero_extendqisi2
 5724 4728 0300A0E1 		mov	r0, r3
 5725 472c 023083E0 		add	r3, r3, r2
 5726 4730 0030C4E5 		strb	r3, [r4, #0]
 5727 4734 FEFFFFEB 		bl	uart1_transmit
 5728 4738 0130D5E5 		ldrb	r3, [r5, #1]	@ zero_extendqisi2
 5729 473c 0020D4E5 		ldrb	r2, [r4, #0]	@ zero_extendqisi2
 5730 4740 0300A0E1 		mov	r0, r3
 5731 4744 023083E0 		add	r3, r3, r2
 5732 4748 0030C4E5 		strb	r3, [r4, #0]
 5733 474c FEFFFFEB 		bl	uart1_transmit
 5734 4750 0230D5E5 		ldrb	r3, [r5, #2]	@ zero_extendqisi2
 5735 4754 0020D4E5 		ldrb	r2, [r4, #0]	@ zero_extendqisi2
 5736 4758 0300A0E1 		mov	r0, r3
 5737 475c 023083E0 		add	r3, r3, r2
 5738 4760 0030C4E5 		strb	r3, [r4, #0]
 5739 4764 FEFFFFEB 		bl	uart1_transmit
 5740 4768 0300D5E5 		ldrb	r0, [r5, #3]	@ zero_extendqisi2
 5741 476c 0030D4E5 		ldrb	r3, [r4, #0]	@ zero_extendqisi2
 5742 4770 78571FE5 		ldr	r5, .L444+140
 5743 4774 033080E0 		add	r3, r0, r3
 5744 4778 0030C4E5 		strb	r3, [r4, #0]
 5745 477c FEFFFFEB 		bl	uart1_transmit
 5746 4780 0030D5E5 		ldrb	r3, [r5, #0]	@ zero_extendqisi2
 5747 4784 0020D4E5 		ldrb	r2, [r4, #0]	@ zero_extendqisi2
 5748 4788 0300A0E1 		mov	r0, r3
 5749 478c 023083E0 		add	r3, r3, r2
 5750 4790 0030C4E5 		strb	r3, [r4, #0]
 5751 4794 FEFFFFEB 		bl	uart1_transmit
 5752 4798 0130D5E5 		ldrb	r3, [r5, #1]	@ zero_extendqisi2
 5753 479c 0020D4E5 		ldrb	r2, [r4, #0]	@ zero_extendqisi2
 5754 47a0 0300A0E1 		mov	r0, r3
 5755 47a4 023083E0 		add	r3, r3, r2
 5756 47a8 0030C4E5 		strb	r3, [r4, #0]
 5757 47ac FEFFFFEB 		bl	uart1_transmit
 5758 47b0 0230D5E5 		ldrb	r3, [r5, #2]	@ zero_extendqisi2
 5759 47b4 0020D4E5 		ldrb	r2, [r4, #0]	@ zero_extendqisi2
 5760 47b8 0300A0E1 		mov	r0, r3
 5761 47bc 023083E0 		add	r3, r3, r2
 5762 47c0 0030C4E5 		strb	r3, [r4, #0]
 5763 47c4 FEFFFFEB 		bl	uart1_transmit
 5764 47c8 0300D5E5 		ldrb	r0, [r5, #3]	@ zero_extendqisi2
 5765 47cc 0030D4E5 		ldrb	r3, [r4, #0]	@ zero_extendqisi2
 5766 47d0 D4571FE5 		ldr	r5, .L444+144
 5767 47d4 033080E0 		add	r3, r0, r3
 5768 47d8 0030C4E5 		strb	r3, [r4, #0]
 5769 47dc FEFFFFEB 		bl	uart1_transmit
 5770 47e0 0030D5E5 		ldrb	r3, [r5, #0]	@ zero_extendqisi2
 5771 47e4 0020D4E5 		ldrb	r2, [r4, #0]	@ zero_extendqisi2
 5772 47e8 0300A0E1 		mov	r0, r3
 5773 47ec 023083E0 		add	r3, r3, r2
 5774 47f0 0030C4E5 		strb	r3, [r4, #0]
 5775 47f4 FEFFFFEB 		bl	uart1_transmit
 5776 47f8 0130D5E5 		ldrb	r3, [r5, #1]	@ zero_extendqisi2
 5777 47fc 0020D4E5 		ldrb	r2, [r4, #0]	@ zero_extendqisi2
 5778 4800 0300A0E1 		mov	r0, r3
 5779 4804 023083E0 		add	r3, r3, r2
 5780 4808 0030C4E5 		strb	r3, [r4, #0]
 5781 480c FEFFFFEB 		bl	uart1_transmit
 5782 4810 0230D5E5 		ldrb	r3, [r5, #2]	@ zero_extendqisi2
 5783 4814 0020D4E5 		ldrb	r2, [r4, #0]	@ zero_extendqisi2
 5784 4818 0300A0E1 		mov	r0, r3
 5785 481c 023083E0 		add	r3, r3, r2
 5786 4820 0030C4E5 		strb	r3, [r4, #0]
 5787 4824 FEFFFFEB 		bl	uart1_transmit
 5788 4828 0300D5E5 		ldrb	r0, [r5, #3]	@ zero_extendqisi2
 5789 482c 0030D4E5 		ldrb	r3, [r4, #0]	@ zero_extendqisi2
 5790 4830 30581FE5 		ldr	r5, .L444+148
 5791 4834 033080E0 		add	r3, r0, r3
 5792 4838 0030C4E5 		strb	r3, [r4, #0]
 5793 483c FEFFFFEB 		bl	uart1_transmit
 5794 4840 0030D5E5 		ldrb	r3, [r5, #0]	@ zero_extendqisi2
 5795 4844 0020D4E5 		ldrb	r2, [r4, #0]	@ zero_extendqisi2
 5796 4848 0300A0E1 		mov	r0, r3
 5797 484c 023083E0 		add	r3, r3, r2
 5798 4850 0030C4E5 		strb	r3, [r4, #0]
 5799 4854 FEFFFFEB 		bl	uart1_transmit
 5800 4858 0130D5E5 		ldrb	r3, [r5, #1]	@ zero_extendqisi2
 5801 485c 0020D4E5 		ldrb	r2, [r4, #0]	@ zero_extendqisi2
 5802 4860 0300A0E1 		mov	r0, r3
 5803 4864 023083E0 		add	r3, r3, r2
 5804 4868 0030C4E5 		strb	r3, [r4, #0]
 5805 486c FEFFFFEB 		bl	uart1_transmit
 5806 4870 0230D5E5 		ldrb	r3, [r5, #2]	@ zero_extendqisi2
 5807 4874 0020D4E5 		ldrb	r2, [r4, #0]	@ zero_extendqisi2
 5808 4878 0300A0E1 		mov	r0, r3
 5809 487c 023083E0 		add	r3, r3, r2
 5810 4880 0030C4E5 		strb	r3, [r4, #0]
 5811 4884 FEFFFFEB 		bl	uart1_transmit
 5812 4888 0300D5E5 		ldrb	r0, [r5, #3]	@ zero_extendqisi2
 5813 488c 0030D4E5 		ldrb	r3, [r4, #0]	@ zero_extendqisi2
 5814 4890 8C581FE5 		ldr	r5, .L444+152
 5815 4894 033080E0 		add	r3, r0, r3
 5816 4898 0030C4E5 		strb	r3, [r4, #0]
 5817 489c FEFFFFEB 		bl	uart1_transmit
 5818 48a0 0030D5E5 		ldrb	r3, [r5, #0]	@ zero_extendqisi2
 5819 48a4 0020D4E5 		ldrb	r2, [r4, #0]	@ zero_extendqisi2
 5820 48a8 0300A0E1 		mov	r0, r3
 5821 48ac 023083E0 		add	r3, r3, r2
 5822 48b0 0030C4E5 		strb	r3, [r4, #0]
 5823 48b4 FEFFFFEB 		bl	uart1_transmit
 5824 48b8 0130D5E5 		ldrb	r3, [r5, #1]	@ zero_extendqisi2
 5825 48bc 0020D4E5 		ldrb	r2, [r4, #0]	@ zero_extendqisi2
 5826 48c0 0300A0E1 		mov	r0, r3
 5827 48c4 023083E0 		add	r3, r3, r2
 5828 48c8 0030C4E5 		strb	r3, [r4, #0]
 5829 48cc FEFFFFEB 		bl	uart1_transmit
 5830 48d0 0230D5E5 		ldrb	r3, [r5, #2]	@ zero_extendqisi2
 5831 48d4 0020D4E5 		ldrb	r2, [r4, #0]	@ zero_extendqisi2
 5832 48d8 0300A0E1 		mov	r0, r3
 5833 48dc 023083E0 		add	r3, r3, r2
 5834 48e0 0030C4E5 		strb	r3, [r4, #0]
 5835 48e4 FEFFFFEB 		bl	uart1_transmit
 5836 48e8 0300D5E5 		ldrb	r0, [r5, #3]	@ zero_extendqisi2
 5837 48ec 0030D4E5 		ldrb	r3, [r4, #0]	@ zero_extendqisi2
 5838 48f0 E8581FE5 		ldr	r5, .L444+156
 5839 48f4 033080E0 		add	r3, r0, r3
 5840 48f8 0030C4E5 		strb	r3, [r4, #0]
 5841 48fc FEFFFFEB 		bl	uart1_transmit
 5842 4900 0030D5E5 		ldrb	r3, [r5, #0]	@ zero_extendqisi2
 5843 4904 0020D4E5 		ldrb	r2, [r4, #0]	@ zero_extendqisi2
 5844 4908 0300A0E1 		mov	r0, r3
 5845 490c 023083E0 		add	r3, r3, r2
 5846 4910 0030C4E5 		strb	r3, [r4, #0]
 5847 4914 FEFFFFEB 		bl	uart1_transmit
 5848 4918 0130D5E5 		ldrb	r3, [r5, #1]	@ zero_extendqisi2
 5849 491c 0020D4E5 		ldrb	r2, [r4, #0]	@ zero_extendqisi2
 5850 4920 0300A0E1 		mov	r0, r3
 5851 4924 023083E0 		add	r3, r3, r2
 5852 4928 0030C4E5 		strb	r3, [r4, #0]
 5853 492c FEFFFFEB 		bl	uart1_transmit
 5854 4930 0230D5E5 		ldrb	r3, [r5, #2]	@ zero_extendqisi2
 5855 4934 0020D4E5 		ldrb	r2, [r4, #0]	@ zero_extendqisi2
 5856 4938 0300A0E1 		mov	r0, r3
 5857 493c 023083E0 		add	r3, r3, r2
 5858 4940 0030C4E5 		strb	r3, [r4, #0]
 5859 4944 FEFFFFEB 		bl	uart1_transmit
 5860 4948 0330D5E5 		ldrb	r3, [r5, #3]	@ zero_extendqisi2
 5861 494c 0020D4E5 		ldrb	r2, [r4, #0]	@ zero_extendqisi2
 5862 4950 0300A0E1 		mov	r0, r3
 5863 4954 023083E0 		add	r3, r3, r2
 5864 4958 0030C4E5 		strb	r3, [r4, #0]
 5865 495c FEFFFFEB 		bl	uart1_transmit
 5866 4960 0030D4E5 		ldrb	r3, [r4, #0]	@ zero_extendqisi2
 5867 4964 0330E0E1 		mvn	r3, r3
 5868 4968 0030C4E5 		strb	r3, [r4, #0]
 5869 496c 0000D4E5 		ldrb	r0, [r4, #0]	@ zero_extendqisi2
 5870 4970 FEFFFFEB 		bl	uart1_transmit
 5871              	.L309:
 5872 4974 68291FE5 		ldr	r2, .L444+160
 5873 4978 B030D2E1 		ldrh	r3, [r2, #0]
 5874 497c 420053E3 		cmp	r3, #66
 5875 4980 A112001A 		bne	.L312
 5876 4984 1C00A0E3 		mov	r0, #28
 5877 4988 FEFFFFEB 		bl	uart1_check_free_space
 5878 498c FF0010E3 		tst	r0, #255
 5879 4990 6E13000A 		beq	.L325
 5880 4994 3C191FE5 		ldr	r1, .L444+236
 5881 4998 54C91FE5 		ldr	ip, .L444+216
 5882 499c B030D1E1 		ldrh	r3, [r1, #0]
 5883 49a0 B020DCE1 		ldrh	r2, [ip, #0]
 5884 49a4 1C3083E2 		add	r3, r3, #28
 5885 49a8 012082E2 		add	r2, r2, #1
 5886 49ac B030C1E1 		strh	r3, [r1, #0]	@ movhi 
 5887 49b0 B020CCE1 		strh	r2, [ip, #0]	@ movhi 
 5888 49b4 0050A0E3 		mov	r5, #0
 5889 49b8 7E00A0E3 		mov	r0, #126
 5890 49bc 74691FE5 		ldr	r6, .L444+220
 5891 49c0 FEFFFFEB 		bl	uart1_transmit
 5892 49c4 0500A0E1 		mov	r0, r5
 5893 49c8 0140A0E3 		mov	r4, #1
 5894 49cc FEFFFFEB 		bl	uart1_transmit
 5895 49d0 1800A0E3 		mov	r0, #24
 5896 49d4 FEFFFFEB 		bl	uart1_transmit
 5897 49d8 0400A0E1 		mov	r0, r4
 5898 49dc 0040C6E5 		strb	r4, [r6, #0]
 5899 49e0 FEFFFFEB 		bl	uart1_transmit
 5900 49e4 0500A0E1 		mov	r0, r5
 5901 49e8 FEFFFFEB 		bl	uart1_transmit
 5902 49ec 0030D6E5 		ldrb	r3, [r6, #0]	@ zero_extendqisi2
 5903 49f0 043083E0 		add	r3, r3, r4
 5904 49f4 0030C6E5 		strb	r3, [r6, #0]
 5905 49f8 0400A0E1 		mov	r0, r4
 5906 49fc FEFFFFEB 		bl	uart1_transmit
 5907 4a00 0500A0E1 		mov	r0, r5
 5908 4a04 FEFFFFEB 		bl	uart1_transmit
 5909 4a08 0500A0E1 		mov	r0, r5
 5910 4a0c FEFFFFEB 		bl	uart1_transmit
 5911 4a10 0030D6E5 		ldrb	r3, [r6, #0]	@ zero_extendqisi2
 5912 4a14 0B3083E2 		add	r3, r3, #11
 5913 4a18 0B00A0E3 		mov	r0, #11
 5914 4a1c 0030C6E5 		strb	r3, [r6, #0]
 5915 4a20 FEFFFFEB 		bl	uart1_transmit
 5916 4a24 0030D6E5 		ldrb	r3, [r6, #0]	@ zero_extendqisi2
 5917 4a28 023083E2 		add	r3, r3, #2
 5918 4a2c 0200A0E3 		mov	r0, #2
 5919 4a30 0030C6E5 		strb	r3, [r6, #0]
 5920 4a34 FEFFFFEB 		bl	uart1_transmit
 5921 4a38 0030D6E5 		ldrb	r3, [r6, #0]	@ zero_extendqisi2
 5922 4a3c 103083E2 		add	r3, r3, #16
 5923 4a40 1000A0E3 		mov	r0, #16
 5924 4a44 0030C6E5 		strb	r3, [r6, #0]
 5925 4a48 FEFFFFEB 		bl	uart1_transmit
 5926              	.L317:
 5927 4a4c 3C3A1FE5 		ldr	r3, .L444+164
 5928 4a50 0020D6E5 		ldrb	r2, [r6, #0]	@ zero_extendqisi2
 5929 4a54 0330D5E7 		ldrb	r3, [r5, r3]	@ zero_extendqisi2
 5930 4a58 0300A0E1 		mov	r0, r3
 5931 4a5c 023083E0 		add	r3, r3, r2
 5932 4a60 0030C6E5 		strb	r3, [r6, #0]
 5933 4a64 FEFFFFEB 		bl	uart1_transmit
 5934 4a68 013085E2 		add	r3, r5, #1
 5935 4a6c FF5003E2 		and	r5, r3, #255
 5936 4a70 0F0055E3 		cmp	r5, #15
 5937 4a74 9112009A 		bls	.L317
 5938 4a78 0030D6E5 		ldrb	r3, [r6, #0]	@ zero_extendqisi2
 5939 4a7c 0330E0E1 		mvn	r3, r3
 5940 4a80 0030C6E5 		strb	r3, [r6, #0]
 5941 4a84 0000D6E5 		ldrb	r0, [r6, #0]	@ zero_extendqisi2
 5942 4a88 6C1300EA 		b	.L420
 5943              	.L312:
 5944 4a8c 480053E3 		cmp	r3, #72
 5945 4a90 F512001A 		bne	.L320
 5946 4a94 1100A0E3 		mov	r0, #17
 5947 4a98 FEFFFFEB 		bl	uart1_check_free_space
 5948 4a9c FF0010E3 		tst	r0, #255
 5949 4aa0 6E13000A 		beq	.L325
 5950 4aa4 4C1A1FE5 		ldr	r1, .L444+236
 5951 4aa8 64CA1FE5 		ldr	ip, .L444+216
 5952 4aac B030D1E1 		ldrh	r3, [r1, #0]
 5953 4ab0 B020DCE1 		ldrh	r2, [ip, #0]
 5954 4ab4 113083E2 		add	r3, r3, #17
 5955 4ab8 012082E2 		add	r2, r2, #1
 5956 4abc B030C1E1 		strh	r3, [r1, #0]	@ movhi 
 5957 4ac0 B020CCE1 		strh	r2, [ip, #0]	@ movhi 
 5958 4ac4 0060A0E3 		mov	r6, #0
 5959 4ac8 7E00A0E3 		mov	r0, #126
 5960 4acc 844A1FE5 		ldr	r4, .L444+220
 5961 4ad0 FEFFFFEB 		bl	uart1_transmit
 5962 4ad4 0600A0E1 		mov	r0, r6
 5963 4ad8 FEFFFFEB 		bl	uart1_transmit
 5964 4adc 0150A0E3 		mov	r5, #1
 5965 4ae0 0D00A0E3 		mov	r0, #13
 5966 4ae4 FEFFFFEB 		bl	uart1_transmit
 5967 4ae8 0500A0E1 		mov	r0, r5
 5968 4aec 0050C4E5 		strb	r5, [r4, #0]
 5969 4af0 FEFFFFEB 		bl	uart1_transmit
 5970 4af4 0600A0E1 		mov	r0, r6
 5971 4af8 FEFFFFEB 		bl	uart1_transmit
 5972 4afc 0030D4E5 		ldrb	r3, [r4, #0]	@ zero_extendqisi2
 5973 4b00 053083E0 		add	r3, r3, r5
 5974 4b04 0030C4E5 		strb	r3, [r4, #0]
 5975 4b08 0500A0E1 		mov	r0, r5
 5976 4b0c FEFFFFEB 		bl	uart1_transmit
 5977 4b10 0600A0E1 		mov	r0, r6
 5978 4b14 FEFFFFEB 		bl	uart1_transmit
 5979 4b18 0600A0E1 		mov	r0, r6
 5980 4b1c FEFFFFEB 		bl	uart1_transmit
 5981 4b20 0030D4E5 		ldrb	r3, [r4, #0]	@ zero_extendqisi2
 5982 4b24 0B3083E2 		add	r3, r3, #11
 5983 4b28 0B00A0E3 		mov	r0, #11
 5984 4b2c 0030C4E5 		strb	r3, [r4, #0]
 5985 4b30 FEFFFFEB 		bl	uart1_transmit
 5986 4b34 0030D4E5 		ldrb	r3, [r4, #0]	@ zero_extendqisi2
 5987 4b38 0B3083E2 		add	r3, r3, #11
 5988 4b3c 0B00A0E3 		mov	r0, #11
 5989 4b40 0030C4E5 		strb	r3, [r4, #0]
 5990 4b44 FEFFFFEB 		bl	uart1_transmit
 5991 4b48 343B1FE5 		ldr	r3, .L444+168
 5992 4b4c 0020D4E5 		ldrb	r2, [r4, #0]	@ zero_extendqisi2
 5993 4b50 0030D3E5 		ldrb	r3, [r3, #0]	@ zero_extendqisi2
 5994 4b54 0300A0E1 		mov	r0, r3
 5995 4b58 023083E0 		add	r3, r3, r2
 5996 4b5c 0030C4E5 		strb	r3, [r4, #0]
 5997 4b60 FEFFFFEB 		bl	uart1_transmit
 5998 4b64 4C3B1FE5 		ldr	r3, .L444+172
 5999 4b68 0020D4E5 		ldrb	r2, [r4, #0]	@ zero_extendqisi2
 6000 4b6c 0030D3E5 		ldrb	r3, [r3, #0]	@ zero_extendqisi2
 6001 4b70 0300A0E1 		mov	r0, r3
 6002 4b74 023083E0 		add	r3, r3, r2
 6003 4b78 0030C4E5 		strb	r3, [r4, #0]
 6004 4b7c FEFFFFEB 		bl	uart1_transmit
 6005 4b80 643B1FE5 		ldr	r3, .L444+176
 6006 4b84 0020D4E5 		ldrb	r2, [r4, #0]	@ zero_extendqisi2
 6007 4b88 0030D3E5 		ldrb	r3, [r3, #0]	@ zero_extendqisi2
 6008 4b8c 0300A0E1 		mov	r0, r3
 6009 4b90 023083E0 		add	r3, r3, r2
 6010 4b94 0030C4E5 		strb	r3, [r4, #0]
 6011 4b98 FEFFFFEB 		bl	uart1_transmit
 6012 4b9c 7C3B1FE5 		ldr	r3, .L444+180
 6013 4ba0 0020D4E5 		ldrb	r2, [r4, #0]	@ zero_extendqisi2
 6014 4ba4 0030D3E5 		ldrb	r3, [r3, #0]	@ zero_extendqisi2
 6015 4ba8 0300A0E1 		mov	r0, r3
 6016 4bac 023083E0 		add	r3, r3, r2
 6017 4bb0 0030C4E5 		strb	r3, [r4, #0]
 6018 4bb4 FEFFFFEB 		bl	uart1_transmit
 6019 4bb8 943B1FE5 		ldr	r3, .L444+184
 6020 4bbc 0020D4E5 		ldrb	r2, [r4, #0]	@ zero_extendqisi2
 6021 4bc0 0030D3E5 		ldrb	r3, [r3, #0]	@ zero_extendqisi2
 6022 4bc4 0300A0E1 		mov	r0, r3
 6023 4bc8 023083E0 		add	r3, r3, r2
 6024 4bcc 0030C4E5 		strb	r3, [r4, #0]
 6025 4bd0 FEFFFFEB 		bl	uart1_transmit
 6026 4bd4 AC3B1FE5 		ldr	r3, .L444+188
 6027 4bd8 621300EA 		b	.L419
 6028              	.L320:
 6029 4bdc 4E0053E3 		cmp	r3, #78
 6030 4be0 7213001A 		bne	.L319
 6031 4be4 1600A0E3 		mov	r0, #22
 6032 4be8 FEFFFFEB 		bl	uart1_check_free_space
 6033 4bec FF0010E3 		tst	r0, #255
 6034 4bf0 6E13000A 		beq	.L325
 6035 4bf4 9C1B1FE5 		ldr	r1, .L444+236
 6036 4bf8 B4CB1FE5 		ldr	ip, .L444+216
 6037 4bfc B030D1E1 		ldrh	r3, [r1, #0]
 6038 4c00 B020DCE1 		ldrh	r2, [ip, #0]
 6039 4c04 163083E2 		add	r3, r3, #22
 6040 4c08 012082E2 		add	r2, r2, #1
 6041 4c0c B030C1E1 		strh	r3, [r1, #0]	@ movhi 
 6042 4c10 B020CCE1 		strh	r2, [ip, #0]	@ movhi 
 6043 4c14 0060A0E3 		mov	r6, #0
 6044 4c18 7E00A0E3 		mov	r0, #126
 6045 4c1c D44B1FE5 		ldr	r4, .L444+220
 6046 4c20 FEFFFFEB 		bl	uart1_transmit
 6047 4c24 0600A0E1 		mov	r0, r6
 6048 4c28 0150A0E3 		mov	r5, #1
 6049 4c2c FEFFFFEB 		bl	uart1_transmit
 6050 4c30 1200A0E3 		mov	r0, #18
 6051 4c34 FEFFFFEB 		bl	uart1_transmit
 6052 4c38 0500A0E1 		mov	r0, r5
 6053 4c3c 0050C4E5 		strb	r5, [r4, #0]
 6054 4c40 FEFFFFEB 		bl	uart1_transmit
 6055 4c44 0600A0E1 		mov	r0, r6
 6056 4c48 FEFFFFEB 		bl	uart1_transmit
 6057 4c4c 0030D4E5 		ldrb	r3, [r4, #0]	@ zero_extendqisi2
 6058 4c50 053083E0 		add	r3, r3, r5
 6059 4c54 0030C4E5 		strb	r3, [r4, #0]
 6060 4c58 0500A0E1 		mov	r0, r5
 6061 4c5c FEFFFFEB 		bl	uart1_transmit
 6062 4c60 0600A0E1 		mov	r0, r6
 6063 4c64 FEFFFFEB 		bl	uart1_transmit
 6064 4c68 0600A0E1 		mov	r0, r6
 6065 4c6c FEFFFFEB 		bl	uart1_transmit
 6066 4c70 0030D4E5 		ldrb	r3, [r4, #0]	@ zero_extendqisi2
 6067 4c74 0B3083E2 		add	r3, r3, #11
 6068 4c78 0B00A0E3 		mov	r0, #11
 6069 4c7c 0030C4E5 		strb	r3, [r4, #0]
 6070 4c80 FEFFFFEB 		bl	uart1_transmit
 6071 4c84 0030D4E5 		ldrb	r3, [r4, #0]	@ zero_extendqisi2
 6072 4c88 5C5C1FE5 		ldr	r5, .L444+192
 6073 4c8c 113083E2 		add	r3, r3, #17
 6074 4c90 1100A0E3 		mov	r0, #17
 6075 4c94 0030C4E5 		strb	r3, [r4, #0]
 6076 4c98 FEFFFFEB 		bl	uart1_transmit
 6077 4c9c 0030D5E5 		ldrb	r3, [r5, #0]	@ zero_extendqisi2
 6078 4ca0 0020D4E5 		ldrb	r2, [r4, #0]	@ zero_extendqisi2
 6079 4ca4 0300A0E1 		mov	r0, r3
 6080 4ca8 023083E0 		add	r3, r3, r2
 6081 4cac 0030C4E5 		strb	r3, [r4, #0]
 6082 4cb0 FEFFFFEB 		bl	uart1_transmit
 6083 4cb4 0130D5E5 		ldrb	r3, [r5, #1]	@ zero_extendqisi2
 6084 4cb8 0020D4E5 		ldrb	r2, [r4, #0]	@ zero_extendqisi2
 6085 4cbc 0300A0E1 		mov	r0, r3
 6086 4cc0 023083E0 		add	r3, r3, r2
 6087 4cc4 0030C4E5 		strb	r3, [r4, #0]
 6088 4cc8 FEFFFFEB 		bl	uart1_transmit
 6089 4ccc 0230D5E5 		ldrb	r3, [r5, #2]	@ zero_extendqisi2
 6090 4cd0 0020D4E5 		ldrb	r2, [r4, #0]	@ zero_extendqisi2
 6091 4cd4 0300A0E1 		mov	r0, r3
 6092 4cd8 023083E0 		add	r3, r3, r2
 6093 4cdc 0030C4E5 		strb	r3, [r4, #0]
 6094 4ce0 FEFFFFEB 		bl	uart1_transmit
 6095 4ce4 0300D5E5 		ldrb	r0, [r5, #3]	@ zero_extendqisi2
 6096 4ce8 0030D4E5 		ldrb	r3, [r4, #0]	@ zero_extendqisi2
 6097 4cec BC5C1FE5 		ldr	r5, .L444+196
 6098 4cf0 033080E0 		add	r3, r0, r3
 6099 4cf4 0030C4E5 		strb	r3, [r4, #0]
 6100 4cf8 FEFFFFEB 		bl	uart1_transmit
 6101 4cfc 0030D5E5 		ldrb	r3, [r5, #0]	@ zero_extendqisi2
 6102 4d00 0020D4E5 		ldrb	r2, [r4, #0]	@ zero_extendqisi2
 6103 4d04 0300A0E1 		mov	r0, r3
 6104 4d08 023083E0 		add	r3, r3, r2
 6105 4d0c 0030C4E5 		strb	r3, [r4, #0]
 6106 4d10 FEFFFFEB 		bl	uart1_transmit
 6107 4d14 0130D5E5 		ldrb	r3, [r5, #1]	@ zero_extendqisi2
 6108 4d18 0020D4E5 		ldrb	r2, [r4, #0]	@ zero_extendqisi2
 6109 4d1c 0300A0E1 		mov	r0, r3
 6110 4d20 023083E0 		add	r3, r3, r2
 6111 4d24 0030C4E5 		strb	r3, [r4, #0]
 6112 4d28 FEFFFFEB 		bl	uart1_transmit
 6113 4d2c 0230D5E5 		ldrb	r3, [r5, #2]	@ zero_extendqisi2
 6114 4d30 0020D4E5 		ldrb	r2, [r4, #0]	@ zero_extendqisi2
 6115 4d34 0300A0E1 		mov	r0, r3
 6116 4d38 023083E0 		add	r3, r3, r2
 6117 4d3c 0030C4E5 		strb	r3, [r4, #0]
 6118 4d40 FEFFFFEB 		bl	uart1_transmit
 6119 4d44 0300D5E5 		ldrb	r0, [r5, #3]	@ zero_extendqisi2
 6120 4d48 0030D4E5 		ldrb	r3, [r4, #0]	@ zero_extendqisi2
 6121 4d4c 185D1FE5 		ldr	r5, .L444+200
 6122 4d50 033080E0 		add	r3, r0, r3
 6123 4d54 0030C4E5 		strb	r3, [r4, #0]
 6124 4d58 FEFFFFEB 		bl	uart1_transmit
 6125 4d5c 0030D5E5 		ldrb	r3, [r5, #0]	@ zero_extendqisi2
 6126 4d60 0020D4E5 		ldrb	r2, [r4, #0]	@ zero_extendqisi2
 6127 4d64 0300A0E1 		mov	r0, r3
 6128 4d68 023083E0 		add	r3, r3, r2
 6129 4d6c 0030C4E5 		strb	r3, [r4, #0]
 6130 4d70 FEFFFFEB 		bl	uart1_transmit
 6131 4d74 0130D5E5 		ldrb	r3, [r5, #1]	@ zero_extendqisi2
 6132 4d78 0020D4E5 		ldrb	r2, [r4, #0]	@ zero_extendqisi2
 6133 4d7c 0300A0E1 		mov	r0, r3
 6134 4d80 023083E0 		add	r3, r3, r2
 6135 4d84 0030C4E5 		strb	r3, [r4, #0]
 6136 4d88 FEFFFFEB 		bl	uart1_transmit
 6137 4d8c 543D1FE5 		ldr	r3, .L444+204
 6138              	.L419:
 6139 4d90 0030D3E5 		ldrb	r3, [r3, #0]	@ zero_extendqisi2
 6140 4d94 0020D4E5 		ldrb	r2, [r4, #0]	@ zero_extendqisi2
 6141 4d98 0300A0E1 		mov	r0, r3
 6142 4d9c 023083E0 		add	r3, r3, r2
 6143 4da0 0030C4E5 		strb	r3, [r4, #0]
 6144 4da4 FEFFFFEB 		bl	uart1_transmit
 6145 4da8 0030D4E5 		ldrb	r3, [r4, #0]	@ zero_extendqisi2
 6146 4dac 0330E0E1 		mvn	r3, r3
 6147 4db0 0030C4E5 		strb	r3, [r4, #0]
 6148 4db4 0000D4E5 		ldrb	r0, [r4, #0]	@ zero_extendqisi2
 6149              	.L420:
 6150 4db8 FEFFFFEB 		bl	uart1_transmit
 6151 4dbc 721300EA 		b	.L319
 6152              	.L325:
 6153 4dc0 802D1FE5 		ldr	r2, .L444+212
 6154 4dc4 0030D2E5 		ldrb	r3, [r2, #0]	@ zero_extendqisi2
 6155 4dc8 013083E2 		add	r3, r3, #1
 6156 4dcc 0030C2E5 		strb	r3, [r2, #0]
 6157              	.L319:
 6158 4dd0 940D1FE5 		ldr	r0, .L444+208
 6159 4dd4 B030D0E1 		ldrh	r3, [r0, #0]
 6160 4dd8 540053E3 		cmp	r3, #84
 6161 4ddc C313001A 		bne	.L327
 6162 4de0 1000A0E3 		mov	r0, #16
 6163 4de4 FEFFFFEB 		bl	uart1_check_free_space
 6164 4de8 FF0010E3 		tst	r0, #255
 6165 4dec AC2D1F05 		ldreq	r2, .L444+212
 6166 4df0 0030D205 		ldreqb	r3, [r2, #0]	@ zero_extendqisi2
 6167 4df4 01308302 		addeq	r3, r3, #1
 6168 4df8 0030C205 		streqb	r3, [r2, #0]
 6169 4dfc 2414000A 		beq	.L330
 6170 4e00 A81D1FE5 		ldr	r1, .L444+236
 6171 4e04 C0CD1FE5 		ldr	ip, .L444+216
 6172 4e08 B030D1E1 		ldrh	r3, [r1, #0]
 6173 4e0c B020DCE1 		ldrh	r2, [ip, #0]
 6174 4e10 103083E2 		add	r3, r3, #16
 6175 4e14 012082E2 		add	r2, r2, #1
 6176 4e18 B030C1E1 		strh	r3, [r1, #0]	@ movhi 
 6177 4e1c B020CCE1 		strh	r2, [ip, #0]	@ movhi 
 6178 4e20 0060A0E3 		mov	r6, #0
 6179 4e24 7E00A0E3 		mov	r0, #126
 6180 4e28 E04D1FE5 		ldr	r4, .L444+220
 6181 4e2c FEFFFFEB 		bl	uart1_transmit
 6182 4e30 0600A0E1 		mov	r0, r6
 6183 4e34 0150A0E3 		mov	r5, #1
 6184 4e38 FEFFFFEB 		bl	uart1_transmit
 6185 4e3c 0C00A0E3 		mov	r0, #12
 6186 4e40 FEFFFFEB 		bl	uart1_transmit
 6187 4e44 0500A0E1 		mov	r0, r5
 6188 4e48 0050C4E5 		strb	r5, [r4, #0]
 6189 4e4c FEFFFFEB 		bl	uart1_transmit
 6190 4e50 0600A0E1 		mov	r0, r6
 6191 4e54 FEFFFFEB 		bl	uart1_transmit
 6192 4e58 0030D4E5 		ldrb	r3, [r4, #0]	@ zero_extendqisi2
 6193 4e5c 053083E0 		add	r3, r3, r5
 6194 4e60 0030C4E5 		strb	r3, [r4, #0]
 6195 4e64 0500A0E1 		mov	r0, r5
 6196 4e68 FEFFFFEB 		bl	uart1_transmit
 6197 4e6c 0600A0E1 		mov	r0, r6
 6198 4e70 FEFFFFEB 		bl	uart1_transmit
 6199 4e74 0600A0E1 		mov	r0, r6
 6200 4e78 FEFFFFEB 		bl	uart1_transmit
 6201 4e7c 0030D4E5 		ldrb	r3, [r4, #0]	@ zero_extendqisi2
 6202 4e80 0B3083E2 		add	r3, r3, #11
 6203 4e84 0B00A0E3 		mov	r0, #11
 6204 4e88 0030C4E5 		strb	r3, [r4, #0]
 6205 4e8c FEFFFFEB 		bl	uart1_transmit
 6206 4e90 0030D4E5 		ldrb	r3, [r4, #0]	@ zero_extendqisi2
 6207 4e94 485E1FE5 		ldr	r5, .L444+224
 6208 4e98 0E3083E2 		add	r3, r3, #14
 6209 4e9c 0E00A0E3 		mov	r0, #14
 6210 4ea0 0030C4E5 		strb	r3, [r4, #0]
 6211 4ea4 FEFFFFEB 		bl	uart1_transmit
 6212 4ea8 0030D5E5 		ldrb	r3, [r5, #0]	@ zero_extendqisi2
 6213 4eac 0020D4E5 		ldrb	r2, [r4, #0]	@ zero_extendqisi2
 6214 4eb0 0300A0E1 		mov	r0, r3
 6215 4eb4 023083E0 		add	r3, r3, r2
 6216 4eb8 0030C4E5 		strb	r3, [r4, #0]
 6217 4ebc FEFFFFEB 		bl	uart1_transmit
 6218 4ec0 0130D5E5 		ldrb	r3, [r5, #1]	@ zero_extendqisi2
 6219 4ec4 0020D4E5 		ldrb	r2, [r4, #0]	@ zero_extendqisi2
 6220 4ec8 0300A0E1 		mov	r0, r3
 6221 4ecc 023083E0 		add	r3, r3, r2
 6222 4ed0 0030C4E5 		strb	r3, [r4, #0]
 6223 4ed4 FEFFFFEB 		bl	uart1_transmit
 6224 4ed8 0230D5E5 		ldrb	r3, [r5, #2]	@ zero_extendqisi2
 6225 4edc 0020D4E5 		ldrb	r2, [r4, #0]	@ zero_extendqisi2
 6226 4ee0 0300A0E1 		mov	r0, r3
 6227 4ee4 023083E0 		add	r3, r3, r2
 6228 4ee8 0030C4E5 		strb	r3, [r4, #0]
 6229 4eec FEFFFFEB 		bl	uart1_transmit
 6230 4ef0 0330D5E5 		ldrb	r3, [r5, #3]	@ zero_extendqisi2
 6231 4ef4 0020D4E5 		ldrb	r2, [r4, #0]	@ zero_extendqisi2
 6232 4ef8 0300A0E1 		mov	r0, r3
 6233 4efc 023083E0 		add	r3, r3, r2
 6234 4f00 0030C4E5 		strb	r3, [r4, #0]
 6235 4f04 FEFFFFEB 		bl	uart1_transmit
 6236 4f08 B83E1FE5 		ldr	r3, .L444+228
 6237 4f0c 0030D3E5 		ldrb	r3, [r3, #0]	@ zero_extendqisi2
 6238 4f10 1A1400EA 		b	.L421
 6239              	.L327:
 6240 4f14 5A0053E3 		cmp	r3, #90
 6241 4f18 2414001A 		bne	.L330
 6242 4f1c C84E1FE5 		ldr	r4, .L444+232
 6243 4f20 C88E1FE5 		ldr	r8, .L444+236
 6244 4f24 B000D4E1 		ldrh	r0, [r4, #0]
 6245 4f28 B050D8E1 		ldrh	r5, [r8, #0]
 6246 4f2c 050060E0 		rsb	r0, r0, r5
 6247 4f30 FEFFFFEB 		bl	__floatsidf
 6248 4f34 FD2F8FE2 		adr	r2, .L447
 6249 4f38 0C0092E8 		ldmia	r2, {r2-r3}
 6250 4f3c FEFFFFEB 		bl	__divdf3
 6251 4f40 FEFFFFEB 		bl	__fixunsdfsi
 6252 4f44 BA034BE1 		strh	r0, [fp, #-58]	@ movhi 
 6253 4f48 1000A0E3 		mov	r0, #16
 6254 4f4c B050C4E1 		strh	r5, [r4, #0]	@ movhi 
 6255 4f50 FEFFFFEB 		bl	uart1_check_free_space
 6256 4f54 4C949FE5 		ldr	r9, .L447+120
 6257 4f58 FF0010E3 		tst	r0, #255
 6258 4f5c 0030D905 		ldreqb	r3, [r9, #0]	@ zero_extendqisi2
 6259 4f60 01308302 		addeq	r3, r3, #1
 6260 4f64 0030C905 		streqb	r3, [r9, #0]
 6261 4f68 2414000A 		beq	.L330
 6262 4f6c 38749FE5 		ldr	r7, .L447+124
 6263 4f70 B030D8E1 		ldrh	r3, [r8, #0]
 6264 4f74 B020D7E1 		ldrh	r2, [r7, #0]
 6265 4f78 103083E2 		add	r3, r3, #16
 6266 4f7c 012082E2 		add	r2, r2, #1
 6267 4f80 B020C7E1 		strh	r2, [r7, #0]	@ movhi 
 6268 4f84 B030C8E1 		strh	r3, [r8, #0]	@ movhi 
 6269 4f88 0060A0E3 		mov	r6, #0
 6270 4f8c 7E00A0E3 		mov	r0, #126
 6271 4f90 18449FE5 		ldr	r4, .L447+128
 6272 4f94 FEFFFFEB 		bl	uart1_transmit
 6273 4f98 0600A0E1 		mov	r0, r6
 6274 4f9c FEFFFFEB 		bl	uart1_transmit
 6275 4fa0 0150A0E3 		mov	r5, #1
 6276 4fa4 0C00A0E3 		mov	r0, #12
 6277 4fa8 FEFFFFEB 		bl	uart1_transmit
 6278 4fac 0500A0E1 		mov	r0, r5
 6279 4fb0 0050C4E5 		strb	r5, [r4, #0]
 6280 4fb4 FEFFFFEB 		bl	uart1_transmit
 6281 4fb8 0600A0E1 		mov	r0, r6
 6282 4fbc FEFFFFEB 		bl	uart1_transmit
 6283 4fc0 0030D4E5 		ldrb	r3, [r4, #0]	@ zero_extendqisi2
 6284 4fc4 053083E0 		add	r3, r3, r5
 6285 4fc8 0030C4E5 		strb	r3, [r4, #0]
 6286 4fcc 0500A0E1 		mov	r0, r5
 6287 4fd0 FEFFFFEB 		bl	uart1_transmit
 6288 4fd4 0600A0E1 		mov	r0, r6
 6289 4fd8 FEFFFFEB 		bl	uart1_transmit
 6290 4fdc 0600A0E1 		mov	r0, r6
 6291 4fe0 FEFFFFEB 		bl	uart1_transmit
 6292 4fe4 0030D4E5 		ldrb	r3, [r4, #0]	@ zero_extendqisi2
 6293 4fe8 0B3083E2 		add	r3, r3, #11
 6294 4fec 0B00A0E3 		mov	r0, #11
 6295 4ff0 0030C4E5 		strb	r3, [r4, #0]
 6296 4ff4 FEFFFFEB 		bl	uart1_transmit
 6297 4ff8 0030D4E5 		ldrb	r3, [r4, #0]	@ zero_extendqisi2
 6298 4ffc 1E3083E2 		add	r3, r3, #30
 6299 5000 1E00A0E3 		mov	r0, #30
 6300 5004 0030C4E5 		strb	r3, [r4, #0]
 6301 5008 FEFFFFEB 		bl	uart1_transmit
 6302 500c 0030D9E5 		ldrb	r3, [r9, #0]	@ zero_extendqisi2
 6303 5010 0020D4E5 		ldrb	r2, [r4, #0]	@ zero_extendqisi2
 6304 5014 0300A0E1 		mov	r0, r3
 6305 5018 023083E0 		add	r3, r3, r2
 6306 501c 0030C4E5 		strb	r3, [r4, #0]
 6307 5020 FEFFFFEB 		bl	uart1_transmit
 6308 5024 3A305BE5 		ldrb	r3, [fp, #-58]	@ zero_extendqisi2
 6309 5028 0020D4E5 		ldrb	r2, [r4, #0]	@ zero_extendqisi2
 6310 502c 0300A0E1 		mov	r0, r3
 6311 5030 023083E0 		add	r3, r3, r2
 6312 5034 0030C4E5 		strb	r3, [r4, #0]
 6313 5038 FEFFFFEB 		bl	uart1_transmit
 6314 503c 39305BE5 		ldrb	r3, [fp, #-57]	@ zero_extendqisi2
 6315 5040 0020D4E5 		ldrb	r2, [r4, #0]	@ zero_extendqisi2
 6316 5044 0300A0E1 		mov	r0, r3
 6317 5048 023083E0 		add	r3, r3, r2
 6318 504c 0030C4E5 		strb	r3, [r4, #0]
 6319 5050 FEFFFFEB 		bl	uart1_transmit
 6320 5054 0030D7E5 		ldrb	r3, [r7, #0]	@ zero_extendqisi2
 6321 5058 0020D4E5 		ldrb	r2, [r4, #0]	@ zero_extendqisi2
 6322 505c 0300A0E1 		mov	r0, r3
 6323 5060 023083E0 		add	r3, r3, r2
 6324 5064 0030C4E5 		strb	r3, [r4, #0]
 6325 5068 FEFFFFEB 		bl	uart1_transmit
 6326 506c 0130D7E5 		ldrb	r3, [r7, #1]	@ zero_extendqisi2
 6327              	.L421:
 6328 5070 0020D4E5 		ldrb	r2, [r4, #0]	@ zero_extendqisi2
 6329 5074 0300A0E1 		mov	r0, r3
 6330 5078 023083E0 		add	r3, r3, r2
 6331 507c 0030C4E5 		strb	r3, [r4, #0]
 6332 5080 FEFFFFEB 		bl	uart1_transmit
 6333 5084 0030D4E5 		ldrb	r3, [r4, #0]	@ zero_extendqisi2
 6334 5088 0330E0E1 		mvn	r3, r3
 6335 508c 0030C4E5 		strb	r3, [r4, #0]
 6336 5090 0000D4E5 		ldrb	r0, [r4, #0]	@ zero_extendqisi2
 6337 5094 FEFFFFEB 		bl	uart1_transmit
 6338              	.L330:
 6339 5098 98229FE5 		ldr	r2, .L447+8
 6340 509c B030D2E1 		ldrh	r3, [r2, #0]
 6341 50a0 660053E3 		cmp	r3, #102
 6342 50a4 9614001A 		bne	.L200
 6343 50a8 1400A0E3 		mov	r0, #20
 6344 50ac FEFFFFEB 		bl	uart1_check_free_space
 6345 50b0 FF0010E3 		tst	r0, #255
 6346 50b4 EC229F05 		ldreq	r2, .L447+120
 6347 50b8 0030D205 		ldreqb	r3, [r2, #0]	@ zero_extendqisi2
 6348 50bc 01308302 		addeq	r3, r3, #1
 6349 50c0 0030C205 		streqb	r3, [r2, #0]
 6350 50c4 9614000A 		beq	.L200
 6351 50c8 04139FE5 		ldr	r1, .L447+164
 6352 50cc D8C29FE5 		ldr	ip, .L447+124
 6353 50d0 B030D1E1 		ldrh	r3, [r1, #0]
 6354 50d4 B020DCE1 		ldrh	r2, [ip, #0]
 6355 50d8 143083E2 		add	r3, r3, #20
 6356 50dc 012082E2 		add	r2, r2, #1
 6357 50e0 B030C1E1 		strh	r3, [r1, #0]	@ movhi 
 6358 50e4 B020CCE1 		strh	r2, [ip, #0]	@ movhi 
 6359 50e8 0060A0E3 		mov	r6, #0
 6360 50ec 7E00A0E3 		mov	r0, #126
 6361 50f0 B8429FE5 		ldr	r4, .L447+128
 6362 50f4 FEFFFFEB 		bl	uart1_transmit
 6363 50f8 0600A0E1 		mov	r0, r6
 6364 50fc 0150A0E3 		mov	r5, #1
 6365 5100 FEFFFFEB 		bl	uart1_transmit
 6366 5104 1000A0E3 		mov	r0, #16
 6367 5108 FEFFFFEB 		bl	uart1_transmit
 6368 510c 0500A0E1 		mov	r0, r5
 6369 5110 0050C4E5 		strb	r5, [r4, #0]
 6370 5114 FEFFFFEB 		bl	uart1_transmit
 6371 5118 0600A0E1 		mov	r0, r6
 6372 511c FEFFFFEB 		bl	uart1_transmit
 6373 5120 0030D4E5 		ldrb	r3, [r4, #0]	@ zero_extendqisi2
 6374 5124 053083E0 		add	r3, r3, r5
 6375 5128 0030C4E5 		strb	r3, [r4, #0]
 6376 512c 0500A0E1 		mov	r0, r5
 6377 5130 FEFFFFEB 		bl	uart1_transmit
 6378 5134 0600A0E1 		mov	r0, r6
 6379 5138 FEFFFFEB 		bl	uart1_transmit
 6380 513c 0600A0E1 		mov	r0, r6
 6381 5140 FEFFFFEB 		bl	uart1_transmit
 6382 5144 0030D4E5 		ldrb	r3, [r4, #0]	@ zero_extendqisi2
 6383 5148 0B3083E2 		add	r3, r3, #11
 6384 514c 0B00A0E3 		mov	r0, #11
 6385 5150 0030C4E5 		strb	r3, [r4, #0]
 6386 5154 FEFFFFEB 		bl	uart1_transmit
 6387 5158 0030D4E5 		ldrb	r3, [r4, #0]	@ zero_extendqisi2
 6388 515c D8519FE5 		ldr	r5, .L447+12
 6389 5160 093083E2 		add	r3, r3, #9
 6390 5164 0900A0E3 		mov	r0, #9
 6391 5168 0030C4E5 		strb	r3, [r4, #0]
 6392 516c FEFFFFEB 		bl	uart1_transmit
 6393 5170 0030D5E5 		ldrb	r3, [r5, #0]	@ zero_extendqisi2
 6394 5174 0020D4E5 		ldrb	r2, [r4, #0]	@ zero_extendqisi2
 6395 5178 0300A0E1 		mov	r0, r3
 6396 517c 023083E0 		add	r3, r3, r2
 6397 5180 0030C4E5 		strb	r3, [r4, #0]
 6398 5184 FEFFFFEB 		bl	uart1_transmit
 6399 5188 0130D5E5 		ldrb	r3, [r5, #1]	@ zero_extendqisi2
 6400 518c 0020D4E5 		ldrb	r2, [r4, #0]	@ zero_extendqisi2
 6401 5190 0300A0E1 		mov	r0, r3
 6402 5194 023083E0 		add	r3, r3, r2
 6403 5198 0030C4E5 		strb	r3, [r4, #0]
 6404 519c FEFFFFEB 		bl	uart1_transmit
 6405 51a0 0230D5E5 		ldrb	r3, [r5, #2]	@ zero_extendqisi2
 6406 51a4 0020D4E5 		ldrb	r2, [r4, #0]	@ zero_extendqisi2
 6407 51a8 0300A0E1 		mov	r0, r3
 6408 51ac 023083E0 		add	r3, r3, r2
 6409 51b0 0030C4E5 		strb	r3, [r4, #0]
 6410 51b4 FEFFFFEB 		bl	uart1_transmit
 6411 51b8 0300D5E5 		ldrb	r0, [r5, #3]	@ zero_extendqisi2
 6412 51bc 0030D4E5 		ldrb	r3, [r4, #0]	@ zero_extendqisi2
 6413 51c0 78519FE5 		ldr	r5, .L447+16
 6414 51c4 033080E0 		add	r3, r0, r3
 6415 51c8 0030C4E5 		strb	r3, [r4, #0]
 6416 51cc FEFFFFEB 		bl	uart1_transmit
 6417 51d0 0030D5E5 		ldrb	r3, [r5, #0]	@ zero_extendqisi2
 6418 51d4 0020D4E5 		ldrb	r2, [r4, #0]	@ zero_extendqisi2
 6419 51d8 0300A0E1 		mov	r0, r3
 6420 51dc 023083E0 		add	r3, r3, r2
 6421 51e0 0030C4E5 		strb	r3, [r4, #0]
 6422 51e4 FEFFFFEB 		bl	uart1_transmit
 6423 51e8 0130D5E5 		ldrb	r3, [r5, #1]	@ zero_extendqisi2
 6424 51ec 0020D4E5 		ldrb	r2, [r4, #0]	@ zero_extendqisi2
 6425 51f0 0300A0E1 		mov	r0, r3
 6426 51f4 023083E0 		add	r3, r3, r2
 6427 51f8 0030C4E5 		strb	r3, [r4, #0]
 6428 51fc FEFFFFEB 		bl	uart1_transmit
 6429 5200 0230D5E5 		ldrb	r3, [r5, #2]	@ zero_extendqisi2
 6430 5204 0020D4E5 		ldrb	r2, [r4, #0]	@ zero_extendqisi2
 6431 5208 0300A0E1 		mov	r0, r3
 6432 520c 023083E0 		add	r3, r3, r2
 6433 5210 0030C4E5 		strb	r3, [r4, #0]
 6434 5214 FEFFFFEB 		bl	uart1_transmit
 6435 5218 0330D5E5 		ldrb	r3, [r5, #3]	@ zero_extendqisi2
 6436 521c 0020D4E5 		ldrb	r2, [r4, #0]	@ zero_extendqisi2
 6437 5220 0300A0E1 		mov	r0, r3
 6438 5224 023083E0 		add	r3, r3, r2
 6439 5228 0030C4E5 		strb	r3, [r4, #0]
 6440 522c FEFFFFEB 		bl	uart1_transmit
 6441 5230 0C319FE5 		ldr	r3, .L447+20
 6442 5234 0020D4E5 		ldrb	r2, [r4, #0]	@ zero_extendqisi2
 6443 5238 0030D3E5 		ldrb	r3, [r3, #0]	@ zero_extendqisi2
 6444 523c 0300A0E1 		mov	r0, r3
 6445 5240 023083E0 		add	r3, r3, r2
 6446 5244 0030C4E5 		strb	r3, [r4, #0]
 6447 5248 FEFFFFEB 		bl	uart1_transmit
 6448 524c 0030D4E5 		ldrb	r3, [r4, #0]	@ zero_extendqisi2
 6449 5250 0330E0E1 		mvn	r3, r3
 6450 5254 0030C4E5 		strb	r3, [r4, #0]
 6451 5258 0000D4E5 		ldrb	r0, [r4, #0]	@ zero_extendqisi2
 6452 525c FEFFFFEB 		bl	uart1_transmit
 6453              	.L200:
 6454 5260 E0309FE5 		ldr	r3, .L447+24
 6455 5264 0090D3E5 		ldrb	r9, [r3, #0]	@ zero_extendqisi2
 6456 5268 020059E3 		cmp	r9, #2
 6457 526c EE18001A 		bne	.L374
 6458 5270 D4009FE5 		ldr	r0, .L447+28
 6459 5274 B030D0E1 		ldrh	r3, [r0, #0]
 6460 5278 013083E2 		add	r3, r3, #1
 6461 527c B030C0E1 		strh	r3, [r0, #0]	@ movhi 
 6462 5280 B030D0E1 		ldrh	r3, [r0, #0]
 6463 5284 C4809FE5 		ldr	r8, .L447+32
 6464 5288 4B0F53E3 		cmp	r3, #300
 6465 528c 0030A023 		movcs	r3, #0	@ movhi
 6466 5290 B030C021 		strcsh	r3, [r0, #0]	@ movhi 
 6467 5294 B030D8E1 		ldrh	r3, [r8, #0]
 6468 5298 013083E2 		add	r3, r3, #1
 6469 529c B030C8E1 		strh	r3, [r8, #0]	@ movhi 
 6470 52a0 AC709FE5 		ldr	r7, .L447+36
 6471 52a4 B020D8E1 		ldrh	r2, [r8, #0]
 6472 52a8 A8309FE5 		ldr	r3, .L447+40
 6473 52ac 030052E1 		cmp	r2, r3
 6474 52b0 B030D7E1 		ldrh	r3, [r7, #0]
 6475 52b4 013083E2 		add	r3, r3, #1
 6476 52b8 B030C7E1 		strh	r3, [r7, #0]	@ movhi 
 6477 52bc 0020A083 		movhi	r2, #0	@ movhi
 6478 52c0 94309FE5 		ldr	r3, .L447+44
 6479 52c4 B020C881 		strhih	r2, [r8, #0]	@ movhi 
 6480 52c8 B020D7E1 		ldrh	r2, [r7, #0]
 6481 52cc 8CA09FE5 		ldr	sl, .L447+48
 6482 52d0 030052E1 		cmp	r2, r3
 6483 52d4 0030A083 		movhi	r3, #0	@ movhi
 6484 52d8 B030C781 		strhih	r3, [r7, #0]	@ movhi 
 6485 52dc B030DAE1 		ldrh	r3, [sl, #0]
 6486 52e0 013083E2 		add	r3, r3, #1
 6487 52e4 B030CAE1 		strh	r3, [sl, #0]	@ movhi 
 6488 52e8 B030DAE1 		ldrh	r3, [sl, #0]
 6489 52ec 510F53E3 		cmp	r3, #324
 6490 52f0 0020A023 		movcs	r2, #0	@ movhi
 6491 52f4 B020CA21 		strcsh	r2, [sl, #0]	@ movhi 
 6492 52f8 A4209FE5 		ldr	r2, .L447+116
 6493 52fc B030D2E1 		ldrh	r3, [r2, #0]
 6494 5300 013083E2 		add	r3, r3, #1
 6495 5304 B030C2E1 		strh	r3, [r2, #0]	@ movhi 
 6496 5308 54309FE5 		ldr	r3, .L447+52
 6497 530c B020D2E1 		ldrh	r2, [r2, #0]
 6498 5310 030052E1 		cmp	r2, r3
 6499 5314 88309F85 		ldrhi	r3, .L447+116
 6500 5318 0020A083 		movhi	r2, #0	@ movhi
 6501 531c B020C381 		strhih	r2, [r3, #0]	@ movhi 
 6502 5320 A4209FE5 		ldr	r2, .L447+156
 6503 5324 B030D2E1 		ldrh	r3, [r2, #0]
 6504 5328 013083E2 		add	r3, r3, #1
 6505 532c F61400EA 		b	.L448
 6506              	.L449:
 6507              		.align	2
 6508              	.L447:
 6509 5330 66661440 		.word	1075078758
 6510 5334 66666666 		.word	1717986918
 6511 5338 00000000 		.word	i540.40
 6512 533c 00000000 		.word	nav_utm_east0
 6513 5340 00000000 		.word	nav_utm_north0
 6514 5344 00000000 		.word	nav_utm_zone0
 6515 5348 00000000 		.word	telemetry_mode_Ap_DefaultChannel
 6516 534c 00000000 		.word	i300.45
 6517 5350 00000000 		.word	i306.46
 6518 5354 00000000 		.word	i318.47
 6519 5358 31010000 		.word	305
 6520 535c 3D010000 		.word	317
 6521 5360 00000000 		.word	i324.48
 6522 5364 49010000 		.word	329
 6523 5368 55010000 		.word	341
 6524 536c 5D020000 		.word	605
 6525 5370 00000000 		.word	i606.51
 6526 5374 00000000 		.word	i612.52
 6527 5378 00000000 		.word	.LC0
 6528 537c 00000000 		.word	estimator_z
 6529 5380 00000000 		.word	estimator_z_dot
 6530 5384 00000000 		.word	nav_circle_radians
 6531 5388 00000000 		.word	nav_block
 6532 538c 00000000 		.word	nav_stage
 6533 5390 00000000 		.word	estimator_x
 6534 5394 00000000 		.word	estimator_y
 6535 5398 00000000 		.word	dist2_to_wp
 6536 539c 00000000 		.word	dist2_to_home
 6537 53a0 00000000 		.word	nav_oval_count
 6538 53a4 00000000 		.word	i330.49
 6539 53a8 00000000 		.word	downlink_nb_ovrn
 6540 53ac 00000000 		.word	downlink_nb_msgs
 6541 53b0 00000000 		.word	xbee_cs
 6542 53b4 00000000 		.word	pprz_mode
 6543 53b8 00000000 		.word	v_ctl_mode
 6544 53bc 00000000 		.word	lateral_mode
 6545 53c0 00000000 		.word	horizontal_mode
 6546 53c4 00000000 		.word	rc_settings_mode
 6547 53c8 00000000 		.word	mcu1_status
 6548 53cc 00000000 		.word	i342.50
 6549 53d0 00000000 		.word	last.53
 6550 53d4 00000000 		.word	downlink_nb_bytes
 6551 53d8 FB211940 		.word	1075388923
 6552 53dc 182D4454 		.word	1413754136
 6553              	.L448:
 6554 53e0 B030C2E1 		strh	r3, [r2, #0]	@ movhi 
 6555 53e4 84301FE5 		ldr	r3, .L447+56
 6556 53e8 B020D2E1 		ldrh	r2, [r2, #0]
 6557 53ec 030052E1 		cmp	r2, r3
 6558 53f0 2C301F85 		ldrhi	r3, .L447+156
 6559 53f4 0020A083 		movhi	r2, #0	@ movhi
 6560 53f8 B020C381 		strhih	r2, [r3, #0]	@ movhi 
 6561 53fc 94201FE5 		ldr	r2, .L447+64
 6562 5400 B030D2E1 		ldrh	r3, [r2, #0]
 6563 5404 013083E2 		add	r3, r3, #1
 6564 5408 B030C2E1 		strh	r3, [r2, #0]	@ movhi 
 6565 540c A8301FE5 		ldr	r3, .L447+60
 6566 5410 B020D2E1 		ldrh	r2, [r2, #0]
 6567 5414 030052E1 		cmp	r2, r3
 6568 5418 B0301F85 		ldrhi	r3, .L447+64
 6569 541c 0020A083 		movhi	r2, #0	@ movhi
 6570 5420 B020C381 		strhih	r2, [r3, #0]	@ movhi 
 6571 5424 B8201FE5 		ldr	r2, .L447+68
 6572 5428 B030D2E1 		ldrh	r3, [r2, #0]
 6573 542c 013083E2 		add	r3, r3, #1
 6574 5430 B030C2E1 		strh	r3, [r2, #0]	@ movhi 
 6575 5434 B030D2E1 		ldrh	r3, [r2, #0]
 6576 5438 B060D0E1 		ldrh	r6, [r0, #0]
 6577 543c 990F53E3 		cmp	r3, #612
 6578 5440 0030A023 		movcs	r3, #0	@ movhi
 6579 5444 B030C221 		strcsh	r3, [r2, #0]	@ movhi 
 6580 5448 000056E3 		cmp	r6, #0
 6581 544c 5815001A 		bne	.L348
 6582 5450 1C00A0E3 		mov	r0, #28
 6583 5454 FEFFFFEB 		bl	uart1_check_free_space
 6584 5458 FF0010E3 		tst	r0, #255
 6585 545c BC201F05 		ldreq	r2, .L447+120
 6586 5460 0030D205 		ldreqb	r3, [r2, #0]	@ zero_extendqisi2
 6587 5464 01308302 		addeq	r3, r3, #1
 6588 5468 0030C205 		streqb	r3, [r2, #0]
 6589 546c 5815000A 		beq	.L348
 6590 5470 A4101FE5 		ldr	r1, .L447+164
 6591 5474 D0C01FE5 		ldr	ip, .L447+124
 6592 5478 B030D1E1 		ldrh	r3, [r1, #0]
 6593 547c B020DCE1 		ldrh	r2, [ip, #0]
 6594 5480 1C3083E2 		add	r3, r3, #28
 6595 5484 012082E2 		add	r2, r2, #1
 6596 5488 B030C1E1 		strh	r3, [r1, #0]	@ movhi 
 6597 548c B020CCE1 		strh	r2, [ip, #0]	@ movhi 
 6598 5490 7E00A0E3 		mov	r0, #126
 6599 5494 EC501FE5 		ldr	r5, .L447+128
 6600 5498 FEFFFFEB 		bl	uart1_transmit
 6601 549c 0600A0E1 		mov	r0, r6
 6602 54a0 0140A0E3 		mov	r4, #1
 6603 54a4 FEFFFFEB 		bl	uart1_transmit
 6604 54a8 1800A0E3 		mov	r0, #24
 6605 54ac FEFFFFEB 		bl	uart1_transmit
 6606 54b0 0400A0E1 		mov	r0, r4
 6607 54b4 0040C5E5 		strb	r4, [r5, #0]
 6608 54b8 FEFFFFEB 		bl	uart1_transmit
 6609 54bc 0600A0E1 		mov	r0, r6
 6610 54c0 FEFFFFEB 		bl	uart1_transmit
 6611 54c4 0030D5E5 		ldrb	r3, [r5, #0]	@ zero_extendqisi2
 6612 54c8 043083E0 		add	r3, r3, r4
 6613 54cc 0030C5E5 		strb	r3, [r5, #0]
 6614 54d0 0400A0E1 		mov	r0, r4
 6615 54d4 FEFFFFEB 		bl	uart1_transmit
 6616 54d8 0600A0E1 		mov	r0, r6
 6617 54dc FEFFFFEB 		bl	uart1_transmit
 6618 54e0 0600A0E1 		mov	r0, r6
 6619 54e4 FEFFFFEB 		bl	uart1_transmit
 6620 54e8 0030D5E5 		ldrb	r3, [r5, #0]	@ zero_extendqisi2
 6621 54ec 0B3083E2 		add	r3, r3, #11
 6622 54f0 0B00A0E3 		mov	r0, #11
 6623 54f4 0030C5E5 		strb	r3, [r5, #0]
 6624 54f8 FEFFFFEB 		bl	uart1_transmit
 6625 54fc 0030D5E5 		ldrb	r3, [r5, #0]	@ zero_extendqisi2
 6626 5500 023083E2 		add	r3, r3, #2
 6627 5504 0900A0E1 		mov	r0, r9
 6628 5508 0030C5E5 		strb	r3, [r5, #0]
 6629 550c FEFFFFEB 		bl	uart1_transmit
 6630 5510 0030D5E5 		ldrb	r3, [r5, #0]	@ zero_extendqisi2
 6631 5514 103083E2 		add	r3, r3, #16
 6632 5518 1000A0E3 		mov	r0, #16
 6633 551c 0030C5E5 		strb	r3, [r5, #0]
 6634 5520 FEFFFFEB 		bl	uart1_transmit
 6635 5524 0640A0E1 		mov	r4, r6
 6636              	.L353:
 6637 5528 B8311FE5 		ldr	r3, .L447+72
 6638 552c 0020D5E5 		ldrb	r2, [r5, #0]	@ zero_extendqisi2
 6639 5530 0330D4E7 		ldrb	r3, [r4, r3]	@ zero_extendqisi2
 6640 5534 0300A0E1 		mov	r0, r3
 6641 5538 023083E0 		add	r3, r3, r2
 6642 553c 0030C5E5 		strb	r3, [r5, #0]
 6643 5540 FEFFFFEB 		bl	uart1_transmit
 6644 5544 013084E2 		add	r3, r4, #1
 6645 5548 FF4003E2 		and	r4, r3, #255
 6646 554c 0F0054E3 		cmp	r4, #15
 6647 5550 4815009A 		bls	.L353
 6648 5554 0030D5E5 		ldrb	r3, [r5, #0]	@ zero_extendqisi2
 6649 5558 0330E0E1 		mvn	r3, r3
 6650 555c 0030C5E5 		strb	r3, [r5, #0]
 6651 5560 0000D5E5 		ldrb	r0, [r5, #0]	@ zero_extendqisi2
 6652 5564 FEFFFFEB 		bl	uart1_transmit
 6653              	.L348:
 6654 5568 B030D8E1 		ldrh	r3, [r8, #0]
 6655 556c 060053E3 		cmp	r3, #6
 6656 5570 FEFFFF0B 		bleq	gps_send
 6657              	.L355:
 6658 5574 B030D7E1 		ldrh	r3, [r7, #0]
 6659 5578 0C0053E3 		cmp	r3, #12
 6660 557c C515001A 		bne	.L356
 6661 5580 1300A0E3 		mov	r0, #19
 6662 5584 FEFFFFEB 		bl	uart1_check_free_space
 6663 5588 FF0010E3 		tst	r0, #255
 6664 558c EC211F05 		ldreq	r2, .L447+120
 6665 5590 0030D205 		ldreqb	r3, [r2, #0]	@ zero_extendqisi2
 6666 5594 01308302 		addeq	r3, r3, #1
 6667 5598 0030C205 		streqb	r3, [r2, #0]
 6668 559c C515000A 		beq	.L356
 6669 55a0 D4111FE5 		ldr	r1, .L447+164
 6670 55a4 00C21FE5 		ldr	ip, .L447+124
 6671 55a8 B030D1E1 		ldrh	r3, [r1, #0]
 6672 55ac B020DCE1 		ldrh	r2, [ip, #0]
 6673 55b0 133083E2 		add	r3, r3, #19
 6674 55b4 012082E2 		add	r2, r2, #1
 6675 55b8 B030C1E1 		strh	r3, [r1, #0]	@ movhi 
 6676 55bc B020CCE1 		strh	r2, [ip, #0]	@ movhi 
 6677 55c0 0060A0E3 		mov	r6, #0
 6678 55c4 7E00A0E3 		mov	r0, #126
 6679 55c8 20421FE5 		ldr	r4, .L447+128
 6680 55cc FEFFFFEB 		bl	uart1_transmit
 6681 55d0 0600A0E1 		mov	r0, r6
 6682 55d4 0150A0E3 		mov	r5, #1
 6683 55d8 FEFFFFEB 		bl	uart1_transmit
 6684 55dc 0F00A0E3 		mov	r0, #15
 6685 55e0 FEFFFFEB 		bl	uart1_transmit
 6686 55e4 0500A0E1 		mov	r0, r5
 6687 55e8 0050C4E5 		strb	r5, [r4, #0]
 6688 55ec FEFFFFEB 		bl	uart1_transmit
 6689 55f0 0600A0E1 		mov	r0, r6
 6690 55f4 FEFFFFEB 		bl	uart1_transmit
 6691 55f8 0030D4E5 		ldrb	r3, [r4, #0]	@ zero_extendqisi2
 6692 55fc 053083E0 		add	r3, r3, r5
 6693 5600 0030C4E5 		strb	r3, [r4, #0]
 6694 5604 0500A0E1 		mov	r0, r5
 6695 5608 FEFFFFEB 		bl	uart1_transmit
 6696 560c 0600A0E1 		mov	r0, r6
 6697 5610 FEFFFFEB 		bl	uart1_transmit
 6698 5614 0600A0E1 		mov	r0, r6
 6699 5618 FEFFFFEB 		bl	uart1_transmit
 6700 561c 0030D4E5 		ldrb	r3, [r4, #0]	@ zero_extendqisi2
 6701 5620 0B3083E2 		add	r3, r3, #11
 6702 5624 0B00A0E3 		mov	r0, #11
 6703 5628 0030C4E5 		strb	r3, [r4, #0]
 6704 562c FEFFFFEB 		bl	uart1_transmit
 6705 5630 0030D4E5 		ldrb	r3, [r4, #0]	@ zero_extendqisi2
 6706 5634 C0521FE5 		ldr	r5, .L447+76
 6707 5638 2A3083E2 		add	r3, r3, #42
 6708 563c 2A00A0E3 		mov	r0, #42
 6709 5640 0030C4E5 		strb	r3, [r4, #0]
 6710 5644 FEFFFFEB 		bl	uart1_transmit
 6711 5648 0030D5E5 		ldrb	r3, [r5, #0]	@ zero_extendqisi2
 6712 564c 0020D4E5 		ldrb	r2, [r4, #0]	@ zero_extendqisi2
 6713 5650 0300A0E1 		mov	r0, r3
 6714 5654 023083E0 		add	r3, r3, r2
 6715 5658 0030C4E5 		strb	r3, [r4, #0]
 6716 565c FEFFFFEB 		bl	uart1_transmit
 6717 5660 0130D5E5 		ldrb	r3, [r5, #1]	@ zero_extendqisi2
 6718 5664 0020D4E5 		ldrb	r2, [r4, #0]	@ zero_extendqisi2
 6719 5668 0300A0E1 		mov	r0, r3
 6720 566c 023083E0 		add	r3, r3, r2
 6721 5670 0030C4E5 		strb	r3, [r4, #0]
 6722 5674 FEFFFFEB 		bl	uart1_transmit
 6723 5678 0230D5E5 		ldrb	r3, [r5, #2]	@ zero_extendqisi2
 6724 567c 0020D4E5 		ldrb	r2, [r4, #0]	@ zero_extendqisi2
 6725 5680 0300A0E1 		mov	r0, r3
 6726 5684 023083E0 		add	r3, r3, r2
 6727 5688 0030C4E5 		strb	r3, [r4, #0]
 6728 568c FEFFFFEB 		bl	uart1_transmit
 6729 5690 0300D5E5 		ldrb	r0, [r5, #3]	@ zero_extendqisi2
 6730 5694 0030D4E5 		ldrb	r3, [r4, #0]	@ zero_extendqisi2
 6731 5698 20531FE5 		ldr	r5, .L447+80
 6732 569c 033080E0 		add	r3, r0, r3
 6733 56a0 0030C4E5 		strb	r3, [r4, #0]
 6734 56a4 FEFFFFEB 		bl	uart1_transmit
 6735 56a8 0030D5E5 		ldrb	r3, [r5, #0]	@ zero_extendqisi2
 6736 56ac 0020D4E5 		ldrb	r2, [r4, #0]	@ zero_extendqisi2
 6737 56b0 0300A0E1 		mov	r0, r3
 6738 56b4 023083E0 		add	r3, r3, r2
 6739 56b8 0030C4E5 		strb	r3, [r4, #0]
 6740 56bc FEFFFFEB 		bl	uart1_transmit
 6741 56c0 0130D5E5 		ldrb	r3, [r5, #1]	@ zero_extendqisi2
 6742 56c4 0020D4E5 		ldrb	r2, [r4, #0]	@ zero_extendqisi2
 6743 56c8 0300A0E1 		mov	r0, r3
 6744 56cc 023083E0 		add	r3, r3, r2
 6745 56d0 0030C4E5 		strb	r3, [r4, #0]
 6746 56d4 FEFFFFEB 		bl	uart1_transmit
 6747 56d8 0230D5E5 		ldrb	r3, [r5, #2]	@ zero_extendqisi2
 6748 56dc 0020D4E5 		ldrb	r2, [r4, #0]	@ zero_extendqisi2
 6749 56e0 0300A0E1 		mov	r0, r3
 6750 56e4 023083E0 		add	r3, r3, r2
 6751 56e8 0030C4E5 		strb	r3, [r4, #0]
 6752 56ec FEFFFFEB 		bl	uart1_transmit
 6753 56f0 0330D5E5 		ldrb	r3, [r5, #3]	@ zero_extendqisi2
 6754 56f4 0020D4E5 		ldrb	r2, [r4, #0]	@ zero_extendqisi2
 6755 56f8 0300A0E1 		mov	r0, r3
 6756 56fc 023083E0 		add	r3, r3, r2
 6757 5700 0030C4E5 		strb	r3, [r4, #0]
 6758 5704 FEFFFFEB 		bl	uart1_transmit
 6759 5708 0030D4E5 		ldrb	r3, [r4, #0]	@ zero_extendqisi2
 6760 570c 0330E0E1 		mvn	r3, r3
 6761 5710 0030C4E5 		strb	r3, [r4, #0]
 6762 5714 0000D4E5 		ldrb	r0, [r4, #0]	@ zero_extendqisi2
 6763 5718 FEFFFFEB 		bl	uart1_transmit
 6764              	.L356:
 6765 571c B030DAE1 		ldrh	r3, [sl, #0]
 6766 5720 120053E3 		cmp	r3, #18
 6767 5724 8216001A 		bne	.L359
 6768 5728 AC331FE5 		ldr	r3, .L447+84
 6769 572c 003093E5 		ldr	r3, [r3, #0]
 6770 5730 0201C3E3 		bic	r0, r3, #-2147483648
 6771 5734 FEFFFFEB 		bl	__extendsfdf2
 6772 5738 DA2F4FE2 		adr	r2, .L447+168
 6773 573c 0C0092E8 		ldmia	r2, {r2-r3}
 6774 5740 FEFFFFEB 		bl	__divdf3
 6775 5744 FEFFFFEB 		bl	__fixunsdfsi
 6776 5748 3B004BE5 		strb	r0, [fp, #-59]
 6777 574c 1F00A0E3 		mov	r0, #31
 6778 5750 FEFFFFEB 		bl	uart1_check_free_space
 6779 5754 FF0010E3 		tst	r0, #255
 6780 5758 B8231F05 		ldreq	r2, .L447+120
 6781 575c 0030D205 		ldreqb	r3, [r2, #0]	@ zero_extendqisi2
 6782 5760 01308302 		addeq	r3, r3, #1
 6783 5764 0030C205 		streqb	r3, [r2, #0]
 6784 5768 8216000A 		beq	.L359
 6785 576c A0131FE5 		ldr	r1, .L447+164
 6786 5770 CCC31FE5 		ldr	ip, .L447+124
 6787 5774 B030D1E1 		ldrh	r3, [r1, #0]
 6788 5778 B020DCE1 		ldrh	r2, [ip, #0]
 6789 577c 1F3083E2 		add	r3, r3, #31
 6790 5780 012082E2 		add	r2, r2, #1
 6791 5784 B030C1E1 		strh	r3, [r1, #0]	@ movhi 
 6792 5788 B020CCE1 		strh	r2, [ip, #0]	@ movhi 
 6793 578c 0060A0E3 		mov	r6, #0
 6794 5790 7E00A0E3 		mov	r0, #126
 6795 5794 EC431FE5 		ldr	r4, .L447+128
 6796 5798 FEFFFFEB 		bl	uart1_transmit
 6797 579c 0600A0E1 		mov	r0, r6
 6798 57a0 0150A0E3 		mov	r5, #1
 6799 57a4 FEFFFFEB 		bl	uart1_transmit
 6800 57a8 1B00A0E3 		mov	r0, #27
 6801 57ac FEFFFFEB 		bl	uart1_transmit
 6802 57b0 0500A0E1 		mov	r0, r5
 6803 57b4 0050C4E5 		strb	r5, [r4, #0]
 6804 57b8 FEFFFFEB 		bl	uart1_transmit
 6805 57bc 0600A0E1 		mov	r0, r6
 6806 57c0 FEFFFFEB 		bl	uart1_transmit
 6807 57c4 0030D4E5 		ldrb	r3, [r4, #0]	@ zero_extendqisi2
 6808 57c8 053083E0 		add	r3, r3, r5
 6809 57cc 0030C4E5 		strb	r3, [r4, #0]
 6810 57d0 0500A0E1 		mov	r0, r5
 6811 57d4 FEFFFFEB 		bl	uart1_transmit
 6812 57d8 0600A0E1 		mov	r0, r6
 6813 57dc FEFFFFEB 		bl	uart1_transmit
 6814 57e0 0600A0E1 		mov	r0, r6
 6815 57e4 FEFFFFEB 		bl	uart1_transmit
 6816 57e8 0030D4E5 		ldrb	r3, [r4, #0]	@ zero_extendqisi2
 6817 57ec 0B3083E2 		add	r3, r3, #11
 6818 57f0 0B00A0E3 		mov	r0, #11
 6819 57f4 0030C4E5 		strb	r3, [r4, #0]
 6820 57f8 FEFFFFEB 		bl	uart1_transmit
 6821 57fc 0030D4E5 		ldrb	r3, [r4, #0]	@ zero_extendqisi2
 6822 5800 0A3083E2 		add	r3, r3, #10
 6823 5804 0A00A0E3 		mov	r0, #10
 6824 5808 0030C4E5 		strb	r3, [r4, #0]
 6825 580c FEFFFFEB 		bl	uart1_transmit
 6826 5810 90341FE5 		ldr	r3, .L447+88
 6827 5814 0020D4E5 		ldrb	r2, [r4, #0]	@ zero_extendqisi2
 6828 5818 0030D3E5 		ldrb	r3, [r3, #0]	@ zero_extendqisi2
 6829 581c 0300A0E1 		mov	r0, r3
 6830 5820 023083E0 		add	r3, r3, r2
 6831 5824 0030C4E5 		strb	r3, [r4, #0]
 6832 5828 FEFFFFEB 		bl	uart1_transmit
 6833 582c A8341FE5 		ldr	r3, .L447+92
 6834 5830 0000D3E5 		ldrb	r0, [r3, #0]	@ zero_extendqisi2
 6835 5834 0030D4E5 		ldrb	r3, [r4, #0]	@ zero_extendqisi2
 6836 5838 B0541FE5 		ldr	r5, .L447+96
 6837 583c 033080E0 		add	r3, r0, r3
 6838 5840 0030C4E5 		strb	r3, [r4, #0]
 6839 5844 FEFFFFEB 		bl	uart1_transmit
 6840 5848 0030D5E5 		ldrb	r3, [r5, #0]	@ zero_extendqisi2
 6841 584c 0020D4E5 		ldrb	r2, [r4, #0]	@ zero_extendqisi2
 6842 5850 0300A0E1 		mov	r0, r3
 6843 5854 023083E0 		add	r3, r3, r2
 6844 5858 0030C4E5 		strb	r3, [r4, #0]
 6845 585c FEFFFFEB 		bl	uart1_transmit
 6846 5860 0130D5E5 		ldrb	r3, [r5, #1]	@ zero_extendqisi2
 6847 5864 0020D4E5 		ldrb	r2, [r4, #0]	@ zero_extendqisi2
 6848 5868 0300A0E1 		mov	r0, r3
 6849 586c 023083E0 		add	r3, r3, r2
 6850 5870 0030C4E5 		strb	r3, [r4, #0]
 6851 5874 FEFFFFEB 		bl	uart1_transmit
 6852 5878 0230D5E5 		ldrb	r3, [r5, #2]	@ zero_extendqisi2
 6853 587c 0020D4E5 		ldrb	r2, [r4, #0]	@ zero_extendqisi2
 6854 5880 0300A0E1 		mov	r0, r3
 6855 5884 023083E0 		add	r3, r3, r2
 6856 5888 0030C4E5 		strb	r3, [r4, #0]
 6857 588c FEFFFFEB 		bl	uart1_transmit
 6858 5890 0300D5E5 		ldrb	r0, [r5, #3]	@ zero_extendqisi2
 6859 5894 0030D4E5 		ldrb	r3, [r4, #0]	@ zero_extendqisi2
 6860 5898 0C551FE5 		ldr	r5, .L447+100
 6861 589c 033080E0 		add	r3, r0, r3
 6862 58a0 0030C4E5 		strb	r3, [r4, #0]
 6863 58a4 FEFFFFEB 		bl	uart1_transmit
 6864 58a8 0030D5E5 		ldrb	r3, [r5, #0]	@ zero_extendqisi2
 6865 58ac 0020D4E5 		ldrb	r2, [r4, #0]	@ zero_extendqisi2
 6866 58b0 0300A0E1 		mov	r0, r3
 6867 58b4 023083E0 		add	r3, r3, r2
 6868 58b8 0030C4E5 		strb	r3, [r4, #0]
 6869 58bc FEFFFFEB 		bl	uart1_transmit
 6870 58c0 0130D5E5 		ldrb	r3, [r5, #1]	@ zero_extendqisi2
 6871 58c4 0020D4E5 		ldrb	r2, [r4, #0]	@ zero_extendqisi2
 6872 58c8 0300A0E1 		mov	r0, r3
 6873 58cc 023083E0 		add	r3, r3, r2
 6874 58d0 0030C4E5 		strb	r3, [r4, #0]
 6875 58d4 FEFFFFEB 		bl	uart1_transmit
 6876 58d8 0230D5E5 		ldrb	r3, [r5, #2]	@ zero_extendqisi2
 6877 58dc 0020D4E5 		ldrb	r2, [r4, #0]	@ zero_extendqisi2
 6878 58e0 0300A0E1 		mov	r0, r3
 6879 58e4 023083E0 		add	r3, r3, r2
 6880 58e8 0030C4E5 		strb	r3, [r4, #0]
 6881 58ec FEFFFFEB 		bl	uart1_transmit
 6882 58f0 0300D5E5 		ldrb	r0, [r5, #3]	@ zero_extendqisi2
 6883 58f4 0030D4E5 		ldrb	r3, [r4, #0]	@ zero_extendqisi2
 6884 58f8 68551FE5 		ldr	r5, .L447+104
 6885 58fc 033080E0 		add	r3, r0, r3
 6886 5900 0030C4E5 		strb	r3, [r4, #0]
 6887 5904 FEFFFFEB 		bl	uart1_transmit
 6888 5908 0030D5E5 		ldrb	r3, [r5, #0]	@ zero_extendqisi2
 6889 590c 0020D4E5 		ldrb	r2, [r4, #0]	@ zero_extendqisi2
 6890 5910 0300A0E1 		mov	r0, r3
 6891 5914 023083E0 		add	r3, r3, r2
 6892 5918 0030C4E5 		strb	r3, [r4, #0]
 6893 591c FEFFFFEB 		bl	uart1_transmit
 6894 5920 0130D5E5 		ldrb	r3, [r5, #1]	@ zero_extendqisi2
 6895 5924 0020D4E5 		ldrb	r2, [r4, #0]	@ zero_extendqisi2
 6896 5928 0300A0E1 		mov	r0, r3
 6897 592c 023083E0 		add	r3, r3, r2
 6898 5930 0030C4E5 		strb	r3, [r4, #0]
 6899 5934 FEFFFFEB 		bl	uart1_transmit
 6900 5938 0230D5E5 		ldrb	r3, [r5, #2]	@ zero_extendqisi2
 6901 593c 0020D4E5 		ldrb	r2, [r4, #0]	@ zero_extendqisi2
 6902 5940 0300A0E1 		mov	r0, r3
 6903 5944 023083E0 		add	r3, r3, r2
 6904 5948 0030C4E5 		strb	r3, [r4, #0]
 6905 594c FEFFFFEB 		bl	uart1_transmit
 6906 5950 0300D5E5 		ldrb	r0, [r5, #3]	@ zero_extendqisi2
 6907 5954 0030D4E5 		ldrb	r3, [r4, #0]	@ zero_extendqisi2
 6908 5958 C4551FE5 		ldr	r5, .L447+108
 6909 595c 033080E0 		add	r3, r0, r3
 6910 5960 0030C4E5 		strb	r3, [r4, #0]
 6911 5964 FEFFFFEB 		bl	uart1_transmit
 6912 5968 0030D5E5 		ldrb	r3, [r5, #0]	@ zero_extendqisi2
 6913 596c 0020D4E5 		ldrb	r2, [r4, #0]	@ zero_extendqisi2
 6914 5970 0300A0E1 		mov	r0, r3
 6915 5974 023083E0 		add	r3, r3, r2
 6916 5978 0030C4E5 		strb	r3, [r4, #0]
 6917 597c FEFFFFEB 		bl	uart1_transmit
 6918 5980 0130D5E5 		ldrb	r3, [r5, #1]	@ zero_extendqisi2
 6919 5984 0020D4E5 		ldrb	r2, [r4, #0]	@ zero_extendqisi2
 6920 5988 0300A0E1 		mov	r0, r3
 6921 598c 023083E0 		add	r3, r3, r2
 6922 5990 0030C4E5 		strb	r3, [r4, #0]
 6923 5994 FEFFFFEB 		bl	uart1_transmit
 6924 5998 0230D5E5 		ldrb	r3, [r5, #2]	@ zero_extendqisi2
 6925 599c 0020D4E5 		ldrb	r2, [r4, #0]	@ zero_extendqisi2
 6926 59a0 0300A0E1 		mov	r0, r3
 6927 59a4 023083E0 		add	r3, r3, r2
 6928 59a8 0030C4E5 		strb	r3, [r4, #0]
 6929 59ac FEFFFFEB 		bl	uart1_transmit
 6930 59b0 0330D5E5 		ldrb	r3, [r5, #3]	@ zero_extendqisi2
 6931 59b4 0020D4E5 		ldrb	r2, [r4, #0]	@ zero_extendqisi2
 6932 59b8 0300A0E1 		mov	r0, r3
 6933 59bc 023083E0 		add	r3, r3, r2
 6934 59c0 0030C4E5 		strb	r3, [r4, #0]
 6935 59c4 FEFFFFEB 		bl	uart1_transmit
 6936 59c8 3B305BE5 		ldrb	r3, [fp, #-59]	@ zero_extendqisi2
 6937 59cc 0020D4E5 		ldrb	r2, [r4, #0]	@ zero_extendqisi2
 6938 59d0 0300A0E1 		mov	r0, r3
 6939 59d4 023083E0 		add	r3, r3, r2
 6940 59d8 0030C4E5 		strb	r3, [r4, #0]
 6941 59dc FEFFFFEB 		bl	uart1_transmit
 6942 59e0 48361FE5 		ldr	r3, .L447+112
 6943 59e4 0020D4E5 		ldrb	r2, [r4, #0]	@ zero_extendqisi2
 6944 59e8 0030D3E5 		ldrb	r3, [r3, #0]	@ zero_extendqisi2
 6945 59ec 0300A0E1 		mov	r0, r3
 6946 59f0 023083E0 		add	r3, r3, r2
 6947 59f4 0030C4E5 		strb	r3, [r4, #0]
 6948 59f8 FEFFFFEB 		bl	uart1_transmit
 6949 59fc 0030D4E5 		ldrb	r3, [r4, #0]	@ zero_extendqisi2
 6950 5a00 0330E0E1 		mvn	r3, r3
 6951 5a04 0030C4E5 		strb	r3, [r4, #0]
 6952 5a08 0000D4E5 		ldrb	r0, [r4, #0]	@ zero_extendqisi2
 6953 5a0c FEFFFFEB 		bl	uart1_transmit
 6954              	.L359:
 6955 5a10 74061FE5 		ldr	r0, .L447+116
 6956 5a14 B030D0E1 		ldrh	r3, [r0, #0]
 6957 5a18 180053E3 		cmp	r3, #24
 6958 5a1c E616001A 		bne	.L362
 6959 5a20 1100A0E3 		mov	r0, #17
 6960 5a24 FEFFFFEB 		bl	uart1_check_free_space
 6961 5a28 FF0010E3 		tst	r0, #255
 6962 5a2c 8C261F05 		ldreq	r2, .L447+120
 6963 5a30 0030D205 		ldreqb	r3, [r2, #0]	@ zero_extendqisi2
 6964 5a34 01308302 		addeq	r3, r3, #1
 6965 5a38 0030C205 		streqb	r3, [r2, #0]
 6966 5a3c E616000A 		beq	.L362
 6967 5a40 74161FE5 		ldr	r1, .L447+164
 6968 5a44 A0C61FE5 		ldr	ip, .L447+124
 6969 5a48 B030D1E1 		ldrh	r3, [r1, #0]
 6970 5a4c B020DCE1 		ldrh	r2, [ip, #0]
 6971 5a50 113083E2 		add	r3, r3, #17
 6972 5a54 012082E2 		add	r2, r2, #1
 6973 5a58 B030C1E1 		strh	r3, [r1, #0]	@ movhi 
 6974 5a5c B020CCE1 		strh	r2, [ip, #0]	@ movhi 
 6975 5a60 0060A0E3 		mov	r6, #0
 6976 5a64 7E00A0E3 		mov	r0, #126
 6977 5a68 C0461FE5 		ldr	r4, .L447+128
 6978 5a6c FEFFFFEB 		bl	uart1_transmit
 6979 5a70 0600A0E1 		mov	r0, r6
 6980 5a74 FEFFFFEB 		bl	uart1_transmit
 6981 5a78 0150A0E3 		mov	r5, #1
 6982 5a7c 0D00A0E3 		mov	r0, #13
 6983 5a80 FEFFFFEB 		bl	uart1_transmit
 6984 5a84 0500A0E1 		mov	r0, r5
 6985 5a88 0050C4E5 		strb	r5, [r4, #0]
 6986 5a8c FEFFFFEB 		bl	uart1_transmit
 6987 5a90 0600A0E1 		mov	r0, r6
 6988 5a94 FEFFFFEB 		bl	uart1_transmit
 6989 5a98 0030D4E5 		ldrb	r3, [r4, #0]	@ zero_extendqisi2
 6990 5a9c 053083E0 		add	r3, r3, r5
 6991 5aa0 0030C4E5 		strb	r3, [r4, #0]
 6992 5aa4 0500A0E1 		mov	r0, r5
 6993 5aa8 FEFFFFEB 		bl	uart1_transmit
 6994 5aac 0600A0E1 		mov	r0, r6
 6995 5ab0 FEFFFFEB 		bl	uart1_transmit
 6996 5ab4 0600A0E1 		mov	r0, r6
 6997 5ab8 FEFFFFEB 		bl	uart1_transmit
 6998 5abc 0030D4E5 		ldrb	r3, [r4, #0]	@ zero_extendqisi2
 6999 5ac0 0B3083E2 		add	r3, r3, #11
 7000 5ac4 0B00A0E3 		mov	r0, #11
 7001 5ac8 0030C4E5 		strb	r3, [r4, #0]
 7002 5acc FEFFFFEB 		bl	uart1_transmit
 7003 5ad0 0030D4E5 		ldrb	r3, [r4, #0]	@ zero_extendqisi2
 7004 5ad4 0B3083E2 		add	r3, r3, #11
 7005 5ad8 0B00A0E3 		mov	r0, #11
 7006 5adc 0030C4E5 		strb	r3, [r4, #0]
 7007 5ae0 FEFFFFEB 		bl	uart1_transmit
 7008 5ae4 38371FE5 		ldr	r3, .L447+132
 7009 5ae8 0020D4E5 		ldrb	r2, [r4, #0]	@ zero_extendqisi2
 7010 5aec 0030D3E5 		ldrb	r3, [r3, #0]	@ zero_extendqisi2
 7011 5af0 0300A0E1 		mov	r0, r3
 7012 5af4 023083E0 		add	r3, r3, r2
 7013 5af8 0030C4E5 		strb	r3, [r4, #0]
 7014 5afc FEFFFFEB 		bl	uart1_transmit
 7015 5b00 50371FE5 		ldr	r3, .L447+136
 7016 5b04 0020D4E5 		ldrb	r2, [r4, #0]	@ zero_extendqisi2
 7017 5b08 0030D3E5 		ldrb	r3, [r3, #0]	@ zero_extendqisi2
 7018 5b0c 0300A0E1 		mov	r0, r3
 7019 5b10 023083E0 		add	r3, r3, r2
 7020 5b14 0030C4E5 		strb	r3, [r4, #0]
 7021 5b18 FEFFFFEB 		bl	uart1_transmit
 7022 5b1c 68371FE5 		ldr	r3, .L447+140
 7023 5b20 0020D4E5 		ldrb	r2, [r4, #0]	@ zero_extendqisi2
 7024 5b24 0030D3E5 		ldrb	r3, [r3, #0]	@ zero_extendqisi2
 7025 5b28 0300A0E1 		mov	r0, r3
 7026 5b2c 023083E0 		add	r3, r3, r2
 7027 5b30 0030C4E5 		strb	r3, [r4, #0]
 7028 5b34 FEFFFFEB 		bl	uart1_transmit
 7029 5b38 80371FE5 		ldr	r3, .L447+144
 7030 5b3c 0020D4E5 		ldrb	r2, [r4, #0]	@ zero_extendqisi2
 7031 5b40 0030D3E5 		ldrb	r3, [r3, #0]	@ zero_extendqisi2
 7032 5b44 0300A0E1 		mov	r0, r3
 7033 5b48 023083E0 		add	r3, r3, r2
 7034 5b4c 0030C4E5 		strb	r3, [r4, #0]
 7035 5b50 FEFFFFEB 		bl	uart1_transmit
 7036 5b54 98371FE5 		ldr	r3, .L447+148
 7037 5b58 0020D4E5 		ldrb	r2, [r4, #0]	@ zero_extendqisi2
 7038 5b5c 0030D3E5 		ldrb	r3, [r3, #0]	@ zero_extendqisi2
 7039 5b60 0300A0E1 		mov	r0, r3
 7040 5b64 023083E0 		add	r3, r3, r2
 7041 5b68 0030C4E5 		strb	r3, [r4, #0]
 7042 5b6c FEFFFFEB 		bl	uart1_transmit
 7043 5b70 B0371FE5 		ldr	r3, .L447+152
 7044 5b74 0020D4E5 		ldrb	r2, [r4, #0]	@ zero_extendqisi2
 7045 5b78 0030D3E5 		ldrb	r3, [r3, #0]	@ zero_extendqisi2
 7046 5b7c 0300A0E1 		mov	r0, r3
 7047 5b80 023083E0 		add	r3, r3, r2
 7048 5b84 0030C4E5 		strb	r3, [r4, #0]
 7049 5b88 FEFFFFEB 		bl	uart1_transmit
 7050 5b8c 0030D4E5 		ldrb	r3, [r4, #0]	@ zero_extendqisi2
 7051 5b90 0330E0E1 		mvn	r3, r3
 7052 5b94 0030C4E5 		strb	r3, [r4, #0]
 7053 5b98 0000D4E5 		ldrb	r0, [r4, #0]	@ zero_extendqisi2
 7054 5b9c FEFFFFEB 		bl	uart1_transmit
 7055              	.L362:
 7056 5ba0 DC271FE5 		ldr	r2, .L447+156
 7057 5ba4 B0A0D2E1 		ldrh	sl, [r2, #0]
 7058 5ba8 1E005AE3 		cmp	sl, #30
 7059 5bac 4917001A 		bne	.L365
 7060 5bb0 E8471FE5 		ldr	r4, .L447+160
 7061 5bb4 E8871FE5 		ldr	r8, .L447+164
 7062 5bb8 B000D4E1 		ldrh	r0, [r4, #0]
 7063 5bbc B050D8E1 		ldrh	r5, [r8, #0]
 7064 5bc0 050060E0 		rsb	r0, r0, r5
 7065 5bc4 FEFFFFEB 		bl	__floatsidf
 7066 5bc8 FD2F8FE2 		adr	r2, .L450
 7067 5bcc 0C0092E8 		ldmia	r2, {r2-r3}
 7068 5bd0 FEFFFFEB 		bl	__divdf3
 7069 5bd4 FEFFFFEB 		bl	__fixunsdfsi
 7070 5bd8 BE034BE1 		strh	r0, [fp, #-62]	@ movhi 
 7071 5bdc 1000A0E3 		mov	r0, #16
 7072 5be0 B050C4E1 		strh	r5, [r4, #0]	@ movhi 
 7073 5be4 FEFFFFEB 		bl	uart1_check_free_space
 7074 5be8 3C949FE5 		ldr	r9, .L450+104
 7075 5bec FF0010E3 		tst	r0, #255
 7076 5bf0 0030D905 		ldreqb	r3, [r9, #0]	@ zero_extendqisi2
 7077 5bf4 01308302 		addeq	r3, r3, #1
 7078 5bf8 0030C905 		streqb	r3, [r9, #0]
 7079 5bfc 4917000A 		beq	.L365
 7080 5c00 2C749FE5 		ldr	r7, .L450+112
 7081 5c04 B030D8E1 		ldrh	r3, [r8, #0]
 7082 5c08 B020D7E1 		ldrh	r2, [r7, #0]
 7083 5c0c 103083E2 		add	r3, r3, #16
 7084 5c10 012082E2 		add	r2, r2, #1
 7085 5c14 B020C7E1 		strh	r2, [r7, #0]	@ movhi 
 7086 5c18 B030C8E1 		strh	r3, [r8, #0]	@ movhi 
 7087 5c1c 0060A0E3 		mov	r6, #0
 7088 5c20 7E00A0E3 		mov	r0, #126
 7089 5c24 0C449FE5 		ldr	r4, .L450+116
 7090 5c28 FEFFFFEB 		bl	uart1_transmit
 7091 5c2c 0600A0E1 		mov	r0, r6
 7092 5c30 FEFFFFEB 		bl	uart1_transmit
 7093 5c34 0150A0E3 		mov	r5, #1
 7094 5c38 0C00A0E3 		mov	r0, #12
 7095 5c3c FEFFFFEB 		bl	uart1_transmit
 7096 5c40 0500A0E1 		mov	r0, r5
 7097 5c44 0050C4E5 		strb	r5, [r4, #0]
 7098 5c48 FEFFFFEB 		bl	uart1_transmit
 7099 5c4c 0600A0E1 		mov	r0, r6
 7100 5c50 FEFFFFEB 		bl	uart1_transmit
 7101 5c54 0030D4E5 		ldrb	r3, [r4, #0]	@ zero_extendqisi2
 7102 5c58 053083E0 		add	r3, r3, r5
 7103 5c5c 0030C4E5 		strb	r3, [r4, #0]
 7104 5c60 0500A0E1 		mov	r0, r5
 7105 5c64 FEFFFFEB 		bl	uart1_transmit
 7106 5c68 0600A0E1 		mov	r0, r6
 7107 5c6c FEFFFFEB 		bl	uart1_transmit
 7108 5c70 0600A0E1 		mov	r0, r6
 7109 5c74 FEFFFFEB 		bl	uart1_transmit
 7110 5c78 0030D4E5 		ldrb	r3, [r4, #0]	@ zero_extendqisi2
 7111 5c7c 0B3083E2 		add	r3, r3, #11
 7112 5c80 0B00A0E3 		mov	r0, #11
 7113 5c84 0030C4E5 		strb	r3, [r4, #0]
 7114 5c88 FEFFFFEB 		bl	uart1_transmit
 7115 5c8c 0030D4E5 		ldrb	r3, [r4, #0]	@ zero_extendqisi2
 7116 5c90 1E3083E2 		add	r3, r3, #30
 7117 5c94 0A00A0E1 		mov	r0, sl
 7118 5c98 0030C4E5 		strb	r3, [r4, #0]
 7119 5c9c FEFFFFEB 		bl	uart1_transmit
 7120 5ca0 0030D9E5 		ldrb	r3, [r9, #0]	@ zero_extendqisi2
 7121 5ca4 0020D4E5 		ldrb	r2, [r4, #0]	@ zero_extendqisi2
 7122 5ca8 0300A0E1 		mov	r0, r3
 7123 5cac 023083E0 		add	r3, r3, r2
 7124 5cb0 0030C4E5 		strb	r3, [r4, #0]
 7125 5cb4 FEFFFFEB 		bl	uart1_transmit
 7126 5cb8 3E305BE5 		ldrb	r3, [fp, #-62]	@ zero_extendqisi2
 7127 5cbc 0020D4E5 		ldrb	r2, [r4, #0]	@ zero_extendqisi2
 7128 5cc0 0300A0E1 		mov	r0, r3
 7129 5cc4 023083E0 		add	r3, r3, r2
 7130 5cc8 0030C4E5 		strb	r3, [r4, #0]
 7131 5ccc FEFFFFEB 		bl	uart1_transmit
 7132 5cd0 3D305BE5 		ldrb	r3, [fp, #-61]	@ zero_extendqisi2
 7133 5cd4 0020D4E5 		ldrb	r2, [r4, #0]	@ zero_extendqisi2
 7134 5cd8 0300A0E1 		mov	r0, r3
 7135 5cdc 023083E0 		add	r3, r3, r2
 7136 5ce0 0030C4E5 		strb	r3, [r4, #0]
 7137 5ce4 FEFFFFEB 		bl	uart1_transmit
 7138 5ce8 0030D7E5 		ldrb	r3, [r7, #0]	@ zero_extendqisi2
 7139 5cec 0020D4E5 		ldrb	r2, [r4, #0]	@ zero_extendqisi2
 7140 5cf0 0300A0E1 		mov	r0, r3
 7141 5cf4 023083E0 		add	r3, r3, r2
 7142 5cf8 0030C4E5 		strb	r3, [r4, #0]
 7143 5cfc FEFFFFEB 		bl	uart1_transmit
 7144 5d00 0130D7E5 		ldrb	r3, [r7, #1]	@ zero_extendqisi2
 7145 5d04 0020D4E5 		ldrb	r2, [r4, #0]	@ zero_extendqisi2
 7146 5d08 0300A0E1 		mov	r0, r3
 7147 5d0c 023083E0 		add	r3, r3, r2
 7148 5d10 0030C4E5 		strb	r3, [r4, #0]
 7149 5d14 FEFFFFEB 		bl	uart1_transmit
 7150 5d18 0030D4E5 		ldrb	r3, [r4, #0]	@ zero_extendqisi2
 7151 5d1c 0330E0E1 		mvn	r3, r3
 7152 5d20 0030C4E5 		strb	r3, [r4, #0]
 7153 5d24 0000D4E5 		ldrb	r0, [r4, #0]	@ zero_extendqisi2
 7154 5d28 FEFFFFEB 		bl	uart1_transmit
 7155              	.L365:
 7156 5d2c 98029FE5 		ldr	r0, .L450+8
 7157 5d30 B030D0E1 		ldrh	r3, [r0, #0]
 7158 5d34 240053E3 		cmp	r3, #36
 7159 5d38 DF17001A 		bne	.L368
 7160 5d3c 8C329FE5 		ldr	r3, .L450+12
 7161 5d40 0060A0E3 		mov	r6, #0
 7162 5d44 000093E5 		ldr	r0, [r3, #0]	@ float
 7163 5d48 B0644BE1 		strh	r6, [fp, #-64]	@ movhi 
 7164 5d4c FEFFFFEB 		bl	__fixsfsi
 7165 5d50 B2044BE1 		strh	r0, [fp, #-66]	@ movhi 
 7166 5d54 1900A0E3 		mov	r0, #25
 7167 5d58 FEFFFFEB 		bl	uart1_check_free_space
 7168 5d5c FF0010E3 		tst	r0, #255
 7169 5d60 C4229F05 		ldreq	r2, .L450+104
 7170 5d64 0030D205 		ldreqb	r3, [r2, #0]	@ zero_extendqisi2
 7171 5d68 01308302 		addeq	r3, r3, #1
 7172 5d6c 0030C205 		streqb	r3, [r2, #0]
 7173 5d70 DF17000A 		beq	.L368
 7174 5d74 B4129FE5 		ldr	r1, .L450+108
 7175 5d78 B4C29FE5 		ldr	ip, .L450+112
 7176 5d7c B030D1E1 		ldrh	r3, [r1, #0]
 7177 5d80 B020DCE1 		ldrh	r2, [ip, #0]
 7178 5d84 193083E2 		add	r3, r3, #25
 7179 5d88 012082E2 		add	r2, r2, #1
 7180 5d8c B030C1E1 		strh	r3, [r1, #0]	@ movhi 
 7181 5d90 B020CCE1 		strh	r2, [ip, #0]	@ movhi 
 7182 5d94 7E00A0E3 		mov	r0, #126
 7183 5d98 98429FE5 		ldr	r4, .L450+116
 7184 5d9c FEFFFFEB 		bl	uart1_transmit
 7185 5da0 0600A0E1 		mov	r0, r6
 7186 5da4 0150A0E3 		mov	r5, #1
 7187 5da8 FEFFFFEB 		bl	uart1_transmit
 7188 5dac 1500A0E3 		mov	r0, #21
 7189 5db0 FEFFFFEB 		bl	uart1_transmit
 7190 5db4 0500A0E1 		mov	r0, r5
 7191 5db8 0050C4E5 		strb	r5, [r4, #0]
 7192 5dbc FEFFFFEB 		bl	uart1_transmit
 7193 5dc0 0600A0E1 		mov	r0, r6
 7194 5dc4 FEFFFFEB 		bl	uart1_transmit
 7195 5dc8 0030D4E5 		ldrb	r3, [r4, #0]	@ zero_extendqisi2
 7196 5dcc 053083E0 		add	r3, r3, r5
 7197 5dd0 0030C4E5 		strb	r3, [r4, #0]
 7198 5dd4 0500A0E1 		mov	r0, r5
 7199 5dd8 FEFFFFEB 		bl	uart1_transmit
 7200 5ddc 0600A0E1 		mov	r0, r6
 7201 5de0 FEFFFFEB 		bl	uart1_transmit
 7202 5de4 0600A0E1 		mov	r0, r6
 7203 5de8 FEFFFFEB 		bl	uart1_transmit
 7204 5dec 0030D4E5 		ldrb	r3, [r4, #0]	@ zero_extendqisi2
 7205 5df0 0B3083E2 		add	r3, r3, #11
 7206 5df4 0B00A0E3 		mov	r0, #11
 7207 5df8 0030C4E5 		strb	r3, [r4, #0]
 7208 5dfc FEFFFFEB 		bl	uart1_transmit
 7209 5e00 0030D4E5 		ldrb	r3, [r4, #0]	@ zero_extendqisi2
 7210 5e04 38529FE5 		ldr	r5, .L450+128
 7211 5e08 0C3083E2 		add	r3, r3, #12
 7212 5e0c 0C00A0E3 		mov	r0, #12
 7213 5e10 0030C4E5 		strb	r3, [r4, #0]
 7214 5e14 FEFFFFEB 		bl	uart1_transmit
 7215 5e18 0030D5E5 		ldrb	r3, [r5, #0]	@ zero_extendqisi2
 7216 5e1c 0020D4E5 		ldrb	r2, [r4, #0]	@ zero_extendqisi2
 7217 5e20 0300A0E1 		mov	r0, r3
 7218 5e24 023083E0 		add	r3, r3, r2
 7219 5e28 0030C4E5 		strb	r3, [r4, #0]
 7220 5e2c FEFFFFEB 		bl	uart1_transmit
 7221 5e30 0130D5E5 		ldrb	r3, [r5, #1]	@ zero_extendqisi2
 7222 5e34 0020D4E5 		ldrb	r2, [r4, #0]	@ zero_extendqisi2
 7223 5e38 0300A0E1 		mov	r0, r3
 7224 5e3c 023083E0 		add	r3, r3, r2
 7225 5e40 0030C4E5 		strb	r3, [r4, #0]
 7226 5e44 FEFFFFEB 		bl	uart1_transmit
 7227 5e48 B4319FE5 		ldr	r3, .L450+64
 7228 5e4c 0020D4E5 		ldrb	r2, [r4, #0]	@ zero_extendqisi2
 7229 5e50 0030D3E5 		ldrb	r3, [r3, #0]	@ zero_extendqisi2
 7230 5e54 0300A0E1 		mov	r0, r3
 7231 5e58 023083E0 		add	r3, r3, r2
 7232 5e5c 0030C4E5 		strb	r3, [r4, #0]
 7233 5e60 FEFFFFEB 		bl	uart1_transmit
 7234 5e64 0020D4E5 		ldrb	r2, [r4, #0]	@ zero_extendqisi2
 7235 5e68 40305BE5 		ldrb	r3, [fp, #-64]	@ zero_extendqisi2
 7236 5e6c 0300A0E1 		mov	r0, r3
 7237 5e70 023083E0 		add	r3, r3, r2
 7238 5e74 0030C4E5 		strb	r3, [r4, #0]
 7239 5e78 FEFFFFEB 		bl	uart1_transmit
 7240 5e7c 3F005BE5 		ldrb	r0, [fp, #-63]	@ zero_extendqisi2
 7241 5e80 0030D4E5 		ldrb	r3, [r4, #0]	@ zero_extendqisi2
 7242 5e84 90519FE5 		ldr	r5, .L450+88
 7243 5e88 033080E0 		add	r3, r0, r3
 7244 5e8c 0030C4E5 		strb	r3, [r4, #0]
 7245 5e90 FEFFFFEB 		bl	uart1_transmit
 7246 5e94 0030D5E5 		ldrb	r3, [r5, #0]	@ zero_extendqisi2
 7247 5e98 0020D4E5 		ldrb	r2, [r4, #0]	@ zero_extendqisi2
 7248 5e9c 0300A0E1 		mov	r0, r3
 7249 5ea0 023083E0 		add	r3, r3, r2
 7250 5ea4 0030C4E5 		strb	r3, [r4, #0]
 7251 5ea8 FEFFFFEB 		bl	uart1_transmit
 7252 5eac 0130D5E5 		ldrb	r3, [r5, #1]	@ zero_extendqisi2
 7253 5eb0 0020D4E5 		ldrb	r2, [r4, #0]	@ zero_extendqisi2
 7254 5eb4 0300A0E1 		mov	r0, r3
 7255 5eb8 023083E0 		add	r3, r3, r2
 7256 5ebc 0030C4E5 		strb	r3, [r4, #0]
 7257 5ec0 FEFFFFEB 		bl	uart1_transmit
 7258 5ec4 40319FE5 		ldr	r3, .L450+72
 7259 5ec8 0000D3E5 		ldrb	r0, [r3, #0]	@ zero_extendqisi2
 7260 5ecc 0030D4E5 		ldrb	r3, [r4, #0]	@ zero_extendqisi2
 7261 5ed0 FC509FE5 		ldr	r5, .L450+16
 7262 5ed4 033080E0 		add	r3, r0, r3
 7263 5ed8 0030C4E5 		strb	r3, [r4, #0]
 7264 5edc FEFFFFEB 		bl	uart1_transmit
 7265 5ee0 0030D5E5 		ldrb	r3, [r5, #0]	@ zero_extendqisi2
 7266 5ee4 0020D4E5 		ldrb	r2, [r4, #0]	@ zero_extendqisi2
 7267 5ee8 0300A0E1 		mov	r0, r3
 7268 5eec 023083E0 		add	r3, r3, r2
 7269 5ef0 0030C4E5 		strb	r3, [r4, #0]
 7270 5ef4 FEFFFFEB 		bl	uart1_transmit
 7271 5ef8 0100D5E5 		ldrb	r0, [r5, #1]	@ zero_extendqisi2
 7272 5efc 0030D4E5 		ldrb	r3, [r4, #0]	@ zero_extendqisi2
 7273 5f00 D0509FE5 		ldr	r5, .L450+20
 7274 5f04 033080E0 		add	r3, r0, r3
 7275 5f08 0030C4E5 		strb	r3, [r4, #0]
 7276 5f0c FEFFFFEB 		bl	uart1_transmit
 7277 5f10 0030D5E5 		ldrb	r3, [r5, #0]	@ zero_extendqisi2
 7278 5f14 0020D4E5 		ldrb	r2, [r4, #0]	@ zero_extendqisi2
 7279 5f18 0300A0E1 		mov	r0, r3
 7280 5f1c 023083E0 		add	r3, r3, r2
 7281 5f20 0030C4E5 		strb	r3, [r4, #0]
 7282 5f24 FEFFFFEB 		bl	uart1_transmit
 7283 5f28 0130D5E5 		ldrb	r3, [r5, #1]	@ zero_extendqisi2
 7284 5f2c 0020D4E5 		ldrb	r2, [r4, #0]	@ zero_extendqisi2
 7285 5f30 0300A0E1 		mov	r0, r3
 7286 5f34 023083E0 		add	r3, r3, r2
 7287 5f38 0030C4E5 		strb	r3, [r4, #0]
 7288 5f3c FEFFFFEB 		bl	uart1_transmit
 7289 5f40 42305BE5 		ldrb	r3, [fp, #-66]	@ zero_extendqisi2
 7290 5f44 0020D4E5 		ldrb	r2, [r4, #0]	@ zero_extendqisi2
 7291 5f48 0300A0E1 		mov	r0, r3
 7292 5f4c 023083E0 		add	r3, r3, r2
 7293 5f50 0030C4E5 		strb	r3, [r4, #0]
 7294 5f54 FEFFFFEB 		bl	uart1_transmit
 7295 5f58 41305BE5 		ldrb	r3, [fp, #-65]	@ zero_extendqisi2
 7296 5f5c 0020D4E5 		ldrb	r2, [r4, #0]	@ zero_extendqisi2
 7297 5f60 0300A0E1 		mov	r0, r3
 7298 5f64 023083E0 		add	r3, r3, r2
 7299 5f68 0030C4E5 		strb	r3, [r4, #0]
 7300 5f6c FEFFFFEB 		bl	uart1_transmit
 7301 5f70 0030D4E5 		ldrb	r3, [r4, #0]	@ zero_extendqisi2
 7302 5f74 0330E0E1 		mvn	r3, r3
 7303 5f78 0030C4E5 		strb	r3, [r4, #0]
 7304 5f7c 0000D4E5 		ldrb	r0, [r4, #0]	@ zero_extendqisi2
 7305 5f80 FEFFFFEB 		bl	uart1_transmit
 7306              	.L368:
 7307 5f84 50209FE5 		ldr	r2, .L450+24
 7308 5f88 B030D2E1 		ldrh	r3, [r2, #0]
 7309 5f8c 2A0053E3 		cmp	r3, #42
 7310 5f90 EE18001A 		bne	.L374
 7311 5f94 2700A0E3 		mov	r0, #39
 7312 5f98 FEFFFFEB 		bl	uart1_check_free_space
 7313 5f9c FF0010E3 		tst	r0, #255
 7314 5fa0 84209F05 		ldreq	r2, .L450+104
 7315 5fa4 0030D205 		ldreqb	r3, [r2, #0]	@ zero_extendqisi2
 7316 5fa8 01308302 		addeq	r3, r3, #1
 7317 5fac 0030C205 		streqb	r3, [r2, #0]
 7318 5fb0 EE18000A 		beq	.L374
 7319 5fb4 74109FE5 		ldr	r1, .L450+108
 7320 5fb8 74C09FE5 		ldr	ip, .L450+112
 7321 5fbc B030D1E1 		ldrh	r3, [r1, #0]
 7322 5fc0 1A1800EA 		b	.L451
 7323              	.L452:
 7324              		.align	2
 7325              	.L450:
 7326 5fc4 66661440 		.word	1075078758
 7327 5fc8 66666666 		.word	1717986918
 7328 5fcc 00000000 		.word	i606.51
 7329 5fd0 00000000 		.word	energy
 7330 5fd4 00000000 		.word	block_time
 7331 5fd8 00000000 		.word	stage_time
 7332 5fdc 00000000 		.word	i612.52
 7333 5fe0 00000000 		.word	h_ctl_roll_setpoint
 7334 5fe4 00000000 		.word	h_ctl_pitch_loop_setpoint
 7335 5fe8 00000000 		.word	h_ctl_course_setpoint
 7336 5fec 00000000 		.word	desired_x
 7337 5ff0 00000000 		.word	desired_y
 7338 5ff4 00000000 		.word	v_ctl_altitude_setpoint
 7339 5ff8 00000000 		.word	v_ctl_climb_setpoint
 7340 5ffc 00000000 		.word	_1Hz.7
 7341 6000 00000000 		.word	datalink_time
 7342 6004 00000000 		.word	vsupply
 7343 6008 00000000 		.word	t.8
 7344 600c 00000000 		.word	kill_throttle
 7345 6010 00000000 		.word	dist2_to_home
 7346 6014 C87E9A4A 		.word	1251638984
 7347 6018 00000000 		.word	_4Hz.6
 7348 601c 00000000 		.word	estimator_flight_time
 7349 6020 00000000 		.word	estimator_hspeed_mod
 7350 6024 0000A040 		.word	1084227584
 7351 6028 00000000 		.word	launch
 7352 602c 00000000 		.word	downlink_nb_ovrn
 7353 6030 00000000 		.word	downlink_nb_bytes
 7354 6034 00000000 		.word	downlink_nb_msgs
 7355 6038 00000000 		.word	xbee_cs
 7356 603c 00000000 		.word	cpu_time_sec
 7357 6040 00000000 		.word	ap_state
 7358 6044 00000000 		.word	v_ctl_throttle_slewed
 7359 6048 00000000 		.word	i1.55
 7360 604c 00000000 		.word	h_ctl_aileron_setpoint
 7361 6050 00000000 		.word	h_ctl_elevator_setpoint
 7362 6054 00000000 		.word	inter_mcu_received_ap
 7363 6058 00000000 		.word	i6.56
 7364 605c 00000000 		.word	i7.57
 7365 6060 00000000 		.word	i15.58
 7366 6064 00000000 		.word	i33.59
 7367 6068 00405740 		.word	1079459840
 7368 606c 00000000 		.word	0
 7369              	.L451:
 7370 6070 B020DCE1 		ldrh	r2, [ip, #0]
 7371 6074 273083E2 		add	r3, r3, #39
 7372 6078 012082E2 		add	r2, r2, #1
 7373 607c B030C1E1 		strh	r3, [r1, #0]	@ movhi 
 7374 6080 B020CCE1 		strh	r2, [ip, #0]	@ movhi 
 7375 6084 0060A0E3 		mov	r6, #0
 7376 6088 7E00A0E3 		mov	r0, #126
 7377 608c 5C401FE5 		ldr	r4, .L450+116
 7378 6090 FEFFFFEB 		bl	uart1_transmit
 7379 6094 0600A0E1 		mov	r0, r6
 7380 6098 FEFFFFEB 		bl	uart1_transmit
 7381 609c 0150A0E3 		mov	r5, #1
 7382 60a0 2300A0E3 		mov	r0, #35
 7383 60a4 FEFFFFEB 		bl	uart1_transmit
 7384 60a8 0500A0E1 		mov	r0, r5
 7385 60ac 0050C4E5 		strb	r5, [r4, #0]
 7386 60b0 FEFFFFEB 		bl	uart1_transmit
 7387 60b4 0600A0E1 		mov	r0, r6
 7388 60b8 FEFFFFEB 		bl	uart1_transmit
 7389 60bc 0030D4E5 		ldrb	r3, [r4, #0]	@ zero_extendqisi2
 7390 60c0 053083E0 		add	r3, r3, r5
 7391 60c4 0030C4E5 		strb	r3, [r4, #0]
 7392 60c8 0500A0E1 		mov	r0, r5
 7393 60cc FEFFFFEB 		bl	uart1_transmit
 7394 60d0 0600A0E1 		mov	r0, r6
 7395 60d4 FEFFFFEB 		bl	uart1_transmit
 7396 60d8 0600A0E1 		mov	r0, r6
 7397 60dc FEFFFFEB 		bl	uart1_transmit
 7398 60e0 0030D4E5 		ldrb	r3, [r4, #0]	@ zero_extendqisi2
 7399 60e4 0B3083E2 		add	r3, r3, #11
 7400 60e8 0B00A0E3 		mov	r0, #11
 7401 60ec 0030C4E5 		strb	r3, [r4, #0]
 7402 60f0 FEFFFFEB 		bl	uart1_transmit
 7403 60f4 0030D4E5 		ldrb	r3, [r4, #0]	@ zero_extendqisi2
 7404 60f8 20511FE5 		ldr	r5, .L450+28
 7405 60fc 103083E2 		add	r3, r3, #16
 7406 6100 1000A0E3 		mov	r0, #16
 7407 6104 0030C4E5 		strb	r3, [r4, #0]
 7408 6108 FEFFFFEB 		bl	uart1_transmit
 7409 610c 0030D5E5 		ldrb	r3, [r5, #0]	@ zero_extendqisi2
 7410 6110 0020D4E5 		ldrb	r2, [r4, #0]	@ zero_extendqisi2
 7411 6114 0300A0E1 		mov	r0, r3
 7412 6118 023083E0 		add	r3, r3, r2
 7413 611c 0030C4E5 		strb	r3, [r4, #0]
 7414 6120 FEFFFFEB 		bl	uart1_transmit
 7415 6124 0130D5E5 		ldrb	r3, [r5, #1]	@ zero_extendqisi2
 7416 6128 0020D4E5 		ldrb	r2, [r4, #0]	@ zero_extendqisi2
 7417 612c 0300A0E1 		mov	r0, r3
 7418 6130 023083E0 		add	r3, r3, r2
 7419 6134 0030C4E5 		strb	r3, [r4, #0]
 7420 6138 FEFFFFEB 		bl	uart1_transmit
 7421 613c 0230D5E5 		ldrb	r3, [r5, #2]	@ zero_extendqisi2
 7422 6140 0020D4E5 		ldrb	r2, [r4, #0]	@ zero_extendqisi2
 7423 6144 0300A0E1 		mov	r0, r3
 7424 6148 023083E0 		add	r3, r3, r2
 7425 614c 0030C4E5 		strb	r3, [r4, #0]
 7426 6150 FEFFFFEB 		bl	uart1_transmit
 7427 6154 0300D5E5 		ldrb	r0, [r5, #3]	@ zero_extendqisi2
 7428 6158 0030D4E5 		ldrb	r3, [r4, #0]	@ zero_extendqisi2
 7429 615c 80511FE5 		ldr	r5, .L450+32
 7430 6160 033080E0 		add	r3, r0, r3
 7431 6164 0030C4E5 		strb	r3, [r4, #0]
 7432 6168 FEFFFFEB 		bl	uart1_transmit
 7433 616c 0030D5E5 		ldrb	r3, [r5, #0]	@ zero_extendqisi2
 7434 6170 0020D4E5 		ldrb	r2, [r4, #0]	@ zero_extendqisi2
 7435 6174 0300A0E1 		mov	r0, r3
 7436 6178 023083E0 		add	r3, r3, r2
 7437 617c 0030C4E5 		strb	r3, [r4, #0]
 7438 6180 FEFFFFEB 		bl	uart1_transmit
 7439 6184 0130D5E5 		ldrb	r3, [r5, #1]	@ zero_extendqisi2
 7440 6188 0020D4E5 		ldrb	r2, [r4, #0]	@ zero_extendqisi2
 7441 618c 0300A0E1 		mov	r0, r3
 7442 6190 023083E0 		add	r3, r3, r2
 7443 6194 0030C4E5 		strb	r3, [r4, #0]
 7444 6198 FEFFFFEB 		bl	uart1_transmit
 7445 619c 0230D5E5 		ldrb	r3, [r5, #2]	@ zero_extendqisi2
 7446 61a0 0020D4E5 		ldrb	r2, [r4, #0]	@ zero_extendqisi2
 7447 61a4 0300A0E1 		mov	r0, r3
 7448 61a8 023083E0 		add	r3, r3, r2
 7449 61ac 0030C4E5 		strb	r3, [r4, #0]
 7450 61b0 FEFFFFEB 		bl	uart1_transmit
 7451 61b4 0300D5E5 		ldrb	r0, [r5, #3]	@ zero_extendqisi2
 7452 61b8 0030D4E5 		ldrb	r3, [r4, #0]	@ zero_extendqisi2
 7453 61bc DC511FE5 		ldr	r5, .L450+36
 7454 61c0 033080E0 		add	r3, r0, r3
 7455 61c4 0030C4E5 		strb	r3, [r4, #0]
 7456 61c8 FEFFFFEB 		bl	uart1_transmit
 7457 61cc 0030D5E5 		ldrb	r3, [r5, #0]	@ zero_extendqisi2
 7458 61d0 0020D4E5 		ldrb	r2, [r4, #0]	@ zero_extendqisi2
 7459 61d4 0300A0E1 		mov	r0, r3
 7460 61d8 023083E0 		add	r3, r3, r2
 7461 61dc 0030C4E5 		strb	r3, [r4, #0]
 7462 61e0 FEFFFFEB 		bl	uart1_transmit
 7463 61e4 0130D5E5 		ldrb	r3, [r5, #1]	@ zero_extendqisi2
 7464 61e8 0020D4E5 		ldrb	r2, [r4, #0]	@ zero_extendqisi2
 7465 61ec 0300A0E1 		mov	r0, r3
 7466 61f0 023083E0 		add	r3, r3, r2
 7467 61f4 0030C4E5 		strb	r3, [r4, #0]
 7468 61f8 FEFFFFEB 		bl	uart1_transmit
 7469 61fc 0230D5E5 		ldrb	r3, [r5, #2]	@ zero_extendqisi2
 7470 6200 0020D4E5 		ldrb	r2, [r4, #0]	@ zero_extendqisi2
 7471 6204 0300A0E1 		mov	r0, r3
 7472 6208 023083E0 		add	r3, r3, r2
 7473 620c 0030C4E5 		strb	r3, [r4, #0]
 7474 6210 FEFFFFEB 		bl	uart1_transmit
 7475 6214 0300D5E5 		ldrb	r0, [r5, #3]	@ zero_extendqisi2
 7476 6218 0030D4E5 		ldrb	r3, [r4, #0]	@ zero_extendqisi2
 7477 621c 38521FE5 		ldr	r5, .L450+40
 7478 6220 033080E0 		add	r3, r0, r3
 7479 6224 0030C4E5 		strb	r3, [r4, #0]
 7480 6228 FEFFFFEB 		bl	uart1_transmit
 7481 622c 0030D5E5 		ldrb	r3, [r5, #0]	@ zero_extendqisi2
 7482 6230 0020D4E5 		ldrb	r2, [r4, #0]	@ zero_extendqisi2
 7483 6234 0300A0E1 		mov	r0, r3
 7484 6238 023083E0 		add	r3, r3, r2
 7485 623c 0030C4E5 		strb	r3, [r4, #0]
 7486 6240 FEFFFFEB 		bl	uart1_transmit
 7487 6244 0130D5E5 		ldrb	r3, [r5, #1]	@ zero_extendqisi2
 7488 6248 0020D4E5 		ldrb	r2, [r4, #0]	@ zero_extendqisi2
 7489 624c 0300A0E1 		mov	r0, r3
 7490 6250 023083E0 		add	r3, r3, r2
 7491 6254 0030C4E5 		strb	r3, [r4, #0]
 7492 6258 FEFFFFEB 		bl	uart1_transmit
 7493 625c 0230D5E5 		ldrb	r3, [r5, #2]	@ zero_extendqisi2
 7494 6260 0020D4E5 		ldrb	r2, [r4, #0]	@ zero_extendqisi2
 7495 6264 0300A0E1 		mov	r0, r3
 7496 6268 023083E0 		add	r3, r3, r2
 7497 626c 0030C4E5 		strb	r3, [r4, #0]
 7498 6270 FEFFFFEB 		bl	uart1_transmit
 7499 6274 0300D5E5 		ldrb	r0, [r5, #3]	@ zero_extendqisi2
 7500 6278 0030D4E5 		ldrb	r3, [r4, #0]	@ zero_extendqisi2
 7501 627c 94521FE5 		ldr	r5, .L450+44
 7502 6280 033080E0 		add	r3, r0, r3
 7503 6284 0030C4E5 		strb	r3, [r4, #0]
 7504 6288 FEFFFFEB 		bl	uart1_transmit
 7505 628c 0030D5E5 		ldrb	r3, [r5, #0]	@ zero_extendqisi2
 7506 6290 0020D4E5 		ldrb	r2, [r4, #0]	@ zero_extendqisi2
 7507 6294 0300A0E1 		mov	r0, r3
 7508 6298 023083E0 		add	r3, r3, r2
 7509 629c 0030C4E5 		strb	r3, [r4, #0]
 7510 62a0 FEFFFFEB 		bl	uart1_transmit
 7511 62a4 0130D5E5 		ldrb	r3, [r5, #1]	@ zero_extendqisi2
 7512 62a8 0020D4E5 		ldrb	r2, [r4, #0]	@ zero_extendqisi2
 7513 62ac 0300A0E1 		mov	r0, r3
 7514 62b0 023083E0 		add	r3, r3, r2
 7515 62b4 0030C4E5 		strb	r3, [r4, #0]
 7516 62b8 FEFFFFEB 		bl	uart1_transmit
 7517 62bc 0230D5E5 		ldrb	r3, [r5, #2]	@ zero_extendqisi2
 7518 62c0 0020D4E5 		ldrb	r2, [r4, #0]	@ zero_extendqisi2
 7519 62c4 0300A0E1 		mov	r0, r3
 7520 62c8 023083E0 		add	r3, r3, r2
 7521 62cc 0030C4E5 		strb	r3, [r4, #0]
 7522 62d0 FEFFFFEB 		bl	uart1_transmit
 7523 62d4 0300D5E5 		ldrb	r0, [r5, #3]	@ zero_extendqisi2
 7524 62d8 0030D4E5 		ldrb	r3, [r4, #0]	@ zero_extendqisi2
 7525 62dc F0521FE5 		ldr	r5, .L450+48
 7526 62e0 033080E0 		add	r3, r0, r3
 7527 62e4 0030C4E5 		strb	r3, [r4, #0]
 7528 62e8 FEFFFFEB 		bl	uart1_transmit
 7529 62ec 0030D5E5 		ldrb	r3, [r5, #0]	@ zero_extendqisi2
 7530 62f0 0020D4E5 		ldrb	r2, [r4, #0]	@ zero_extendqisi2
 7531 62f4 0300A0E1 		mov	r0, r3
 7532 62f8 023083E0 		add	r3, r3, r2
 7533 62fc 0030C4E5 		strb	r3, [r4, #0]
 7534 6300 FEFFFFEB 		bl	uart1_transmit
 7535 6304 0130D5E5 		ldrb	r3, [r5, #1]	@ zero_extendqisi2
 7536 6308 0020D4E5 		ldrb	r2, [r4, #0]	@ zero_extendqisi2
 7537 630c 0300A0E1 		mov	r0, r3
 7538 6310 023083E0 		add	r3, r3, r2
 7539 6314 0030C4E5 		strb	r3, [r4, #0]
 7540 6318 FEFFFFEB 		bl	uart1_transmit
 7541 631c 0230D5E5 		ldrb	r3, [r5, #2]	@ zero_extendqisi2
 7542 6320 0020D4E5 		ldrb	r2, [r4, #0]	@ zero_extendqisi2
 7543 6324 0300A0E1 		mov	r0, r3
 7544 6328 023083E0 		add	r3, r3, r2
 7545 632c 0030C4E5 		strb	r3, [r4, #0]
 7546 6330 FEFFFFEB 		bl	uart1_transmit
 7547 6334 0300D5E5 		ldrb	r0, [r5, #3]	@ zero_extendqisi2
 7548 6338 0030D4E5 		ldrb	r3, [r4, #0]	@ zero_extendqisi2
 7549 633c 4C531FE5 		ldr	r5, .L450+52
 7550 6340 033080E0 		add	r3, r0, r3
 7551 6344 0030C4E5 		strb	r3, [r4, #0]
 7552 6348 FEFFFFEB 		bl	uart1_transmit
 7553 634c 0030D5E5 		ldrb	r3, [r5, #0]	@ zero_extendqisi2
 7554 6350 0020D4E5 		ldrb	r2, [r4, #0]	@ zero_extendqisi2
 7555 6354 0300A0E1 		mov	r0, r3
 7556 6358 023083E0 		add	r3, r3, r2
 7557 635c 0030C4E5 		strb	r3, [r4, #0]
 7558 6360 FEFFFFEB 		bl	uart1_transmit
 7559 6364 0130D5E5 		ldrb	r3, [r5, #1]	@ zero_extendqisi2
 7560 6368 0020D4E5 		ldrb	r2, [r4, #0]	@ zero_extendqisi2
 7561 636c 0300A0E1 		mov	r0, r3
 7562 6370 023083E0 		add	r3, r3, r2
 7563 6374 0030C4E5 		strb	r3, [r4, #0]
 7564 6378 FEFFFFEB 		bl	uart1_transmit
 7565 637c 0230D5E5 		ldrb	r3, [r5, #2]	@ zero_extendqisi2
 7566 6380 0020D4E5 		ldrb	r2, [r4, #0]	@ zero_extendqisi2
 7567 6384 0300A0E1 		mov	r0, r3
 7568 6388 023083E0 		add	r3, r3, r2
 7569 638c 0030C4E5 		strb	r3, [r4, #0]
 7570 6390 FEFFFFEB 		bl	uart1_transmit
 7571 6394 0330D5E5 		ldrb	r3, [r5, #3]	@ zero_extendqisi2
 7572 6398 0020D4E5 		ldrb	r2, [r4, #0]	@ zero_extendqisi2
 7573 639c 0300A0E1 		mov	r0, r3
 7574 63a0 023083E0 		add	r3, r3, r2
 7575 63a4 0030C4E5 		strb	r3, [r4, #0]
 7576 63a8 FEFFFFEB 		bl	uart1_transmit
 7577 63ac 0030D4E5 		ldrb	r3, [r4, #0]	@ zero_extendqisi2
 7578 63b0 0330E0E1 		mvn	r3, r3
 7579 63b4 0030C4E5 		strb	r3, [r4, #0]
 7580 63b8 0000D4E5 		ldrb	r0, [r4, #0]	@ zero_extendqisi2
 7581 63bc FEFFFFEB 		bl	uart1_transmit
 7582              	.L374:
 7583 63c0 CC331FE5 		ldr	r3, .L450+56
 7584 63c4 0040D3E5 		ldrb	r4, [r3, #0]	@ zero_extendqisi2
 7585 63c8 000054E3 		cmp	r4, #0
 7586 63cc 1E19001A 		bne	.L375
 7587 63d0 BC231FE5 		ldr	r2, .L450+88
 7588 63d4 B030D2E1 		ldrh	r3, [r2, #0]
 7589 63d8 000053E3 		cmp	r3, #0
 7590 63dc 01308312 		addne	r3, r3, #1
 7591 63e0 B030C211 		strneh	r3, [r2, #0]	@ movhi 
 7592 63e4 EC331FE5 		ldr	r3, .L450+60
 7593 63e8 B020D3E1 		ldrh	r2, [r3, #0]
 7594 63ec F0131FE5 		ldr	r1, .L450+64
 7595 63f0 012082E2 		add	r2, r2, #1
 7596 63f4 B020C3E1 		strh	r2, [r3, #0]	@ movhi 
 7597 63f8 0000D1E5 		ldrb	r0, [r1, #0]	@ zero_extendqisi2
 7598 63fc FEFFFFEB 		bl	__floatsidf
 7599 6400 3A2E4FE2 		adr	r2, .L450+164
 7600 6404 0C0092E8 		ldmia	r2, {r2-r3}
 7601 6408 FEFFFFEB 		bl	__ltdf2
 7602 640c 0C241FE5 		ldr	r2, .L450+68
 7603 6410 000050E3 		cmp	r0, #0
 7604 6414 0030D2B5 		ldrltb	r3, [r2, #0]	@ zero_extendqisi2
 7605 6418 013083B2 		addlt	r3, r3, #1
 7606 641c 0030C2B5 		strltb	r3, [r2, #0]
 7607 6420 00341FE5 		ldr	r3, .L450+100
 7608 6424 0040C2A5 		strgeb	r4, [r2, #0]
 7609 6428 24041FE5 		ldr	r0, .L450+72
 7610 642c 0010D3E5 		ldrb	r1, [r3, #0]	@ zero_extendqisi2
 7611 6430 30341FE5 		ldr	r3, .L450+68
 7612 6434 0020D3E5 		ldrb	r2, [r3, #0]	@ zero_extendqisi2
 7613 6438 0030D0E5 		ldrb	r3, [r0, #0]	@ zero_extendqisi2
 7614 643c 38641FE5 		ldr	r6, .L450+72
 7615 6440 040052E3 		cmp	r2, #4
 7616 6444 01308383 		orrhi	r3, r3, #1
 7617 6448 000051E3 		cmp	r1, #0
 7618 644c 0030C0E5 		strb	r3, [r0, #0]
 7619 6450 0650A0E1 		mov	r5, r6
 7620 6454 0040A0E3 		mov	r4, #0
 7621 6458 1B19000A 		beq	.L380
 7622 645c 54341FE5 		ldr	r3, .L450+76
 7623 6460 54141FE5 		ldr	r1, .L450+80
 7624 6464 000093E5 		ldr	r0, [r3, #0]	@ float
 7625 6468 FEFFFFEB 		bl	__gtsf2
 7626 646c 000050E3 		cmp	r0, #0
 7627 6470 0140A0C3 		movgt	r4, #1
 7628              	.L380:
 7629 6474 0030D5E5 		ldrb	r3, [r5, #0]	@ zero_extendqisi2
 7630 6478 043083E1 		orr	r3, r3, r4
 7631 647c 0030C6E5 		strb	r3, [r6, #0]
 7632              	.L375:
 7633 6480 70041FE5 		ldr	r0, .L450+84
 7634 6484 0050D0E5 		ldrb	r5, [r0, #0]	@ zero_extendqisi2
 7635 6488 000055E3 		cmp	r5, #0
 7636 648c 2519000A 		beq	.L383
 7637 6490 010055E3 		cmp	r5, #1
 7638 6494 2819000A 		beq	.L384
 7639 6498 761900EA 		b	.L382
 7640              	.L383:
 7641 649c FEFFFFEB 		bl	estimator_propagate_state
 7642 64a0 FEFFFFEB 		bl	navigation_task
 7643 64a4 761900EA 		b	.L382
 7644              	.L384:
 7645 64a8 94441FE5 		ldr	r4, .L450+88
 7646 64ac B060D4E1 		ldrh	r6, [r4, #0]
 7647 64b0 000056E3 		cmp	r6, #0
 7648 64b4 7619001A 		bne	.L382
 7649 64b8 A0341FE5 		ldr	r3, .L450+92
 7650 64bc A0141FE5 		ldr	r1, .L450+96
 7651 64c0 000093E5 		ldr	r0, [r3, #0]	@ float
 7652 64c4 FEFFFFEB 		bl	__gtsf2
 7653 64c8 000050E3 		cmp	r0, #0
 7654 64cc 761900DA 		ble	.L382
 7655 64d0 B0341FE5 		ldr	r3, .L450+100
 7656 64d4 0D00A0E3 		mov	r0, #13
 7657 64d8 0050C3E5 		strb	r5, [r3, #0]
 7658 64dc B050C4E1 		strh	r5, [r4, #0]	@ movhi 
 7659 64e0 FEFFFFEB 		bl	uart1_check_free_space
 7660 64e4 FF0010E3 		tst	r0, #255
 7661 64e8 C4241F05 		ldreq	r2, .L450+104
 7662 64ec 0030D205 		ldreqb	r3, [r2, #0]	@ zero_extendqisi2
 7663 64f0 01308302 		addeq	r3, r3, #1
 7664 64f4 0030C205 		streqb	r3, [r2, #0]
 7665 64f8 7619000A 		beq	.L382
 7666 64fc D4141FE5 		ldr	r1, .L450+108
 7667 6500 D4C41FE5 		ldr	ip, .L450+112
 7668 6504 B030D1E1 		ldrh	r3, [r1, #0]
 7669 6508 B020DCE1 		ldrh	r2, [ip, #0]
 7670 650c 0D3083E2 		add	r3, r3, #13
 7671 6510 012082E2 		add	r2, r2, #1
 7672 6514 B030C1E1 		strh	r3, [r1, #0]	@ movhi 
 7673 6518 B020CCE1 		strh	r2, [ip, #0]	@ movhi 
 7674 651c 7E00A0E3 		mov	r0, #126
 7675 6520 F0441FE5 		ldr	r4, .L450+116
 7676 6524 FEFFFFEB 		bl	uart1_transmit
 7677 6528 0600A0E1 		mov	r0, r6
 7678 652c FEFFFFEB 		bl	uart1_transmit
 7679 6530 0900A0E3 		mov	r0, #9
 7680 6534 FEFFFFEB 		bl	uart1_transmit
 7681 6538 0500A0E1 		mov	r0, r5
 7682 653c 0050C4E5 		strb	r5, [r4, #0]
 7683 6540 FEFFFFEB 		bl	uart1_transmit
 7684 6544 0600A0E1 		mov	r0, r6
 7685 6548 FEFFFFEB 		bl	uart1_transmit
 7686 654c 0030D4E5 		ldrb	r3, [r4, #0]	@ zero_extendqisi2
 7687 6550 013083E2 		add	r3, r3, #1
 7688 6554 0030C4E5 		strb	r3, [r4, #0]
 7689 6558 0500A0E1 		mov	r0, r5
 7690 655c FEFFFFEB 		bl	uart1_transmit
 7691 6560 0600A0E1 		mov	r0, r6
 7692 6564 FEFFFFEB 		bl	uart1_transmit
 7693 6568 0600A0E1 		mov	r0, r6
 7694 656c FEFFFFEB 		bl	uart1_transmit
 7695 6570 0030D4E5 		ldrb	r3, [r4, #0]	@ zero_extendqisi2
 7696 6574 0B3083E2 		add	r3, r3, #11
 7697 6578 0B00A0E3 		mov	r0, #11
 7698 657c 0030C4E5 		strb	r3, [r4, #0]
 7699 6580 FEFFFFEB 		bl	uart1_transmit
 7700 6584 0030D4E5 		ldrb	r3, [r4, #0]	@ zero_extendqisi2
 7701 6588 54551FE5 		ldr	r5, .L450+120
 7702 658c 043083E2 		add	r3, r3, #4
 7703 6590 0400A0E3 		mov	r0, #4
 7704 6594 0030C4E5 		strb	r3, [r4, #0]
 7705 6598 FEFFFFEB 		bl	uart1_transmit
 7706 659c 0030D5E5 		ldrb	r3, [r5, #0]	@ zero_extendqisi2
 7707 65a0 0020D4E5 		ldrb	r2, [r4, #0]	@ zero_extendqisi2
 7708 65a4 0300A0E1 		mov	r0, r3
 7709 65a8 023083E0 		add	r3, r3, r2
 7710 65ac 0030C4E5 		strb	r3, [r4, #0]
 7711 65b0 FEFFFFEB 		bl	uart1_transmit
 7712 65b4 0130D5E5 		ldrb	r3, [r5, #1]	@ zero_extendqisi2
 7713 65b8 0020D4E5 		ldrb	r2, [r4, #0]	@ zero_extendqisi2
 7714 65bc 0300A0E1 		mov	r0, r3
 7715 65c0 023083E0 		add	r3, r3, r2
 7716 65c4 0030C4E5 		strb	r3, [r4, #0]
 7717 65c8 FEFFFFEB 		bl	uart1_transmit
 7718 65cc 0030D4E5 		ldrb	r3, [r4, #0]	@ zero_extendqisi2
 7719 65d0 0330E0E1 		mvn	r3, r3
 7720 65d4 0030C4E5 		strb	r3, [r4, #0]
 7721 65d8 0000D4E5 		ldrb	r0, [r4, #0]	@ zero_extendqisi2
 7722 65dc FEFFFFEB 		bl	uart1_transmit
 7723              	.L382:
 7724 65e0 FEFFFFEB 		bl	h_ctl_attitude_loop
 7725 65e4 FEFFFFEB 		bl	v_ctl_throttle_slew
 7726 65e8 B0351FE5 		ldr	r3, .L450+124
 7727 65ec 002093E5 		ldr	r2, [r3, #0]
 7728 65f0 B4351FE5 		ldr	r3, .L450+128
 7729 65f4 B4051FE5 		ldr	r0, .L450+132
 7730 65f8 B030D3E1 		ldrh	r3, [r3, #0]
 7731 65fc 0010D0E5 		ldrb	r1, [r0, #0]	@ zero_extendqisi2
 7732 6600 B030C2E1 		strh	r3, [r2, #0]	@ movhi 
 7733 6604 C0351FE5 		ldr	r3, .L450+136
 7734 6608 B030D3E1 		ldrh	r3, [r3, #0]
 7735 660c B230C2E1 		strh	r3, [r2, #2]	@ movhi 
 7736 6610 C8351FE5 		ldr	r3, .L450+140
 7737 6614 B030D3E1 		ldrh	r3, [r3, #0]
 7738 6618 011081E2 		add	r1, r1, #1
 7739 661c B430C2E1 		strh	r3, [r2, #4]	@ movhi 
 7740 6620 0010C0E5 		strb	r1, [r0, #0]
 7741 6624 0030D0E5 		ldrb	r3, [r0, #0]	@ zero_extendqisi2
 7742 6628 000053E3 		cmp	r3, #0
 7743 662c E0351FE5 		ldr	r3, .L450+144
 7744 6630 E0751FE5 		ldr	r7, .L450+148
 7745 6634 0120A0E3 		mov	r2, #1
 7746 6638 0020C3E5 		strb	r2, [r3, #0]
 7747 663c 0030A013 		movne	r3, #0
 7748 6640 0030C015 		strneb	r3, [r0, #0]
 7749 6644 0030D7E5 		ldrb	r3, [r7, #0]	@ zero_extendqisi2
 7750 6648 013083E2 		add	r3, r3, #1
 7751 664c 0030C7E5 		strb	r3, [r7, #0]
 7752 6650 0030D7E5 		ldrb	r3, [r7, #0]	@ zero_extendqisi2
 7753 6654 00661FE5 		ldr	r6, .L450+152
 7754 6658 050053E3 		cmp	r3, #5
 7755 665c 0030A083 		movhi	r3, #0
 7756 6660 0030C785 		strhib	r3, [r7, #0]
 7757 6664 0030D6E5 		ldrb	r3, [r6, #0]	@ zero_extendqisi2
 7758 6668 013083E2 		add	r3, r3, #1
 7759 666c 0030C6E5 		strb	r3, [r6, #0]
 7760 6670 0030D6E5 		ldrb	r3, [r6, #0]	@ zero_extendqisi2
 7761 6674 1C461FE5 		ldr	r4, .L450+156
 7762 6678 060053E3 		cmp	r3, #6
 7763 667c 0030A083 		movhi	r3, #0
 7764 6680 0030C685 		strhib	r3, [r6, #0]
 7765 6684 0030D4E5 		ldrb	r3, [r4, #0]	@ zero_extendqisi2
 7766 6688 013083E2 		add	r3, r3, #1
 7767 668c 0030C4E5 		strb	r3, [r4, #0]
 7768 6690 0030D4E5 		ldrb	r3, [r4, #0]	@ zero_extendqisi2
 7769 6694 38561FE5 		ldr	r5, .L450+160
 7770 6698 0E0053E3 		cmp	r3, #14
 7771 669c 0030A083 		movhi	r3, #0
 7772 66a0 0030C485 		strhib	r3, [r4, #0]
 7773 66a4 0030D5E5 		ldrb	r3, [r5, #0]	@ zero_extendqisi2
 7774 66a8 013083E2 		add	r3, r3, #1
 7775 66ac 0030C5E5 		strb	r3, [r5, #0]
 7776 66b0 0030D5E5 		ldrb	r3, [r5, #0]	@ zero_extendqisi2
 7777 66b4 200053E3 		cmp	r3, #32
 7778 66b8 0030A083 		movhi	r3, #0
 7779 66bc 0030C585 		strhib	r3, [r5, #0]
 7780 66c0 FEFFFFEB 		bl	ins_ardu_periodic
 7781 66c4 0030D7E5 		ldrb	r3, [r7, #0]	@ zero_extendqisi2
 7782 66c8 000053E3 		cmp	r3, #0
 7783 66cc FEFFFF0B 		bleq	airspeed_ets_read_periodic
 7784              	.L396:
 7785 66d0 0030D6E5 		ldrb	r3, [r6, #0]	@ zero_extendqisi2
 7786 66d4 030053E3 		cmp	r3, #3
 7787 66d8 FEFFFF0B 		bleq	ir_mlx_periodic
 7788              	.L397:
 7789 66dc 0030D4E5 		ldrb	r3, [r4, #0]	@ zero_extendqisi2
 7790 66e0 000053E3 		cmp	r3, #0
 7791 66e4 BA19001A 		bne	.L398
 7792 66e8 FEFFFFEB 		bl	humid_sht_periodic
 7793 66ec C01900EA 		b	.L399
 7794              	.L398:
 7795 66f0 060053E3 		cmp	r3, #6
 7796 66f4 BE19001A 		bne	.L400
 7797 66f8 FEFFFFEB 		bl	humid_sht_p_temp
 7798 66fc C01900EA 		b	.L399
 7799              	.L400:
 7800 6700 090053E3 		cmp	r3, #9
 7801 6704 FEFFFF0B 		bleq	humid_sht_p_humid
 7802              	.L399:
 7803 6708 0030D5E5 		ldrb	r3, [r5, #0]	@ zero_extendqisi2
 7804 670c 060053E3 		cmp	r3, #6
 7805 6710 FEFFFF0B 		bleq	baro_scp_periodic
 7806              	.L39:
 7807 6714 28D04BE2 		sub	sp, fp, #40
 7808 6718 F06F9DE8 		ldmfd	sp, {r4, r5, r6, r7, r8, r9, sl, fp, sp, lr}
 7809 671c 1EFF2FE1 		bx	lr
 7811              		.global	__adddf3
 7812              		.section	.text.init_ap,"ax",%progbits
 7813              		.align	2
 7814              		.global	init_ap
 7816              	init_ap:
 7817              		@ Function supports interworking.
 7818              		@ args = 0, pretend = 0, frame = 0
 7819              		@ frame_needed = 1, uses_anonymous_args = 0
 7820 0000 0DC0A0E1 		mov	ip, sp
 7821 0004 00D82DE9 		stmfd	sp!, {fp, ip, lr, pc}
 7822 0008 04B04CE2 		sub	fp, ip, #4
 7823 000c FEFFFFEB 		bl	gps_init
 7824 0010 FEFFFFEB 		bl	h_ctl_init
 7825 0014 FEFFFFEB 		bl	v_ctl_init
 7826 0018 FEFFFFEB 		bl	estimator_init
 7827 001c FEFFFFEB 		bl	alt_kalman_init
 7828 0020 FEFFFFEB 		bl	nav_init
 7829 0024 FEFFFFEB 		bl	ins_ardu_init
 7830 0028 FEFFFFEB 		bl	baro_scp_init
 7831 002c FEFFFFEB 		bl	airspeed_ets_init
 7832 0030 FEFFFFEB 		bl	humid_sht_init
 7833 0034 FEFFFFEB 		bl	ir_mlx_init
 7834 0038 FEFFFFEB 		bl	settings_init
 7835 003c FEFFFFEB 		bl	enableIRQ
 7836 0040 34309FE5 		ldr	r3, .L460
 7837 0044 34109FE5 		ldr	r1, .L460+4
 7838 0048 082093E5 		ldr	r2, [r3, #8]
 7839              	.L456:
 7840 004c 28309FE5 		ldr	r3, .L460
 7841 0050 083093E5 		ldr	r3, [r3, #8]
 7842 0054 033062E0 		rsb	r3, r2, r3
 7843 0058 010053E1 		cmp	r3, r1
 7844 005c 1100003A 		bcc	.L456
 7845 0060 FEFFFFEB 		bl	xbee_init
 7846 0064 18309FE5 		ldr	r3, .L460+8
 7847 0068 0020A0E3 		mov	r2, #0
 7848 006c 0020C3E5 		strb	r2, [r3, #0]
 7849 0070 FEFFFFEB 		bl	traffic_info_init
 7850 0074 00689DE8 		ldmfd	sp, {fp, sp, lr}
 7851 0078 1EFF2FE1 		bx	lr
 7852              	.L461:
 7853              		.align	2
 7854              	.L460:
 7855 007c 004000E0 		.word	-536854528
 7856 0080 E0707200 		.word	7500000
 7857 0084 00000000 		.word	power_switch
 7859              		.section	.data.xbee_status.0,"aw",%progbits
 7862              	xbee_status.0:
 7863 0000 00       		.byte	0
 7864              		.section	.bss.cs.1,"aw",%nobits
 7867              	cs.1:
 7868 0000 00       		.space	1
 7869              		.section	.bss.payload_idx.2,"aw",%nobits
 7872              	payload_idx.2:
 7873 0000 00       		.space	1
 7874              		.global	__truncdfsf2
 7875              		.section	.text.event_task_ap,"ax",%progbits
 7876              		.align	2
 7877              		.global	event_task_ap
 7879              	event_task_ap:
 7880              		@ Function supports interworking.
 7881              		@ args = 0, pretend = 0, frame = 0
 7882              		@ frame_needed = 1, uses_anonymous_args = 0
 7883 0000 0DC0A0E1 		mov	ip, sp
 7884 0004 F0D92DE9 		stmfd	sp!, {r4, r5, r6, r7, r8, fp, ip, lr, pc}
 7885 0008 04B04CE2 		sub	fp, ip, #4
 7886 000c C8569FE5 		ldr	r5, .L538+24
 7887 0010 C8C69FE5 		ldr	ip, .L538+28
 7888 0014 B020D5E1 		ldrh	r2, [r5, #0]
 7889 0018 B030DCE1 		ldrh	r3, [ip, #0]
 7890 001c 030052E1 		cmp	r2, r3
 7891 0020 1700000A 		beq	.L463
 7892 0024 B8469FE5 		ldr	r4, .L538+32
 7893              	.L532:
 7894 0028 0030D4E5 		ldrb	r3, [r4, #0]	@ zero_extendqisi2
 7895 002c 000053E3 		cmp	r3, #0
 7896 0030 1700001A 		bne	.L463
 7897 0034 B010DCE1 		ldrh	r1, [ip, #0]
 7898 0038 A8269FE5 		ldr	r2, .L538+36
 7899 003c 013081E2 		add	r3, r1, #1
 7900 0040 7F3003E2 		and	r3, r3, #127
 7901 0044 B030CCE1 		strh	r3, [ip, #0]	@ movhi 
 7902 0048 0100D2E7 		ldrb	r0, [r2, r1]	@ zero_extendqisi2
 7903 004c FEFFFFEB 		bl	parse_ubx
 7904 0050 88C69FE5 		ldr	ip, .L538+28
 7905 0054 B020D5E1 		ldrh	r2, [r5, #0]
 7906 0058 B030DCE1 		ldrh	r3, [ip, #0]
 7907 005c 030052E1 		cmp	r2, r3
 7908 0060 0800001A 		bne	.L532
 7909              	.L463:
 7910 0064 78469FE5 		ldr	r4, .L538+32
 7911 0068 0030D4E5 		ldrb	r3, [r4, #0]	@ zero_extendqisi2
 7912 006c 000053E3 		cmp	r3, #0
 7913 0070 3B00000A 		beq	.L467
 7914 0074 70569FE5 		ldr	r5, .L538+40
 7915 0078 FEFFFFEB 		bl	parse_gps_msg
 7916 007c 0030D5E5 		ldrb	r3, [r5, #0]	@ zero_extendqisi2
 7917 0080 000053E3 		cmp	r3, #0
 7918 0084 0030A0E3 		mov	r3, #0
 7919 0088 0030C4E5 		strb	r3, [r4, #0]
 7920 008c 3B00000A 		beq	.L467
 7921 0090 58369FE5 		ldr	r3, .L538+44
 7922 0094 0020D3E5 		ldrb	r2, [r3, #0]	@ zero_extendqisi2
 7923 0098 54369FE5 		ldr	r3, .L538+48
 7924 009c 0030D3E5 		ldrb	r3, [r3, #0]	@ zero_extendqisi2
 7925 00a0 012072E2 		rsbs	r2, r2, #1
 7926 00a4 0020A033 		movcc	r2, #0
 7927 00a8 030053E3 		cmp	r3, #3
 7928 00ac 44369FE5 		ldr	r3, .L538+52
 7929 00b0 0020C3E5 		strb	r2, [r3, #0]
 7930 00b4 3800001A 		bne	.L469
 7931 00b8 3C369FE5 		ldr	r3, .L538+56
 7932 00bc 3C269FE5 		ldr	r2, .L538+60
 7933 00c0 B030D3E1 		ldrh	r3, [r3, #0]
 7934 00c4 B030C2E1 		strh	r3, [r2, #0]	@ movhi 
 7935 00c8 FEFFFFEB 		bl	estimator_update_state_gps
 7936 00cc 30269FE5 		ldr	r2, .L538+64
 7937 00d0 103092E5 		ldr	r3, [r2, #16]
 7938 00d4 010813E3 		tst	r3, #65536
 7939 00d8 0138A013 		movne	r3, #65536
 7940 00dc 0138A003 		moveq	r3, #65536
 7941 00e0 1C308215 		strne	r3, [r2, #28]
 7942 00e4 14308205 		streq	r3, [r2, #20]
 7943              	.L469:
 7944 00e8 FEFFFFEB 		bl	gps_downlink
 7945 00ec 0030A0E3 		mov	r3, #0
 7946 00f0 0030C5E5 		strb	r3, [r5, #0]
 7947              	.L467:
 7948 00f4 0C569FE5 		ldr	r5, .L538+68
 7949 00f8 0C069FE5 		ldr	r0, .L538+72
 7950 00fc B030D5E1 		ldrh	r3, [r5, #0]
 7951 0100 B010D0E1 		ldrh	r1, [r0, #0]
 7952 0104 010053E1 		cmp	r3, r1
 7953 0108 B700000A 		beq	.L472
 7954              	.L533:
 7955 010c FC359FE5 		ldr	r3, .L538+76
 7956 0110 0030D3E5 		ldrb	r3, [r3, #0]	@ zero_extendqisi2
 7957 0114 000053E3 		cmp	r3, #0
 7958 0118 9700001A 		bne	.L474
 7959 011c F0459FE5 		ldr	r4, .L538+80
 7960 0120 013081E2 		add	r3, r1, #1
 7961 0124 7F3003E2 		and	r3, r3, #127
 7962 0128 B030C0E1 		strh	r3, [r0, #0]	@ movhi 
 7963 012c 0020D4E5 		ldrb	r2, [r4, #0]	@ zero_extendqisi2
 7964 0130 E0359FE5 		ldr	r3, .L538+84
 7965 0134 01E0D3E7 		ldrb	lr, [r3, r1]	@ zero_extendqisi2
 7966 0138 040052E3 		cmp	r2, #4
 7967 013c 02F19F97 		ldrls	pc, [pc, r2, asl #2]
 7968 0140 8B0000EA 		b	.L480
 7969              		.p2align 2
 7970              	.L488:
 7971 0144 58010000 		.word	.L476
 7972 0148 60010000 		.word	.L478
 7973 014c 98010000 		.word	.L481
 7974 0150 CC010000 		.word	.L482
 7975 0154 14020000 		.word	.L484
 7976              	.L476:
 7977 0158 7E005EE3 		cmp	lr, #126
 7978 015c 7F0000EA 		b	.L537
 7979              	.L478:
 7980 0160 A8359FE5 		ldr	r3, .L538+76
 7981 0164 0030D3E5 		ldrb	r3, [r3, #0]	@ zero_extendqisi2
 7982 0168 FF1003E2 		and	r1, r3, #255
 7983 016c 000051E3 		cmp	r1, #0
 7984 0170 A4259F15 		ldrne	r2, .L538+88
 7985 0174 0030D215 		ldrneb	r3, [r2, #0]	@ zero_extendqisi2
 7986 0178 01308312 		addne	r3, r3, #1
 7987 017c 0030C215 		strneb	r3, [r2, #0]
 7988 0180 8B00001A 		bne	.L480
 7989 0184 0030D4E5 		ldrb	r3, [r4, #0]	@ zero_extendqisi2
 7990 0188 90259FE5 		ldr	r2, .L538+92
 7991 018c 013083E2 		add	r3, r3, #1
 7992 0190 0010C2E5 		strb	r1, [r2, #0]
 7993 0194 900000EA 		b	.L534
 7994              	.L481:
 7995 0198 80159FE5 		ldr	r1, .L538+92
 7996 019c 0030D1E5 		ldrb	r3, [r1, #0]	@ zero_extendqisi2
 7997 01a0 03308EE1 		orr	r3, lr, r3
 7998 01a4 0030C1E5 		strb	r3, [r1, #0]
 7999 01a8 74359FE5 		ldr	r3, .L538+96
 8000 01ac 0020D4E5 		ldrb	r2, [r4, #0]	@ zero_extendqisi2
 8001 01b0 0000A0E3 		mov	r0, #0
 8002 01b4 0000C3E5 		strb	r0, [r3, #0]
 8003 01b8 68359FE5 		ldr	r3, .L538+100
 8004 01bc 012082E2 		add	r2, r2, #1
 8005 01c0 0020C4E5 		strb	r2, [r4, #0]
 8006 01c4 0000C3E5 		strb	r0, [r3, #0]
 8007 01c8 910000EA 		b	.L473
 8008              	.L482:
 8009 01cc 54259FE5 		ldr	r2, .L538+100
 8010 01d0 00C0D2E5 		ldrb	ip, [r2, #0]	@ zero_extendqisi2
 8011 01d4 01308CE2 		add	r3, ip, #1
 8012 01d8 0030C2E5 		strb	r3, [r2, #0]
 8013 01dc 40059FE5 		ldr	r0, .L538+96
 8014 01e0 38359FE5 		ldr	r3, .L538+92
 8015 01e4 0010D2E5 		ldrb	r1, [r2, #0]	@ zero_extendqisi2
 8016 01e8 0020D3E5 		ldrb	r2, [r3, #0]	@ zero_extendqisi2
 8017 01ec 0030D0E5 		ldrb	r3, [r0, #0]	@ zero_extendqisi2
 8018 01f0 03308EE0 		add	r3, lr, r3
 8019 01f4 0030C0E5 		strb	r3, [r0, #0]
 8020 01f8 2C359FE5 		ldr	r3, .L538+104
 8021 01fc 0CE0C3E7 		strb	lr, [r3, ip]
 8022 0200 020051E1 		cmp	r1, r2
 8023              	.L537:
 8024 0204 0030D405 		ldreqb	r3, [r4, #0]	@ zero_extendqisi2
 8025 0208 01308302 		addeq	r3, r3, #1
 8026 020c 9000000A 		beq	.L534
 8027 0210 910000EA 		b	.L473
 8028              	.L484:
 8029 0214 08359FE5 		ldr	r3, .L538+96
 8030 0218 0030D3E5 		ldrb	r3, [r3, #0]	@ zero_extendqisi2
 8031 021c 03308EE0 		add	r3, lr, r3
 8032 0220 FF0053E3 		cmp	r3, #255
 8033 0224 E4349F05 		ldreq	r3, .L538+76
 8034 0228 0120A003 		moveq	r2, #1
 8035 022c 0020C305 		streqb	r2, [r3, #0]
 8036 0230 8F00000A 		beq	.L486
 8037              	.L480:
 8038 0234 F4249FE5 		ldr	r2, .L538+108
 8039 0238 0030D2E5 		ldrb	r3, [r2, #0]	@ zero_extendqisi2
 8040 023c 013083E2 		add	r3, r3, #1
 8041 0240 0030C2E5 		strb	r3, [r2, #0]
 8042              	.L486:
 8043 0244 0030A0E3 		mov	r3, #0
 8044              	.L534:
 8045 0248 0030C4E5 		strb	r3, [r4, #0]
 8046              	.L473:
 8047 024c B8349FE5 		ldr	r3, .L538+72
 8048 0250 B010D3E1 		ldrh	r1, [r3, #0]
 8049 0254 B030D5E1 		ldrh	r3, [r5, #0]
 8050 0258 010053E1 		cmp	r3, r1
 8051 025c A8049FE5 		ldr	r0, .L538+72
 8052 0260 4100001A 		bne	.L533
 8053              	.L474:
 8054 0264 A4549FE5 		ldr	r5, .L538+76
 8055 0268 0030D5E5 		ldrb	r3, [r5, #0]	@ zero_extendqisi2
 8056 026c 000053E3 		cmp	r3, #0
 8057 0270 B700000A 		beq	.L472
 8058 0274 B0E49FE5 		ldr	lr, .L538+104
 8059 0278 0030DEE5 		ldrb	r3, [lr, #0]	@ zero_extendqisi2
 8060 027c 010053E3 		cmp	r3, #1
 8061 0280 A100000A 		beq	.L494
 8062 0284 810053E3 		cmp	r3, #129
 8063 0288 B500001A 		bne	.L500
 8064              	.L494:
 8065 028c 8C449FE5 		ldr	r4, .L538+92
 8066 0290 0030D4E5 		ldrb	r3, [r4, #0]	@ zero_extendqisi2
 8067 0294 0320DEE5 		ldrb	r2, [lr, #3]	@ zero_extendqisi2
 8068 0298 050053E3 		cmp	r3, #5
 8069 029c 90349FE5 		ldr	r3, .L538+112
 8070 02a0 0020C3E5 		strb	r2, [r3, #0]
 8071 02a4 05C0A0E3 		mov	ip, #5
 8072              	.L535:
 8073 02a8 B200009A 		bls	.L531
 8074 02ac 84349FE5 		ldr	r3, .L538+116
 8075 02b0 01108CE2 		add	r1, ip, #1
 8076 02b4 0000D4E5 		ldrb	r0, [r4, #0]	@ zero_extendqisi2
 8077 02b8 03308CE0 		add	r3, ip, r3
 8078 02bc 0C20DEE7 		ldrb	r2, [lr, ip]	@ zero_extendqisi2
 8079 02c0 FFC001E2 		and	ip, r1, #255
 8080 02c4 0C0050E1 		cmp	r0, ip
 8081 02c8 052043E5 		strb	r2, [r3, #-5]
 8082 02cc A80000EA 		b	.L535
 8083              	.L531:
 8084 02d0 64349FE5 		ldr	r3, .L538+120
 8085 02d4 0120A0E3 		mov	r2, #1
 8086 02d8 0020C3E5 		strb	r2, [r3, #0]
 8087              	.L500:
 8088 02dc 0030A0E3 		mov	r3, #0
 8089 02e0 0030C5E5 		strb	r3, [r5, #0]
 8090              	.L472:
 8091 02e4 50449FE5 		ldr	r4, .L538+120
 8092 02e8 0030D4E5 		ldrb	r3, [r4, #0]	@ zero_extendqisi2
 8093 02ec 000053E3 		cmp	r3, #0
 8094 02f0 BE00000A 		beq	.L501
 8095 02f4 FEFFFFEB 		bl	dl_parse_msg
 8096 02f8 0030A0E3 		mov	r3, #0
 8097 02fc 0030C4E5 		strb	r3, [r4, #0]
 8098              	.L501:
 8099 0300 38249FE5 		ldr	r2, .L538+124
 8100 0304 0030D2E5 		ldrb	r3, [r2, #0]	@ zero_extendqisi2
 8101 0308 000053E3 		cmp	r3, #0
 8102 030c A501000A 		beq	.L502
 8103 0310 2C849FE5 		ldr	r8, .L538+128
 8104 0314 0030A0E3 		mov	r3, #0
 8105 0318 0030C2E5 		strb	r3, [r2, #0]
 8106 031c 002098E5 		ldr	r2, [r8, #0]
 8107 0320 0F20D2E5 		ldrb	r2, [r2, #15]	@ zero_extendqisi2
 8108 0324 020012E3 		tst	r2, #2
 8109 0328 0300A0E1 		mov	r0, r3
 8110 032c 0320A0E1 		mov	r2, r3
 8111 0330 D000000A 		beq	.L504
 8112 0334 0C349FE5 		ldr	r3, .L538+132
 8113 0338 0030D3E5 		ldrb	r3, [r3, #0]	@ zero_extendqisi2
 8114 033c 010053E3 		cmp	r3, #1
 8115 0340 0020A083 		movhi	r2, #0
 8116 0344 0120A093 		movls	r2, #1
 8117              	.L504:
 8118 0348 F8139FE5 		ldr	r1, .L538+132
 8119 034c 0030D1E5 		ldrb	r3, [r1, #0]	@ zero_extendqisi2
 8120 0350 033043E2 		sub	r3, r3, #3
 8121 0354 010053E3 		cmp	r3, #1
 8122 0358 E300009A 		bls	.L505
 8123 035c 8C339FE5 		ldr	r3, .L538+44
 8124 0360 0030D3E5 		ldrb	r3, [r3, #0]	@ zero_extendqisi2
 8125 0364 000053E3 		cmp	r3, #0
 8126 0368 E300000A 		beq	.L505
 8127 036c D8339FE5 		ldr	r3, .L538+136
 8128 0370 0030D3E5 		ldrb	r3, [r3, #0]	@ zero_extendqisi2
 8129 0374 000053E3 		cmp	r3, #0
 8130 0378 0330A013 		movne	r3, #3
 8131 037c 0030C115 		strneb	r3, [r1, #0]
 8132 0380 0100A013 		movne	r0, #1
 8133 0384 000052E3 		cmp	r2, #0
 8134 0388 0330A013 		movne	r3, #3
 8135 038c 0030C115 		strneb	r3, [r1, #0]
 8136 0390 0100A013 		movne	r0, #1
 8137              	.L505:
 8138 0394 002098E5 		ldr	r2, [r8, #0]
 8139 0398 0F30D2E5 		ldrb	r3, [r2, #15]	@ zero_extendqisi2
 8140 039c 100013E3 		tst	r3, #16
 8141 03a0 FA00000A 		beq	.L508
 8142 03a4 0030D1E5 		ldrb	r3, [r1, #0]	@ zero_extendqisi2
 8143 03a8 033043E2 		sub	r3, r3, #3
 8144 03ac 010053E3 		cmp	r3, #1
 8145 03b0 0030A093 		movls	r3, #0
 8146 03b4 F900009A 		bls	.L514
 8147 03b8 FC30D2E1 		ldrsh	r3, [r2, #12]
 8148 03bc 4B0D53E3 		cmp	r3, #4800
 8149 03c0 0220A0C3 		movgt	r2, #2
 8150 03c4 F30000CA 		bgt	.L511
 8151 03c8 4B0D73E3 		cmn	r3, #4800
 8152 03cc 0020A0D3 		movle	r2, #0
 8153 03d0 0120A0C3 		movgt	r2, #1
 8154              	.L511:
 8155 03d4 0030D1E5 		ldrb	r3, [r1, #0]	@ zero_extendqisi2
 8156 03d8 020053E1 		cmp	r3, r2
 8157 03dc 0130A013 		movne	r3, #1
 8158 03e0 0030A003 		moveq	r3, #0
 8159 03e4 0020C115 		strneb	r2, [r1, #0]
 8160 03e8 FF3003E2 		and	r3, r3, #255
 8161              	.L514:
 8162 03ec 030080E1 		orr	r0, r0, r3
 8163              	.L508:
 8164 03f0 003098E5 		ldr	r3, [r8, #0]
 8165 03f4 54739FE5 		ldr	r7, .L538+140
 8166 03f8 0F30D3E5 		ldrb	r3, [r3, #15]	@ zero_extendqisi2
 8167 03fc 0020D7E5 		ldrb	r2, [r7, #0]	@ zero_extendqisi2
 8168 0400 FF1003E2 		and	r1, r3, #255
 8169 0404 010052E1 		cmp	r2, r1
 8170 0408 0020A003 		moveq	r2, #0
 8171 040c 0701000A 		beq	.L517
 8172 0410 0F2002E2 		and	r2, r2, #15
 8173 0414 0F3003E2 		and	r3, r3, #15
 8174 0418 0010C7E5 		strb	r1, [r7, #0]
 8175 041c 032052E0 		subs	r2, r2, r3
 8176 0420 0120A013 		movne	r2, #1
 8177              	.L517:
 8178 0424 020090E1 		orrs	r0, r0, r2
 8179 0428 6801000A 		beq	.L518
 8180 042c 1100A0E3 		mov	r0, #17
 8181 0430 FEFFFFEB 		bl	uart1_check_free_space
 8182 0434 FF0010E3 		tst	r0, #255
 8183 0438 14239F05 		ldreq	r2, .L538+144
 8184 043c 0030D205 		ldreqb	r3, [r2, #0]	@ zero_extendqisi2
 8185 0440 01308302 		addeq	r3, r3, #1
 8186 0444 0030C205 		streqb	r3, [r2, #0]
 8187 0448 6801000A 		beq	.L518
 8188 044c 04139FE5 		ldr	r1, .L538+148
 8189 0450 04C39FE5 		ldr	ip, .L538+152
 8190 0454 B030D1E1 		ldrh	r3, [r1, #0]
 8191 0458 B020DCE1 		ldrh	r2, [ip, #0]
 8192 045c 113083E2 		add	r3, r3, #17
 8193 0460 012082E2 		add	r2, r2, #1
 8194 0464 B030C1E1 		strh	r3, [r1, #0]	@ movhi 
 8195 0468 B020CCE1 		strh	r2, [ip, #0]	@ movhi 
 8196 046c 0060A0E3 		mov	r6, #0
 8197 0470 7E00A0E3 		mov	r0, #126
 8198 0474 E4429FE5 		ldr	r4, .L538+156
 8199 0478 FEFFFFEB 		bl	uart1_transmit
 8200 047c 0600A0E1 		mov	r0, r6
 8201 0480 FEFFFFEB 		bl	uart1_transmit
 8202 0484 0150A0E3 		mov	r5, #1
 8203 0488 0D00A0E3 		mov	r0, #13
 8204 048c FEFFFFEB 		bl	uart1_transmit
 8205 0490 0500A0E1 		mov	r0, r5
 8206 0494 0050C4E5 		strb	r5, [r4, #0]
 8207 0498 FEFFFFEB 		bl	uart1_transmit
 8208 049c 0600A0E1 		mov	r0, r6
 8209 04a0 FEFFFFEB 		bl	uart1_transmit
 8210 04a4 0030D4E5 		ldrb	r3, [r4, #0]	@ zero_extendqisi2
 8211 04a8 053083E0 		add	r3, r3, r5
 8212 04ac 0030C4E5 		strb	r3, [r4, #0]
 8213 04b0 0500A0E1 		mov	r0, r5
 8214 04b4 FEFFFFEB 		bl	uart1_transmit
 8215 04b8 0600A0E1 		mov	r0, r6
 8216 04bc FEFFFFEB 		bl	uart1_transmit
 8217 04c0 0600A0E1 		mov	r0, r6
 8218 04c4 FEFFFFEB 		bl	uart1_transmit
 8219 04c8 0030D4E5 		ldrb	r3, [r4, #0]	@ zero_extendqisi2
 8220 04cc 0B3083E2 		add	r3, r3, #11
 8221 04d0 0B00A0E3 		mov	r0, #11
 8222 04d4 0030C4E5 		strb	r3, [r4, #0]
 8223 04d8 FEFFFFEB 		bl	uart1_transmit
 8224 04dc 0030D4E5 		ldrb	r3, [r4, #0]	@ zero_extendqisi2
 8225 04e0 0B3083E2 		add	r3, r3, #11
 8226 04e4 0B00A0E3 		mov	r0, #11
 8227 04e8 0030C4E5 		strb	r3, [r4, #0]
 8228 04ec FEFFFFEB 		bl	uart1_transmit
 8229 04f0 50329FE5 		ldr	r3, .L538+132
 8230 04f4 0020D4E5 		ldrb	r2, [r4, #0]	@ zero_extendqisi2
 8231 04f8 0030D3E5 		ldrb	r3, [r3, #0]	@ zero_extendqisi2
 8232 04fc 0300A0E1 		mov	r0, r3
 8233 0500 023083E0 		add	r3, r3, r2
 8234 0504 0030C4E5 		strb	r3, [r4, #0]
 8235 0508 FEFFFFEB 		bl	uart1_transmit
 8236 050c 50329FE5 		ldr	r3, .L538+160
 8237 0510 0020D4E5 		ldrb	r2, [r4, #0]	@ zero_extendqisi2
 8238 0514 0030D3E5 		ldrb	r3, [r3, #0]	@ zero_extendqisi2
 8239 0518 0300A0E1 		mov	r0, r3
 8240 051c 023083E0 		add	r3, r3, r2
 8241 0520 0030C4E5 		strb	r3, [r4, #0]
 8242 0524 FEFFFFEB 		bl	uart1_transmit
 8243 0528 38329FE5 		ldr	r3, .L538+164
 8244 052c 0020D4E5 		ldrb	r2, [r4, #0]	@ zero_extendqisi2
 8245 0530 0030D3E5 		ldrb	r3, [r3, #0]	@ zero_extendqisi2
 8246 0534 0300A0E1 		mov	r0, r3
 8247 0538 023083E0 		add	r3, r3, r2
 8248 053c 0030C4E5 		strb	r3, [r4, #0]
 8249 0540 FEFFFFEB 		bl	uart1_transmit
 8250 0544 20329FE5 		ldr	r3, .L538+168
 8251 0548 0020D4E5 		ldrb	r2, [r4, #0]	@ zero_extendqisi2
 8252 054c 0030D3E5 		ldrb	r3, [r3, #0]	@ zero_extendqisi2
 8253 0550 0300A0E1 		mov	r0, r3
 8254 0554 023083E0 		add	r3, r3, r2
 8255 0558 0030C4E5 		strb	r3, [r4, #0]
 8256 055c FEFFFFEB 		bl	uart1_transmit
 8257 0560 08329FE5 		ldr	r3, .L538+172
 8258 0564 0020D4E5 		ldrb	r2, [r4, #0]	@ zero_extendqisi2
 8259 0568 0030D3E5 		ldrb	r3, [r3, #0]	@ zero_extendqisi2
 8260 056c 0300A0E1 		mov	r0, r3
 8261 0570 023083E0 		add	r3, r3, r2
 8262 0574 0030C4E5 		strb	r3, [r4, #0]
 8263 0578 FEFFFFEB 		bl	uart1_transmit
 8264 057c 0030D7E5 		ldrb	r3, [r7, #0]	@ zero_extendqisi2
 8265 0580 0020D4E5 		ldrb	r2, [r4, #0]	@ zero_extendqisi2
 8266 0584 0300A0E1 		mov	r0, r3
 8267 0588 023083E0 		add	r3, r3, r2
 8268 058c 0030C4E5 		strb	r3, [r4, #0]
 8269 0590 FEFFFFEB 		bl	uart1_transmit
 8270 0594 0030D4E5 		ldrb	r3, [r4, #0]	@ zero_extendqisi2
 8271 0598 0330E0E1 		mvn	r3, r3
 8272 059c 0030C4E5 		strb	r3, [r4, #0]
 8273 05a0 0000D4E5 		ldrb	r0, [r4, #0]	@ zero_extendqisi2
 8274 05a4 FEFFFFEB 		bl	uart1_transmit
 8275              	.L518:
 8276 05a8 98319FE5 		ldr	r3, .L538+132
 8277 05ac 0050D3E5 		ldrb	r5, [r3, #0]	@ zero_extendqisi2
 8278 05b0 010055E3 		cmp	r5, #1
 8279 05b4 8901001A 		bne	.L521
 8280 05b8 004098E5 		ldr	r4, [r8, #0]
 8281 05bc F000D4E1 		ldrsh	r0, [r4, #0]
 8282 05c0 FEFFFFEB 		bl	__floatsisf
 8283 05c4 A8119FE5 		ldr	r1, .L538+176
 8284 05c8 FEFFFFEB 		bl	__divsf3
 8285 05cc FEFFFFEB 		bl	__extendsfdf2
 8286 05d0 EC208FE2 		adr	r2, .L538
 8287 05d4 0C0092E8 		ldmia	r2, {r2-r3}
 8288 05d8 FEFFFFEB 		bl	__muldf3
 8289 05dc E8208FE2 		adr	r2, .L538+8
 8290 05e0 0C0092E8 		ldmia	r2, {r2-r3}
 8291 05e4 FEFFFFEB 		bl	__adddf3
 8292 05e8 FEFFFFEB 		bl	__truncdfsf2
 8293 05ec 84319FE5 		ldr	r3, .L538+180
 8294 05f0 000083E5 		str	r0, [r3, #0]	@ float
 8295 05f4 F200D4E1 		ldrsh	r0, [r4, #2]
 8296 05f8 FEFFFFEB 		bl	__floatsisf
 8297 05fc 70119FE5 		ldr	r1, .L538+176
 8298 0600 FEFFFFEB 		bl	__divsf3
 8299 0604 FEFFFFEB 		bl	__extendsfdf2
 8300 0608 C4208FE2 		adr	r2, .L538+16
 8301 060c 0C0092E8 		ldmia	r2, {r2-r3}
 8302 0610 FEFFFFEB 		bl	__muldf3
 8303 0614 B0208FE2 		adr	r2, .L538+8
 8304 0618 0C0092E8 		ldmia	r2, {r2-r3}
 8305 061c FEFFFFEB 		bl	__adddf3
 8306 0620 FEFFFFEB 		bl	__truncdfsf2
 8307 0624 50319FE5 		ldr	r3, .L538+184
 8308 0628 000083E5 		str	r0, [r3, #0]	@ float
 8309              	.L521:
 8310 062c 010055E3 		cmp	r5, #1
 8311 0630 0C319F95 		ldrls	r3, .L538+128
 8312 0634 00209395 		ldrls	r2, [r3, #0]
 8313 0638 40319F95 		ldrls	r3, .L538+188
 8314 063c B620D291 		ldrlsh	r2, [r2, #6]
 8315 0640 B020C391 		strlsh	r2, [r3, #0]	@ movhi 
 8316 0644 F8309FE5 		ldr	r3, .L538+128
 8317 0648 001093E5 		ldr	r1, [r3, #0]
 8318 064c 30319FE5 		ldr	r3, .L538+192
 8319 0650 0E20D1E5 		ldrb	r2, [r1, #14]	@ zero_extendqisi2
 8320 0654 0020C3E5 		strb	r2, [r3, #0]
 8321 0658 28319FE5 		ldr	r3, .L538+196
 8322 065c 1120D1E5 		ldrb	r2, [r1, #17]	@ zero_extendqisi2
 8323 0660 0020C3E5 		strb	r2, [r3, #0]
 8324 0664 20319FE5 		ldr	r3, .L538+200
 8325 0668 B030D3E1 		ldrh	r3, [r3, #0]
 8326 066c 142091E5 		ldr	r2, [r1, #20]
 8327 0670 000053E3 		cmp	r3, #0
 8328 0674 14319FE5 		ldr	r3, .L538+204
 8329 0678 002083E5 		str	r2, [r3, #0]
 8330 067c A501001A 		bne	.L502
 8331 0680 020055E3 		cmp	r5, #2
 8332 0684 A501001A 		bne	.L502
 8333 0688 F630D1E1 		ldrsh	r3, [r1, #6]
 8334 068c 870D53E3 		cmp	r3, #8640
 8335 0690 58309FC5 		ldrgt	r3, .L538+44
 8336 0694 0120A0C3 		movgt	r2, #1
 8337 0698 0020C3C5 		strgtb	r2, [r3, #0]
 8338              	.L502:
 8339 069c FEFFFFEB 		bl	ins_ardu_event
 8340 06a0 FEFFFFEB 		bl	baro_scp_event
 8341 06a4 E8309FE5 		ldr	r3, .L538+208
 8342 06a8 2C3093E5 		ldr	r3, [r3, #44]
 8343 06ac 020053E3 		cmp	r3, #2
 8344 06b0 FEFFFF0B 		bleq	airspeed_ets_read_event
 8345              	.L526:
 8346 06b4 FEFFFFEB 		bl	humid_sht_event
 8347 06b8 FEFFFFEB 		bl	ir_mlx_event
 8348 06bc F0699DE8 		ldmfd	sp, {r4, r5, r6, r7, r8, fp, sp, lr}
 8349 06c0 1EFF2FE1 		bx	lr
 8350              	.L539:
 8351              		.align	2
 8352              	.L538:
 8353 06c4 3333EBBF 		.word	-1075104973
 8354 06c8 33333333 		.word	858993459
 8355 06cc 00000000 		.word	0
 8356 06d0 00000000 		.word	0
 8357 06d4 3333E33F 		.word	1071854387
 8358 06d8 33333333 		.word	858993459
 8359 06dc 00000000 		.word	uart0_rx_insert_idx
 8360 06e0 00000000 		.word	uart0_rx_extract_idx
 8361 06e4 00000000 		.word	gps_msg_received
 8362 06e8 00000000 		.word	uart0_rx_buffer
 8363 06ec 00000000 		.word	gps_pos_available
 8364 06f0 00000000 		.word	launch
 8365 06f4 00000000 		.word	gps_mode
 8366 06f8 00000000 		.word	gps_verbose_downlink
 8367 06fc 00000000 		.word	cpu_time_sec
 8368 0700 00000000 		.word	last_gps_msg_t
 8369 0704 008002E0 		.word	-536707072
 8370 0708 00000000 		.word	uart1_rx_insert_idx
 8371 070c 00000000 		.word	uart1_rx_extract_idx
 8372 0710 00000000 		.word	xbee_msg_received
 8373 0714 00000000 		.word	xbee_status.0
 8374 0718 00000000 		.word	uart1_rx_buffer
 8375 071c 00000000 		.word	xbee_ovrn
 8376 0720 00000000 		.word	xbee_payload_len
 8377 0724 00000000 		.word	cs.1
 8378 0728 00000000 		.word	payload_idx.2
 8379 072c 00000000 		.word	xbee_payload
 8380 0730 00000000 		.word	xbee_error
 8381 0734 00000000 		.word	xbee_rssi
 8382 0738 00000000 		.word	dl_buffer
 8383 073c 00000000 		.word	dl_msg_available
 8384 0740 00000000 		.word	inter_mcu_received_fbw
 8385 0744 00000000 		.word	fbw_state
 8386 0748 00000000 		.word	pprz_mode
 8387 074c 00000000 		.word	too_far_from_home
 8388 0750 00000000 		.word	mcu1_status
 8389 0754 00000000 		.word	downlink_nb_ovrn
 8390 0758 00000000 		.word	downlink_nb_bytes
 8391 075c 00000000 		.word	downlink_nb_msgs
 8392 0760 00000000 		.word	xbee_cs
 8393 0764 00000000 		.word	v_ctl_mode
 8394 0768 00000000 		.word	lateral_mode
 8395 076c 00000000 		.word	horizontal_mode
 8396 0770 00000000 		.word	rc_settings_mode
 8397 0774 00001646 		.word	1175846912
 8398 0778 00000000 		.word	h_ctl_roll_setpoint
 8399 077c 00000000 		.word	h_ctl_pitch_setpoint
 8400 0780 00000000 		.word	v_ctl_throttle_setpoint
 8401 0784 00000000 		.word	mcu1_ppm_cpt
 8402 0788 00000000 		.word	vsupply
 8403 078c 00000000 		.word	estimator_flight_time
 8404 0790 00000000 		.word	current
 8405 0794 00000000 		.word	airspeed_ets_i2c_trans
 8407              		.global	vsupply
 8408              		.section	.bss.vsupply,"aw",%nobits
 8411              	vsupply:
 8412 0000 00       		.space	1
 8413              		.global	slider_1_val
 8414              		.section	.bss.slider_1_val,"aw",%nobits
 8415              		.align	2
 8418              	slider_1_val:
 8419 0000 00000000 		.space	4
 8420              		.global	slider_2_val
 8421              		.section	.bss.slider_2_val,"aw",%nobits
 8422              		.align	2
 8425              	slider_2_val:
 8426 0000 00000000 		.space	4
 8427              		.global	power_switch
 8428              		.section	.bss.power_switch,"aw",%nobits
 8431              	power_switch:
 8432 0000 00       		.space	1
 8433              		.section	.bss.mcu1_status,"aw",%nobits
 8436              	mcu1_status:
 8437 0000 00       		.space	1
 8438              		.section	.bss.mcu1_ppm_cpt,"aw",%nobits
 8441              	mcu1_ppm_cpt:
 8442 0000 00       		.space	1
 8443              		.section	.bss.current,"aw",%nobits
 8444              		.align	2
 8447              	current:
 8448 0000 00000000 		.space	4
 8449              		.global	energy
 8450              		.section	.bss.energy,"aw",%nobits
 8451              		.align	2
 8454              	energy:
 8455 0000 00000000 		.space	4
 8456              		.ident	"GCC: (GNU) 3.4.4"
DEFINED SYMBOLS
                            *ABS*:00000000 main_ap.c
     /tmp/ccVQZuQa.s:6      .data.ac_ident:00000000 ac_ident
     /tmp/ccVQZuQa.s:12     .data.gps_lost:00000000 gps_lost
     /tmp/ccVQZuQa.s:18     .data.launch:00000000 launch
     /tmp/ccVQZuQa.s:24     .data.kill_throttle:00000000 kill_throttle
     /tmp/ccVQZuQa.s:30     .data.lateral_mode:00000000 lateral_mode
     /tmp/ccVQZuQa.s:36     .data.pprz_mode:00000000 pprz_mode
     /tmp/ccVQZuQa.s:42     .data.fatal_error_nb:00000000 fatal_error_nb
     /tmp/ccVQZuQa.s:48     .data.rc_settings_mode:00000000 rc_settings_mode
     /tmp/ccVQZuQa.s:54     .rodata.version:00000000 version
     /tmp/ccVQZuQa.s:59     .bss.last_pprz_mode.54:00000000 last_pprz_mode.54
     /tmp/ccVQZuQa.s:76     .text.navigation_task:00000000 navigation_task
     /tmp/ccVQZuQa.s:80     .text.navigation_task:00000000 $a
     /tmp/ccVQZuQa.s:325    .text.navigation_task:000003b8 $d
     /tmp/ccVQZuQa.s:8436   .bss.mcu1_status:00000000 mcu1_status
     /tmp/ccVQZuQa.s:8411   .bss.vsupply:00000000 vsupply
     /tmp/ccVQZuQa.s:361    .text.navigation_task:00000444 $a
     /tmp/ccVQZuQa.s:678    .text.navigation_task:000008fc $d
     /tmp/ccVQZuQa.s:8447   .bss.current:00000000 current
     /tmp/ccVQZuQa.s:8454   .bss.energy:00000000 energy
     /tmp/ccVQZuQa.s:694    .data._60Hz.3:00000000 _60Hz.3
     /tmp/ccVQZuQa.s:699    .data._20Hz.4:00000000 _20Hz.4
     /tmp/ccVQZuQa.s:704    .data._10Hz.5:00000000 _10Hz.5
     /tmp/ccVQZuQa.s:709    .data._4Hz.6:00000000 _4Hz.6
     /tmp/ccVQZuQa.s:714    .data._1Hz.7:00000000 _1Hz.7
     /tmp/ccVQZuQa.s:719    .data.boot.9:00000000 boot.9
     /tmp/ccVQZuQa.s:724    .data.i15.10:00000000 i15.10
     /tmp/ccVQZuQa.s:729    .data.i30.11:00000000 i30.11
     /tmp/ccVQZuQa.s:734    .data.i60.12:00000000 i60.12
     /tmp/ccVQZuQa.s:739    .data.i63.13:00000000 i63.13
     /tmp/ccVQZuQa.s:744    .data.i66.14:00000000 i66.14
     /tmp/ccVQZuQa.s:749    .data.i72.15:00000000 i72.15
     /tmp/ccVQZuQa.s:754    .data.i90.16:00000000 i90.16
     /tmp/ccVQZuQa.s:759    .data.i120.17:00000000 i120.17
     /tmp/ccVQZuQa.s:764    .data.i126.18:00000000 i126.18
     /tmp/ccVQZuQa.s:769    .data.i150.19:00000000 i150.19
     /tmp/ccVQZuQa.s:775    .data.i300.20:00000000 i300.20
     /tmp/ccVQZuQa.s:781    .data.i306.21:00000000 i306.21
     /tmp/ccVQZuQa.s:787    .data.i540.22:00000000 i540.22
     /tmp/ccVQZuQa.s:792    .bss.i.23:00000000 i.23
     /tmp/ccVQZuQa.s:798    .bss.i.24:00000000 i.24
     /tmp/ccVQZuQa.s:804    .bss.last.25:00000000 last.25
     /tmp/ccVQZuQa.s:809    .data.i63.26:00000000 i63.26
     /tmp/ccVQZuQa.s:814    .data.i66.27:00000000 i66.27
     /tmp/ccVQZuQa.s:819    .data.i78.28:00000000 i78.28
     /tmp/ccVQZuQa.s:824    .data.i84.29:00000000 i84.29
     /tmp/ccVQZuQa.s:829    .data.i90.30:00000000 i90.30
     /tmp/ccVQZuQa.s:834    .data.i126.31:00000000 i126.31
     /tmp/ccVQZuQa.s:839    .data.i180.32:00000000 i180.32
     /tmp/ccVQZuQa.s:844    .data.i183.33:00000000 i183.33
     /tmp/ccVQZuQa.s:849    .data.i192.34:00000000 i192.34
     /tmp/ccVQZuQa.s:854    .data.i240.35:00000000 i240.35
     /tmp/ccVQZuQa.s:859    .data.i243.36:00000000 i243.36
     /tmp/ccVQZuQa.s:865    .data.i300.37:00000000 i300.37
     /tmp/ccVQZuQa.s:871    .data.i306.38:00000000 i306.38
     /tmp/ccVQZuQa.s:877    .data.i312.39:00000000 i312.39
     /tmp/ccVQZuQa.s:883    .data.i540.40:00000000 i540.40
     /tmp/ccVQZuQa.s:889    .data.i606.41:00000000 i606.41
     /tmp/ccVQZuQa.s:894    .bss.i.42:00000000 i.42
     /tmp/ccVQZuQa.s:899    .bss.i.43:00000000 i.43
     /tmp/ccVQZuQa.s:905    .bss.last.44:00000000 last.44
     /tmp/ccVQZuQa.s:911    .data.i300.45:00000000 i300.45
     /tmp/ccVQZuQa.s:917    .data.i306.46:00000000 i306.46
     /tmp/ccVQZuQa.s:923    .data.i318.47:00000000 i318.47
     /tmp/ccVQZuQa.s:929    .data.i324.48:00000000 i324.48
     /tmp/ccVQZuQa.s:935    .data.i330.49:00000000 i330.49
     /tmp/ccVQZuQa.s:941    .data.i342.50:00000000 i342.50
     /tmp/ccVQZuQa.s:947    .data.i606.51:00000000 i606.51
     /tmp/ccVQZuQa.s:953    .data.i612.52:00000000 i612.52
     /tmp/ccVQZuQa.s:959    .bss.last.53:00000000 last.53
     /tmp/ccVQZuQa.s:964    .data.t.8:00000000 t.8
     /tmp/ccVQZuQa.s:970    .bss.i1.55:00000000 i1.55
     /tmp/ccVQZuQa.s:975    .bss.i6.56:00000000 i6.56
     /tmp/ccVQZuQa.s:980    .bss.i7.57:00000000 i7.57
     /tmp/ccVQZuQa.s:985    .bss.i15.58:00000000 i15.58
     /tmp/ccVQZuQa.s:990    .bss.i33.59:00000000 i33.59
     /tmp/ccVQZuQa.s:1000   .text.periodic_task_ap:00000000 periodic_task_ap
     /tmp/ccVQZuQa.s:1004   .text.periodic_task_ap:00000000 $a
     /tmp/ccVQZuQa.s:1594   .text.periodic_task_ap:00000910 $d
     /tmp/ccVQZuQa.s:1710   .text.periodic_task_ap:00000adc $a
     /tmp/ccVQZuQa.s:2562   .text.periodic_task_ap:00001804 $d
     /tmp/ccVQZuQa.s:2610   .text.periodic_task_ap:000018c0 $a
     /tmp/ccVQZuQa.s:3573   .text.periodic_task_ap:000026b8 $d
     /tmp/ccVQZuQa.s:3687   .text.periodic_task_ap:0000287c $a
     /tmp/ccVQZuQa.s:4499   .text.periodic_task_ap:00003508 $d
     /tmp/ccVQZuQa.s:4547   .text.periodic_task_ap:000035c4 $a
     /tmp/ccVQZuQa.s:5227   .text.periodic_task_ap:00003f74 $d
     /tmp/ccVQZuQa.s:5288   .text.periodic_task_ap:00004064 $a
     /tmp/ccVQZuQa.s:6509   .text.periodic_task_ap:00005330 $d
     /tmp/ccVQZuQa.s:6554   .text.periodic_task_ap:000053e0 $a
     /tmp/ccVQZuQa.s:7326   .text.periodic_task_ap:00005fc4 $d
     /tmp/ccVQZuQa.s:7370   .text.periodic_task_ap:00006070 $a
     /tmp/ccVQZuQa.s:7816   .text.init_ap:00000000 init_ap
     /tmp/ccVQZuQa.s:7820   .text.init_ap:00000000 $a
     /tmp/ccVQZuQa.s:7855   .text.init_ap:0000007c $d
     /tmp/ccVQZuQa.s:8431   .bss.power_switch:00000000 power_switch
     /tmp/ccVQZuQa.s:7862   .data.xbee_status.0:00000000 xbee_status.0
     /tmp/ccVQZuQa.s:7867   .bss.cs.1:00000000 cs.1
     /tmp/ccVQZuQa.s:7872   .bss.payload_idx.2:00000000 payload_idx.2
     /tmp/ccVQZuQa.s:7879   .text.event_task_ap:00000000 event_task_ap
     /tmp/ccVQZuQa.s:7883   .text.event_task_ap:00000000 $a
     /tmp/ccVQZuQa.s:7971   .text.event_task_ap:00000144 $d
     /tmp/ccVQZuQa.s:7977   .text.event_task_ap:00000158 $a
     /tmp/ccVQZuQa.s:8353   .text.event_task_ap:000006c4 $d
     /tmp/ccVQZuQa.s:8441   .bss.mcu1_ppm_cpt:00000000 mcu1_ppm_cpt
     /tmp/ccVQZuQa.s:8418   .bss.slider_1_val:00000000 slider_1_val
     /tmp/ccVQZuQa.s:8425   .bss.slider_2_val:00000000 slider_2_val

UNDEFINED SYMBOLS
__extendsfdf2
__divdf3
__fixunsdfsi
__floatsidf
__gtdf2
__floatsisf
__addsf3
__muldf3
__fixdfsi
__ltdf2
__divsf3
__mulsf3
uart1_check_free_space
uart1_transmit
common_nav_periodic_task_4Hz
nav_home
nav_without_gps
cpu_time_sec
last_gps_msg_t
horizontal_mode
nav_circle_radians
downlink_nb_ovrn
downlink_nb_bytes
downlink_nb_msgs
xbee_cs
nav_block
nav_stage
estimator_x
estimator_y
dist2_to_wp
dist2_to_home
nav_oval_count
v_ctl_mode
nav_throttle_setpoint
v_ctl_throttle_setpoint
nav_pitch
h_ctl_pitch_setpoint
nav_periodic_task
v_ctl_altitude_loop
h_ctl_course_loop
v_ctl_climb_loop
estimator_flight_time
__fixsfsi
__gtsf2
gps_send
estimator_phi
estimator_psi
estimator_theta
estimator_z
estimator_z_dot
nb_waypoint
nav_utm_east0
waypoints
nav_utm_north0
nav_utm_zone0
nav_in_circle
nav_circle_x
nav_circle_y
nav_circle_radius
h_ctl_roll_setpoint
h_ctl_pitch_loop_setpoint
h_ctl_course_setpoint
desired_x
desired_y
v_ctl_altitude_setpoint
v_ctl_climb_setpoint
v_ctl_throttle_slewed
block_time
nav_in_segment
nav_segment_x_1
nav_segment_y_1
nav_segment_x_2
nav_segment_y_2
flight_altitude
wind_east
wind_north
alt_kalman_enabled
stage_time
telemetry_mode_Ap_DefaultChannel
telemetry_mode_Fbw_DefaultChannel
gps_reset
ins_roll_neutral
ins_pitch_neutral
h_ctl_roll_pgain
h_ctl_roll_max_setpoint
h_ctl_pitch_pgain
h_ctl_pitch_dgain
h_ctl_elevator_of_roll
h_ctl_aileron_of_throttle
h_ctl_roll_attitude_gain
h_ctl_roll_rate_gain
v_ctl_altitude_pgain
v_ctl_auto_throttle_cruise_throttle
v_ctl_auto_throttle_pgain
v_ctl_auto_throttle_igain
v_ctl_auto_throttle_dgain
v_ctl_auto_throttle_climb_throttle_increment
v_ctl_auto_throttle_pitch_of_vz_pgain
v_ctl_auto_throttle_pitch_of_vz_dgain
v_ctl_auto_pitch_pgain
v_ctl_auto_pitch_igain
h_ctl_course_pgain
h_ctl_course_dgain
h_ctl_course_pre_bank_correction
nav_glide_pitch_trim
h_ctl_roll_slew
nav_radius
nav_course
nav_mode
nav_climb
fp_pitch
nav_shift
nav_ground_speed_setpoint
nav_ground_speed_pgain
nav_survey_shift
gps_Pacc
gps_Sacc
gps_PDOP
gps_numSV
v_ctl_auto_throttle_sum_err
v_ctl_auto_throttle_submode
nav_survey_active
nav_survey_east
nav_survey_north
nav_survey_west
nav_survey_south
datalink_time
estimator_hspeed_mod
ap_state
h_ctl_aileron_setpoint
h_ctl_elevator_setpoint
inter_mcu_received_ap
estimator_propagate_state
h_ctl_attitude_loop
v_ctl_throttle_slew
ins_ardu_periodic
airspeed_ets_read_periodic
ir_mlx_periodic
humid_sht_periodic
humid_sht_p_temp
humid_sht_p_humid
baro_scp_periodic
__adddf3
gps_init
h_ctl_init
v_ctl_init
estimator_init
alt_kalman_init
nav_init
ins_ardu_init
baro_scp_init
airspeed_ets_init
humid_sht_init
ir_mlx_init
settings_init
enableIRQ
xbee_init
traffic_info_init
__truncdfsf2
parse_ubx
parse_gps_msg
estimator_update_state_gps
gps_downlink
dl_parse_msg
ins_ardu_event
baro_scp_event
airspeed_ets_read_event
humid_sht_event
ir_mlx_event
uart0_rx_insert_idx
uart0_rx_extract_idx
gps_msg_received
uart0_rx_buffer
gps_pos_available
gps_mode
gps_verbose_downlink
uart1_rx_insert_idx
uart1_rx_extract_idx
xbee_msg_received
uart1_rx_buffer
xbee_ovrn
xbee_payload_len
xbee_payload
xbee_error
xbee_rssi
dl_buffer
dl_msg_available
inter_mcu_received_fbw
fbw_state
too_far_from_home
airspeed_ets_i2c_trans
