   1              		.file	"adc_arch.c"
   2              		.global	adc1_val
   3              		.section	.data.adc1_val,"aw",%progbits
   4              		.align	1
   7              	adc1_val:
   8 0000 0900     		.short	9
   9 0002 0A00     		.short	10
  10 0004 0B00     		.short	11
  11 0006 0C00     		.short	12
  12 0008 0D00     		.short	13
  13 000a 0E00     		.short	14
  14 000c 0F00     		.short	15
  15 000e 1000     		.short	16
  16              		.global	adc0_val
  17              		.section	.data.adc0_val,"aw",%progbits
  18              		.align	1
  21              	adc0_val:
  22 0000 0100     		.short	1
  23 0002 0200     		.short	2
  24 0004 0300     		.short	3
  25 0006 0400     		.short	4
  26 0008 0500     		.short	5
  27 000a 0600     		.short	6
  28 000c 0700     		.short	7
  29 000e 0800     		.short	8
  30              		.section	.text.adc_buf_channel,"ax",%progbits
  31              		.align	2
  32              		.global	adc_buf_channel
  34              	adc_buf_channel:
  35              		@ Function supports interworking.
  36              		@ args = 0, pretend = 0, frame = 0
  37              		@ frame_needed = 0, uses_anonymous_args = 0
  38              		@ link register save eliminated.
  39 0000 0C309FE5 		ldr	r3, .L2
  40 0004 FF0000E2 		and	r0, r0, #255
  41 0008 001183E7 		str	r1, [r3, r0, asl #2]
  42              		@ lr needed for prologue
  43 000c 4520C1E5 		strb	r2, [r1, #69]
  44 0010 1EFF2FE1 		bx	lr
  45              	.L3:
  46              		.align	2
  47              	.L2:
  48 0014 00000000 		.word	buffers
  50              		.section	.text.adc_init,"ax",%progbits
  51              		.align	2
  52              		.global	adc_init
  54              	adc_init:
  55              		@ Function supports interworking.
  56              		@ args = 0, pretend = 0, frame = 0
  57              		@ frame_needed = 0, uses_anonymous_args = 0
  58              		@ link register save eliminated.
  59 0000 84209FE5 		ldr	r2, .L5
  60 0004 003092E5 		ldr	r3, [r2, #0]
  61 0008 033183E3 		orr	r3, r3, #-1073741824
  62 000c 033C83E3 		orr	r3, r3, #768
  63 0010 003082E5 		str	r3, [r2, #0]
  64 0014 043092E5 		ldr	r3, [r2, #4]
  65 0018 413A83E3 		orr	r3, r3, #266240
  66 001c 023B83E3 		orr	r3, r3, #2048
  67 0020 043082E5 		str	r3, [r2, #4]
  68 0024 64209FE5 		ldr	r2, .L5+4
  69 0028 64309FE5 		ldr	r3, .L5+8
  70 002c 002083E5 		str	r2, [r3, #0]
  71 0030 60209FE5 		ldr	r2, .L5+12
  72 0034 0C3092E5 		ldr	r3, [r2, #12]
  73 0038 0137C3E3 		bic	r3, r3, #262144
  74 003c 0C3082E5 		str	r3, [r2, #12]
  75 0040 0137A0E3 		mov	r3, #262144
  76 0044 103082E5 		str	r3, [r2, #16]
  77 0048 3230A0E3 		mov	r3, #50
  78 004c 083282E5 		str	r3, [r2, #520]
  79 0050 44309FE5 		ldr	r3, .L5+16
  80 0054 44109FE5 		ldr	r1, .L5+20
  81 0058 083182E5 		str	r3, [r2, #264]
  82 005c 40309FE5 		ldr	r3, .L5+24
  83 0060 001083E5 		str	r1, [r3, #0]
  84 0064 0C3092E5 		ldr	r3, [r2, #12]
  85 0068 0236C3E3 		bic	r3, r3, #2097152
  86 006c 0C3082E5 		str	r3, [r2, #12]
  87 0070 0236A0E3 		mov	r3, #2097152
  88 0074 103082E5 		str	r3, [r2, #16]
  89 0078 3530A0E3 		mov	r3, #53
  90 007c 103282E5 		str	r3, [r2, #528]
  91 0080 20309FE5 		ldr	r3, .L5+28
  92              		@ lr needed for prologue
  93 0084 103182E5 		str	r3, [r2, #272]
  94 0088 1EFF2FE1 		bx	lr
  95              	.L6:
  96              		.align	2
  97              	.L5:
  98 008c 00C002E0 		.word	-536690688
  99 0090 50FF2100 		.word	2228048
 100 0094 004003E0 		.word	-536657920
 101 0098 00F0FFFF 		.word	-4096
 102 009c 00000000 		.word	adcISR0
 103 00a0 E0FF2100 		.word	2228192
 104 00a4 000006E0 		.word	-536477696
 105 00a8 00000000 		.word	adcISR1
 107              		.section	.text.adcISR0,"ax",%progbits
 108              		.align	2
 109              		.global	adcISR0
 111              	adcISR0:
 112              		@ Function supports interworking.
 113              		@ Naked Function: prologue and epilogue provided by programmer.
 114              		@ args = 0, pretend = 0, frame = 0
 115              		@ frame_needed = 0, uses_anonymous_args = 0
 116 0000 04E04EE2 		 sub   lr, lr,#4
 117 0004 FF5F2DE9 	 stmfd sp!,{r0-r12,lr}
 118 0008 00104FE1 	 mrs   r1, spsr
 119 000c 02002DE9 	 stmfd sp!,{r1}
 120 0010 7C309FE5 		ldr	r3, .L10
 121 0014 042093E5 		ldr	r2, [r3, #4]
 122 0018 78309FE5 		ldr	r3, .L10+4
 123 001c 221CA0E1 		mov	r1, r2, lsr #24
 124 0020 071001E2 		and	r1, r1, #7
 125 0024 01C193E7 		ldr	ip, [r3, r1, asl #2]
 126 0028 0228A0E1 		mov	r2, r2, asl #16
 127 002c 68309FE5 		ldr	r3, .L10+8
 128 0030 22EBA0E1 		mov	lr, r2, lsr #22
 129 0034 8110A0E1 		mov	r1, r1, asl #1
 130 0038 00005CE3 		cmp	ip, #0
 131 003c B3E081E1 		strh	lr, [r1, r3]	@ movhi 
 132 0040 1D00000A 		beq	.L8
 133 0044 4430DCE5 		ldrb	r3, [ip, #68]	@ zero_extendqisi2
 134 0048 4520DCE5 		ldrb	r2, [ip, #69]	@ zero_extendqisi2
 135 004c 013083E2 		add	r3, r3, #1
 136 0050 FF3003E2 		and	r3, r3, #255
 137 0054 030052E1 		cmp	r2, r3
 138 0058 0030A093 		movls	r3, #0
 139 005c 83008CE0 		add	r0, ip, r3, asl #1
 140 0060 00209CE5 		ldr	r2, [ip, #0]
 141 0064 B410D0E1 		ldrh	r1, [r0, #4]
 142 0068 022061E0 		rsb	r2, r1, r2
 143 006c 0E2082E0 		add	r2, r2, lr
 144 0070 4430CCE5 		strb	r3, [ip, #68]
 145 0074 00208CE5 		str	r2, [ip, #0]
 146 0078 B4E0C0E1 		strh	lr, [r0, #4]	@ movhi 
 147              	.L8:
 148 007c 1C309FE5 		ldr	r3, .L10+12
 149 0080 0020A0E3 		mov	r2, #0
 150 0084 302083E5 		str	r2, [r3, #48]
 151 0088 0200BDE8 		 ldmfd sp!,{r1}
 152 008c 01F061E1 	 msr   spsr_c,r1
 153 0090 FF9FFDE8 	 ldmfd sp!,{r0-r12,pc}^
 154              	.L11:
 155              		.align	2
 156              	.L10:
 157 0094 004003E0 		.word	-536657920
 158 0098 00000000 		.word	buffers
 159 009c 00000000 		.word	adc0_val
 160 00a0 00F0FFFF 		.word	-4096
 162              		.section	.text.adcISR1,"ax",%progbits
 163              		.align	2
 164              		.global	adcISR1
 166              	adcISR1:
 167              		@ Function supports interworking.
 168              		@ Naked Function: prologue and epilogue provided by programmer.
 169              		@ args = 0, pretend = 0, frame = 0
 170              		@ frame_needed = 0, uses_anonymous_args = 0
 171 0000 04E04EE2 		 sub   lr, lr,#4
 172 0004 FF5F2DE9 	 stmfd sp!,{r0-r12,lr}
 173 0008 00104FE1 	 mrs   r1, spsr
 174 000c 02002DE9 	 stmfd sp!,{r1}
 175 0010 80309FE5 		ldr	r3, .L15
 176 0014 042093E5 		ldr	r2, [r3, #4]
 177 0018 7C309FE5 		ldr	r3, .L15+4
 178 001c 221CA0E1 		mov	r1, r2, lsr #24
 179 0020 071001E2 		and	r1, r1, #7
 180 0024 013183E0 		add	r3, r3, r1, asl #2
 181 0028 20C093E5 		ldr	ip, [r3, #32]
 182 002c 0228A0E1 		mov	r2, r2, asl #16
 183 0030 68309FE5 		ldr	r3, .L15+8
 184 0034 22EBA0E1 		mov	lr, r2, lsr #22
 185 0038 8110A0E1 		mov	r1, r1, asl #1
 186 003c 00005CE3 		cmp	ip, #0
 187 0040 B3E081E1 		strh	lr, [r1, r3]	@ movhi 
 188 0044 1E00000A 		beq	.L13
 189 0048 4430DCE5 		ldrb	r3, [ip, #68]	@ zero_extendqisi2
 190 004c 4520DCE5 		ldrb	r2, [ip, #69]	@ zero_extendqisi2
 191 0050 013083E2 		add	r3, r3, #1
 192 0054 FF3003E2 		and	r3, r3, #255
 193 0058 030052E1 		cmp	r2, r3
 194 005c 0030A093 		movls	r3, #0
 195 0060 83008CE0 		add	r0, ip, r3, asl #1
 196 0064 00209CE5 		ldr	r2, [ip, #0]
 197 0068 B410D0E1 		ldrh	r1, [r0, #4]
 198 006c 022061E0 		rsb	r2, r1, r2
 199 0070 0E2082E0 		add	r2, r2, lr
 200 0074 4430CCE5 		strb	r3, [ip, #68]
 201 0078 00208CE5 		str	r2, [ip, #0]
 202 007c B4E0C0E1 		strh	lr, [r0, #4]	@ movhi 
 203              	.L13:
 204 0080 1C309FE5 		ldr	r3, .L15+12
 205 0084 0020A0E3 		mov	r2, #0
 206 0088 302083E5 		str	r2, [r3, #48]
 207 008c 0200BDE8 		 ldmfd sp!,{r1}
 208 0090 01F061E1 	 msr   spsr_c,r1
 209 0094 FF9FFDE8 	 ldmfd sp!,{r0-r12,pc}^
 210              	.L16:
 211              		.align	2
 212              	.L15:
 213 0098 000006E0 		.word	-536477696
 214 009c 00000000 		.word	buffers
 215 00a0 00000000 		.word	adc1_val
 216 00a4 00F0FFFF 		.word	-4096
 218              		.section	.bss.buffers,"aw",%nobits
 219              		.align	2
 222              	buffers:
 223 0000 00000000 		.space	64
 223      00000000 
 223      00000000 
 223      00000000 
 223      00000000 
 224              		.ident	"GCC: (GNU) 3.4.4"