   1              		.file	"datalink.c"
   2              		.global	__floatsisf
   3              		.global	__divsf3
   4              		.global	__extendsfdf2
   5              		.global	__divdf3
   6              		.global	__muldf3
   7              		.global	__truncdfsf2
   8              		.global	__addsf3
   9              		.global	__subsf3
  10              		.global	__floatsidf
  11              		.global	__fixunsdfsi
  12              		.global	__eqsf2
  13              		.global	__fixunssfsi
  14              		.section	.text.dl_parse_msg,"ax",%progbits
  15              		.align	2
  16              		.global	dl_parse_msg
  18              	dl_parse_msg:
  19              		@ Function supports interworking.
  20              		@ args = 0, pretend = 0, frame = 24
  21              		@ frame_needed = 1, uses_anonymous_args = 0
  22 0000 0DC0A0E1 		mov	ip, sp
  23 0004 F0DF2DE9 		stmfd	sp!, {r4, r5, r6, r7, r8, r9, sl, fp, ip, lr, pc}
  24 0008 04B04CE2 		sub	fp, ip, #4
  25 000c 18D04DE2 		sub	sp, sp, #24
  26 0010 84529FE5 		ldr	r5, .L98+8
  27 0014 0120D5E5 		ldrb	r2, [r5, #1]	@ zero_extendqisi2
  28 0018 80329FE5 		ldr	r3, .L98+12
  29 001c 0010A0E3 		mov	r1, #0	@ movhi
  30 0020 080052E3 		cmp	r2, #8
  31 0024 B010C3E1 		strh	r1, [r3, #0]	@ movhi 
  32 0028 2900001A 		bne	.L2
  33 002c 0600A0E3 		mov	r0, #6
  34 0030 FEFFFFEB 		bl	uart1_check_free_space
  35 0034 FF0010E3 		tst	r0, #255
  36 0038 2904000A 		beq	.L75
  37 003c F4129FE5 		ldr	r1, .L98+164
  38 0040 F4C29FE5 		ldr	ip, .L98+168
  39 0044 B030D1E1 		ldrh	r3, [r1, #0]
  40 0048 B020DCE1 		ldrh	r2, [ip, #0]
  41 004c 063083E2 		add	r3, r3, #6
  42 0050 012082E2 		add	r2, r2, #1
  43 0054 B030C1E1 		strh	r3, [r1, #0]	@ movhi 
  44 0058 B020CCE1 		strh	r2, [ip, #0]	@ movhi 
  45 005c 9900A0E3 		mov	r0, #153
  46 0060 FEFFFFEB 		bl	uart1_transmit
  47 0064 D4429FE5 		ldr	r4, .L98+172
  48 0068 0600A0E3 		mov	r0, #6
  49 006c FEFFFFEB 		bl	uart1_transmit
  50 0070 CC529FE5 		ldr	r5, .L98+176
  51 0074 1830A0E3 		mov	r3, #24
  52 0078 0030C4E5 		strb	r3, [r4, #0]
  53 007c 063083E2 		add	r3, r3, #6
  54 0080 1200A0E3 		mov	r0, #18
  55 0084 0030C5E5 		strb	r3, [r5, #0]
  56 0088 FEFFFFEB 		bl	uart1_transmit
  57 008c 0030D4E5 		ldrb	r3, [r4, #0]	@ zero_extendqisi2
  58 0090 033083E2 		add	r3, r3, #3
  59 0094 0030C4E5 		strb	r3, [r4, #0]
  60 0098 0030D5E5 		ldrb	r3, [r5, #0]	@ zero_extendqisi2
  61 009c 0020D4E5 		ldrb	r2, [r4, #0]	@ zero_extendqisi2
  62 00a0 0300A0E3 		mov	r0, #3
  63 00a4 023083E0 		add	r3, r3, r2
  64 00a8 220400EA 		b	.L90
  65              	.L2:
  66 00ac 010052E3 		cmp	r2, #1
  67 00b0 D700001A 		bne	.L6
  68 00b4 1860D5E5 		ldrb	r6, [r5, #24]	@ zero_extendqisi2
  69 00b8 120056E3 		cmp	r6, #18
  70 00bc 2D04000A 		beq	.L1
  71 00c0 0530D5E5 		ldrb	r3, [r5, #5]	@ zero_extendqisi2
  72 00c4 0400D5E5 		ldrb	r0, [r5, #4]	@ zero_extendqisi2
  73 00c8 0620D5E5 		ldrb	r2, [r5, #6]	@ zero_extendqisi2
  74 00cc 030480E1 		orr	r0, r0, r3, asl #8
  75 00d0 0730D5E5 		ldrb	r3, [r5, #7]	@ zero_extendqisi2
  76 00d4 020880E1 		orr	r0, r0, r2, asl #16
  77 00d8 030C80E1 		orr	r0, r0, r3, asl #24
  78 00dc FEFFFFEB 		bl	__floatsisf
  79 00e0 C8119FE5 		ldr	r1, .L98+28
  80 00e4 FEFFFFEB 		bl	__divsf3
  81 00e8 3C000BE5 		str	r0, [fp, #-60]	@ float
  82 00ec 0930D5E5 		ldrb	r3, [r5, #9]	@ zero_extendqisi2
  83 00f0 0800D5E5 		ldrb	r0, [r5, #8]	@ zero_extendqisi2
  84 00f4 0A20D5E5 		ldrb	r2, [r5, #10]	@ zero_extendqisi2
  85 00f8 030480E1 		orr	r0, r0, r3, asl #8
  86 00fc 0B30D5E5 		ldrb	r3, [r5, #11]	@ zero_extendqisi2
  87 0100 020880E1 		orr	r0, r0, r2, asl #16
  88 0104 030C80E1 		orr	r0, r0, r3, asl #24
  89 0108 FEFFFFEB 		bl	__floatsisf
  90 010c 9C119FE5 		ldr	r1, .L98+28
  91 0110 FEFFFFEB 		bl	__divsf3
  92 0114 40000BE5 		str	r0, [fp, #-64]	@ float
  93 0118 0D30D5E5 		ldrb	r3, [r5, #13]	@ zero_extendqisi2
  94 011c 0C00D5E5 		ldrb	r0, [r5, #12]	@ zero_extendqisi2
  95 0120 0E20D5E5 		ldrb	r2, [r5, #14]	@ zero_extendqisi2
  96 0124 030480E1 		orr	r0, r0, r3, asl #8
  97 0128 0F30D5E5 		ldrb	r3, [r5, #15]	@ zero_extendqisi2
  98 012c 020880E1 		orr	r0, r0, r2, asl #16
  99 0130 030C80E1 		orr	r0, r0, r3, asl #24
 100 0134 FEFFFFEB 		bl	__floatsisf
 101 0138 70119FE5 		ldr	r1, .L98+28
 102 013c FEFFFFEB 		bl	__divsf3
 103 0140 0330D5E5 		ldrb	r3, [r5, #3]	@ zero_extendqisi2
 104 0144 0090A0E1 		mov	r9, r0
 105 0148 0200D5E5 		ldrb	r0, [r5, #2]	@ zero_extendqisi2
 106 014c 030480E1 		orr	r0, r0, r3, asl #8
 107 0150 0008A0E1 		mov	r0, r0, asl #16
 108 0154 4008A0E1 		mov	r0, r0, asr #16
 109 0158 FEFFFFEB 		bl	__floatsisf
 110 015c FEFFFFEB 		bl	__extendsfdf2
 111 0160 4B2F8FE2 		adr	r2, .L98
 112 0164 0C0092E8 		ldmia	r2, {r2-r3}
 113 0168 FEFFFFEB 		bl	__divdf3
 114 016c 772F8FE2 		adr	r2, .L98+188
 115 0170 0C0092E8 		ldmia	r2, {r2-r3}
 116 0174 FEFFFFEB 		bl	__muldf3
 117 0178 FEFFFFEB 		bl	__truncdfsf2
 118 017c 1530D5E5 		ldrb	r3, [r5, #21]	@ zero_extendqisi2
 119 0180 1440D5E5 		ldrb	r4, [r5, #20]	@ zero_extendqisi2
 120 0184 034484E1 		orr	r4, r4, r3, asl #8
 121 0188 0448A0E1 		mov	r4, r4, asl #16
 122 018c 4448A0E1 		mov	r4, r4, asr #16
 123 0190 00A0A0E1 		mov	sl, r0
 124 0194 0400A0E1 		mov	r0, r4
 125 0198 FEFFFFEB 		bl	__floatsisf
 126 019c 000054E3 		cmp	r4, #0
 127 01a0 88119FB5 		ldrlt	r1, .L98+156
 128 01a4 FEFFFFBB 		bllt	__addsf3
 129              	.L7:
 130 01a8 00119FE5 		ldr	r1, .L98+28
 131 01ac FEFFFFEB 		bl	__divsf3
 132 01b0 1730D5E5 		ldrb	r3, [r5, #23]	@ zero_extendqisi2
 133 01b4 0080A0E1 		mov	r8, r0
 134 01b8 1600D5E5 		ldrb	r0, [r5, #22]	@ zero_extendqisi2
 135 01bc 030480E1 		orr	r0, r0, r3, asl #8
 136 01c0 0008A0E1 		mov	r0, r0, asl #16
 137 01c4 4008A0E1 		mov	r0, r0, asr #16
 138 01c8 FEFFFFEB 		bl	__floatsisf
 139 01cc DC109FE5 		ldr	r1, .L98+28
 140 01d0 FEFFFFEB 		bl	__divsf3
 141 01d4 C8C09FE5 		ldr	ip, .L98+16
 142 01d8 1120D5E5 		ldrb	r2, [r5, #17]	@ zero_extendqisi2
 143 01dc 1030D5E5 		ldrb	r3, [r5, #16]	@ zero_extendqisi2
 144 01e0 1210D5E5 		ldrb	r1, [r5, #18]	@ zero_extendqisi2
 145 01e4 0070A0E1 		mov	r7, r0
 146 01e8 0000DCE5 		ldrb	r0, [ip, #0]	@ zero_extendqisi2
 147 01ec 023483E1 		orr	r3, r3, r2, asl #8
 148 01f0 1320D5E5 		ldrb	r2, [r5, #19]	@ zero_extendqisi2
 149 01f4 013883E1 		orr	r3, r3, r1, asl #16
 150 01f8 170050E3 		cmp	r0, #23
 151 01fc 025C83E1 		orr	r5, r3, r2, asl #24
 152 0200 2D04008A 		bhi	.L1
 153 0204 000056E3 		cmp	r6, #0
 154 0208 8B00000A 		beq	.L9
 155 020c 94209FE5 		ldr	r2, .L98+20
 156 0210 0630D2E7 		ldrb	r3, [r2, r6]	@ zero_extendqisi2
 157 0214 000053E3 		cmp	r3, #0
 158 0218 8B00001A 		bne	.L9
 159 021c 0600C2E7 		strb	r0, [r2, r6]
 160 0220 0630D2E7 		ldrb	r3, [r2, r6]	@ zero_extendqisi2
 161 0224 012080E2 		add	r2, r0, #1
 162 0228 0020CCE5 		strb	r2, [ip, #0]
 163 022c 78209FE5 		ldr	r2, .L98+24
 164 0230 8362C2E7 		strb	r6, [r2, r3, asl #5]
 165              	.L9:
 166 0234 6C309FE5 		ldr	r3, .L98+20
 167 0238 0620D3E7 		ldrb	r2, [r3, r6]	@ zero_extendqisi2
 168 023c 7C309FE5 		ldr	r3, .L98+44
 169 0240 64409FE5 		ldr	r4, .L98+24
 170 0244 000093E5 		ldr	r0, [r3, #0]
 171 0248 824284E0 		add	r4, r4, r2, asl #5
 172 024c FEFFFFEB 		bl	__floatsisf
 173 0250 0010A0E1 		mov	r1, r0
 174 0254 3C001BE5 		ldr	r0, [fp, #-60]	@ float
 175 0258 FEFFFFEB 		bl	__subsf3
 176 025c 64309FE5 		ldr	r3, .L98+52
 177 0260 040084E5 		str	r0, [r4, #4]	@ float
 178 0264 000093E5 		ldr	r0, [r3, #0]
 179 0268 FEFFFFEB 		bl	__floatsisf
 180 026c 0010A0E1 		mov	r1, r0
 181 0270 40001BE5 		ldr	r0, [fp, #-64]	@ float
 182 0274 FEFFFFEB 		bl	__subsf3
 183 0278 1C5084E5 		str	r5, [r4, #28]
 184 027c 080084E5 		str	r0, [r4, #8]	@ float
 185 0280 0CA084E5 		str	sl, [r4, #12]	@ float
 186 0284 109084E5 		str	r9, [r4, #16]	@ float
 187 0288 148084E5 		str	r8, [r4, #20]	@ float
 188 028c 187084E5 		str	r7, [r4, #24]	@ float
 189 0290 2D0400EA 		b	.L1
 190              	.L99:
 191              		.align	2
 192              	.L98:
 193 0294 00002440 		.word	1076101120
 194 0298 00000000 		.word	0
 195 029c 00000000 		.word	dl_buffer
 196 02a0 00000000 		.word	datalink_time
 197 02a4 00000000 		.word	acs_idx
 198 02a8 00000000 		.word	the_acs_id
 199 02ac 00000000 		.word	the_acs
 200 02b0 0000C842 		.word	1120403456
 201 02b4 00000000 		.word	nav_utm_zone0
 202 02b8 00000000 		.word	latlong_utm_x
 203 02bc 00000000 		.word	latlong_utm_y
 204 02c0 00000000 		.word	nav_utm_east0
 205 02c4 00000000 		.word	waypoints
 206 02c8 00000000 		.word	nav_utm_north0
 207 02cc 00000000 		.word	nav_circle_radians
 208 02d0 00000000 		.word	nav_block
 209 02d4 00000000 		.word	nav_stage
 210 02d8 00000000 		.word	estimator_x
 211 02dc 00000000 		.word	estimator_y
 212 02e0 00000000 		.word	dist2_to_wp
 213 02e4 00000000 		.word	dist2_to_home
 214 02e8 00000000 		.word	nav_oval_count
 215 02ec 00000000 		.word	wind_east
 216 02f0 00000000 		.word	wind_north
 217 02f4 00000000 		.word	estimator_airspeed
 218 02f8 0000A042 		.word	1117782016
 219 02fc 000080BF 		.word	-1082130432
 220 0300 0000A0C2 		.word	-1029701632
 221 0304 00000000 		.word	flight_altitude
 222 0308 00000000 		.word	nav_course
 223 030c 00000000 		.word	nav_shift
 224 0310 00000000 		.word	estimator_flight_time
 225 0314 00000000 		.word	nav_radius
 226 0318 00000000 		.word	pprz_mode
 227 031c 00000000 		.word	launch
 228 0320 00000000 		.word	kill_throttle
 229 0324 00000000 		.word	telemetry_mode_Ap_DefaultChannel
 230 0328 00008043 		.word	1132462080
 231 032c 00000000 		.word	gps_reset
 232 0330 00008047 		.word	1199570944
 233 0334 00000000 		.word	infrared
 234 0338 00000000 		.word	downlink_nb_bytes
 235 033c 00000000 		.word	downlink_nb_msgs
 236 0340 00000000 		.word	ck_a
 237 0344 00000000 		.word	ck_b
 238 0348 D0126341 		.word	1097011920
 239 034c 00000000 		.word	0
 240 0350 46DF913F 		.word	1066524486
 241 0354 399D52A2 		.word	-1571644103
 242 0358 00000000 		.word	downlink_nb_ovrn
 243 035c FB211940 		.word	1075388923
 244 0360 182D4454 		.word	1413754136
 245              	.L6:
 246 0364 020052E3 		cmp	r2, #2
 247 0368 C401001A 		bne	.L11
 248 036c 0380D5E5 		ldrb	r8, [r5, #3]	@ zero_extendqisi2
 249 0370 120058E3 		cmp	r8, #18
 250 0374 035085E2 		add	r5, r5, #3
 251 0378 2D04001A 		bne	.L1
 252 037c 0A30D5E5 		ldrb	r3, [r5, #10]	@ zero_extendqisi2
 253 0380 0900D5E5 		ldrb	r0, [r5, #9]	@ zero_extendqisi2
 254 0384 0B20D5E5 		ldrb	r2, [r5, #11]	@ zero_extendqisi2
 255 0388 0C10D5E5 		ldrb	r1, [r5, #12]	@ zero_extendqisi2
 256 038c 030480E1 		orr	r0, r0, r3, asl #8
 257 0390 020880E1 		orr	r0, r0, r2, asl #16
 258 0394 013055E5 		ldrb	r3, [r5, #-1]	@ zero_extendqisi2
 259 0398 010C80E1 		orr	r0, r0, r1, asl #24
 260 039c 29304BE5 		strb	r3, [fp, #-41]
 261 03a0 FEFFFFEB 		bl	__floatsisf
 262 03a4 FC101FE5 		ldr	r1, .L98+28
 263 03a8 FEFFFFEB 		bl	__divsf3
 264 03ac 0220D5E5 		ldrb	r2, [r5, #2]	@ zero_extendqisi2
 265 03b0 0130D5E5 		ldrb	r3, [r5, #1]	@ zero_extendqisi2
 266 03b4 0310D5E5 		ldrb	r1, [r5, #3]	@ zero_extendqisi2
 267 03b8 023483E1 		orr	r3, r3, r2, asl #8
 268 03bc 0420D5E5 		ldrb	r2, [r5, #4]	@ zero_extendqisi2
 269 03c0 013883E1 		orr	r3, r3, r1, asl #16
 270 03c4 30000BE5 		str	r0, [fp, #-48]	@ float
 271 03c8 020C83E1 		orr	r0, r3, r2, asl #24
 272 03cc FEFFFFEB 		bl	__floatsidf
 273 03d0 90204FE2 		adr	r2, .L98+180
 274 03d4 0C0092E8 		ldmia	r2, {r2-r3}
 275 03d8 FEFFFFEB 		bl	__divdf3
 276 03dc FEFFFFEB 		bl	__truncdfsf2
 277 03e0 FEFFFFEB 		bl	__extendsfdf2
 278 03e4 9C204FE2 		adr	r2, .L98+188
 279 03e8 0C0092E8 		ldmia	r2, {r2-r3}
 280 03ec FEFFFFEB 		bl	__muldf3
 281 03f0 FEFFFFEB 		bl	__truncdfsf2
 282 03f4 0630D5E5 		ldrb	r3, [r5, #6]	@ zero_extendqisi2
 283 03f8 0040A0E1 		mov	r4, r0
 284 03fc 0500D5E5 		ldrb	r0, [r5, #5]	@ zero_extendqisi2
 285 0400 0720D5E5 		ldrb	r2, [r5, #7]	@ zero_extendqisi2
 286 0404 030480E1 		orr	r0, r0, r3, asl #8
 287 0408 0830D5E5 		ldrb	r3, [r5, #8]	@ zero_extendqisi2
 288 040c 020880E1 		orr	r0, r0, r2, asl #16
 289 0410 030C80E1 		orr	r0, r0, r3, asl #24
 290 0414 FEFFFFEB 		bl	__floatsidf
 291 0418 D8204FE2 		adr	r2, .L98+180
 292 041c 0C0092E8 		ldmia	r2, {r2-r3}
 293 0420 FEFFFFEB 		bl	__divdf3
 294 0424 FEFFFFEB 		bl	__truncdfsf2
 295 0428 FEFFFFEB 		bl	__extendsfdf2
 296 042c E4204FE2 		adr	r2, .L98+188
 297 0430 0C0092E8 		ldmia	r2, {r2-r3}
 298 0434 FEFFFFEB 		bl	__muldf3
 299 0438 FEFFFFEB 		bl	__truncdfsf2
 300 043c 90A11FE5 		ldr	sl, .L98+32
 301 0440 90611FE5 		ldr	r6, .L98+36
 302 0444 90711FE5 		ldr	r7, .L98+40
 303 0448 0010A0E1 		mov	r1, r0
 304 044c 0020DAE5 		ldrb	r2, [sl, #0]	@ zero_extendqisi2
 305 0450 0400A0E1 		mov	r0, r4
 306 0454 FEFFFFEB 		bl	latlong_utm_of
 307 0458 002097E5 		ldr	r2, [r7, #0]	@ float
 308 045c 001096E5 		ldr	r1, [r6, #0]	@ float
 309 0460 30301BE5 		ldr	r3, [fp, #-48]	@ float
 310 0464 29005BE5 		ldrb	r0, [fp, #-41]	@ zero_extendqisi2
 311 0468 FEFFFFEB 		bl	nav_move_waypoint
 312 046c B4311FE5 		ldr	r3, .L98+44
 313 0470 000093E5 		ldr	r0, [r3, #0]
 314 0474 FEFFFFEB 		bl	__floatsisf
 315 0478 29405BE5 		ldrb	r4, [fp, #-41]	@ zero_extendqisi2
 316 047c C0511FE5 		ldr	r5, .L98+48
 317 0480 844084E0 		add	r4, r4, r4, asl #1
 318 0484 0441A0E1 		mov	r4, r4, asl #2
 319 0488 0010A0E1 		mov	r1, r0
 320 048c 050094E7 		ldr	r0, [r4, r5]	@ float
 321 0490 FEFFFFEB 		bl	__addsf3
 322 0494 D4311FE5 		ldr	r3, .L98+52
 323 0498 000086E5 		str	r0, [r6, #0]	@ float
 324 049c 000093E5 		ldr	r0, [r3, #0]
 325 04a0 FEFFFFEB 		bl	__floatsisf
 326 04a4 054084E0 		add	r4, r4, r5
 327 04a8 0010A0E1 		mov	r1, r0
 328 04ac 040094E5 		ldr	r0, [r4, #4]	@ float
 329 04b0 FEFFFFEB 		bl	__addsf3
 330 04b4 000087E5 		str	r0, [r7, #0]	@ float
 331 04b8 1400A0E3 		mov	r0, #20
 332 04bc FEFFFFEB 		bl	uart1_check_free_space
 333 04c0 FF0010E3 		tst	r0, #255
 334 04c4 2904000A 		beq	.L75
 335 04c8 98111FE5 		ldr	r1, .L98+164
 336 04cc 98C11FE5 		ldr	ip, .L98+168
 337 04d0 B030D1E1 		ldrh	r3, [r1, #0]
 338 04d4 B020DCE1 		ldrh	r2, [ip, #0]
 339 04d8 143083E2 		add	r3, r3, #20
 340 04dc 012082E2 		add	r2, r2, #1
 341 04e0 B030C1E1 		strh	r3, [r1, #0]	@ movhi 
 342 04e4 B020CCE1 		strh	r2, [ip, #0]	@ movhi 
 343 04e8 9900A0E3 		mov	r0, #153
 344 04ec B4411FE5 		ldr	r4, .L98+172
 345 04f0 FEFFFFEB 		bl	uart1_transmit
 346 04f4 1400A0E3 		mov	r0, #20
 347 04f8 BC511FE5 		ldr	r5, .L98+176
 348 04fc FEFFFFEB 		bl	uart1_transmit
 349 0500 2630A0E3 		mov	r3, #38
 350 0504 0030C4E5 		strb	r3, [r4, #0]
 351 0508 143083E2 		add	r3, r3, #20
 352 050c 0800A0E1 		mov	r0, r8
 353 0510 0030C5E5 		strb	r3, [r5, #0]
 354 0514 FEFFFFEB 		bl	uart1_transmit
 355 0518 0030D4E5 		ldrb	r3, [r4, #0]	@ zero_extendqisi2
 356 051c 233083E2 		add	r3, r3, #35
 357 0520 0030C4E5 		strb	r3, [r4, #0]
 358 0524 0030D5E5 		ldrb	r3, [r5, #0]	@ zero_extendqisi2
 359 0528 0020D4E5 		ldrb	r2, [r4, #0]	@ zero_extendqisi2
 360 052c 023083E0 		add	r3, r3, r2
 361 0530 2300A0E3 		mov	r0, #35
 362 0534 0030C5E5 		strb	r3, [r5, #0]
 363 0538 FEFFFFEB 		bl	uart1_transmit
 364 053c 29005BE5 		ldrb	r0, [fp, #-41]	@ zero_extendqisi2
 365 0540 0030D4E5 		ldrb	r3, [r4, #0]	@ zero_extendqisi2
 366 0544 033080E0 		add	r3, r0, r3
 367 0548 0030C4E5 		strb	r3, [r4, #0]
 368 054c 0030D5E5 		ldrb	r3, [r5, #0]	@ zero_extendqisi2
 369 0550 0020D4E5 		ldrb	r2, [r4, #0]	@ zero_extendqisi2
 370 0554 023083E0 		add	r3, r3, r2
 371 0558 0030C5E5 		strb	r3, [r5, #0]
 372 055c FEFFFFEB 		bl	uart1_transmit
 373 0560 0000D6E5 		ldrb	r0, [r6, #0]	@ zero_extendqisi2
 374 0564 0030D4E5 		ldrb	r3, [r4, #0]	@ zero_extendqisi2
 375 0568 033080E0 		add	r3, r0, r3
 376 056c 0030C4E5 		strb	r3, [r4, #0]
 377 0570 0030D5E5 		ldrb	r3, [r5, #0]	@ zero_extendqisi2
 378 0574 0020D4E5 		ldrb	r2, [r4, #0]	@ zero_extendqisi2
 379 0578 023083E0 		add	r3, r3, r2
 380 057c 0030C5E5 		strb	r3, [r5, #0]
 381 0580 FEFFFFEB 		bl	uart1_transmit
 382 0584 0100D6E5 		ldrb	r0, [r6, #1]	@ zero_extendqisi2
 383 0588 0030D4E5 		ldrb	r3, [r4, #0]	@ zero_extendqisi2
 384 058c 033080E0 		add	r3, r0, r3
 385 0590 0030C4E5 		strb	r3, [r4, #0]
 386 0594 0030D5E5 		ldrb	r3, [r5, #0]	@ zero_extendqisi2
 387 0598 0020D4E5 		ldrb	r2, [r4, #0]	@ zero_extendqisi2
 388 059c 023083E0 		add	r3, r3, r2
 389 05a0 0030C5E5 		strb	r3, [r5, #0]
 390 05a4 FEFFFFEB 		bl	uart1_transmit
 391 05a8 0200D6E5 		ldrb	r0, [r6, #2]	@ zero_extendqisi2
 392 05ac 0030D4E5 		ldrb	r3, [r4, #0]	@ zero_extendqisi2
 393 05b0 033080E0 		add	r3, r0, r3
 394 05b4 0030C4E5 		strb	r3, [r4, #0]
 395 05b8 0030D5E5 		ldrb	r3, [r5, #0]	@ zero_extendqisi2
 396 05bc 0020D4E5 		ldrb	r2, [r4, #0]	@ zero_extendqisi2
 397 05c0 023083E0 		add	r3, r3, r2
 398 05c4 0030C5E5 		strb	r3, [r5, #0]
 399 05c8 FEFFFFEB 		bl	uart1_transmit
 400 05cc 0300D6E5 		ldrb	r0, [r6, #3]	@ zero_extendqisi2
 401 05d0 0030D4E5 		ldrb	r3, [r4, #0]	@ zero_extendqisi2
 402 05d4 033080E0 		add	r3, r0, r3
 403 05d8 0030C4E5 		strb	r3, [r4, #0]
 404 05dc 0030D5E5 		ldrb	r3, [r5, #0]	@ zero_extendqisi2
 405 05e0 0020D4E5 		ldrb	r2, [r4, #0]	@ zero_extendqisi2
 406 05e4 023083E0 		add	r3, r3, r2
 407 05e8 0030C5E5 		strb	r3, [r5, #0]
 408 05ec FEFFFFEB 		bl	uart1_transmit
 409 05f0 0000D7E5 		ldrb	r0, [r7, #0]	@ zero_extendqisi2
 410 05f4 0030D4E5 		ldrb	r3, [r4, #0]	@ zero_extendqisi2
 411 05f8 033080E0 		add	r3, r0, r3
 412 05fc 0030C4E5 		strb	r3, [r4, #0]
 413 0600 0030D5E5 		ldrb	r3, [r5, #0]	@ zero_extendqisi2
 414 0604 0020D4E5 		ldrb	r2, [r4, #0]	@ zero_extendqisi2
 415 0608 023083E0 		add	r3, r3, r2
 416 060c 0030C5E5 		strb	r3, [r5, #0]
 417 0610 FEFFFFEB 		bl	uart1_transmit
 418 0614 0100D7E5 		ldrb	r0, [r7, #1]	@ zero_extendqisi2
 419 0618 0030D4E5 		ldrb	r3, [r4, #0]	@ zero_extendqisi2
 420 061c 033080E0 		add	r3, r0, r3
 421 0620 0030C4E5 		strb	r3, [r4, #0]
 422 0624 0030D5E5 		ldrb	r3, [r5, #0]	@ zero_extendqisi2
 423 0628 0020D4E5 		ldrb	r2, [r4, #0]	@ zero_extendqisi2
 424 062c 023083E0 		add	r3, r3, r2
 425 0630 0030C5E5 		strb	r3, [r5, #0]
 426 0634 FEFFFFEB 		bl	uart1_transmit
 427 0638 0200D7E5 		ldrb	r0, [r7, #2]	@ zero_extendqisi2
 428 063c 0030D4E5 		ldrb	r3, [r4, #0]	@ zero_extendqisi2
 429 0640 033080E0 		add	r3, r0, r3
 430 0644 0030C4E5 		strb	r3, [r4, #0]
 431 0648 0030D5E5 		ldrb	r3, [r5, #0]	@ zero_extendqisi2
 432 064c 0020D4E5 		ldrb	r2, [r4, #0]	@ zero_extendqisi2
 433 0650 023083E0 		add	r3, r3, r2
 434 0654 0030C5E5 		strb	r3, [r5, #0]
 435 0658 FEFFFFEB 		bl	uart1_transmit
 436 065c 0300D7E5 		ldrb	r0, [r7, #3]	@ zero_extendqisi2
 437 0660 0030D4E5 		ldrb	r3, [r4, #0]	@ zero_extendqisi2
 438 0664 033080E0 		add	r3, r0, r3
 439 0668 0030C4E5 		strb	r3, [r4, #0]
 440 066c 0030D5E5 		ldrb	r3, [r5, #0]	@ zero_extendqisi2
 441 0670 0020D4E5 		ldrb	r2, [r4, #0]	@ zero_extendqisi2
 442 0674 023083E0 		add	r3, r3, r2
 443 0678 0030C5E5 		strb	r3, [r5, #0]
 444 067c FEFFFFEB 		bl	uart1_transmit
 445 0680 30005BE5 		ldrb	r0, [fp, #-48]	@ zero_extendqisi2
 446 0684 0030D4E5 		ldrb	r3, [r4, #0]	@ zero_extendqisi2
 447 0688 033080E0 		add	r3, r0, r3
 448 068c 0030C4E5 		strb	r3, [r4, #0]
 449 0690 0030D5E5 		ldrb	r3, [r5, #0]	@ zero_extendqisi2
 450 0694 0020D4E5 		ldrb	r2, [r4, #0]	@ zero_extendqisi2
 451 0698 023083E0 		add	r3, r3, r2
 452 069c 0030C5E5 		strb	r3, [r5, #0]
 453 06a0 FEFFFFEB 		bl	uart1_transmit
 454 06a4 2F005BE5 		ldrb	r0, [fp, #-47]	@ zero_extendqisi2
 455 06a8 0030D4E5 		ldrb	r3, [r4, #0]	@ zero_extendqisi2
 456 06ac 033080E0 		add	r3, r0, r3
 457 06b0 0030C4E5 		strb	r3, [r4, #0]
 458 06b4 0030D5E5 		ldrb	r3, [r5, #0]	@ zero_extendqisi2
 459 06b8 0020D4E5 		ldrb	r2, [r4, #0]	@ zero_extendqisi2
 460 06bc 023083E0 		add	r3, r3, r2
 461 06c0 0030C5E5 		strb	r3, [r5, #0]
 462 06c4 FEFFFFEB 		bl	uart1_transmit
 463 06c8 2E005BE5 		ldrb	r0, [fp, #-46]	@ zero_extendqisi2
 464 06cc 0030D4E5 		ldrb	r3, [r4, #0]	@ zero_extendqisi2
 465 06d0 033080E0 		add	r3, r0, r3
 466 06d4 0030C4E5 		strb	r3, [r4, #0]
 467 06d8 0030D5E5 		ldrb	r3, [r5, #0]	@ zero_extendqisi2
 468 06dc 0020D4E5 		ldrb	r2, [r4, #0]	@ zero_extendqisi2
 469 06e0 023083E0 		add	r3, r3, r2
 470 06e4 0030C5E5 		strb	r3, [r5, #0]
 471 06e8 FEFFFFEB 		bl	uart1_transmit
 472 06ec 2D005BE5 		ldrb	r0, [fp, #-45]	@ zero_extendqisi2
 473 06f0 0030D4E5 		ldrb	r3, [r4, #0]	@ zero_extendqisi2
 474 06f4 033080E0 		add	r3, r0, r3
 475 06f8 0030C4E5 		strb	r3, [r4, #0]
 476 06fc 0030D5E5 		ldrb	r3, [r5, #0]	@ zero_extendqisi2
 477 0700 0020D4E5 		ldrb	r2, [r4, #0]	@ zero_extendqisi2
 478 0704 023083E0 		add	r3, r3, r2
 479 0708 0030C5E5 		strb	r3, [r5, #0]
 480 070c FEFFFFEB 		bl	uart1_transmit
 481 0710 0000DAE5 		ldrb	r0, [sl, #0]	@ zero_extendqisi2
 482 0714 1C0400EA 		b	.L89
 483              	.L11:
 484 0718 050052E3 		cmp	r2, #5
 485 071c AA02001A 		bne	.L15
 486 0720 0360D5E5 		ldrb	r6, [r5, #3]	@ zero_extendqisi2
 487 0724 120056E3 		cmp	r6, #18
 488 0728 033085E2 		add	r3, r5, #3
 489 072c 2D04001A 		bne	.L1
 490 0730 010053E5 		ldrb	r0, [r3, #-1]	@ zero_extendqisi2
 491 0734 FEFFFFEB 		bl	nav_goto_block
 492 0738 74341FE5 		ldr	r3, .L98+56
 493 073c 003093E5 		ldr	r3, [r3, #0]
 494 0740 0201C3E3 		bic	r0, r3, #-2147483648
 495 0744 FEFFFFEB 		bl	__extendsfdf2
 496 0748 FD2F4FE2 		adr	r2, .L98+200
 497 074c 0C0092E8 		ldmia	r2, {r2-r3}
 498 0750 FEFFFFEB 		bl	__divdf3
 499 0754 FEFFFFEB 		bl	__fixunsdfsi
 500 0758 2A004BE5 		strb	r0, [fp, #-42]
 501 075c 1A00A0E3 		mov	r0, #26
 502 0760 FEFFFFEB 		bl	uart1_check_free_space
 503 0764 FF0010E3 		tst	r0, #255
 504 0768 2904000A 		beq	.L75
 505 076c 3C141FE5 		ldr	r1, .L98+164
 506 0770 3CC41FE5 		ldr	ip, .L98+168
 507 0774 B030D1E1 		ldrh	r3, [r1, #0]
 508 0778 B020DCE1 		ldrh	r2, [ip, #0]
 509 077c 1A3083E2 		add	r3, r3, #26
 510 0780 012082E2 		add	r2, r2, #1
 511 0784 B030C1E1 		strh	r3, [r1, #0]	@ movhi 
 512 0788 B020CCE1 		strh	r2, [ip, #0]	@ movhi 
 513 078c 9900A0E3 		mov	r0, #153
 514 0790 58441FE5 		ldr	r4, .L98+172
 515 0794 FEFFFFEB 		bl	uart1_transmit
 516 0798 1A00A0E3 		mov	r0, #26
 517 079c 60541FE5 		ldr	r5, .L98+176
 518 07a0 FEFFFFEB 		bl	uart1_transmit
 519 07a4 2C30A0E3 		mov	r3, #44
 520 07a8 0030C4E5 		strb	r3, [r4, #0]
 521 07ac 1A3083E2 		add	r3, r3, #26
 522 07b0 0600A0E1 		mov	r0, r6
 523 07b4 0030C5E5 		strb	r3, [r5, #0]
 524 07b8 FEFFFFEB 		bl	uart1_transmit
 525 07bc 0030D4E5 		ldrb	r3, [r4, #0]	@ zero_extendqisi2
 526 07c0 0A3083E2 		add	r3, r3, #10
 527 07c4 0030C4E5 		strb	r3, [r4, #0]
 528 07c8 0030D5E5 		ldrb	r3, [r5, #0]	@ zero_extendqisi2
 529 07cc 0020D4E5 		ldrb	r2, [r4, #0]	@ zero_extendqisi2
 530 07d0 023083E0 		add	r3, r3, r2
 531 07d4 0A00A0E3 		mov	r0, #10
 532 07d8 0030C5E5 		strb	r3, [r5, #0]
 533 07dc FEFFFFEB 		bl	uart1_transmit
 534 07e0 18351FE5 		ldr	r3, .L98+60
 535 07e4 0000D3E5 		ldrb	r0, [r3, #0]	@ zero_extendqisi2
 536 07e8 0030D4E5 		ldrb	r3, [r4, #0]	@ zero_extendqisi2
 537 07ec 033080E0 		add	r3, r0, r3
 538 07f0 0030C4E5 		strb	r3, [r4, #0]
 539 07f4 0030D5E5 		ldrb	r3, [r5, #0]	@ zero_extendqisi2
 540 07f8 0020D4E5 		ldrb	r2, [r4, #0]	@ zero_extendqisi2
 541 07fc 023083E0 		add	r3, r3, r2
 542 0800 0030C5E5 		strb	r3, [r5, #0]
 543 0804 FEFFFFEB 		bl	uart1_transmit
 544 0808 3C351FE5 		ldr	r3, .L98+64
 545 080c 0000D3E5 		ldrb	r0, [r3, #0]	@ zero_extendqisi2
 546 0810 0030D4E5 		ldrb	r3, [r4, #0]	@ zero_extendqisi2
 547 0814 033080E0 		add	r3, r0, r3
 548 0818 0030C4E5 		strb	r3, [r4, #0]
 549 081c 0030D5E5 		ldrb	r3, [r5, #0]	@ zero_extendqisi2
 550 0820 0020D4E5 		ldrb	r2, [r4, #0]	@ zero_extendqisi2
 551 0824 54651FE5 		ldr	r6, .L98+68
 552 0828 023083E0 		add	r3, r3, r2
 553 082c 0030C5E5 		strb	r3, [r5, #0]
 554 0830 FEFFFFEB 		bl	uart1_transmit
 555 0834 0000D6E5 		ldrb	r0, [r6, #0]	@ zero_extendqisi2
 556 0838 0030D4E5 		ldrb	r3, [r4, #0]	@ zero_extendqisi2
 557 083c 033080E0 		add	r3, r0, r3
 558 0840 0030C4E5 		strb	r3, [r4, #0]
 559 0844 0030D5E5 		ldrb	r3, [r5, #0]	@ zero_extendqisi2
 560 0848 0020D4E5 		ldrb	r2, [r4, #0]	@ zero_extendqisi2
 561 084c 023083E0 		add	r3, r3, r2
 562 0850 0030C5E5 		strb	r3, [r5, #0]
 563 0854 FEFFFFEB 		bl	uart1_transmit
 564 0858 0100D6E5 		ldrb	r0, [r6, #1]	@ zero_extendqisi2
 565 085c 0030D4E5 		ldrb	r3, [r4, #0]	@ zero_extendqisi2
 566 0860 033080E0 		add	r3, r0, r3
 567 0864 0030C4E5 		strb	r3, [r4, #0]
 568 0868 0030D5E5 		ldrb	r3, [r5, #0]	@ zero_extendqisi2
 569 086c 0020D4E5 		ldrb	r2, [r4, #0]	@ zero_extendqisi2
 570 0870 023083E0 		add	r3, r3, r2
 571 0874 0030C5E5 		strb	r3, [r5, #0]
 572 0878 FEFFFFEB 		bl	uart1_transmit
 573 087c 0200D6E5 		ldrb	r0, [r6, #2]	@ zero_extendqisi2
 574 0880 0030D4E5 		ldrb	r3, [r4, #0]	@ zero_extendqisi2
 575 0884 033080E0 		add	r3, r0, r3
 576 0888 0030C4E5 		strb	r3, [r4, #0]
 577 088c 0030D5E5 		ldrb	r3, [r5, #0]	@ zero_extendqisi2
 578 0890 0020D4E5 		ldrb	r2, [r4, #0]	@ zero_extendqisi2
 579 0894 023083E0 		add	r3, r3, r2
 580 0898 0030C5E5 		strb	r3, [r5, #0]
 581 089c FEFFFFEB 		bl	uart1_transmit
 582 08a0 0300D6E5 		ldrb	r0, [r6, #3]	@ zero_extendqisi2
 583 08a4 0030D4E5 		ldrb	r3, [r4, #0]	@ zero_extendqisi2
 584 08a8 033080E0 		add	r3, r0, r3
 585 08ac 0030C4E5 		strb	r3, [r4, #0]
 586 08b0 0030D5E5 		ldrb	r3, [r5, #0]	@ zero_extendqisi2
 587 08b4 0020D4E5 		ldrb	r2, [r4, #0]	@ zero_extendqisi2
 588 08b8 E4651FE5 		ldr	r6, .L98+72
 589 08bc 023083E0 		add	r3, r3, r2
 590 08c0 0030C5E5 		strb	r3, [r5, #0]
 591 08c4 FEFFFFEB 		bl	uart1_transmit
 592 08c8 0000D6E5 		ldrb	r0, [r6, #0]	@ zero_extendqisi2
 593 08cc 0030D4E5 		ldrb	r3, [r4, #0]	@ zero_extendqisi2
 594 08d0 033080E0 		add	r3, r0, r3
 595 08d4 0030C4E5 		strb	r3, [r4, #0]
 596 08d8 0030D5E5 		ldrb	r3, [r5, #0]	@ zero_extendqisi2
 597 08dc 0020D4E5 		ldrb	r2, [r4, #0]	@ zero_extendqisi2
 598 08e0 023083E0 		add	r3, r3, r2
 599 08e4 0030C5E5 		strb	r3, [r5, #0]
 600 08e8 FEFFFFEB 		bl	uart1_transmit
 601 08ec 0100D6E5 		ldrb	r0, [r6, #1]	@ zero_extendqisi2
 602 08f0 0030D4E5 		ldrb	r3, [r4, #0]	@ zero_extendqisi2
 603 08f4 033080E0 		add	r3, r0, r3
 604 08f8 0030C4E5 		strb	r3, [r4, #0]
 605 08fc 0030D5E5 		ldrb	r3, [r5, #0]	@ zero_extendqisi2
 606 0900 0020D4E5 		ldrb	r2, [r4, #0]	@ zero_extendqisi2
 607 0904 023083E0 		add	r3, r3, r2
 608 0908 0030C5E5 		strb	r3, [r5, #0]
 609 090c FEFFFFEB 		bl	uart1_transmit
 610 0910 0200D6E5 		ldrb	r0, [r6, #2]	@ zero_extendqisi2
 611 0914 0030D4E5 		ldrb	r3, [r4, #0]	@ zero_extendqisi2
 612 0918 033080E0 		add	r3, r0, r3
 613 091c 0030C4E5 		strb	r3, [r4, #0]
 614 0920 0030D5E5 		ldrb	r3, [r5, #0]	@ zero_extendqisi2
 615 0924 0020D4E5 		ldrb	r2, [r4, #0]	@ zero_extendqisi2
 616 0928 023083E0 		add	r3, r3, r2
 617 092c 0030C5E5 		strb	r3, [r5, #0]
 618 0930 FEFFFFEB 		bl	uart1_transmit
 619 0934 0300D6E5 		ldrb	r0, [r6, #3]	@ zero_extendqisi2
 620 0938 0030D4E5 		ldrb	r3, [r4, #0]	@ zero_extendqisi2
 621 093c 033080E0 		add	r3, r0, r3
 622 0940 0030C4E5 		strb	r3, [r4, #0]
 623 0944 0030D5E5 		ldrb	r3, [r5, #0]	@ zero_extendqisi2
 624 0948 0020D4E5 		ldrb	r2, [r4, #0]	@ zero_extendqisi2
 625 094c 74661FE5 		ldr	r6, .L98+76
 626 0950 023083E0 		add	r3, r3, r2
 627 0954 0030C5E5 		strb	r3, [r5, #0]
 628 0958 FEFFFFEB 		bl	uart1_transmit
 629 095c 0000D6E5 		ldrb	r0, [r6, #0]	@ zero_extendqisi2
 630 0960 0030D4E5 		ldrb	r3, [r4, #0]	@ zero_extendqisi2
 631 0964 033080E0 		add	r3, r0, r3
 632 0968 0030C4E5 		strb	r3, [r4, #0]
 633 096c 0030D5E5 		ldrb	r3, [r5, #0]	@ zero_extendqisi2
 634 0970 0020D4E5 		ldrb	r2, [r4, #0]	@ zero_extendqisi2
 635 0974 023083E0 		add	r3, r3, r2
 636 0978 0030C5E5 		strb	r3, [r5, #0]
 637 097c FEFFFFEB 		bl	uart1_transmit
 638 0980 0100D6E5 		ldrb	r0, [r6, #1]	@ zero_extendqisi2
 639 0984 0030D4E5 		ldrb	r3, [r4, #0]	@ zero_extendqisi2
 640 0988 033080E0 		add	r3, r0, r3
 641 098c 0030C4E5 		strb	r3, [r4, #0]
 642 0990 0030D5E5 		ldrb	r3, [r5, #0]	@ zero_extendqisi2
 643 0994 0020D4E5 		ldrb	r2, [r4, #0]	@ zero_extendqisi2
 644 0998 023083E0 		add	r3, r3, r2
 645 099c 0030C5E5 		strb	r3, [r5, #0]
 646 09a0 FEFFFFEB 		bl	uart1_transmit
 647 09a4 0200D6E5 		ldrb	r0, [r6, #2]	@ zero_extendqisi2
 648 09a8 0030D4E5 		ldrb	r3, [r4, #0]	@ zero_extendqisi2
 649 09ac 033080E0 		add	r3, r0, r3
 650 09b0 0030C4E5 		strb	r3, [r4, #0]
 651 09b4 0030D5E5 		ldrb	r3, [r5, #0]	@ zero_extendqisi2
 652 09b8 0020D4E5 		ldrb	r2, [r4, #0]	@ zero_extendqisi2
 653 09bc 023083E0 		add	r3, r3, r2
 654 09c0 0030C5E5 		strb	r3, [r5, #0]
 655 09c4 FEFFFFEB 		bl	uart1_transmit
 656 09c8 0300D6E5 		ldrb	r0, [r6, #3]	@ zero_extendqisi2
 657 09cc 0030D4E5 		ldrb	r3, [r4, #0]	@ zero_extendqisi2
 658 09d0 033080E0 		add	r3, r0, r3
 659 09d4 0030C4E5 		strb	r3, [r4, #0]
 660 09d8 0030D5E5 		ldrb	r3, [r5, #0]	@ zero_extendqisi2
 661 09dc 0020D4E5 		ldrb	r2, [r4, #0]	@ zero_extendqisi2
 662 09e0 04671FE5 		ldr	r6, .L98+80
 663 09e4 023083E0 		add	r3, r3, r2
 664 09e8 0030C5E5 		strb	r3, [r5, #0]
 665 09ec FEFFFFEB 		bl	uart1_transmit
 666 09f0 0000D6E5 		ldrb	r0, [r6, #0]	@ zero_extendqisi2
 667 09f4 0030D4E5 		ldrb	r3, [r4, #0]	@ zero_extendqisi2
 668 09f8 033080E0 		add	r3, r0, r3
 669 09fc 0030C4E5 		strb	r3, [r4, #0]
 670 0a00 0030D5E5 		ldrb	r3, [r5, #0]	@ zero_extendqisi2
 671 0a04 0020D4E5 		ldrb	r2, [r4, #0]	@ zero_extendqisi2
 672 0a08 023083E0 		add	r3, r3, r2
 673 0a0c 0030C5E5 		strb	r3, [r5, #0]
 674 0a10 FEFFFFEB 		bl	uart1_transmit
 675 0a14 0100D6E5 		ldrb	r0, [r6, #1]	@ zero_extendqisi2
 676 0a18 0030D4E5 		ldrb	r3, [r4, #0]	@ zero_extendqisi2
 677 0a1c 033080E0 		add	r3, r0, r3
 678 0a20 0030C4E5 		strb	r3, [r4, #0]
 679 0a24 0030D5E5 		ldrb	r3, [r5, #0]	@ zero_extendqisi2
 680 0a28 0020D4E5 		ldrb	r2, [r4, #0]	@ zero_extendqisi2
 681 0a2c 023083E0 		add	r3, r3, r2
 682 0a30 0030C5E5 		strb	r3, [r5, #0]
 683 0a34 FEFFFFEB 		bl	uart1_transmit
 684 0a38 0200D6E5 		ldrb	r0, [r6, #2]	@ zero_extendqisi2
 685 0a3c 0030D4E5 		ldrb	r3, [r4, #0]	@ zero_extendqisi2
 686 0a40 033080E0 		add	r3, r0, r3
 687 0a44 0030C4E5 		strb	r3, [r4, #0]
 688 0a48 0030D5E5 		ldrb	r3, [r5, #0]	@ zero_extendqisi2
 689 0a4c 0020D4E5 		ldrb	r2, [r4, #0]	@ zero_extendqisi2
 690 0a50 023083E0 		add	r3, r3, r2
 691 0a54 0030C5E5 		strb	r3, [r5, #0]
 692 0a58 FEFFFFEB 		bl	uart1_transmit
 693 0a5c 0300D6E5 		ldrb	r0, [r6, #3]	@ zero_extendqisi2
 694 0a60 0030D4E5 		ldrb	r3, [r4, #0]	@ zero_extendqisi2
 695 0a64 033080E0 		add	r3, r0, r3
 696 0a68 0030C4E5 		strb	r3, [r4, #0]
 697 0a6c 0030D5E5 		ldrb	r3, [r5, #0]	@ zero_extendqisi2
 698 0a70 0020D4E5 		ldrb	r2, [r4, #0]	@ zero_extendqisi2
 699 0a74 023083E0 		add	r3, r3, r2
 700 0a78 0030C5E5 		strb	r3, [r5, #0]
 701 0a7c FEFFFFEB 		bl	uart1_transmit
 702 0a80 2A005BE5 		ldrb	r0, [fp, #-42]	@ zero_extendqisi2
 703 0a84 0030D4E5 		ldrb	r3, [r4, #0]	@ zero_extendqisi2
 704 0a88 033080E0 		add	r3, r0, r3
 705 0a8c 0030C4E5 		strb	r3, [r4, #0]
 706 0a90 0030D5E5 		ldrb	r3, [r5, #0]	@ zero_extendqisi2
 707 0a94 0020D4E5 		ldrb	r2, [r4, #0]	@ zero_extendqisi2
 708 0a98 023083E0 		add	r3, r3, r2
 709 0a9c 0030C5E5 		strb	r3, [r5, #0]
 710 0aa0 FEFFFFEB 		bl	uart1_transmit
 711 0aa4 C4371FE5 		ldr	r3, .L98+84
 712 0aa8 0000D3E5 		ldrb	r0, [r3, #0]	@ zero_extendqisi2
 713 0aac 1C0400EA 		b	.L89
 714              	.L15:
 715 0ab0 030052E3 		cmp	r2, #3
 716 0ab4 CC02001A 		bne	.L19
 717 0ab8 0230D5E5 		ldrb	r3, [r5, #2]	@ zero_extendqisi2
 718 0abc 120053E3 		cmp	r3, #18
 719 0ac0 027085E2 		add	r7, r5, #2
 720 0ac4 2D04001A 		bne	.L1
 721 0ac8 03E0D7E5 		ldrb	lr, [r7, #3]	@ zero_extendqisi2
 722 0acc 0B00D7E5 		ldrb	r0, [r7, #11]	@ zero_extendqisi2
 723 0ad0 0210D7E5 		ldrb	r1, [r7, #2]	@ zero_extendqisi2
 724 0ad4 0A30D7E5 		ldrb	r3, [r7, #10]	@ zero_extendqisi2
 725 0ad8 0440D7E5 		ldrb	r4, [r7, #4]	@ zero_extendqisi2
 726 0adc 0C60D7E5 		ldrb	r6, [r7, #12]	@ zero_extendqisi2
 727 0ae0 0E1481E1 		orr	r1, r1, lr, asl #8
 728 0ae4 003483E1 		orr	r3, r3, r0, asl #8
 729 0ae8 0DE0D7E5 		ldrb	lr, [r7, #13]	@ zero_extendqisi2
 730 0aec 0500D7E5 		ldrb	r0, [r7, #5]	@ zero_extendqisi2
 731 0af0 07C0D7E5 		ldrb	ip, [r7, #7]	@ zero_extendqisi2
 732 0af4 0620D7E5 		ldrb	r2, [r7, #6]	@ zero_extendqisi2
 733 0af8 063883E1 		orr	r3, r3, r6, asl #16
 734 0afc 041881E1 		orr	r1, r1, r4, asl #16
 735 0b00 0850D7E5 		ldrb	r5, [r7, #8]	@ zero_extendqisi2
 736 0b04 001C81E1 		orr	r1, r1, r0, asl #24
 737 0b08 0E0C83E1 		orr	r0, r3, lr, asl #24
 738 0b0c 28381FE5 		ldr	r3, .L98+88
 739 0b10 0C2482E1 		orr	r2, r2, ip, asl #8
 740 0b14 09C0D7E5 		ldrb	ip, [r7, #9]	@ zero_extendqisi2
 741 0b18 052882E1 		orr	r2, r2, r5, asl #16
 742 0b1c 001083E5 		str	r1, [r3, #0]	@ float
 743 0b20 38381FE5 		ldr	r3, .L98+92
 744 0b24 0C2C82E1 		orr	r2, r2, ip, asl #24
 745 0b28 002083E5 		str	r2, [r3, #0]	@ float
 746 0b2c 40381FE5 		ldr	r3, .L98+96
 747 0b30 000083E5 		str	r0, [r3, #0]	@ float
 748 0b34 2D0400EA 		b	.L1
 749              	.L19:
 750 0b38 040052E3 		cmp	r2, #4
 751 0b3c 9003001A 		bne	.L21
 752 0b40 0330D5E5 		ldrb	r3, [r5, #3]	@ zero_extendqisi2
 753 0b44 120053E3 		cmp	r3, #18
 754 0b48 030085E2 		add	r0, r5, #3
 755 0b4c 2D04001A 		bne	.L1
 756 0b50 012050E5 		ldrb	r2, [r0, #-1]	@ zero_extendqisi2
 757 0b54 0210D0E5 		ldrb	r1, [r0, #2]	@ zero_extendqisi2
 758 0b58 0130D0E5 		ldrb	r3, [r0, #1]	@ zero_extendqisi2
 759 0b5c 2B204BE5 		strb	r2, [fp, #-43]
 760 0b60 0320D0E5 		ldrb	r2, [r0, #3]	@ zero_extendqisi2
 761 0b64 013483E1 		orr	r3, r3, r1, asl #8
 762 0b68 0410D0E5 		ldrb	r1, [r0, #4]	@ zero_extendqisi2
 763 0b6c 023883E1 		orr	r3, r3, r2, asl #16
 764 0b70 2B205BE5 		ldrb	r2, [fp, #-43]	@ zero_extendqisi2
 765 0b74 013C83E1 		orr	r3, r3, r1, asl #24
 766 0b78 34300BE5 		str	r3, [fp, #-52]	@ float
 767 0b7c 0B0052E3 		cmp	r2, #11
 768 0b80 02F19F97 		ldrls	pc, [pc, r2, asl #2]
 769 0b84 490300EA 		b	.L22
 770              		.p2align 2
 771              	.L48:
 772 0b88 B80B0000 		.word	.L23
 773 0b8c C40B0000 		.word	.L24
 774 0b90 D40B0000 		.word	.L25
 775 0b94 100C0000 		.word	.L29
 776 0b98 2C0C0000 		.word	.L31
 777 0b9c 800C0000 		.word	.L38
 778 0ba0 900C0000 		.word	.L39
 779 0ba4 A00C0000 		.word	.L40
 780 0ba8 B00C0000 		.word	.L41
 781 0bac C40C0000 		.word	.L42
 782 0bb0 100D0000 		.word	.L45
 783 0bb4 200D0000 		.word	.L46
 784              	.L23:
 785 0bb8 34201BE5 		ldr	r2, [fp, #-52]	@ float
 786 0bbc C0381FE5 		ldr	r3, .L98+112
 787 0bc0 F10200EA 		b	.L86
 788              	.L24:
 789 0bc4 34201BE5 		ldr	r2, [fp, #-52]	@ float
 790 0bc8 C8381FE5 		ldr	r3, .L98+116
 791              	.L86:
 792 0bcc 002083E5 		str	r2, [r3, #0]	@ float
 793 0bd0 490300EA 		b	.L22
 794              	.L25:
 795 0bd4 34501BE5 		ldr	r5, [fp, #-52]	@ float
 796 0bd8 0010A0E3 		mov	r1, #0
 797 0bdc 0500A0E1 		mov	r0, r5
 798 0be0 FEFFFFEB 		bl	__eqsf2
 799 0be4 E0481FE5 		ldr	r4, .L98+120
 800 0be8 000050E3 		cmp	r0, #0
 801 0bec 0030A003 		moveq	r3, #0
 802 0bf0 00308405 		streq	r3, [r4, #0]	@ float
 803 0bf4 0003000A 		beq	.L28
 804 0bf8 000094E5 		ldr	r0, [r4, #0]	@ float
 805 0bfc 0510A0E1 		mov	r1, r5
 806 0c00 FEFFFFEB 		bl	__addsf3
 807 0c04 000084E5 		str	r0, [r4, #0]	@ float
 808              	.L28:
 809 0c08 04391FE5 		ldr	r3, .L98+120
 810 0c0c 1B0300EA 		b	.L91
 811              	.L29:
 812 0c10 08391FE5 		ldr	r3, .L98+124
 813 0c14 0020A0E3 		mov	r2, #0
 814 0c18 B020C3E1 		strh	r2, [r3, #0]	@ movhi 
 815 0c1c 08391FE5 		ldr	r3, .L98+136
 816 0c20 0020C3E5 		strb	r2, [r3, #0]
 817 0c24 0030A0E3 		mov	r3, #0
 818 0c28 1C0300EA 		b	.L85
 819              	.L31:
 820 0c2c 34401BE5 		ldr	r4, [fp, #-52]	@ float
 821 0c30 FE15A0E3 		mov	r1, #1065353216
 822 0c34 0400A0E1 		mov	r0, r4
 823 0c38 FEFFFFEB 		bl	__eqsf2
 824 0c3c 000050E3 		cmp	r0, #0
 825 0c40 50291F05 		ldreq	r2, .L98+100
 826 0c44 38391F05 		ldreq	r3, .L98+128
 827 0c48 00208305 		streq	r2, [r3, #0]	@ float
 828 0c4c 1A03000A 		beq	.L34
 829 0c50 0400A0E1 		mov	r0, r4
 830 0c54 60191FE5 		ldr	r1, .L98+104
 831 0c58 FEFFFFEB 		bl	__eqsf2
 832 0c5c 000050E3 		cmp	r0, #0
 833 0c60 54291FE5 		ldr	r2, .L98+128
 834 0c64 6C391F05 		ldreq	r3, .L98+108
 835 0c68 00408215 		strne	r4, [r2, #0]	@ float
 836 0c6c 00308205 		streq	r3, [r2, #0]	@ float
 837              	.L34:
 838 0c70 64391FE5 		ldr	r3, .L98+128
 839              	.L91:
 840 0c74 003093E5 		ldr	r3, [r3, #0]	@ float
 841              	.L85:
 842 0c78 34300BE5 		str	r3, [fp, #-52]	@ float
 843 0c7c 490300EA 		b	.L22
 844              	.L38:
 845 0c80 34001BE5 		ldr	r0, [fp, #-52]	@ float
 846 0c84 FEFFFFEB 		bl	__fixunssfsi
 847 0c88 78391FE5 		ldr	r3, .L98+132
 848 0c8c 2D0300EA 		b	.L84
 849              	.L39:
 850 0c90 34001BE5 		ldr	r0, [fp, #-52]	@ float
 851 0c94 FEFFFFEB 		bl	__fixunssfsi
 852 0c98 84391FE5 		ldr	r3, .L98+136
 853 0c9c 2D0300EA 		b	.L84
 854              	.L40:
 855 0ca0 34001BE5 		ldr	r0, [fp, #-52]	@ float
 856 0ca4 FEFFFFEB 		bl	__fixunssfsi
 857 0ca8 90391FE5 		ldr	r3, .L98+140
 858 0cac 2D0300EA 		b	.L84
 859              	.L41:
 860 0cb0 34001BE5 		ldr	r0, [fp, #-52]	@ float
 861 0cb4 FEFFFFEB 		bl	__fixunssfsi
 862 0cb8 9C391FE5 		ldr	r3, .L98+144
 863              	.L84:
 864 0cbc 0000C3E5 		strb	r0, [r3, #0]
 865 0cc0 490300EA 		b	.L22
 866              	.L42:
 867 0cc4 34001BE5 		ldr	r0, [fp, #-52]	@ float
 868 0cc8 FEFFFFEB 		bl	__fixunssfsi
 869 0ccc A8491FE5 		ldr	r4, .L98+152
 870 0cd0 B000C4E1 		strh	r0, [r4, #0]	@ movhi 
 871 0cd4 B030D4E1 		ldrh	r3, [r4, #0]
 872 0cd8 010053E3 		cmp	r3, #1
 873 0cdc 0030E083 		mvnhi	r3, #0	@ movhi
 874 0ce0 B030C481 		strhih	r3, [r4, #0]	@ movhi 
 875 0ce4 0110A0E3 		mov	r1, #1
 876 0ce8 B000D4E1 		ldrh	r0, [r4, #0]
 877 0cec FEFFFFEB 		bl	ubxsend_cfg_rst
 878 0cf0 F040D4E1 		ldrsh	r4, [r4, #0]
 879 0cf4 0400A0E1 		mov	r0, r4
 880 0cf8 FEFFFFEB 		bl	__floatsisf
 881 0cfc 000054E3 		cmp	r4, #0
 882 0d00 D8191FB5 		ldrlt	r1, .L98+156
 883 0d04 FEFFFFBB 		bllt	__addsf3
 884              	.L44:
 885 0d08 34000BE5 		str	r0, [fp, #-52]	@ float
 886 0d0c 490300EA 		b	.L22
 887              	.L45:
 888 0d10 34201BE5 		ldr	r2, [fp, #-52]	@ float
 889 0d14 E8391FE5 		ldr	r3, .L98+160
 890 0d18 082083E5 		str	r2, [r3, #8]	@ float
 891 0d1c 490300EA 		b	.L22
 892              	.L46:
 893 0d20 34201BE5 		ldr	r2, [fp, #-52]	@ float
 894 0d24 F8391FE5 		ldr	r3, .L98+160
 895 0d28 0C2083E5 		str	r2, [r3, #12]	@ float
 896              	.L22:
 897 0d2c 0B00A0E3 		mov	r0, #11
 898 0d30 FEFFFFEB 		bl	uart1_check_free_space
 899 0d34 FF0010E3 		tst	r0, #255
 900 0d38 2904000A 		beq	.L75
 901 0d3c 0C1A1FE5 		ldr	r1, .L98+164
 902 0d40 0CCA1FE5 		ldr	ip, .L98+168
 903 0d44 B030D1E1 		ldrh	r3, [r1, #0]
 904 0d48 B020DCE1 		ldrh	r2, [ip, #0]
 905 0d4c 0B3083E2 		add	r3, r3, #11
 906 0d50 012082E2 		add	r2, r2, #1
 907 0d54 B030C1E1 		strh	r3, [r1, #0]	@ movhi 
 908 0d58 B020CCE1 		strh	r2, [ip, #0]	@ movhi 
 909 0d5c 9900A0E3 		mov	r0, #153
 910 0d60 284A1FE5 		ldr	r4, .L98+172
 911 0d64 FEFFFFEB 		bl	uart1_transmit
 912 0d68 0B00A0E3 		mov	r0, #11
 913 0d6c 305A1FE5 		ldr	r5, .L98+176
 914 0d70 FEFFFFEB 		bl	uart1_transmit
 915 0d74 1D30A0E3 		mov	r3, #29
 916 0d78 0030C4E5 		strb	r3, [r4, #0]
 917 0d7c 0B3083E2 		add	r3, r3, #11
 918 0d80 1200A0E3 		mov	r0, #18
 919 0d84 0030C5E5 		strb	r3, [r5, #0]
 920 0d88 FEFFFFEB 		bl	uart1_transmit
 921 0d8c 0030D4E5 		ldrb	r3, [r4, #0]	@ zero_extendqisi2
 922 0d90 1F3083E2 		add	r3, r3, #31
 923 0d94 0030C4E5 		strb	r3, [r4, #0]
 924 0d98 0030D5E5 		ldrb	r3, [r5, #0]	@ zero_extendqisi2
 925 0d9c 0020D4E5 		ldrb	r2, [r4, #0]	@ zero_extendqisi2
 926 0da0 023083E0 		add	r3, r3, r2
 927 0da4 1F00A0E3 		mov	r0, #31
 928 0da8 0030C5E5 		strb	r3, [r5, #0]
 929 0dac FEFFFFEB 		bl	uart1_transmit
 930 0db0 2B005BE5 		ldrb	r0, [fp, #-43]	@ zero_extendqisi2
 931 0db4 0030D4E5 		ldrb	r3, [r4, #0]	@ zero_extendqisi2
 932 0db8 033080E0 		add	r3, r0, r3
 933 0dbc 0030C4E5 		strb	r3, [r4, #0]
 934 0dc0 0030D5E5 		ldrb	r3, [r5, #0]	@ zero_extendqisi2
 935 0dc4 0020D4E5 		ldrb	r2, [r4, #0]	@ zero_extendqisi2
 936 0dc8 023083E0 		add	r3, r3, r2
 937 0dcc 0030C5E5 		strb	r3, [r5, #0]
 938 0dd0 FEFFFFEB 		bl	uart1_transmit
 939 0dd4 34005BE5 		ldrb	r0, [fp, #-52]	@ zero_extendqisi2
 940 0dd8 0030D4E5 		ldrb	r3, [r4, #0]	@ zero_extendqisi2
 941 0ddc 033080E0 		add	r3, r0, r3
 942 0de0 0030C4E5 		strb	r3, [r4, #0]
 943 0de4 0030D5E5 		ldrb	r3, [r5, #0]	@ zero_extendqisi2
 944 0de8 0020D4E5 		ldrb	r2, [r4, #0]	@ zero_extendqisi2
 945 0dec 023083E0 		add	r3, r3, r2
 946 0df0 0030C5E5 		strb	r3, [r5, #0]
 947 0df4 FEFFFFEB 		bl	uart1_transmit
 948 0df8 33005BE5 		ldrb	r0, [fp, #-51]	@ zero_extendqisi2
 949 0dfc 0030D4E5 		ldrb	r3, [r4, #0]	@ zero_extendqisi2
 950 0e00 033080E0 		add	r3, r0, r3
 951 0e04 0030C4E5 		strb	r3, [r4, #0]
 952 0e08 0030D5E5 		ldrb	r3, [r5, #0]	@ zero_extendqisi2
 953 0e0c 0020D4E5 		ldrb	r2, [r4, #0]	@ zero_extendqisi2
 954 0e10 023083E0 		add	r3, r3, r2
 955 0e14 0030C5E5 		strb	r3, [r5, #0]
 956 0e18 FEFFFFEB 		bl	uart1_transmit
 957 0e1c 32005BE5 		ldrb	r0, [fp, #-50]	@ zero_extendqisi2
 958 0e20 0030D4E5 		ldrb	r3, [r4, #0]	@ zero_extendqisi2
 959 0e24 033080E0 		add	r3, r0, r3
 960 0e28 0030C4E5 		strb	r3, [r4, #0]
 961 0e2c 0030D5E5 		ldrb	r3, [r5, #0]	@ zero_extendqisi2
 962 0e30 0020D4E5 		ldrb	r2, [r4, #0]	@ zero_extendqisi2
 963 0e34 023083E0 		add	r3, r3, r2
 964 0e38 0030C5E5 		strb	r3, [r5, #0]
 965 0e3c FEFFFFEB 		bl	uart1_transmit
 966 0e40 31005BE5 		ldrb	r0, [fp, #-49]	@ zero_extendqisi2
 967 0e44 1C0400EA 		b	.L89
 968              	.L21:
 969 0e48 100052E3 		cmp	r2, #16
 970 0e4c 2D04001A 		bne	.L1
 971 0e50 0330D5E5 		ldrb	r3, [r5, #3]	@ zero_extendqisi2
 972 0e54 120053E3 		cmp	r3, #18
 973 0e58 033085E2 		add	r3, r5, #3
 974 0e5c 2D04001A 		bne	.L1
 975 0e60 013053E5 		ldrb	r3, [r3, #-1]	@ zero_extendqisi2
 976 0e64 2C304BE5 		strb	r3, [fp, #-44]
 977 0e68 2C305BE5 		ldrb	r3, [fp, #-44]	@ zero_extendqisi2
 978 0e6c 0B0053E3 		cmp	r3, #11
 979 0e70 03F19F97 		ldrls	pc, [pc, r3, asl #2]
 980 0e74 D40300EA 		b	.L73
 981              		.p2align 2
 982              	.L74:
 983 0e78 A80E0000 		.word	.L54
 984 0e7c B00E0000 		.word	.L56
 985 0e80 B80E0000 		.word	.L57
 986 0e84 C00E0000 		.word	.L58
 987 0e88 C80E0000 		.word	.L60
 988 0e8c D40E0000 		.word	.L61
 989 0e90 DC0E0000 		.word	.L63
 990 0e94 E40E0000 		.word	.L65
 991 0e98 EC0E0000 		.word	.L67
 992 0e9c 140F0000 		.word	.L69
 993 0ea0 400F0000 		.word	.L71
 994 0ea4 4C0F0000 		.word	.L72
 995              	.L54:
 996 0ea8 AC3B1FE5 		ldr	r3, .L98+112
 997 0eac B10300EA 		b	.L88
 998              	.L56:
 999 0eb0 B03B1FE5 		ldr	r3, .L98+116
 1000 0eb4 B10300EA 		b	.L88
 1001              	.L57:
 1002 0eb8 B43B1FE5 		ldr	r3, .L98+120
 1003 0ebc B10300EA 		b	.L88
 1004              	.L58:
 1005 0ec0 B83B1FE5 		ldr	r3, .L98+124
 1006 0ec4 C40300EA 		b	.L97
 1007              	.L60:
 1008 0ec8 BC3B1FE5 		ldr	r3, .L98+128
 1009              	.L88:
 1010 0ecc 003093E5 		ldr	r3, [r3, #0]	@ float
 1011 0ed0 D50300EA 		b	.L55
 1012              	.L61:
 1013 0ed4 C43B1FE5 		ldr	r3, .L98+132
 1014 0ed8 BA0300EA 		b	.L96
 1015              	.L63:
 1016 0edc C83B1FE5 		ldr	r3, .L98+136
 1017 0ee0 BA0300EA 		b	.L96
 1018              	.L65:
 1019 0ee4 CC3B1FE5 		ldr	r3, .L98+140
 1020 0ee8 BA0300EA 		b	.L96
 1021              	.L67:
 1022 0eec D03B1FE5 		ldr	r3, .L98+144
 1023              	.L96:
 1024 0ef0 D040D3E1 		ldrsb	r4, [r3, #0]
 1025 0ef4 0400A0E1 		mov	r0, r4
 1026 0ef8 FEFFFFEB 		bl	__floatsisf
 1027 0efc 000054E3 		cmp	r4, #0
 1028 0f00 0030A0E1 		mov	r3, r0
 1029 0f04 E41B1FB5 		ldrlt	r1, .L98+148
 1030 0f08 0000A0B1 		movlt	r0, r0
 1031 0f0c CB0300BA 		blt	.L87
 1032 0f10 D50300EA 		b	.L55
 1033              	.L69:
 1034 0f14 F03B1FE5 		ldr	r3, .L98+152
 1035              	.L97:
 1036 0f18 F040D3E1 		ldrsh	r4, [r3, #0]
 1037 0f1c 0400A0E1 		mov	r0, r4
 1038 0f20 FEFFFFEB 		bl	__floatsisf
 1039 0f24 000054E3 		cmp	r4, #0
 1040 0f28 0030A0E1 		mov	r3, r0
 1041 0f2c D50300AA 		bge	.L55
 1042 0f30 081C1FE5 		ldr	r1, .L98+156
 1043              	.L87:
 1044 0f34 FEFFFFEB 		bl	__addsf3
 1045 0f38 0030A0E1 		mov	r3, r0
 1046 0f3c D50300EA 		b	.L55
 1047              	.L71:
 1048 0f40 143C1FE5 		ldr	r3, .L98+160
 1049 0f44 083093E5 		ldr	r3, [r3, #8]	@ float
 1050 0f48 D50300EA 		b	.L55
 1051              	.L72:
 1052 0f4c 203C1FE5 		ldr	r3, .L98+160
 1053 0f50 0C3093E5 		ldr	r3, [r3, #12]	@ float
 1054 0f54 D50300EA 		b	.L55
 1055              	.L73:
 1056 0f58 0030A0E3 		mov	r3, #0
 1057              	.L55:
 1058 0f5c 0B00A0E3 		mov	r0, #11
 1059 0f60 38300BE5 		str	r3, [fp, #-56]	@ float
 1060 0f64 FEFFFFEB 		bl	uart1_check_free_space
 1061 0f68 FF0010E3 		tst	r0, #255
 1062 0f6c 2904000A 		beq	.L75
 1063 0f70 401C1FE5 		ldr	r1, .L98+164
 1064 0f74 40CC1FE5 		ldr	ip, .L98+168
 1065 0f78 B030D1E1 		ldrh	r3, [r1, #0]
 1066 0f7c B020DCE1 		ldrh	r2, [ip, #0]
 1067 0f80 0B3083E2 		add	r3, r3, #11
 1068 0f84 012082E2 		add	r2, r2, #1
 1069 0f88 B030C1E1 		strh	r3, [r1, #0]	@ movhi 
 1070 0f8c B020CCE1 		strh	r2, [ip, #0]	@ movhi 
 1071 0f90 9900A0E3 		mov	r0, #153
 1072 0f94 5C4C1FE5 		ldr	r4, .L98+172
 1073 0f98 FEFFFFEB 		bl	uart1_transmit
 1074 0f9c 0B00A0E3 		mov	r0, #11
 1075 0fa0 645C1FE5 		ldr	r5, .L98+176
 1076 0fa4 FEFFFFEB 		bl	uart1_transmit
 1077 0fa8 1D30A0E3 		mov	r3, #29
 1078 0fac 0030C4E5 		strb	r3, [r4, #0]
 1079 0fb0 0B3083E2 		add	r3, r3, #11
 1080 0fb4 1200A0E3 		mov	r0, #18
 1081 0fb8 0030C5E5 		strb	r3, [r5, #0]
 1082 0fbc FEFFFFEB 		bl	uart1_transmit
 1083 0fc0 0030D4E5 		ldrb	r3, [r4, #0]	@ zero_extendqisi2
 1084 0fc4 1F3083E2 		add	r3, r3, #31
 1085 0fc8 0030C4E5 		strb	r3, [r4, #0]
 1086 0fcc 0030D5E5 		ldrb	r3, [r5, #0]	@ zero_extendqisi2
 1087 0fd0 0020D4E5 		ldrb	r2, [r4, #0]	@ zero_extendqisi2
 1088 0fd4 023083E0 		add	r3, r3, r2
 1089 0fd8 1F00A0E3 		mov	r0, #31
 1090 0fdc 0030C5E5 		strb	r3, [r5, #0]
 1091 0fe0 FEFFFFEB 		bl	uart1_transmit
 1092 0fe4 2C005BE5 		ldrb	r0, [fp, #-44]	@ zero_extendqisi2
 1093 0fe8 0030D4E5 		ldrb	r3, [r4, #0]	@ zero_extendqisi2
 1094 0fec 033080E0 		add	r3, r0, r3
 1095 0ff0 0030C4E5 		strb	r3, [r4, #0]
 1096 0ff4 0030D5E5 		ldrb	r3, [r5, #0]	@ zero_extendqisi2
 1097 0ff8 0020D4E5 		ldrb	r2, [r4, #0]	@ zero_extendqisi2
 1098 0ffc 023083E0 		add	r3, r3, r2
 1099 1000 0030C5E5 		strb	r3, [r5, #0]
 1100 1004 FEFFFFEB 		bl	uart1_transmit
 1101 1008 38005BE5 		ldrb	r0, [fp, #-56]	@ zero_extendqisi2
 1102 100c 0030D4E5 		ldrb	r3, [r4, #0]	@ zero_extendqisi2
 1103 1010 033080E0 		add	r3, r0, r3
 1104 1014 0030C4E5 		strb	r3, [r4, #0]
 1105 1018 0030D5E5 		ldrb	r3, [r5, #0]	@ zero_extendqisi2
 1106 101c 0020D4E5 		ldrb	r2, [r4, #0]	@ zero_extendqisi2
 1107 1020 023083E0 		add	r3, r3, r2
 1108 1024 0030C5E5 		strb	r3, [r5, #0]
 1109 1028 FEFFFFEB 		bl	uart1_transmit
 1110 102c 37005BE5 		ldrb	r0, [fp, #-55]	@ zero_extendqisi2
 1111 1030 0030D4E5 		ldrb	r3, [r4, #0]	@ zero_extendqisi2
 1112 1034 033080E0 		add	r3, r0, r3
 1113 1038 0030C4E5 		strb	r3, [r4, #0]
 1114 103c 0030D5E5 		ldrb	r3, [r5, #0]	@ zero_extendqisi2
 1115 1040 0020D4E5 		ldrb	r2, [r4, #0]	@ zero_extendqisi2
 1116 1044 023083E0 		add	r3, r3, r2
 1117 1048 0030C5E5 		strb	r3, [r5, #0]
 1118 104c FEFFFFEB 		bl	uart1_transmit
 1119 1050 36005BE5 		ldrb	r0, [fp, #-54]	@ zero_extendqisi2
 1120 1054 0030D4E5 		ldrb	r3, [r4, #0]	@ zero_extendqisi2
 1121 1058 033080E0 		add	r3, r0, r3
 1122 105c 0030C4E5 		strb	r3, [r4, #0]
 1123 1060 0030D5E5 		ldrb	r3, [r5, #0]	@ zero_extendqisi2
 1124 1064 0020D4E5 		ldrb	r2, [r4, #0]	@ zero_extendqisi2
 1125 1068 023083E0 		add	r3, r3, r2
 1126 106c 0030C5E5 		strb	r3, [r5, #0]
 1127 1070 FEFFFFEB 		bl	uart1_transmit
 1128 1074 35005BE5 		ldrb	r0, [fp, #-53]	@ zero_extendqisi2
 1129              	.L89:
 1130 1078 0030D4E5 		ldrb	r3, [r4, #0]	@ zero_extendqisi2
 1131 107c 033080E0 		add	r3, r0, r3
 1132 1080 0030C4E5 		strb	r3, [r4, #0]
 1133 1084 0030D5E5 		ldrb	r3, [r5, #0]	@ zero_extendqisi2
 1134 1088 0020D4E5 		ldrb	r2, [r4, #0]	@ zero_extendqisi2
 1135 108c 023083E0 		add	r3, r3, r2
 1136              	.L90:
 1137 1090 0030C5E5 		strb	r3, [r5, #0]
 1138 1094 FEFFFFEB 		bl	uart1_transmit
 1139 1098 0000D4E5 		ldrb	r0, [r4, #0]	@ zero_extendqisi2
 1140 109c FEFFFFEB 		bl	uart1_transmit
 1141 10a0 0000D5E5 		ldrb	r0, [r5, #0]	@ zero_extendqisi2
 1142 10a4 FEFFFFEB 		bl	uart1_transmit
 1143 10a8 2D0400EA 		b	.L1
 1144              	.L75:
 1145 10ac 5C2D1FE5 		ldr	r2, .L98+196
 1146 10b0 0030D2E5 		ldrb	r3, [r2, #0]	@ zero_extendqisi2
 1147 10b4 013083E2 		add	r3, r3, #1
 1148 10b8 0030C2E5 		strb	r3, [r2, #0]
 1149              	.L1:
 1150 10bc 28D04BE2 		sub	sp, fp, #40
 1151 10c0 F06F9DE8 		ldmfd	sp, {r4, r5, r6, r7, r8, r9, sl, fp, sp, lr}
 1152 10c4 1EFF2FE1 		bx	lr
 1154              		.global	dl_msg_available
 1155              		.section	.bss.dl_msg_available,"aw",%nobits
 1158              	dl_msg_available:
 1159 0000 00       		.space	1
 1160              		.global	datalink_time
 1161              		.section	.bss.datalink_time,"aw",%nobits
 1162              		.align	1
 1165              	datalink_time:
 1166 0000 0000     		.space	2
 1167              		.global	dl_buffer
 1168              		.section	.bss.dl_buffer,"aw",%nobits
 1169              		.align	2
 1172              	dl_buffer:
 1173 0000 00000000 		.space	128
 1173      00000000 
 1173      00000000 
 1173      00000000 
 1173      00000000 
 1174              		.ident	"GCC: (GNU) 3.4.4"
DEFINED SYMBOLS
                            *ABS*:00000000 datalink.c
     /tmp/cchM4Q9c.s:18     .text.dl_parse_msg:00000000 dl_parse_msg
     /tmp/cchM4Q9c.s:22     .text.dl_parse_msg:00000000 $a
     /tmp/cchM4Q9c.s:193    .text.dl_parse_msg:00000294 $d
     /tmp/cchM4Q9c.s:1172   .bss.dl_buffer:00000000 dl_buffer
     /tmp/cchM4Q9c.s:1165   .bss.datalink_time:00000000 datalink_time
     /tmp/cchM4Q9c.s:246    .text.dl_parse_msg:00000364 $a
     /tmp/cchM4Q9c.s:772    .text.dl_parse_msg:00000b88 $d
     /tmp/cchM4Q9c.s:785    .text.dl_parse_msg:00000bb8 $a
     /tmp/cchM4Q9c.s:983    .text.dl_parse_msg:00000e78 $d
     /tmp/cchM4Q9c.s:996    .text.dl_parse_msg:00000ea8 $a
     /tmp/cchM4Q9c.s:1158   .bss.dl_msg_available:00000000 dl_msg_available

UNDEFINED SYMBOLS
__floatsisf
__divsf3
__extendsfdf2
__divdf3
__muldf3
__truncdfsf2
__addsf3
__subsf3
__floatsidf
__fixunsdfsi
__eqsf2
__fixunssfsi
uart1_check_free_space
uart1_transmit
acs_idx
the_acs_id
the_acs
nav_utm_zone0
latlong_utm_x
latlong_utm_y
nav_utm_east0
waypoints
nav_utm_north0
nav_circle_radians
nav_block
nav_stage
estimator_x
estimator_y
dist2_to_wp
dist2_to_home
nav_oval_count
wind_east
wind_north
estimator_airspeed
flight_altitude
nav_course
nav_shift
estimator_flight_time
nav_radius
pprz_mode
launch
kill_throttle
telemetry_mode_Ap_DefaultChannel
gps_reset
infrared
downlink_nb_bytes
downlink_nb_msgs
ck_a
ck_b
downlink_nb_ovrn
latlong_utm_of
nav_move_waypoint
nav_goto_block
ubxsend_cfg_rst
