   1              		.file	"main_ap.c"
   2              		.global	ac_ident
   3              		.section	.data.ac_ident,"aw",%progbits
   6              	ac_ident:
   7 0000 12       		.byte	18
   8              		.global	gps_lost
   9              		.section	.data.gps_lost,"aw",%progbits
  12              	gps_lost:
  13 0000 00       		.byte	0
  14              		.global	launch
  15              		.section	.data.launch,"aw",%progbits
  18              	launch:
  19 0000 00       		.byte	0
  20              		.global	kill_throttle
  21              		.section	.data.kill_throttle,"aw",%progbits
  24              	kill_throttle:
  25 0000 00       		.byte	0
  26              		.global	lateral_mode
  27              		.section	.data.lateral_mode,"aw",%progbits
  30              	lateral_mode:
  31 0000 00       		.byte	0
  32              		.global	pprz_mode
  33              		.section	.data.pprz_mode,"aw",%progbits
  36              	pprz_mode:
  37 0000 02       		.byte	2
  38              		.global	fatal_error_nb
  39              		.section	.data.fatal_error_nb,"aw",%progbits
  42              	fatal_error_nb:
  43 0000 00       		.byte	0
  44              		.global	rc_settings_mode
  45              		.section	.data.rc_settings_mode,"aw",%progbits
  48              	rc_settings_mode:
  49 0000 00       		.byte	0
  50              		.section	.rodata.version,"a",%progbits
  51              		.align	1
  54              	version:
  55 0000 0100     		.short	1
  56              		.section	.bss.last_pprz_mode.55,"aw",%nobits
  59              	last_pprz_mode.55:
  60 0000 00       		.space	1
  61              		.global	__extendsfdf2
  62              		.global	__divdf3
  63              		.global	__fixunsdfsi
  64              		.global	__floatsidf
  65              		.global	__gtdf2
  66              		.global	__floatsisf
  67              		.global	__addsf3
  68              		.global	__muldf3
  69              		.global	__fixdfsi
  70              		.global	__gtsf2
  71              		.global	__ltsf2
  72              		.global	__divsf3
  73              		.global	__mulsf3
  74              		.section	.text.navigation_task,"ax",%progbits
  75              		.align	2
  77              	navigation_task:
  78              		@ Function supports interworking.
  79              		@ args = 0, pretend = 0, frame = 4
  80              		@ frame_needed = 1, uses_anonymous_args = 0
  81 0000 0DC0A0E1 		mov	ip, sp
  82 0004 F0D92DE9 		stmfd	sp!, {r4, r5, r6, r7, r8, fp, ip, lr, pc}
  83 0008 04B04CE2 		sub	fp, ip, #4
  84 000c 04D04DE2 		sub	sp, sp, #4
  85 0010 CC839FE5 		ldr	r8, .L35
  86 0014 0030D8E5 		ldrb	r3, [r8, #0]	@ zero_extendqisi2
  87 0018 000053E3 		cmp	r3, #0
  88 001c EC00000A 		beq	.L2
  89 0020 C0339FE5 		ldr	r3, .L35+4
  90 0024 C0239FE5 		ldr	r2, .L35+8
  91 0028 B030D3E1 		ldrh	r3, [r3, #0]
  92 002c B020D2E1 		ldrh	r2, [r2, #0]
  93 0030 033062E0 		rsb	r3, r2, r3
  94 0034 020053E3 		cmp	r3, #2
  95 0038 7E0000DA 		ble	.L3
  96 003c AC639FE5 		ldr	r6, .L35+12
  97 0040 0020D6E5 		ldrb	r2, [r6, #0]	@ zero_extendqisi2
  98 0044 023042E2 		sub	r3, r2, #2
  99 0048 010053E3 		cmp	r3, #1
 100 004c EC00008A 		bhi	.L2
 101 0050 9C339FE5 		ldr	r3, .L35+16
 102 0054 0020C3E5 		strb	r2, [r3, #0]
 103 0058 0430A0E3 		mov	r3, #4
 104 005c 0030C6E5 		strb	r3, [r6, #0]
 105 0060 0C00A0E3 		mov	r0, #12
 106 0064 FEFFFFEB 		bl	uart1_check_free_space
 107 0068 FF0010E3 		tst	r0, #255
 108 006c 98239F05 		ldreq	r2, .L35+40
 109 0070 0030D205 		ldreqb	r3, [r2, #0]	@ zero_extendqisi2
 110 0074 01308302 		addeq	r3, r3, #1
 111 0078 0030C205 		streqb	r3, [r2, #0]
 112 007c 7A00000A 		beq	.L6
 113 0080 88139FE5 		ldr	r1, .L35+44
 114 0084 88C39FE5 		ldr	ip, .L35+48
 115 0088 B030D1E1 		ldrh	r3, [r1, #0]
 116 008c B020DCE1 		ldrh	r2, [ip, #0]
 117 0090 0C3083E2 		add	r3, r3, #12
 118 0094 012082E2 		add	r2, r2, #1
 119 0098 B030C1E1 		strh	r3, [r1, #0]	@ movhi 
 120 009c B020CCE1 		strh	r2, [ip, #0]	@ movhi 
 121 00a0 9900A0E3 		mov	r0, #153
 122 00a4 6C439FE5 		ldr	r4, .L35+52
 123 00a8 FEFFFFEB 		bl	uart1_transmit
 124 00ac 0C00A0E3 		mov	r0, #12
 125 00b0 64539FE5 		ldr	r5, .L35+56
 126 00b4 FEFFFFEB 		bl	uart1_transmit
 127 00b8 1E30A0E3 		mov	r3, #30
 128 00bc 0030C4E5 		strb	r3, [r4, #0]
 129 00c0 0C3083E2 		add	r3, r3, #12
 130 00c4 1200A0E3 		mov	r0, #18
 131 00c8 0030C5E5 		strb	r3, [r5, #0]
 132 00cc FEFFFFEB 		bl	uart1_transmit
 133 00d0 0030D4E5 		ldrb	r3, [r4, #0]	@ zero_extendqisi2
 134 00d4 0B3083E2 		add	r3, r3, #11
 135 00d8 0030C4E5 		strb	r3, [r4, #0]
 136 00dc 0030D5E5 		ldrb	r3, [r5, #0]	@ zero_extendqisi2
 137 00e0 0020D4E5 		ldrb	r2, [r4, #0]	@ zero_extendqisi2
 138 00e4 023083E0 		add	r3, r3, r2
 139 00e8 0B00A0E3 		mov	r0, #11
 140 00ec 0030C5E5 		strb	r3, [r5, #0]
 141 00f0 FEFFFFEB 		bl	uart1_transmit
 142 00f4 0000D6E5 		ldrb	r0, [r6, #0]	@ zero_extendqisi2
 143 00f8 0030D4E5 		ldrb	r3, [r4, #0]	@ zero_extendqisi2
 144 00fc 033080E0 		add	r3, r0, r3
 145 0100 0030C4E5 		strb	r3, [r4, #0]
 146 0104 0030D5E5 		ldrb	r3, [r5, #0]	@ zero_extendqisi2
 147 0108 0020D4E5 		ldrb	r2, [r4, #0]	@ zero_extendqisi2
 148 010c 023083E0 		add	r3, r3, r2
 149 0110 0030C5E5 		strb	r3, [r5, #0]
 150 0114 FEFFFFEB 		bl	uart1_transmit
 151 0118 1C339FE5 		ldr	r3, .L35+88
 152 011c 0000D3E5 		ldrb	r0, [r3, #0]	@ zero_extendqisi2
 153 0120 0030D4E5 		ldrb	r3, [r4, #0]	@ zero_extendqisi2
 154 0124 033080E0 		add	r3, r0, r3
 155 0128 0030C4E5 		strb	r3, [r4, #0]
 156 012c 0030D5E5 		ldrb	r3, [r5, #0]	@ zero_extendqisi2
 157 0130 0020D4E5 		ldrb	r2, [r4, #0]	@ zero_extendqisi2
 158 0134 023083E0 		add	r3, r3, r2
 159 0138 0030C5E5 		strb	r3, [r5, #0]
 160 013c FEFFFFEB 		bl	uart1_transmit
 161 0140 F8329FE5 		ldr	r3, .L35+92
 162 0144 0000D3E5 		ldrb	r0, [r3, #0]	@ zero_extendqisi2
 163 0148 0030D4E5 		ldrb	r3, [r4, #0]	@ zero_extendqisi2
 164 014c 033080E0 		add	r3, r0, r3
 165 0150 0030C4E5 		strb	r3, [r4, #0]
 166 0154 0030D5E5 		ldrb	r3, [r5, #0]	@ zero_extendqisi2
 167 0158 0020D4E5 		ldrb	r2, [r4, #0]	@ zero_extendqisi2
 168 015c 023083E0 		add	r3, r3, r2
 169 0160 0030C5E5 		strb	r3, [r5, #0]
 170 0164 FEFFFFEB 		bl	uart1_transmit
 171 0168 88329FE5 		ldr	r3, .L35+20
 172 016c 0000D3E5 		ldrb	r0, [r3, #0]	@ zero_extendqisi2
 173 0170 0030D4E5 		ldrb	r3, [r4, #0]	@ zero_extendqisi2
 174 0174 033080E0 		add	r3, r0, r3
 175 0178 0030C4E5 		strb	r3, [r4, #0]
 176 017c 0030D5E5 		ldrb	r3, [r5, #0]	@ zero_extendqisi2
 177 0180 0020D4E5 		ldrb	r2, [r4, #0]	@ zero_extendqisi2
 178 0184 023083E0 		add	r3, r3, r2
 179 0188 0030C5E5 		strb	r3, [r5, #0]
 180 018c FEFFFFEB 		bl	uart1_transmit
 181 0190 64329FE5 		ldr	r3, .L35+24
 182 0194 0000D3E5 		ldrb	r0, [r3, #0]	@ zero_extendqisi2
 183 0198 0030D4E5 		ldrb	r3, [r4, #0]	@ zero_extendqisi2
 184 019c 033080E0 		add	r3, r0, r3
 185 01a0 0030C4E5 		strb	r3, [r4, #0]
 186 01a4 0030D5E5 		ldrb	r3, [r5, #0]	@ zero_extendqisi2
 187 01a8 0020D4E5 		ldrb	r2, [r4, #0]	@ zero_extendqisi2
 188 01ac 023083E0 		add	r3, r3, r2
 189 01b0 0030C5E5 		strb	r3, [r5, #0]
 190 01b4 FEFFFFEB 		bl	uart1_transmit
 191 01b8 40329FE5 		ldr	r3, .L35+28
 192 01bc 0000D3E5 		ldrb	r0, [r3, #0]	@ zero_extendqisi2
 193 01c0 0030D4E5 		ldrb	r3, [r4, #0]	@ zero_extendqisi2
 194 01c4 033080E0 		add	r3, r0, r3
 195 01c8 0030C4E5 		strb	r3, [r4, #0]
 196 01cc 0030D5E5 		ldrb	r3, [r5, #0]	@ zero_extendqisi2
 197 01d0 0020D4E5 		ldrb	r2, [r4, #0]	@ zero_extendqisi2
 198 01d4 023083E0 		add	r3, r3, r2
 199 01d8 0030C5E5 		strb	r3, [r5, #0]
 200 01dc FEFFFFEB 		bl	uart1_transmit
 201 01e0 0000D4E5 		ldrb	r0, [r4, #0]	@ zero_extendqisi2
 202 01e4 FEFFFFEB 		bl	uart1_transmit
 203 01e8 0000D5E5 		ldrb	r0, [r5, #0]	@ zero_extendqisi2
 204 01ec FEFFFFEB 		bl	uart1_transmit
 205              	.L6:
 206 01f0 0C329FE5 		ldr	r3, .L35+32
 207 01f4 0120A0E3 		mov	r2, #1
 208 01f8 0020C3E5 		strb	r2, [r3, #0]
 209 01fc EC0000EA 		b	.L2
 210              	.L3:
 211 0200 FC119FE5 		ldr	r1, .L35+32
 212 0204 0030D1E5 		ldrb	r3, [r1, #0]	@ zero_extendqisi2
 213 0208 000053E3 		cmp	r3, #0
 214 020c EC00000A 		beq	.L2
 215 0210 DC319FE5 		ldr	r3, .L35+16
 216 0214 D4619FE5 		ldr	r6, .L35+12
 217 0218 0020D3E5 		ldrb	r2, [r3, #0]	@ zero_extendqisi2
 218 021c 0030A0E3 		mov	r3, #0
 219 0220 0030C1E5 		strb	r3, [r1, #0]
 220 0224 0020C6E5 		strb	r2, [r6, #0]
 221 0228 0C00A0E3 		mov	r0, #12
 222 022c FEFFFFEB 		bl	uart1_check_free_space
 223 0230 FF0010E3 		tst	r0, #255
 224 0234 D0219F05 		ldreq	r2, .L35+40
 225 0238 0030D205 		ldreqb	r3, [r2, #0]	@ zero_extendqisi2
 226 023c 01308302 		addeq	r3, r3, #1
 227 0240 0030C205 		streqb	r3, [r2, #0]
 228 0244 EC00000A 		beq	.L2
 229 0248 C0119FE5 		ldr	r1, .L35+44
 230 024c C0C19FE5 		ldr	ip, .L35+48
 231 0250 B030D1E1 		ldrh	r3, [r1, #0]
 232 0254 B020DCE1 		ldrh	r2, [ip, #0]
 233 0258 0C3083E2 		add	r3, r3, #12
 234 025c 012082E2 		add	r2, r2, #1
 235 0260 B030C1E1 		strh	r3, [r1, #0]	@ movhi 
 236 0264 B020CCE1 		strh	r2, [ip, #0]	@ movhi 
 237 0268 9900A0E3 		mov	r0, #153
 238 026c A4419FE5 		ldr	r4, .L35+52
 239 0270 FEFFFFEB 		bl	uart1_transmit
 240 0274 0C00A0E3 		mov	r0, #12
 241 0278 9C519FE5 		ldr	r5, .L35+56
 242 027c FEFFFFEB 		bl	uart1_transmit
 243 0280 1E30A0E3 		mov	r3, #30
 244 0284 0030C4E5 		strb	r3, [r4, #0]
 245 0288 0C3083E2 		add	r3, r3, #12
 246 028c 1200A0E3 		mov	r0, #18
 247 0290 0030C5E5 		strb	r3, [r5, #0]
 248 0294 FEFFFFEB 		bl	uart1_transmit
 249 0298 0030D4E5 		ldrb	r3, [r4, #0]	@ zero_extendqisi2
 250 029c 0B3083E2 		add	r3, r3, #11
 251 02a0 0030C4E5 		strb	r3, [r4, #0]
 252 02a4 0030D5E5 		ldrb	r3, [r5, #0]	@ zero_extendqisi2
 253 02a8 0020D4E5 		ldrb	r2, [r4, #0]	@ zero_extendqisi2
 254 02ac 023083E0 		add	r3, r3, r2
 255 02b0 0B00A0E3 		mov	r0, #11
 256 02b4 0030C5E5 		strb	r3, [r5, #0]
 257 02b8 FEFFFFEB 		bl	uart1_transmit
 258 02bc 0000D6E5 		ldrb	r0, [r6, #0]	@ zero_extendqisi2
 259 02c0 0030D4E5 		ldrb	r3, [r4, #0]	@ zero_extendqisi2
 260 02c4 033080E0 		add	r3, r0, r3
 261 02c8 0030C4E5 		strb	r3, [r4, #0]
 262 02cc 0030D5E5 		ldrb	r3, [r5, #0]	@ zero_extendqisi2
 263 02d0 0020D4E5 		ldrb	r2, [r4, #0]	@ zero_extendqisi2
 264 02d4 023083E0 		add	r3, r3, r2
 265 02d8 0030C5E5 		strb	r3, [r5, #0]
 266 02dc FEFFFFEB 		bl	uart1_transmit
 267 02e0 54319FE5 		ldr	r3, .L35+88
 268 02e4 0000D3E5 		ldrb	r0, [r3, #0]	@ zero_extendqisi2
 269 02e8 0030D4E5 		ldrb	r3, [r4, #0]	@ zero_extendqisi2
 270 02ec 033080E0 		add	r3, r0, r3
 271 02f0 0030C4E5 		strb	r3, [r4, #0]
 272 02f4 0030D5E5 		ldrb	r3, [r5, #0]	@ zero_extendqisi2
 273 02f8 0020D4E5 		ldrb	r2, [r4, #0]	@ zero_extendqisi2
 274 02fc 023083E0 		add	r3, r3, r2
 275 0300 0030C5E5 		strb	r3, [r5, #0]
 276 0304 FEFFFFEB 		bl	uart1_transmit
 277 0308 30319FE5 		ldr	r3, .L35+92
 278 030c 0000D3E5 		ldrb	r0, [r3, #0]	@ zero_extendqisi2
 279 0310 0030D4E5 		ldrb	r3, [r4, #0]	@ zero_extendqisi2
 280 0314 033080E0 		add	r3, r0, r3
 281 0318 0030C4E5 		strb	r3, [r4, #0]
 282 031c 0030D5E5 		ldrb	r3, [r5, #0]	@ zero_extendqisi2
 283 0320 0020D4E5 		ldrb	r2, [r4, #0]	@ zero_extendqisi2
 284 0324 023083E0 		add	r3, r3, r2
 285 0328 0030C5E5 		strb	r3, [r5, #0]
 286 032c FEFFFFEB 		bl	uart1_transmit
 287 0330 C0309FE5 		ldr	r3, .L35+20
 288 0334 0000D3E5 		ldrb	r0, [r3, #0]	@ zero_extendqisi2
 289 0338 0030D4E5 		ldrb	r3, [r4, #0]	@ zero_extendqisi2
 290 033c 033080E0 		add	r3, r0, r3
 291 0340 0030C4E5 		strb	r3, [r4, #0]
 292 0344 0030D5E5 		ldrb	r3, [r5, #0]	@ zero_extendqisi2
 293 0348 0020D4E5 		ldrb	r2, [r4, #0]	@ zero_extendqisi2
 294 034c 023083E0 		add	r3, r3, r2
 295 0350 0030C5E5 		strb	r3, [r5, #0]
 296 0354 FEFFFFEB 		bl	uart1_transmit
 297 0358 9C309FE5 		ldr	r3, .L35+24
 298 035c 0000D3E5 		ldrb	r0, [r3, #0]	@ zero_extendqisi2
 299 0360 0030D4E5 		ldrb	r3, [r4, #0]	@ zero_extendqisi2
 300 0364 033080E0 		add	r3, r0, r3
 301 0368 0030C4E5 		strb	r3, [r4, #0]
 302 036c 0030D5E5 		ldrb	r3, [r5, #0]	@ zero_extendqisi2
 303 0370 0020D4E5 		ldrb	r2, [r4, #0]	@ zero_extendqisi2
 304 0374 023083E0 		add	r3, r3, r2
 305 0378 0030C5E5 		strb	r3, [r5, #0]
 306 037c FEFFFFEB 		bl	uart1_transmit
 307 0380 78309FE5 		ldr	r3, .L35+28
 308 0384 0000D3E5 		ldrb	r0, [r3, #0]	@ zero_extendqisi2
 309 0388 0030D4E5 		ldrb	r3, [r4, #0]	@ zero_extendqisi2
 310 038c 033080E0 		add	r3, r0, r3
 311 0390 0030C4E5 		strb	r3, [r4, #0]
 312 0394 0030D5E5 		ldrb	r3, [r5, #0]	@ zero_extendqisi2
 313 0398 0020D4E5 		ldrb	r2, [r4, #0]	@ zero_extendqisi2
 314 039c 023083E0 		add	r3, r3, r2
 315 03a0 0030C5E5 		strb	r3, [r5, #0]
 316 03a4 FEFFFFEB 		bl	uart1_transmit
 317 03a8 0000D4E5 		ldrb	r0, [r4, #0]	@ zero_extendqisi2
 318 03ac FEFFFFEB 		bl	uart1_transmit
 319 03b0 0000D5E5 		ldrb	r0, [r5, #0]	@ zero_extendqisi2
 320 03b4 FEFFFFEB 		bl	uart1_transmit
 321              	.L2:
 322 03b8 30709FE5 		ldr	r7, .L35+12
 323 03bc FEFFFFEB 		bl	common_nav_periodic_task_4Hz
 324 03c0 0030D7E5 		ldrb	r3, [r7, #0]	@ zero_extendqisi2
 325 03c4 030053E3 		cmp	r3, #3
 326 03c8 F300001A 		bne	.L11
 327 03cc FEFFFFEB 		bl	nav_home
 328 03d0 150100EA 		b	.L12
 329              	.L11:
 330 03d4 040053E3 		cmp	r3, #4
 331 03d8 1401001A 		bne	.L13
 332 03dc FEFFFFEB 		bl	nav_without_gps
 333 03e0 150100EA 		b	.L12
 334              	.L36:
 335              		.align	2
 336              	.L35:
 337 03e4 00000000 		.word	launch
 338 03e8 00000000 		.word	cpu_time_sec
 339 03ec 00000000 		.word	last_gps_msg_t
 340 03f0 00000000 		.word	pprz_mode
 341 03f4 00000000 		.word	last_pprz_mode.55
 342 03f8 00000000 		.word	horizontal_mode
 343 03fc 00000000 		.word	rc_settings_mode
 344 0400 00000000 		.word	mcu1_status
 345 0404 00000000 		.word	gps_lost
 346 0408 00000000 		.word	nav_circle_radians
 347 040c 00000000 		.word	downlink_nb_ovrn
 348 0410 00000000 		.word	downlink_nb_bytes
 349 0414 00000000 		.word	downlink_nb_msgs
 350 0418 00000000 		.word	ck_a
 351 041c 00000000 		.word	ck_b
 352 0420 00000000 		.word	nav_block
 353 0424 00000000 		.word	nav_stage
 354 0428 00000000 		.word	estimator_x
 355 042c 00000000 		.word	estimator_y
 356 0430 00000000 		.word	dist2_to_wp
 357 0434 00000000 		.word	dist2_to_home
 358 0438 00000000 		.word	nav_oval_count
 359 043c 00000000 		.word	v_ctl_mode
 360 0440 00000000 		.word	lateral_mode
 361 0444 00000000 		.word	nav_throttle_setpoint
 362 0448 00000000 		.word	v_ctl_throttle_setpoint
 363 044c 00000000 		.word	vsupply
 364 0450 FB211940 		.word	1075388923
 365 0454 182D4454 		.word	1413754136
 366              	.L13:
 367 0458 FEFFFFEB 		bl	nav_periodic_task
 368              	.L12:
 369 045c 5C301FE5 		ldr	r3, .L35+36
 370 0460 003093E5 		ldr	r3, [r3, #0]
 371 0464 0201C3E3 		bic	r0, r3, #-2147483648
 372 0468 FEFFFFEB 		bl	__extendsfdf2
 373 046c 24204FE2 		adr	r2, .L35+108
 374 0470 0C0092E8 		ldmia	r2, {r2-r3}
 375 0474 FEFFFFEB 		bl	__divdf3
 376 0478 FEFFFFEB 		bl	__fixunsdfsi
 377 047c 21004BE5 		strb	r0, [fp, #-33]
 378 0480 1A00A0E3 		mov	r0, #26
 379 0484 FEFFFFEB 		bl	uart1_check_free_space
 380 0488 FF0010E3 		tst	r0, #255
 381 048c 88201F05 		ldreq	r2, .L35+40
 382 0490 0030D205 		ldreqb	r3, [r2, #0]	@ zero_extendqisi2
 383 0494 01308302 		addeq	r3, r3, #1
 384 0498 0030C205 		streqb	r3, [r2, #0]
 385 049c 0202000A 		beq	.L16
 386 04a0 98101FE5 		ldr	r1, .L35+44
 387 04a4 98C01FE5 		ldr	ip, .L35+48
 388 04a8 B030D1E1 		ldrh	r3, [r1, #0]
 389 04ac B020DCE1 		ldrh	r2, [ip, #0]
 390 04b0 1A3083E2 		add	r3, r3, #26
 391 04b4 012082E2 		add	r2, r2, #1
 392 04b8 B030C1E1 		strh	r3, [r1, #0]	@ movhi 
 393 04bc B020CCE1 		strh	r2, [ip, #0]	@ movhi 
 394 04c0 9900A0E3 		mov	r0, #153
 395 04c4 B4401FE5 		ldr	r4, .L35+52
 396 04c8 FEFFFFEB 		bl	uart1_transmit
 397 04cc 1A00A0E3 		mov	r0, #26
 398 04d0 BC501FE5 		ldr	r5, .L35+56
 399 04d4 FEFFFFEB 		bl	uart1_transmit
 400 04d8 2C30A0E3 		mov	r3, #44
 401 04dc 0030C4E5 		strb	r3, [r4, #0]
 402 04e0 1A3083E2 		add	r3, r3, #26
 403 04e4 1200A0E3 		mov	r0, #18
 404 04e8 0030C5E5 		strb	r3, [r5, #0]
 405 04ec FEFFFFEB 		bl	uart1_transmit
 406 04f0 0030D4E5 		ldrb	r3, [r4, #0]	@ zero_extendqisi2
 407 04f4 0A3083E2 		add	r3, r3, #10
 408 04f8 0030C4E5 		strb	r3, [r4, #0]
 409 04fc 0030D5E5 		ldrb	r3, [r5, #0]	@ zero_extendqisi2
 410 0500 0020D4E5 		ldrb	r2, [r4, #0]	@ zero_extendqisi2
 411 0504 023083E0 		add	r3, r3, r2
 412 0508 0A00A0E3 		mov	r0, #10
 413 050c 0030C5E5 		strb	r3, [r5, #0]
 414 0510 FEFFFFEB 		bl	uart1_transmit
 415 0514 FC301FE5 		ldr	r3, .L35+60
 416 0518 0000D3E5 		ldrb	r0, [r3, #0]	@ zero_extendqisi2
 417 051c 0030D4E5 		ldrb	r3, [r4, #0]	@ zero_extendqisi2
 418 0520 033080E0 		add	r3, r0, r3
 419 0524 0030C4E5 		strb	r3, [r4, #0]
 420 0528 0030D5E5 		ldrb	r3, [r5, #0]	@ zero_extendqisi2
 421 052c 0020D4E5 		ldrb	r2, [r4, #0]	@ zero_extendqisi2
 422 0530 023083E0 		add	r3, r3, r2
 423 0534 0030C5E5 		strb	r3, [r5, #0]
 424 0538 FEFFFFEB 		bl	uart1_transmit
 425 053c 20311FE5 		ldr	r3, .L35+64
 426 0540 0000D3E5 		ldrb	r0, [r3, #0]	@ zero_extendqisi2
 427 0544 0030D4E5 		ldrb	r3, [r4, #0]	@ zero_extendqisi2
 428 0548 033080E0 		add	r3, r0, r3
 429 054c 0030C4E5 		strb	r3, [r4, #0]
 430 0550 0030D5E5 		ldrb	r3, [r5, #0]	@ zero_extendqisi2
 431 0554 0020D4E5 		ldrb	r2, [r4, #0]	@ zero_extendqisi2
 432 0558 38611FE5 		ldr	r6, .L35+68
 433 055c 023083E0 		add	r3, r3, r2
 434 0560 0030C5E5 		strb	r3, [r5, #0]
 435 0564 FEFFFFEB 		bl	uart1_transmit
 436 0568 0000D6E5 		ldrb	r0, [r6, #0]	@ zero_extendqisi2
 437 056c 0030D4E5 		ldrb	r3, [r4, #0]	@ zero_extendqisi2
 438 0570 033080E0 		add	r3, r0, r3
 439 0574 0030C4E5 		strb	r3, [r4, #0]
 440 0578 0030D5E5 		ldrb	r3, [r5, #0]	@ zero_extendqisi2
 441 057c 0020D4E5 		ldrb	r2, [r4, #0]	@ zero_extendqisi2
 442 0580 023083E0 		add	r3, r3, r2
 443 0584 0030C5E5 		strb	r3, [r5, #0]
 444 0588 FEFFFFEB 		bl	uart1_transmit
 445 058c 0100D6E5 		ldrb	r0, [r6, #1]	@ zero_extendqisi2
 446 0590 0030D4E5 		ldrb	r3, [r4, #0]	@ zero_extendqisi2
 447 0594 033080E0 		add	r3, r0, r3
 448 0598 0030C4E5 		strb	r3, [r4, #0]
 449 059c 0030D5E5 		ldrb	r3, [r5, #0]	@ zero_extendqisi2
 450 05a0 0020D4E5 		ldrb	r2, [r4, #0]	@ zero_extendqisi2
 451 05a4 023083E0 		add	r3, r3, r2
 452 05a8 0030C5E5 		strb	r3, [r5, #0]
 453 05ac FEFFFFEB 		bl	uart1_transmit
 454 05b0 0200D6E5 		ldrb	r0, [r6, #2]	@ zero_extendqisi2
 455 05b4 0030D4E5 		ldrb	r3, [r4, #0]	@ zero_extendqisi2
 456 05b8 033080E0 		add	r3, r0, r3
 457 05bc 0030C4E5 		strb	r3, [r4, #0]
 458 05c0 0030D5E5 		ldrb	r3, [r5, #0]	@ zero_extendqisi2
 459 05c4 0020D4E5 		ldrb	r2, [r4, #0]	@ zero_extendqisi2
 460 05c8 023083E0 		add	r3, r3, r2
 461 05cc 0030C5E5 		strb	r3, [r5, #0]
 462 05d0 FEFFFFEB 		bl	uart1_transmit
 463 05d4 0300D6E5 		ldrb	r0, [r6, #3]	@ zero_extendqisi2
 464 05d8 0030D4E5 		ldrb	r3, [r4, #0]	@ zero_extendqisi2
 465 05dc 033080E0 		add	r3, r0, r3
 466 05e0 0030C4E5 		strb	r3, [r4, #0]
 467 05e4 0030D5E5 		ldrb	r3, [r5, #0]	@ zero_extendqisi2
 468 05e8 0020D4E5 		ldrb	r2, [r4, #0]	@ zero_extendqisi2
 469 05ec C8611FE5 		ldr	r6, .L35+72
 470 05f0 023083E0 		add	r3, r3, r2
 471 05f4 0030C5E5 		strb	r3, [r5, #0]
 472 05f8 FEFFFFEB 		bl	uart1_transmit
 473 05fc 0000D6E5 		ldrb	r0, [r6, #0]	@ zero_extendqisi2
 474 0600 0030D4E5 		ldrb	r3, [r4, #0]	@ zero_extendqisi2
 475 0604 033080E0 		add	r3, r0, r3
 476 0608 0030C4E5 		strb	r3, [r4, #0]
 477 060c 0030D5E5 		ldrb	r3, [r5, #0]	@ zero_extendqisi2
 478 0610 0020D4E5 		ldrb	r2, [r4, #0]	@ zero_extendqisi2
 479 0614 023083E0 		add	r3, r3, r2
 480 0618 0030C5E5 		strb	r3, [r5, #0]
 481 061c FEFFFFEB 		bl	uart1_transmit
 482 0620 0100D6E5 		ldrb	r0, [r6, #1]	@ zero_extendqisi2
 483 0624 0030D4E5 		ldrb	r3, [r4, #0]	@ zero_extendqisi2
 484 0628 033080E0 		add	r3, r0, r3
 485 062c 0030C4E5 		strb	r3, [r4, #0]
 486 0630 0030D5E5 		ldrb	r3, [r5, #0]	@ zero_extendqisi2
 487 0634 0020D4E5 		ldrb	r2, [r4, #0]	@ zero_extendqisi2
 488 0638 023083E0 		add	r3, r3, r2
 489 063c 0030C5E5 		strb	r3, [r5, #0]
 490 0640 FEFFFFEB 		bl	uart1_transmit
 491 0644 0200D6E5 		ldrb	r0, [r6, #2]	@ zero_extendqisi2
 492 0648 0030D4E5 		ldrb	r3, [r4, #0]	@ zero_extendqisi2
 493 064c 033080E0 		add	r3, r0, r3
 494 0650 0030C4E5 		strb	r3, [r4, #0]
 495 0654 0030D5E5 		ldrb	r3, [r5, #0]	@ zero_extendqisi2
 496 0658 0020D4E5 		ldrb	r2, [r4, #0]	@ zero_extendqisi2
 497 065c 023083E0 		add	r3, r3, r2
 498 0660 0030C5E5 		strb	r3, [r5, #0]
 499 0664 FEFFFFEB 		bl	uart1_transmit
 500 0668 0300D6E5 		ldrb	r0, [r6, #3]	@ zero_extendqisi2
 501 066c 0030D4E5 		ldrb	r3, [r4, #0]	@ zero_extendqisi2
 502 0670 033080E0 		add	r3, r0, r3
 503 0674 0030C4E5 		strb	r3, [r4, #0]
 504 0678 0030D5E5 		ldrb	r3, [r5, #0]	@ zero_extendqisi2
 505 067c 0020D4E5 		ldrb	r2, [r4, #0]	@ zero_extendqisi2
 506 0680 58621FE5 		ldr	r6, .L35+76
 507 0684 023083E0 		add	r3, r3, r2
 508 0688 0030C5E5 		strb	r3, [r5, #0]
 509 068c FEFFFFEB 		bl	uart1_transmit
 510 0690 0000D6E5 		ldrb	r0, [r6, #0]	@ zero_extendqisi2
 511 0694 0030D4E5 		ldrb	r3, [r4, #0]	@ zero_extendqisi2
 512 0698 033080E0 		add	r3, r0, r3
 513 069c 0030C4E5 		strb	r3, [r4, #0]
 514 06a0 0030D5E5 		ldrb	r3, [r5, #0]	@ zero_extendqisi2
 515 06a4 0020D4E5 		ldrb	r2, [r4, #0]	@ zero_extendqisi2
 516 06a8 023083E0 		add	r3, r3, r2
 517 06ac 0030C5E5 		strb	r3, [r5, #0]
 518 06b0 FEFFFFEB 		bl	uart1_transmit
 519 06b4 0100D6E5 		ldrb	r0, [r6, #1]	@ zero_extendqisi2
 520 06b8 0030D4E5 		ldrb	r3, [r4, #0]	@ zero_extendqisi2
 521 06bc 033080E0 		add	r3, r0, r3
 522 06c0 0030C4E5 		strb	r3, [r4, #0]
 523 06c4 0030D5E5 		ldrb	r3, [r5, #0]	@ zero_extendqisi2
 524 06c8 0020D4E5 		ldrb	r2, [r4, #0]	@ zero_extendqisi2
 525 06cc 023083E0 		add	r3, r3, r2
 526 06d0 0030C5E5 		strb	r3, [r5, #0]
 527 06d4 FEFFFFEB 		bl	uart1_transmit
 528 06d8 0200D6E5 		ldrb	r0, [r6, #2]	@ zero_extendqisi2
 529 06dc 0030D4E5 		ldrb	r3, [r4, #0]	@ zero_extendqisi2
 530 06e0 033080E0 		add	r3, r0, r3
 531 06e4 0030C4E5 		strb	r3, [r4, #0]
 532 06e8 0030D5E5 		ldrb	r3, [r5, #0]	@ zero_extendqisi2
 533 06ec 0020D4E5 		ldrb	r2, [r4, #0]	@ zero_extendqisi2
 534 06f0 023083E0 		add	r3, r3, r2
 535 06f4 0030C5E5 		strb	r3, [r5, #0]
 536 06f8 FEFFFFEB 		bl	uart1_transmit
 537 06fc 0300D6E5 		ldrb	r0, [r6, #3]	@ zero_extendqisi2
 538 0700 0030D4E5 		ldrb	r3, [r4, #0]	@ zero_extendqisi2
 539 0704 033080E0 		add	r3, r0, r3
 540 0708 0030C4E5 		strb	r3, [r4, #0]
 541 070c 0030D5E5 		ldrb	r3, [r5, #0]	@ zero_extendqisi2
 542 0710 0020D4E5 		ldrb	r2, [r4, #0]	@ zero_extendqisi2
 543 0714 E8621FE5 		ldr	r6, .L35+80
 544 0718 023083E0 		add	r3, r3, r2
 545 071c 0030C5E5 		strb	r3, [r5, #0]
 546 0720 FEFFFFEB 		bl	uart1_transmit
 547 0724 0000D6E5 		ldrb	r0, [r6, #0]	@ zero_extendqisi2
 548 0728 0030D4E5 		ldrb	r3, [r4, #0]	@ zero_extendqisi2
 549 072c 033080E0 		add	r3, r0, r3
 550 0730 0030C4E5 		strb	r3, [r4, #0]
 551 0734 0030D5E5 		ldrb	r3, [r5, #0]	@ zero_extendqisi2
 552 0738 0020D4E5 		ldrb	r2, [r4, #0]	@ zero_extendqisi2
 553 073c 023083E0 		add	r3, r3, r2
 554 0740 0030C5E5 		strb	r3, [r5, #0]
 555 0744 FEFFFFEB 		bl	uart1_transmit
 556 0748 0100D6E5 		ldrb	r0, [r6, #1]	@ zero_extendqisi2
 557 074c 0030D4E5 		ldrb	r3, [r4, #0]	@ zero_extendqisi2
 558 0750 033080E0 		add	r3, r0, r3
 559 0754 0030C4E5 		strb	r3, [r4, #0]
 560 0758 0030D5E5 		ldrb	r3, [r5, #0]	@ zero_extendqisi2
 561 075c 0020D4E5 		ldrb	r2, [r4, #0]	@ zero_extendqisi2
 562 0760 023083E0 		add	r3, r3, r2
 563 0764 0030C5E5 		strb	r3, [r5, #0]
 564 0768 FEFFFFEB 		bl	uart1_transmit
 565 076c 0200D6E5 		ldrb	r0, [r6, #2]	@ zero_extendqisi2
 566 0770 0030D4E5 		ldrb	r3, [r4, #0]	@ zero_extendqisi2
 567 0774 033080E0 		add	r3, r0, r3
 568 0778 0030C4E5 		strb	r3, [r4, #0]
 569 077c 0030D5E5 		ldrb	r3, [r5, #0]	@ zero_extendqisi2
 570 0780 0020D4E5 		ldrb	r2, [r4, #0]	@ zero_extendqisi2
 571 0784 023083E0 		add	r3, r3, r2
 572 0788 0030C5E5 		strb	r3, [r5, #0]
 573 078c FEFFFFEB 		bl	uart1_transmit
 574 0790 0300D6E5 		ldrb	r0, [r6, #3]	@ zero_extendqisi2
 575 0794 0030D4E5 		ldrb	r3, [r4, #0]	@ zero_extendqisi2
 576 0798 033080E0 		add	r3, r0, r3
 577 079c 0030C4E5 		strb	r3, [r4, #0]
 578 07a0 0030D5E5 		ldrb	r3, [r5, #0]	@ zero_extendqisi2
 579 07a4 0020D4E5 		ldrb	r2, [r4, #0]	@ zero_extendqisi2
 580 07a8 023083E0 		add	r3, r3, r2
 581 07ac 0030C5E5 		strb	r3, [r5, #0]
 582 07b0 FEFFFFEB 		bl	uart1_transmit
 583 07b4 21005BE5 		ldrb	r0, [fp, #-33]	@ zero_extendqisi2
 584 07b8 0030D4E5 		ldrb	r3, [r4, #0]	@ zero_extendqisi2
 585 07bc 033080E0 		add	r3, r0, r3
 586 07c0 0030C4E5 		strb	r3, [r4, #0]
 587 07c4 0030D5E5 		ldrb	r3, [r5, #0]	@ zero_extendqisi2
 588 07c8 0020D4E5 		ldrb	r2, [r4, #0]	@ zero_extendqisi2
 589 07cc 023083E0 		add	r3, r3, r2
 590 07d0 0030C5E5 		strb	r3, [r5, #0]
 591 07d4 FEFFFFEB 		bl	uart1_transmit
 592 07d8 A8331FE5 		ldr	r3, .L35+84
 593 07dc 0000D3E5 		ldrb	r0, [r3, #0]	@ zero_extendqisi2
 594 07e0 0030D4E5 		ldrb	r3, [r4, #0]	@ zero_extendqisi2
 595 07e4 033080E0 		add	r3, r0, r3
 596 07e8 0030C4E5 		strb	r3, [r4, #0]
 597 07ec 0030D5E5 		ldrb	r3, [r5, #0]	@ zero_extendqisi2
 598 07f0 0020D4E5 		ldrb	r2, [r4, #0]	@ zero_extendqisi2
 599 07f4 023083E0 		add	r3, r3, r2
 600 07f8 0030C5E5 		strb	r3, [r5, #0]
 601 07fc FEFFFFEB 		bl	uart1_transmit
 602 0800 0000D4E5 		ldrb	r0, [r4, #0]	@ zero_extendqisi2
 603 0804 FEFFFFEB 		bl	uart1_transmit
 604 0808 0000D5E5 		ldrb	r0, [r5, #0]	@ zero_extendqisi2
 605 080c FEFFFFEB 		bl	uart1_transmit
 606              	.L16:
 607 0810 DC431FE5 		ldr	r4, .L35+88
 608 0814 0030D4E5 		ldrb	r3, [r4, #0]	@ zero_extendqisi2
 609 0818 030053E3 		cmp	r3, #3
 610 081c FEFFFF0B 		bleq	v_ctl_altitude_loop
 611              	.L17:
 612 0820 0030D7E5 		ldrb	r3, [r7, #0]	@ zero_extendqisi2
 613 0824 023043E2 		sub	r3, r3, #2
 614 0828 020053E3 		cmp	r3, #2
 615 082c 6002008A 		bhi	.L18
 616 0830 F8331FE5 		ldr	r3, .L35+92
 617 0834 0030D3E5 		ldrb	r3, [r3, #0]	@ zero_extendqisi2
 618 0838 020053E3 		cmp	r3, #2
 619 083c FEFFFF8B 		blhi	h_ctl_course_loop
 620              	.L19:
 621 0840 0030D4E5 		ldrb	r3, [r4, #0]	@ zero_extendqisi2
 622 0844 010053E3 		cmp	r3, #1
 623 0848 FEFFFF8B 		blhi	v_ctl_climb_loop
 624              	.L20:
 625 084c 0030D4E5 		ldrb	r3, [r4, #0]	@ zero_extendqisi2
 626 0850 010053E3 		cmp	r3, #1
 627 0854 18241F05 		ldreq	r2, .L35+96
 628 0858 18341F05 		ldreq	r3, .L35+100
 629 085c B020D201 		ldreqh	r2, [r2, #0]
 630 0860 B020C301 		streqh	r2, [r3, #0]	@ movhi 
 631 0864 20341FE5 		ldr	r3, .L35+104
 632 0868 0040D3E5 		ldrb	r4, [r3, #0]	@ zero_extendqisi2
 633 086c 0400A0E1 		mov	r0, r4
 634 0870 FEFFFFEB 		bl	__floatsidf
 635 0874 522F8FE2 		adr	r2, .L37
 636 0878 0C0092E8 		ldmia	r2, {r2-r3}
 637 087c FEFFFFEB 		bl	__gtdf2
 638 0880 000050E3 		cmp	r0, #0
 639 0884 410200DA 		ble	.L22
 640 0888 44719FE5 		ldr	r7, .L37+16
 641 088c F000D7E1 		ldrsh	r0, [r7, #0]
 642 0890 FEFFFFEB 		bl	__floatsidf
 643 0894 044CA0E1 		mov	r4, r4, asl #24
 644 0898 444CA0E1 		mov	r4, r4, asr #24
 645 089c 0160A0E1 		mov	r6, r1
 646 08a0 0050A0E1 		mov	r5, r0
 647 08a4 0400A0E1 		mov	r0, r4
 648 08a8 FEFFFFEB 		bl	__floatsisf
 649 08ac 000054E3 		cmp	r4, #0
 650 08b0 20119FB5 		ldrlt	r1, .L37+20
 651 08b4 FEFFFFBB 		bllt	__addsf3
 652              	.L24:
 653 08b8 FEFFFFEB 		bl	__extendsfdf2
 654 08bc 0130A0E1 		mov	r3, r1
 655 08c0 0020A0E1 		mov	r2, r0
 656 08c4 010C8FE2 		adr	r0, .L37+8
 657 08c8 030090E8 		ldmia	r0, {r0-r1}
 658 08cc FEFFFFEB 		bl	__divdf3
 659 08d0 0130A0E1 		mov	r3, r1
 660 08d4 0020A0E1 		mov	r2, r0
 661 08d8 0610A0E1 		mov	r1, r6
 662 08dc 0500A0E1 		mov	r0, r5
 663 08e0 FEFFFFEB 		bl	__muldf3
 664 08e4 FEFFFFEB 		bl	__fixdfsi
 665 08e8 B000C7E1 		strh	r0, [r7, #0]	@ movhi 
 666 08ec F030D7E1 		ldrsh	r3, [r7, #0]
 667 08f0 000053E3 		cmp	r3, #0
 668 08f4 0720A0E1 		mov	r2, r7
 669 08f8 0030A0B3 		movlt	r3, #0	@ movhi
 670 08fc 400200BA 		blt	.L26
 671 0900 960D53E3 		cmp	r3, #9600
 672 0904 963DA0A3 		movge	r3, #9600
 673              	.L26:
 674 0908 B030C2E1 		strh	r3, [r2, #0]	@ movhi 
 675              	.L22:
 676 090c C8309FE5 		ldr	r3, .L37+24
 677 0910 C8509FE5 		ldr	r5, .L37+28
 678 0914 004093E5 		ldr	r4, [r3, #0]	@ float
 679 0918 3F14A0E3 		mov	r1, #1056964608
 680 091c 0400A0E1 		mov	r0, r4
 681 0920 004085E5 		str	r4, [r5, #0]	@ float
 682 0924 FEFFFFEB 		bl	__gtsf2
 683 0928 000050E3 		cmp	r0, #0
 684 092c 3F34A0C3 		movgt	r3, #1056964608
 685 0930 510200CA 		bgt	.L34
 686 0934 0400A0E1 		mov	r0, r4
 687 0938 BF14A0E3 		mov	r1, #-1090519040
 688 093c FEFFFFEB 		bl	__ltsf2
 689 0940 000050E3 		cmp	r0, #0
 690 0944 520200AA 		bge	.L29
 691 0948 BF34A0E3 		mov	r3, #-1090519040
 692              	.L34:
 693 094c 003085E5 		str	r3, [r5, #0]	@ float
 694              	.L29:
 695 0950 8C309FE5 		ldr	r3, .L37+32
 696 0954 0030D3E5 		ldrb	r3, [r3, #0]	@ zero_extendqisi2
 697 0958 000053E3 		cmp	r3, #0
 698 095c 5D02001A 		bne	.L33
 699 0960 80309FE5 		ldr	r3, .L37+36
 700 0964 B030D3E1 		ldrh	r3, [r3, #0]
 701 0968 000053E3 		cmp	r3, #0
 702 096c 6002001A 		bne	.L18
 703 0970 0030D8E5 		ldrb	r3, [r8, #0]	@ zero_extendqisi2
 704 0974 000053E3 		cmp	r3, #0
 705 0978 6002001A 		bne	.L18
 706              	.L33:
 707 097c 50309FE5 		ldr	r3, .L37+16
 708 0980 0020A0E3 		mov	r2, #0	@ movhi
 709 0984 B020C3E1 		strh	r2, [r3, #0]	@ movhi 
 710              	.L18:
 711 0988 5C309FE5 		ldr	r3, .L37+40
 712 098c 000093E5 		ldr	r0, [r3, #0]
 713 0990 FEFFFFEB 		bl	__floatsisf
 714 0994 54109FE5 		ldr	r1, .L37+44
 715 0998 FEFFFFEB 		bl	__divsf3
 716 099c FA15A0E3 		mov	r1, #1048576000
 717 09a0 FEFFFFEB 		bl	__mulsf3
 718 09a4 48409FE5 		ldr	r4, .L37+48
 719 09a8 0010A0E1 		mov	r1, r0
 720 09ac 000094E5 		ldr	r0, [r4, #0]	@ float
 721 09b0 FEFFFFEB 		bl	__addsf3
 722 09b4 000084E5 		str	r0, [r4, #0]	@ float
 723 09b8 20D04BE2 		sub	sp, fp, #32
 724 09bc F0699DE8 		ldmfd	sp, {r4, r5, r6, r7, r8, fp, sp, lr}
 725 09c0 1EFF2FE1 		bx	lr
 726              	.L38:
 727              		.align	2
 728              	.L37:
 729 09c4 00000000 		.word	0
 730 09c8 00000000 		.word	0
 731 09cc 00C05B40 		.word	1079754752
 732 09d0 00000000 		.word	0
 733 09d4 00000000 		.word	v_ctl_throttle_setpoint
 734 09d8 00008043 		.word	1132462080
 735 09dc 00000000 		.word	nav_pitch
 736 09e0 00000000 		.word	h_ctl_pitch_setpoint
 737 09e4 00000000 		.word	kill_throttle
 738 09e8 00000000 		.word	estimator_flight_time
 739 09ec 00000000 		.word	current
 740 09f0 00006145 		.word	1163984896
 741 09f4 00000000 		.word	energy
 743              		.section	.data._60Hz.4,"aw",%progbits
 746              	_60Hz.4:
 747 0000 00       		.byte	0
 748              		.section	.data._20Hz.5,"aw",%progbits
 751              	_20Hz.5:
 752 0000 00       		.byte	0
 753              		.section	.data._10Hz.6,"aw",%progbits
 756              	_10Hz.6:
 757 0000 00       		.byte	0
 758              		.section	.data._4Hz.7,"aw",%progbits
 761              	_4Hz.7:
 762 0000 00       		.byte	0
 763              		.section	.data._1Hz.8,"aw",%progbits
 766              	_1Hz.8:
 767 0000 00       		.byte	0
 768              		.section	.data.boot.10,"aw",%progbits
 771              	boot.10:
 772 0000 01       		.byte	1
 773              		.section	.data.i15.11,"aw",%progbits
 776              	i15.11:
 777 0000 00       		.byte	0
 778              		.section	.data.i30.12,"aw",%progbits
 781              	i30.12:
 782 0000 00       		.byte	0
 783              		.section	.data.i60.13,"aw",%progbits
 786              	i60.13:
 787 0000 00       		.byte	0
 788              		.section	.data.i63.14,"aw",%progbits
 791              	i63.14:
 792 0000 00       		.byte	0
 793              		.section	.data.i66.15,"aw",%progbits
 796              	i66.15:
 797 0000 00       		.byte	0
 798              		.section	.data.i72.16,"aw",%progbits
 801              	i72.16:
 802 0000 00       		.byte	0
 803              		.section	.data.i90.17,"aw",%progbits
 806              	i90.17:
 807 0000 00       		.byte	0
 808              		.section	.data.i120.18,"aw",%progbits
 811              	i120.18:
 812 0000 00       		.byte	0
 813              		.section	.data.i126.19,"aw",%progbits
 816              	i126.19:
 817 0000 00       		.byte	0
 818              		.section	.data.i150.20,"aw",%progbits
 821              	i150.20:
 822 0000 00       		.byte	0
 823              		.section	.data.i300.21,"aw",%progbits
 824              		.align	1
 827              	i300.21:
 828 0000 0000     		.short	0
 829              		.section	.data.i306.22,"aw",%progbits
 830              		.align	1
 833              	i306.22:
 834 0000 0000     		.short	0
 835              		.section	.data.i540.23,"aw",%progbits
 836              		.align	1
 839              	i540.23:
 840 0000 0000     		.short	0
 841              		.section	.bss.i.24,"aw",%nobits
 844              	i.24:
 845 0000 00       		.space	1
 846              		.global	__fixsfsi
 847              		.section	.bss.i.25,"aw",%nobits
 850              	i.25:
 851 0000 00       		.space	1
 852              		.section	.bss.last.26,"aw",%nobits
 853              		.align	1
 856              	last.26:
 857 0000 0000     		.space	2
 858              		.section	.data.i63.27,"aw",%progbits
 861              	i63.27:
 862 0000 00       		.byte	0
 863              		.section	.data.i66.28,"aw",%progbits
 866              	i66.28:
 867 0000 00       		.byte	0
 868              		.section	.data.i78.29,"aw",%progbits
 871              	i78.29:
 872 0000 00       		.byte	0
 873              		.section	.data.i84.30,"aw",%progbits
 876              	i84.30:
 877 0000 00       		.byte	0
 878              		.section	.data.i90.31,"aw",%progbits
 881              	i90.31:
 882 0000 00       		.byte	0
 883              		.section	.data.i126.32,"aw",%progbits
 886              	i126.32:
 887 0000 00       		.byte	0
 888              		.section	.data.i180.33,"aw",%progbits
 891              	i180.33:
 892 0000 00       		.byte	0
 893              		.section	.data.i183.34,"aw",%progbits
 896              	i183.34:
 897 0000 00       		.byte	0
 898              		.section	.data.i192.35,"aw",%progbits
 901              	i192.35:
 902 0000 00       		.byte	0
 903              		.section	.data.i240.36,"aw",%progbits
 906              	i240.36:
 907 0000 00       		.byte	0
 908              		.section	.data.i243.37,"aw",%progbits
 911              	i243.37:
 912 0000 00       		.byte	0
 913              		.section	.data.i300.38,"aw",%progbits
 914              		.align	1
 917              	i300.38:
 918 0000 0000     		.short	0
 919              		.section	.data.i306.39,"aw",%progbits
 920              		.align	1
 923              	i306.39:
 924 0000 0000     		.short	0
 925              		.section	.data.i312.40,"aw",%progbits
 926              		.align	1
 929              	i312.40:
 930 0000 0000     		.short	0
 931              		.section	.data.i540.41,"aw",%progbits
 932              		.align	1
 935              	i540.41:
 936 0000 0000     		.short	0
 937              		.section	.data.i606.42,"aw",%progbits
 938              		.align	1
 941              	i606.42:
 942 0000 0000     		.short	0
 943              		.section	.bss.i.43,"aw",%nobits
 946              	i.43:
 947 0000 00       		.space	1
 948              		.section	.bss.i.44,"aw",%nobits
 951              	i.44:
 952 0000 00       		.space	1
 953              		.section	.bss.last.45,"aw",%nobits
 954              		.align	1
 957              	last.45:
 958 0000 0000     		.space	2
 959              		.section	.data.i300.46,"aw",%progbits
 960              		.align	1
 963              	i300.46:
 964 0000 0000     		.short	0
 965              		.section	.data.i306.47,"aw",%progbits
 966              		.align	1
 969              	i306.47:
 970 0000 0000     		.short	0
 971              		.section	.data.i318.48,"aw",%progbits
 972              		.align	1
 975              	i318.48:
 976 0000 0000     		.short	0
 977              		.section	.data.i324.49,"aw",%progbits
 978              		.align	1
 981              	i324.49:
 982 0000 0000     		.short	0
 983              		.section	.data.i330.50,"aw",%progbits
 984              		.align	1
 987              	i330.50:
 988 0000 0000     		.short	0
 989              		.section	.data.i342.51,"aw",%progbits
 990              		.align	1
 993              	i342.51:
 994 0000 0000     		.short	0
 995              		.section	.data.i606.52,"aw",%progbits
 996              		.align	1
 999              	i606.52:
 1000 0000 0000     		.short	0
 1001              		.section	.data.i612.53,"aw",%progbits
 1002              		.align	1
 1005              	i612.53:
 1006 0000 0000     		.short	0
 1007              		.section	.bss.last.54,"aw",%nobits
 1008              		.align	1
 1011              	last.54:
 1012 0000 0000     		.space	2
 1013              		.section	.data.t.9,"aw",%progbits
 1016              	t.9:
 1017 0000 00       		.byte	0
 1018              		.global	__ltdf2
 1019              		.section	.rodata.str1.4,"aMS",%progbits,1
 1020              		.align	2
 1021              	.LC0:
 1022 0000 95D81EE0 		.ascii	"\225\330\036\340_\377s\027_\256\354\326-\336\022\207"
 1022      5FFF7317 
 1022      5FAEECD6 
 1022      2DDE1287 
 1023 0010 00       		.ascii	"\000"
 1024 0011 000000   		.section	.text.periodic_task_ap,"ax",%progbits
 1025              		.align	2
 1026              		.global	periodic_task_ap
 1028              	periodic_task_ap:
 1029              		@ Function supports interworking.
 1030              		@ args = 0, pretend = 0, frame = 64
 1031              		@ frame_needed = 1, uses_anonymous_args = 0
 1032 0000 0DC0A0E1 		mov	ip, sp
 1033 0004 F0DF2DE9 		stmfd	sp!, {r4, r5, r6, r7, r8, r9, sl, fp, ip, lr, pc}
 1034 0008 C0199FE5 		ldr	r1, .L355
 1035 000c 04B04CE2 		sub	fp, ip, #4
 1036 0010 40D04DE2 		sub	sp, sp, #64
 1037 0014 0030D1E5 		ldrb	r3, [r1, #0]	@ zero_extendqisi2
 1038 0018 013083E2 		add	r3, r3, #1
 1039 001c 0030C1E5 		strb	r3, [r1, #0]
 1040 0020 0030D1E5 		ldrb	r3, [r1, #0]	@ zero_extendqisi2
 1041 0024 000053E3 		cmp	r3, #0
 1042 0028 0B1E000A 		beq	.L39
 1043 002c A0299FE5 		ldr	r2, .L355+4
 1044 0030 0030D2E5 		ldrb	r3, [r2, #0]	@ zero_extendqisi2
 1045 0034 013083E2 		add	r3, r3, #1
 1046 0038 0030C2E5 		strb	r3, [r2, #0]
 1047 003c 0030D2E5 		ldrb	r3, [r2, #0]	@ zero_extendqisi2
 1048 0040 0000A0E3 		mov	r0, #0
 1049 0044 020053E3 		cmp	r3, #2
 1050 0048 0000C285 		strhib	r0, [r2, #0]
 1051 004c 84299FE5 		ldr	r2, .L355+8
 1052 0050 0030D2E5 		ldrb	r3, [r2, #0]	@ zero_extendqisi2
 1053 0054 013083E2 		add	r3, r3, #1
 1054 0058 0030C2E5 		strb	r3, [r2, #0]
 1055 005c 0030D2E5 		ldrb	r3, [r2, #0]	@ zero_extendqisi2
 1056 0060 050053E3 		cmp	r3, #5
 1057 0064 0000C285 		strhib	r0, [r2, #0]
 1058 0068 6C299FE5 		ldr	r2, .L355+12
 1059 006c 0030D2E5 		ldrb	r3, [r2, #0]	@ zero_extendqisi2
 1060 0070 013083E2 		add	r3, r3, #1
 1061 0074 0030C2E5 		strb	r3, [r2, #0]
 1062 0078 0030D2E5 		ldrb	r3, [r2, #0]	@ zero_extendqisi2
 1063 007c 0E0053E3 		cmp	r3, #14
 1064 0080 0000C285 		strhib	r0, [r2, #0]
 1065 0084 54299FE5 		ldr	r2, .L355+16
 1066 0088 0030D2E5 		ldrb	r3, [r2, #0]	@ zero_extendqisi2
 1067 008c 013083E2 		add	r3, r3, #1
 1068 0090 0030C2E5 		strb	r3, [r2, #0]
 1069 0094 48799FE5 		ldr	r7, .L355+20
 1070 0098 0030D2E5 		ldrb	r3, [r2, #0]	@ zero_extendqisi2
 1071 009c 3B0053E3 		cmp	r3, #59
 1072 00a0 0030D7E5 		ldrb	r3, [r7, #0]	@ zero_extendqisi2
 1073 00a4 0000C285 		strhib	r0, [r2, #0]
 1074 00a8 000053E3 		cmp	r3, #0
 1075 00ac 0000C1E5 		strb	r0, [r1, #0]
 1076 00b0 6A00000A 		beq	.L46
 1077 00b4 0800A0E3 		mov	r0, #8
 1078 00b8 FEFFFFEB 		bl	uart1_check_free_space
 1079 00bc FF0010E3 		tst	r0, #255
 1080 00c0 042A9F05 		ldreq	r2, .L355+252
 1081 00c4 0030D205 		ldreqb	r3, [r2, #0]	@ zero_extendqisi2
 1082 00c8 01308302 		addeq	r3, r3, #1
 1083 00cc 0030C205 		streqb	r3, [r2, #0]
 1084 00d0 6700000A 		beq	.L48
 1085 00d4 FC199FE5 		ldr	r1, .L355+264
 1086 00d8 FCC99FE5 		ldr	ip, .L355+268
 1087 00dc B030D1E1 		ldrh	r3, [r1, #0]
 1088 00e0 B020DCE1 		ldrh	r2, [ip, #0]
 1089 00e4 083083E2 		add	r3, r3, #8
 1090 00e8 012082E2 		add	r2, r2, #1
 1091 00ec B030C1E1 		strh	r3, [r1, #0]	@ movhi 
 1092 00f0 B020CCE1 		strh	r2, [ip, #0]	@ movhi 
 1093 00f4 9900A0E3 		mov	r0, #153
 1094 00f8 E0499FE5 		ldr	r4, .L355+272
 1095 00fc FEFFFFEB 		bl	uart1_transmit
 1096 0100 0800A0E3 		mov	r0, #8
 1097 0104 D8599FE5 		ldr	r5, .L355+276
 1098 0108 FEFFFFEB 		bl	uart1_transmit
 1099 010c 1A30A0E3 		mov	r3, #26
 1100 0110 0030C4E5 		strb	r3, [r4, #0]
 1101 0114 083083E2 		add	r3, r3, #8
 1102 0118 1200A0E3 		mov	r0, #18
 1103 011c 0030C5E5 		strb	r3, [r5, #0]
 1104 0120 FEFFFFEB 		bl	uart1_transmit
 1105 0124 0030D4E5 		ldrb	r3, [r4, #0]	@ zero_extendqisi2
 1106 0128 013083E2 		add	r3, r3, #1
 1107 012c 0030C4E5 		strb	r3, [r4, #0]
 1108 0130 0030D5E5 		ldrb	r3, [r5, #0]	@ zero_extendqisi2
 1109 0134 0020D4E5 		ldrb	r2, [r4, #0]	@ zero_extendqisi2
 1110 0138 A8689FE5 		ldr	r6, .L355+24
 1111 013c 023083E0 		add	r3, r3, r2
 1112 0140 0100A0E3 		mov	r0, #1
 1113 0144 0030C5E5 		strb	r3, [r5, #0]
 1114 0148 FEFFFFEB 		bl	uart1_transmit
 1115 014c 0000D6E5 		ldrb	r0, [r6, #0]	@ zero_extendqisi2
 1116 0150 0030D4E5 		ldrb	r3, [r4, #0]	@ zero_extendqisi2
 1117 0154 033080E0 		add	r3, r0, r3
 1118 0158 0030C4E5 		strb	r3, [r4, #0]
 1119 015c 0030D5E5 		ldrb	r3, [r5, #0]	@ zero_extendqisi2
 1120 0160 0020D4E5 		ldrb	r2, [r4, #0]	@ zero_extendqisi2
 1121 0164 023083E0 		add	r3, r3, r2
 1122 0168 0030C5E5 		strb	r3, [r5, #0]
 1123 016c FEFFFFEB 		bl	uart1_transmit
 1124 0170 0100D6E5 		ldrb	r0, [r6, #1]	@ zero_extendqisi2
 1125 0174 0030D4E5 		ldrb	r3, [r4, #0]	@ zero_extendqisi2
 1126 0178 033080E0 		add	r3, r0, r3
 1127 017c 0030C4E5 		strb	r3, [r4, #0]
 1128 0180 0030D5E5 		ldrb	r3, [r5, #0]	@ zero_extendqisi2
 1129 0184 0020D4E5 		ldrb	r2, [r4, #0]	@ zero_extendqisi2
 1130 0188 023083E0 		add	r3, r3, r2
 1131 018c 0030C5E5 		strb	r3, [r5, #0]
 1132 0190 FEFFFFEB 		bl	uart1_transmit
 1133 0194 0000D4E5 		ldrb	r0, [r4, #0]	@ zero_extendqisi2
 1134 0198 FEFFFFEB 		bl	uart1_transmit
 1135 019c 0000D5E5 		ldrb	r0, [r5, #0]	@ zero_extendqisi2
 1136 01a0 FEFFFFEB 		bl	uart1_transmit
 1137              	.L48:
 1138 01a4 0030A0E3 		mov	r3, #0
 1139 01a8 0030C7E5 		strb	r3, [r7, #0]
 1140 01ac 751D00EA 		b	.L306
 1141              	.L46:
 1142 01b0 34389FE5 		ldr	r3, .L355+28
 1143 01b4 0020D3E5 		ldrb	r2, [r3, #0]	@ zero_extendqisi2
 1144 01b8 000052E3 		cmp	r2, #0
 1145 01bc 8A0C001A 		bne	.L50
 1146 01c0 28189FE5 		ldr	r1, .L355+32
 1147 01c4 0030D1E5 		ldrb	r3, [r1, #0]	@ zero_extendqisi2
 1148 01c8 013083E2 		add	r3, r3, #1
 1149 01cc 0030C1E5 		strb	r3, [r1, #0]
 1150 01d0 1C489FE5 		ldr	r4, .L355+36
 1151 01d4 0030D1E5 		ldrb	r3, [r1, #0]	@ zero_extendqisi2
 1152 01d8 0E0053E3 		cmp	r3, #14
 1153 01dc 0030D4E5 		ldrb	r3, [r4, #0]	@ zero_extendqisi2
 1154 01e0 013083E2 		add	r3, r3, #1
 1155 01e4 0030C4E5 		strb	r3, [r4, #0]
 1156 01e8 08A89FE5 		ldr	sl, .L355+40
 1157 01ec 0030D4E5 		ldrb	r3, [r4, #0]	@ zero_extendqisi2
 1158 01f0 0020C185 		strhib	r2, [r1, #0]
 1159 01f4 1D0053E3 		cmp	r3, #29
 1160 01f8 0030DAE5 		ldrb	r3, [sl, #0]	@ zero_extendqisi2
 1161 01fc 013083E2 		add	r3, r3, #1
 1162 0200 0030CAE5 		strb	r3, [sl, #0]
 1163 0204 F0979FE5 		ldr	r9, .L355+44
 1164 0208 0030DAE5 		ldrb	r3, [sl, #0]	@ zero_extendqisi2
 1165 020c 0020C485 		strhib	r2, [r4, #0]
 1166 0210 3B0053E3 		cmp	r3, #59
 1167 0214 0030D9E5 		ldrb	r3, [r9, #0]	@ zero_extendqisi2
 1168 0218 013083E2 		add	r3, r3, #1
 1169 021c 0030C9E5 		strb	r3, [r9, #0]
 1170 0220 70089FE5 		ldr	r0, .L355+200
 1171 0224 0030D9E5 		ldrb	r3, [r9, #0]	@ zero_extendqisi2
 1172 0228 0020CA85 		strhib	r2, [sl, #0]
 1173 022c 3E0053E3 		cmp	r3, #62
 1174 0230 0030D0E5 		ldrb	r3, [r0, #0]	@ zero_extendqisi2
 1175 0234 013083E2 		add	r3, r3, #1
 1176 0238 0030C0E5 		strb	r3, [r0, #0]
 1177 023c 0030D0E5 		ldrb	r3, [r0, #0]	@ zero_extendqisi2
 1178 0240 0020C985 		strhib	r2, [r9, #0]
 1179 0244 410053E3 		cmp	r3, #65
 1180 0248 0020C085 		strhib	r2, [r0, #0]
 1181 024c 7C089FE5 		ldr	r0, .L355+256
 1182 0250 0030D0E5 		ldrb	r3, [r0, #0]	@ zero_extendqisi2
 1183 0254 013083E2 		add	r3, r3, #1
 1184 0258 0030C0E5 		strb	r3, [r0, #0]
 1185 025c 0030D0E5 		ldrb	r3, [r0, #0]	@ zero_extendqisi2
 1186 0260 470053E3 		cmp	r3, #71
 1187 0264 0020C085 		strhib	r2, [r0, #0]
 1188 0268 90079FE5 		ldr	r0, .L355+48
 1189 026c 0030D0E5 		ldrb	r3, [r0, #0]	@ zero_extendqisi2
 1190 0270 013083E2 		add	r3, r3, #1
 1191 0274 0030C0E5 		strb	r3, [r0, #0]
 1192 0278 0030D0E5 		ldrb	r3, [r0, #0]	@ zero_extendqisi2
 1193 027c 590053E3 		cmp	r3, #89
 1194 0280 0020C085 		strhib	r2, [r0, #0]
 1195 0284 78079FE5 		ldr	r0, .L355+52
 1196 0288 0030D0E5 		ldrb	r3, [r0, #0]	@ zero_extendqisi2
 1197 028c 013083E2 		add	r3, r3, #1
 1198 0290 0030C0E5 		strb	r3, [r0, #0]
 1199 0294 0030D0E5 		ldrb	r3, [r0, #0]	@ zero_extendqisi2
 1200 0298 770053E3 		cmp	r3, #119
 1201 029c 0020C085 		strhib	r2, [r0, #0]
 1202 02a0 60079FE5 		ldr	r0, .L355+56
 1203 02a4 0030D0E5 		ldrb	r3, [r0, #0]	@ zero_extendqisi2
 1204 02a8 013083E2 		add	r3, r3, #1
 1205 02ac 0030C0E5 		strb	r3, [r0, #0]
 1206 02b0 0030D0E5 		ldrb	r3, [r0, #0]	@ zero_extendqisi2
 1207 02b4 7D0053E3 		cmp	r3, #125
 1208 02b8 0020C085 		strhib	r2, [r0, #0]
 1209 02bc 48079FE5 		ldr	r0, .L355+60
 1210 02c0 0030D0E5 		ldrb	r3, [r0, #0]	@ zero_extendqisi2
 1211 02c4 013083E2 		add	r3, r3, #1
 1212 02c8 0030C0E5 		strb	r3, [r0, #0]
 1213 02cc 0030D0E5 		ldrb	r3, [r0, #0]	@ zero_extendqisi2
 1214 02d0 950053E3 		cmp	r3, #149
 1215 02d4 0020C085 		strhib	r2, [r0, #0]
 1216 02d8 30279FE5 		ldr	r2, .L355+64
 1217 02dc B030D2E1 		ldrh	r3, [r2, #0]
 1218 02e0 013083E2 		add	r3, r3, #1
 1219 02e4 B030C2E1 		strh	r3, [r2, #0]	@ movhi 
 1220 02e8 B030D2E1 		ldrh	r3, [r2, #0]
 1221 02ec 20079FE5 		ldr	r0, .L355+68
 1222 02f0 4B0F53E3 		cmp	r3, #300
 1223 02f4 0030A023 		movcs	r3, #0	@ movhi
 1224 02f8 B030C221 		strcsh	r3, [r2, #0]	@ movhi 
 1225 02fc B030D0E1 		ldrh	r3, [r0, #0]
 1226 0300 013083E2 		add	r3, r3, #1
 1227 0304 B030C0E1 		strh	r3, [r0, #0]	@ movhi 
 1228 0308 08379FE5 		ldr	r3, .L355+72
 1229 030c B020D0E1 		ldrh	r2, [r0, #0]
 1230 0310 030052E1 		cmp	r2, r3
 1231 0314 0020A083 		movhi	r2, #0	@ movhi
 1232 0318 B020C081 		strhih	r2, [r0, #0]	@ movhi 
 1233 031c F8069FE5 		ldr	r0, .L355+76
 1234 0320 B030D0E1 		ldrh	r3, [r0, #0]
 1235 0324 013083E2 		add	r3, r3, #1
 1236 0328 B030C0E1 		strh	r3, [r0, #0]	@ movhi 
 1237 032c B030D0E1 		ldrh	r3, [r0, #0]
 1238 0330 870F53E3 		cmp	r3, #540
 1239 0334 0030D1E5 		ldrb	r3, [r1, #0]	@ zero_extendqisi2
 1240 0338 0020A023 		movcs	r2, #0	@ movhi
 1241 033c B020C021 		strcsh	r2, [r0, #0]	@ movhi 
 1242 0340 000053E3 		cmp	r3, #0
 1243 0344 FEFFFF0B 		bleq	gps_send
 1244              	.L64:
 1245 0348 0070D4E5 		ldrb	r7, [r4, #0]	@ zero_extendqisi2
 1246 034c 060057E3 		cmp	r7, #6
 1247 0350 3E01001A 		bne	.L65
 1248 0354 1200A0E3 		mov	r0, #18
 1249 0358 FEFFFFEB 		bl	uart1_check_free_space
 1250 035c FF0010E3 		tst	r0, #255
 1251 0360 B902000A 		beq	.L75
 1252 0364 6C179FE5 		ldr	r1, .L355+264
 1253 0368 6CC79FE5 		ldr	ip, .L355+268
 1254 036c B030D1E1 		ldrh	r3, [r1, #0]
 1255 0370 B020DCE1 		ldrh	r2, [ip, #0]
 1256 0374 123083E2 		add	r3, r3, #18
 1257 0378 012082E2 		add	r2, r2, #1
 1258 037c B030C1E1 		strh	r3, [r1, #0]	@ movhi 
 1259 0380 B020CCE1 		strh	r2, [ip, #0]	@ movhi 
 1260 0384 1260A0E3 		mov	r6, #18
 1261 0388 9900A0E3 		mov	r0, #153
 1262 038c 4C479FE5 		ldr	r4, .L355+272
 1263 0390 FEFFFFEB 		bl	uart1_transmit
 1264 0394 0600A0E1 		mov	r0, r6
 1265 0398 44579FE5 		ldr	r5, .L355+276
 1266 039c FEFFFFEB 		bl	uart1_transmit
 1267 03a0 2430A0E3 		mov	r3, #36
 1268 03a4 0030C4E5 		strb	r3, [r4, #0]
 1269 03a8 063083E0 		add	r3, r3, r6
 1270 03ac 0600A0E1 		mov	r0, r6
 1271 03b0 0030C5E5 		strb	r3, [r5, #0]
 1272 03b4 FEFFFFEB 		bl	uart1_transmit
 1273 03b8 0030D4E5 		ldrb	r3, [r4, #0]	@ zero_extendqisi2
 1274 03bc 063083E2 		add	r3, r3, #6
 1275 03c0 0030C4E5 		strb	r3, [r4, #0]
 1276 03c4 0030D5E5 		ldrb	r3, [r5, #0]	@ zero_extendqisi2
 1277 03c8 0020D4E5 		ldrb	r2, [r4, #0]	@ zero_extendqisi2
 1278 03cc 4C669FE5 		ldr	r6, .L355+80
 1279 03d0 023083E0 		add	r3, r3, r2
 1280 03d4 0700A0E1 		mov	r0, r7
 1281 03d8 0030C5E5 		strb	r3, [r5, #0]
 1282 03dc FEFFFFEB 		bl	uart1_transmit
 1283 03e0 0000D6E5 		ldrb	r0, [r6, #0]	@ zero_extendqisi2
 1284 03e4 0030D4E5 		ldrb	r3, [r4, #0]	@ zero_extendqisi2
 1285 03e8 033080E0 		add	r3, r0, r3
 1286 03ec 0030C4E5 		strb	r3, [r4, #0]
 1287 03f0 0030D5E5 		ldrb	r3, [r5, #0]	@ zero_extendqisi2
 1288 03f4 0020D4E5 		ldrb	r2, [r4, #0]	@ zero_extendqisi2
 1289 03f8 023083E0 		add	r3, r3, r2
 1290 03fc 0030C5E5 		strb	r3, [r5, #0]
 1291 0400 FEFFFFEB 		bl	uart1_transmit
 1292 0404 0100D6E5 		ldrb	r0, [r6, #1]	@ zero_extendqisi2
 1293 0408 0030D4E5 		ldrb	r3, [r4, #0]	@ zero_extendqisi2
 1294 040c 033080E0 		add	r3, r0, r3
 1295 0410 0030C4E5 		strb	r3, [r4, #0]
 1296 0414 0030D5E5 		ldrb	r3, [r5, #0]	@ zero_extendqisi2
 1297 0418 0020D4E5 		ldrb	r2, [r4, #0]	@ zero_extendqisi2
 1298 041c 023083E0 		add	r3, r3, r2
 1299 0420 0030C5E5 		strb	r3, [r5, #0]
 1300 0424 FEFFFFEB 		bl	uart1_transmit
 1301 0428 0200D6E5 		ldrb	r0, [r6, #2]	@ zero_extendqisi2
 1302 042c 0030D4E5 		ldrb	r3, [r4, #0]	@ zero_extendqisi2
 1303 0430 033080E0 		add	r3, r0, r3
 1304 0434 0030C4E5 		strb	r3, [r4, #0]
 1305 0438 0030D5E5 		ldrb	r3, [r5, #0]	@ zero_extendqisi2
 1306 043c 0020D4E5 		ldrb	r2, [r4, #0]	@ zero_extendqisi2
 1307 0440 023083E0 		add	r3, r3, r2
 1308 0444 0030C5E5 		strb	r3, [r5, #0]
 1309 0448 FEFFFFEB 		bl	uart1_transmit
 1310 044c 0300D6E5 		ldrb	r0, [r6, #3]	@ zero_extendqisi2
 1311 0450 0030D4E5 		ldrb	r3, [r4, #0]	@ zero_extendqisi2
 1312 0454 033080E0 		add	r3, r0, r3
 1313 0458 0030C4E5 		strb	r3, [r4, #0]
 1314 045c 0030D5E5 		ldrb	r3, [r5, #0]	@ zero_extendqisi2
 1315 0460 0020D4E5 		ldrb	r2, [r4, #0]	@ zero_extendqisi2
 1316 0464 B8659FE5 		ldr	r6, .L355+84
 1317 0468 023083E0 		add	r3, r3, r2
 1318 046c 0030C5E5 		strb	r3, [r5, #0]
 1319 0470 FEFFFFEB 		bl	uart1_transmit
 1320 0474 0000D6E5 		ldrb	r0, [r6, #0]	@ zero_extendqisi2
 1321 0478 0030D4E5 		ldrb	r3, [r4, #0]	@ zero_extendqisi2
 1322 047c 033080E0 		add	r3, r0, r3
 1323 0480 0030C4E5 		strb	r3, [r4, #0]
 1324 0484 0030D5E5 		ldrb	r3, [r5, #0]	@ zero_extendqisi2
 1325 0488 0020D4E5 		ldrb	r2, [r4, #0]	@ zero_extendqisi2
 1326 048c 023083E0 		add	r3, r3, r2
 1327 0490 0030C5E5 		strb	r3, [r5, #0]
 1328 0494 FEFFFFEB 		bl	uart1_transmit
 1329 0498 0100D6E5 		ldrb	r0, [r6, #1]	@ zero_extendqisi2
 1330 049c 0030D4E5 		ldrb	r3, [r4, #0]	@ zero_extendqisi2
 1331 04a0 033080E0 		add	r3, r0, r3
 1332 04a4 0030C4E5 		strb	r3, [r4, #0]
 1333 04a8 0030D5E5 		ldrb	r3, [r5, #0]	@ zero_extendqisi2
 1334 04ac 0020D4E5 		ldrb	r2, [r4, #0]	@ zero_extendqisi2
 1335 04b0 023083E0 		add	r3, r3, r2
 1336 04b4 0030C5E5 		strb	r3, [r5, #0]
 1337 04b8 FEFFFFEB 		bl	uart1_transmit
 1338 04bc 0200D6E5 		ldrb	r0, [r6, #2]	@ zero_extendqisi2
 1339 04c0 0030D4E5 		ldrb	r3, [r4, #0]	@ zero_extendqisi2
 1340 04c4 033080E0 		add	r3, r0, r3
 1341 04c8 0030C4E5 		strb	r3, [r4, #0]
 1342 04cc 0030D5E5 		ldrb	r3, [r5, #0]	@ zero_extendqisi2
 1343 04d0 0020D4E5 		ldrb	r2, [r4, #0]	@ zero_extendqisi2
 1344 04d4 023083E0 		add	r3, r3, r2
 1345 04d8 0030C5E5 		strb	r3, [r5, #0]
 1346 04dc FEFFFFEB 		bl	uart1_transmit
 1347 04e0 0300D6E5 		ldrb	r0, [r6, #3]	@ zero_extendqisi2
 1348 04e4 0030D4E5 		ldrb	r3, [r4, #0]	@ zero_extendqisi2
 1349 04e8 033080E0 		add	r3, r0, r3
 1350 04ec 0030C4E5 		strb	r3, [r4, #0]
 1351 04f0 30659FE5 		ldr	r6, .L355+88
 1352 04f4 0030D5E5 		ldrb	r3, [r5, #0]	@ zero_extendqisi2
 1353 04f8 0020D4E5 		ldrb	r2, [r4, #0]	@ zero_extendqisi2
 1354 04fc 840100EA 		b	.L341
 1355              	.L65:
 1356 0500 0C0057E3 		cmp	r7, #12
 1357 0504 A401001A 		bne	.L69
 1358 0508 0E00A0E3 		mov	r0, #14
 1359 050c FEFFFFEB 		bl	uart1_check_free_space
 1360 0510 FF0010E3 		tst	r0, #255
 1361 0514 B902000A 		beq	.L75
 1362 0518 B8159FE5 		ldr	r1, .L355+264
 1363 051c B8C59FE5 		ldr	ip, .L355+268
 1364 0520 B030D1E1 		ldrh	r3, [r1, #0]
 1365 0524 B020DCE1 		ldrh	r2, [ip, #0]
 1366 0528 0E3083E2 		add	r3, r3, #14
 1367 052c 012082E2 		add	r2, r2, #1
 1368 0530 B030C1E1 		strh	r3, [r1, #0]	@ movhi 
 1369 0534 B020CCE1 		strh	r2, [ip, #0]	@ movhi 
 1370 0538 9900A0E3 		mov	r0, #153
 1371 053c 9C459FE5 		ldr	r4, .L355+272
 1372 0540 FEFFFFEB 		bl	uart1_transmit
 1373 0544 0E00A0E3 		mov	r0, #14
 1374 0548 94559FE5 		ldr	r5, .L355+276
 1375 054c FEFFFFEB 		bl	uart1_transmit
 1376 0550 2030A0E3 		mov	r3, #32
 1377 0554 0030C4E5 		strb	r3, [r4, #0]
 1378 0558 0E3083E2 		add	r3, r3, #14
 1379 055c 1200A0E3 		mov	r0, #18
 1380 0560 0030C5E5 		strb	r3, [r5, #0]
 1381 0564 FEFFFFEB 		bl	uart1_transmit
 1382 0568 0030D4E5 		ldrb	r3, [r4, #0]	@ zero_extendqisi2
 1383 056c 2A3083E2 		add	r3, r3, #42
 1384 0570 0030C4E5 		strb	r3, [r4, #0]
 1385 0574 0030D5E5 		ldrb	r3, [r5, #0]	@ zero_extendqisi2
 1386 0578 0020D4E5 		ldrb	r2, [r4, #0]	@ zero_extendqisi2
 1387 057c A8649FE5 		ldr	r6, .L355+92
 1388 0580 023083E0 		add	r3, r3, r2
 1389 0584 2A00A0E3 		mov	r0, #42
 1390 0588 0030C5E5 		strb	r3, [r5, #0]
 1391 058c FEFFFFEB 		bl	uart1_transmit
 1392 0590 0000D6E5 		ldrb	r0, [r6, #0]	@ zero_extendqisi2
 1393 0594 0030D4E5 		ldrb	r3, [r4, #0]	@ zero_extendqisi2
 1394 0598 033080E0 		add	r3, r0, r3
 1395 059c 0030C4E5 		strb	r3, [r4, #0]
 1396 05a0 0030D5E5 		ldrb	r3, [r5, #0]	@ zero_extendqisi2
 1397 05a4 0020D4E5 		ldrb	r2, [r4, #0]	@ zero_extendqisi2
 1398 05a8 023083E0 		add	r3, r3, r2
 1399 05ac 0030C5E5 		strb	r3, [r5, #0]
 1400 05b0 FEFFFFEB 		bl	uart1_transmit
 1401 05b4 0100D6E5 		ldrb	r0, [r6, #1]	@ zero_extendqisi2
 1402 05b8 0030D4E5 		ldrb	r3, [r4, #0]	@ zero_extendqisi2
 1403 05bc 033080E0 		add	r3, r0, r3
 1404 05c0 0030C4E5 		strb	r3, [r4, #0]
 1405 05c4 0030D5E5 		ldrb	r3, [r5, #0]	@ zero_extendqisi2
 1406 05c8 0020D4E5 		ldrb	r2, [r4, #0]	@ zero_extendqisi2
 1407 05cc 023083E0 		add	r3, r3, r2
 1408 05d0 0030C5E5 		strb	r3, [r5, #0]
 1409 05d4 FEFFFFEB 		bl	uart1_transmit
 1410 05d8 0200D6E5 		ldrb	r0, [r6, #2]	@ zero_extendqisi2
 1411 05dc 0030D4E5 		ldrb	r3, [r4, #0]	@ zero_extendqisi2
 1412 05e0 033080E0 		add	r3, r0, r3
 1413 05e4 0030C4E5 		strb	r3, [r4, #0]
 1414 05e8 0030D5E5 		ldrb	r3, [r5, #0]	@ zero_extendqisi2
 1415 05ec 0020D4E5 		ldrb	r2, [r4, #0]	@ zero_extendqisi2
 1416 05f0 023083E0 		add	r3, r3, r2
 1417 05f4 0030C5E5 		strb	r3, [r5, #0]
 1418 05f8 FEFFFFEB 		bl	uart1_transmit
 1419 05fc 0300D6E5 		ldrb	r0, [r6, #3]	@ zero_extendqisi2
 1420 0600 0030D4E5 		ldrb	r3, [r4, #0]	@ zero_extendqisi2
 1421 0604 033080E0 		add	r3, r0, r3
 1422 0608 0030C4E5 		strb	r3, [r4, #0]
 1423 060c 1C649FE5 		ldr	r6, .L355+96
 1424 0610 0030D5E5 		ldrb	r3, [r5, #0]	@ zero_extendqisi2
 1425 0614 0020D4E5 		ldrb	r2, [r4, #0]	@ zero_extendqisi2
 1426              	.L341:
 1427 0618 023083E0 		add	r3, r3, r2
 1428 061c 0030C5E5 		strb	r3, [r5, #0]
 1429 0620 FEFFFFEB 		bl	uart1_transmit
 1430 0624 0000D6E5 		ldrb	r0, [r6, #0]	@ zero_extendqisi2
 1431 0628 0030D4E5 		ldrb	r3, [r4, #0]	@ zero_extendqisi2
 1432 062c 033080E0 		add	r3, r0, r3
 1433 0630 0030C4E5 		strb	r3, [r4, #0]
 1434 0634 0030D5E5 		ldrb	r3, [r5, #0]	@ zero_extendqisi2
 1435 0638 0020D4E5 		ldrb	r2, [r4, #0]	@ zero_extendqisi2
 1436 063c 023083E0 		add	r3, r3, r2
 1437 0640 0030C5E5 		strb	r3, [r5, #0]
 1438 0644 FEFFFFEB 		bl	uart1_transmit
 1439 0648 0100D6E5 		ldrb	r0, [r6, #1]	@ zero_extendqisi2
 1440 064c 0030D4E5 		ldrb	r3, [r4, #0]	@ zero_extendqisi2
 1441 0650 033080E0 		add	r3, r0, r3
 1442 0654 0030C4E5 		strb	r3, [r4, #0]
 1443 0658 0030D5E5 		ldrb	r3, [r5, #0]	@ zero_extendqisi2
 1444 065c 0020D4E5 		ldrb	r2, [r4, #0]	@ zero_extendqisi2
 1445 0660 023083E0 		add	r3, r3, r2
 1446 0664 0030C5E5 		strb	r3, [r5, #0]
 1447 0668 FEFFFFEB 		bl	uart1_transmit
 1448 066c 0200D6E5 		ldrb	r0, [r6, #2]	@ zero_extendqisi2
 1449 0670 0030D4E5 		ldrb	r3, [r4, #0]	@ zero_extendqisi2
 1450 0674 033080E0 		add	r3, r0, r3
 1451 0678 0030C4E5 		strb	r3, [r4, #0]
 1452 067c 0030D5E5 		ldrb	r3, [r5, #0]	@ zero_extendqisi2
 1453 0680 0020D4E5 		ldrb	r2, [r4, #0]	@ zero_extendqisi2
 1454 0684 023083E0 		add	r3, r3, r2
 1455 0688 0030C5E5 		strb	r3, [r5, #0]
 1456 068c FEFFFFEB 		bl	uart1_transmit
 1457 0690 0300D6E5 		ldrb	r0, [r6, #3]	@ zero_extendqisi2
 1458 0694 650200EA 		b	.L330
 1459              	.L69:
 1460 0698 120057E3 		cmp	r7, #18
 1461 069c BD02001A 		bne	.L68
 1462 06a0 8C639FE5 		ldr	r6, .L355+100
 1463 06a4 0030D6E5 		ldrb	r3, [r6, #0]	@ zero_extendqisi2
 1464 06a8 013083E2 		add	r3, r3, #1
 1465 06ac 0030C6E5 		strb	r3, [r6, #0]
 1466 06b0 80339FE5 		ldr	r3, .L355+104
 1467 06b4 0020D3E5 		ldrb	r2, [r3, #0]	@ zero_extendqisi2
 1468 06b8 0030D6E5 		ldrb	r3, [r6, #0]	@ zero_extendqisi2
 1469 06bc 020053E1 		cmp	r3, r2
 1470 06c0 0030A023 		movcs	r3, #0
 1471 06c4 0030C625 		strcsb	r3, [r6, #0]
 1472 06c8 6C339FE5 		ldr	r3, .L355+108
 1473 06cc 000093E5 		ldr	r0, [r3, #0]
 1474 06d0 FEFFFFEB 		bl	__floatsisf
 1475 06d4 0040D6E5 		ldrb	r4, [r6, #0]	@ zero_extendqisi2
 1476 06d8 60839FE5 		ldr	r8, .L355+112
 1477 06dc 844084E0 		add	r4, r4, r4, asl #1
 1478 06e0 0441A0E1 		mov	r4, r4, asl #2
 1479 06e4 081094E7 		ldr	r1, [r4, r8]	@ float
 1480 06e8 FEFFFFEB 		bl	__addsf3
 1481 06ec 50339FE5 		ldr	r3, .L355+116
 1482 06f0 48000BE5 		str	r0, [fp, #-72]	@ float
 1483 06f4 084084E0 		add	r4, r4, r8
 1484 06f8 000093E5 		ldr	r0, [r3, #0]
 1485 06fc FEFFFFEB 		bl	__floatsisf
 1486 0700 041094E5 		ldr	r1, [r4, #4]	@ float
 1487 0704 FEFFFFEB 		bl	__addsf3
 1488 0708 4C000BE5 		str	r0, [fp, #-76]	@ float
 1489 070c 1400A0E3 		mov	r0, #20
 1490 0710 FEFFFFEB 		bl	uart1_check_free_space
 1491 0714 FF0010E3 		tst	r0, #255
 1492 0718 B902000A 		beq	.L75
 1493 071c B4139FE5 		ldr	r1, .L355+264
 1494 0720 B4C39FE5 		ldr	ip, .L355+268
 1495 0724 B030D1E1 		ldrh	r3, [r1, #0]
 1496 0728 B020DCE1 		ldrh	r2, [ip, #0]
 1497 072c 143083E2 		add	r3, r3, #20
 1498 0730 012082E2 		add	r2, r2, #1
 1499 0734 B030C1E1 		strh	r3, [r1, #0]	@ movhi 
 1500 0738 B020CCE1 		strh	r2, [ip, #0]	@ movhi 
 1501 073c 9900A0E3 		mov	r0, #153
 1502 0740 98439FE5 		ldr	r4, .L355+272
 1503 0744 FEFFFFEB 		bl	uart1_transmit
 1504 0748 1400A0E3 		mov	r0, #20
 1505 074c 90539FE5 		ldr	r5, .L355+276
 1506 0750 FEFFFFEB 		bl	uart1_transmit
 1507 0754 2630A0E3 		mov	r3, #38
 1508 0758 0030C4E5 		strb	r3, [r4, #0]
 1509 075c 143083E2 		add	r3, r3, #20
 1510 0760 0700A0E1 		mov	r0, r7
 1511 0764 0030C5E5 		strb	r3, [r5, #0]
 1512 0768 FEFFFFEB 		bl	uart1_transmit
 1513 076c 0030D4E5 		ldrb	r3, [r4, #0]	@ zero_extendqisi2
 1514 0770 233083E2 		add	r3, r3, #35
 1515 0774 0030C4E5 		strb	r3, [r4, #0]
 1516 0778 0030D5E5 		ldrb	r3, [r5, #0]	@ zero_extendqisi2
 1517 077c 0020D4E5 		ldrb	r2, [r4, #0]	@ zero_extendqisi2
 1518 0780 023083E0 		add	r3, r3, r2
 1519 0784 2300A0E3 		mov	r0, #35
 1520 0788 0030C5E5 		strb	r3, [r5, #0]
 1521 078c FEFFFFEB 		bl	uart1_transmit
 1522 0790 0000D6E5 		ldrb	r0, [r6, #0]	@ zero_extendqisi2
 1523 0794 0030D4E5 		ldrb	r3, [r4, #0]	@ zero_extendqisi2
 1524 0798 033080E0 		add	r3, r0, r3
 1525 079c 0030C4E5 		strb	r3, [r4, #0]
 1526 07a0 0030D5E5 		ldrb	r3, [r5, #0]	@ zero_extendqisi2
 1527 07a4 0020D4E5 		ldrb	r2, [r4, #0]	@ zero_extendqisi2
 1528 07a8 023083E0 		add	r3, r3, r2
 1529 07ac 0030C5E5 		strb	r3, [r5, #0]
 1530 07b0 FEFFFFEB 		bl	uart1_transmit
 1531 07b4 48005BE5 		ldrb	r0, [fp, #-72]	@ zero_extendqisi2
 1532 07b8 0030D4E5 		ldrb	r3, [r4, #0]	@ zero_extendqisi2
 1533 07bc 033080E0 		add	r3, r0, r3
 1534 07c0 0030C4E5 		strb	r3, [r4, #0]
 1535 07c4 0030D5E5 		ldrb	r3, [r5, #0]	@ zero_extendqisi2
 1536 07c8 0020D4E5 		ldrb	r2, [r4, #0]	@ zero_extendqisi2
 1537 07cc 023083E0 		add	r3, r3, r2
 1538 07d0 0030C5E5 		strb	r3, [r5, #0]
 1539 07d4 FEFFFFEB 		bl	uart1_transmit
 1540 07d8 47005BE5 		ldrb	r0, [fp, #-71]	@ zero_extendqisi2
 1541 07dc 0030D4E5 		ldrb	r3, [r4, #0]	@ zero_extendqisi2
 1542 07e0 033080E0 		add	r3, r0, r3
 1543 07e4 0030C4E5 		strb	r3, [r4, #0]
 1544 07e8 0030D5E5 		ldrb	r3, [r5, #0]	@ zero_extendqisi2
 1545 07ec 0020D4E5 		ldrb	r2, [r4, #0]	@ zero_extendqisi2
 1546 07f0 023083E0 		add	r3, r3, r2
 1547 07f4 0030C5E5 		strb	r3, [r5, #0]
 1548 07f8 FEFFFFEB 		bl	uart1_transmit
 1549 07fc 46005BE5 		ldrb	r0, [fp, #-70]	@ zero_extendqisi2
 1550 0800 0030D4E5 		ldrb	r3, [r4, #0]	@ zero_extendqisi2
 1551 0804 033080E0 		add	r3, r0, r3
 1552 0808 0030C4E5 		strb	r3, [r4, #0]
 1553 080c 0030D5E5 		ldrb	r3, [r5, #0]	@ zero_extendqisi2
 1554 0810 0020D4E5 		ldrb	r2, [r4, #0]	@ zero_extendqisi2
 1555 0814 023083E0 		add	r3, r3, r2
 1556 0818 0030C5E5 		strb	r3, [r5, #0]
 1557 081c FEFFFFEB 		bl	uart1_transmit
 1558 0820 45005BE5 		ldrb	r0, [fp, #-69]	@ zero_extendqisi2
 1559 0824 0030D4E5 		ldrb	r3, [r4, #0]	@ zero_extendqisi2
 1560 0828 033080E0 		add	r3, r0, r3
 1561 082c 0030C4E5 		strb	r3, [r4, #0]
 1562 0830 0030D5E5 		ldrb	r3, [r5, #0]	@ zero_extendqisi2
 1563 0834 0020D4E5 		ldrb	r2, [r4, #0]	@ zero_extendqisi2
 1564 0838 023083E0 		add	r3, r3, r2
 1565 083c 0030C5E5 		strb	r3, [r5, #0]
 1566 0840 FEFFFFEB 		bl	uart1_transmit
 1567 0844 4C005BE5 		ldrb	r0, [fp, #-76]	@ zero_extendqisi2
 1568 0848 0030D4E5 		ldrb	r3, [r4, #0]	@ zero_extendqisi2
 1569 084c 033080E0 		add	r3, r0, r3
 1570 0850 0030C4E5 		strb	r3, [r4, #0]
 1571 0854 0030D5E5 		ldrb	r3, [r5, #0]	@ zero_extendqisi2
 1572 0858 0020D4E5 		ldrb	r2, [r4, #0]	@ zero_extendqisi2
 1573 085c 023083E0 		add	r3, r3, r2
 1574 0860 0030C5E5 		strb	r3, [r5, #0]
 1575 0864 FEFFFFEB 		bl	uart1_transmit
 1576 0868 4B005BE5 		ldrb	r0, [fp, #-75]	@ zero_extendqisi2
 1577 086c 0030D4E5 		ldrb	r3, [r4, #0]	@ zero_extendqisi2
 1578 0870 033080E0 		add	r3, r0, r3
 1579 0874 0030C4E5 		strb	r3, [r4, #0]
 1580 0878 0030D5E5 		ldrb	r3, [r5, #0]	@ zero_extendqisi2
 1581 087c 0020D4E5 		ldrb	r2, [r4, #0]	@ zero_extendqisi2
 1582 0880 023083E0 		add	r3, r3, r2
 1583 0884 0030C5E5 		strb	r3, [r5, #0]
 1584 0888 FEFFFFEB 		bl	uart1_transmit
 1585 088c 4A005BE5 		ldrb	r0, [fp, #-74]	@ zero_extendqisi2
 1586 0890 0030D4E5 		ldrb	r3, [r4, #0]	@ zero_extendqisi2
 1587 0894 033080E0 		add	r3, r0, r3
 1588 0898 0030C4E5 		strb	r3, [r4, #0]
 1589 089c 0030D5E5 		ldrb	r3, [r5, #0]	@ zero_extendqisi2
 1590 08a0 0020D4E5 		ldrb	r2, [r4, #0]	@ zero_extendqisi2
 1591 08a4 023083E0 		add	r3, r3, r2
 1592 08a8 0030C5E5 		strb	r3, [r5, #0]
 1593 08ac FEFFFFEB 		bl	uart1_transmit
 1594 08b0 49005BE5 		ldrb	r0, [fp, #-73]	@ zero_extendqisi2
 1595 08b4 0030D4E5 		ldrb	r3, [r4, #0]	@ zero_extendqisi2
 1596 08b8 033080E0 		add	r3, r0, r3
 1597 08bc 0030C4E5 		strb	r3, [r4, #0]
 1598 08c0 0030D5E5 		ldrb	r3, [r5, #0]	@ zero_extendqisi2
 1599 08c4 0020D4E5 		ldrb	r2, [r4, #0]	@ zero_extendqisi2
 1600 08c8 023083E0 		add	r3, r3, r2
 1601 08cc 0030C5E5 		strb	r3, [r5, #0]
 1602 08d0 FEFFFFEB 		bl	uart1_transmit
 1603 08d4 0030D6E5 		ldrb	r3, [r6, #0]	@ zero_extendqisi2
 1604 08d8 082088E2 		add	r2, r8, #8
 1605 08dc 833083E0 		add	r3, r3, r3, asl #1
 1606 08e0 0301D2E7 		ldrb	r0, [r2, r3, asl #2]	@ zero_extendqisi2
 1607 08e4 0030D4E5 		ldrb	r3, [r4, #0]	@ zero_extendqisi2
 1608 08e8 033080E0 		add	r3, r0, r3
 1609 08ec 0030C4E5 		strb	r3, [r4, #0]
 1610 08f0 0030D5E5 		ldrb	r3, [r5, #0]	@ zero_extendqisi2
 1611 08f4 0020D4E5 		ldrb	r2, [r4, #0]	@ zero_extendqisi2
 1612 08f8 023083E0 		add	r3, r3, r2
 1613 08fc 0030C5E5 		strb	r3, [r5, #0]
 1614 0900 FEFFFFEB 		bl	uart1_transmit
 1615 0904 0030D6E5 		ldrb	r3, [r6, #0]	@ zero_extendqisi2
 1616 0908 092088E2 		add	r2, r8, #9
 1617 090c 833083E0 		add	r3, r3, r3, asl #1
 1618 0910 0301D2E7 		ldrb	r0, [r2, r3, asl #2]	@ zero_extendqisi2
 1619 0914 0030D4E5 		ldrb	r3, [r4, #0]	@ zero_extendqisi2
 1620 0918 033080E0 		add	r3, r0, r3
 1621 091c 0030C4E5 		strb	r3, [r4, #0]
 1622 0920 0030D5E5 		ldrb	r3, [r5, #0]	@ zero_extendqisi2
 1623 0924 0020D4E5 		ldrb	r2, [r4, #0]	@ zero_extendqisi2
 1624 0928 023083E0 		add	r3, r3, r2
 1625 092c 0030C5E5 		strb	r3, [r5, #0]
 1626 0930 FEFFFFEB 		bl	uart1_transmit
 1627 0934 0030D6E5 		ldrb	r3, [r6, #0]	@ zero_extendqisi2
 1628 0938 0A2088E2 		add	r2, r8, #10
 1629 093c 833083E0 		add	r3, r3, r3, asl #1
 1630 0940 0301D2E7 		ldrb	r0, [r2, r3, asl #2]	@ zero_extendqisi2
 1631 0944 0030D4E5 		ldrb	r3, [r4, #0]	@ zero_extendqisi2
 1632 0948 033080E0 		add	r3, r0, r3
 1633 094c 0030C4E5 		strb	r3, [r4, #0]
 1634 0950 0030D5E5 		ldrb	r3, [r5, #0]	@ zero_extendqisi2
 1635 0954 0020D4E5 		ldrb	r2, [r4, #0]	@ zero_extendqisi2
 1636 0958 023083E0 		add	r3, r3, r2
 1637 095c 0030C5E5 		strb	r3, [r5, #0]
 1638 0960 FEFFFFEB 		bl	uart1_transmit
 1639 0964 0030D6E5 		ldrb	r3, [r6, #0]	@ zero_extendqisi2
 1640 0968 0B2088E2 		add	r2, r8, #11
 1641 096c 833083E0 		add	r3, r3, r3, asl #1
 1642 0970 0301D2E7 		ldrb	r0, [r2, r3, asl #2]	@ zero_extendqisi2
 1643 0974 0030D4E5 		ldrb	r3, [r4, #0]	@ zero_extendqisi2
 1644 0978 033080E0 		add	r3, r0, r3
 1645 097c 0030C4E5 		strb	r3, [r4, #0]
 1646 0980 0030D5E5 		ldrb	r3, [r5, #0]	@ zero_extendqisi2
 1647 0984 0020D4E5 		ldrb	r2, [r4, #0]	@ zero_extendqisi2
 1648 0988 023083E0 		add	r3, r3, r2
 1649 098c 0030C5E5 		strb	r3, [r5, #0]
 1650 0990 FEFFFFEB 		bl	uart1_transmit
 1651 0994 AC309FE5 		ldr	r3, .L355+120
 1652 0998 0000D3E5 		ldrb	r0, [r3, #0]	@ zero_extendqisi2
 1653              	.L330:
 1654 099c 0030D4E5 		ldrb	r3, [r4, #0]	@ zero_extendqisi2
 1655 09a0 033080E0 		add	r3, r0, r3
 1656 09a4 0030C4E5 		strb	r3, [r4, #0]
 1657 09a8 0030D5E5 		ldrb	r3, [r5, #0]	@ zero_extendqisi2
 1658 09ac 0020D4E5 		ldrb	r2, [r4, #0]	@ zero_extendqisi2
 1659 09b0 023083E0 		add	r3, r3, r2
 1660 09b4 0030C5E5 		strb	r3, [r5, #0]
 1661 09b8 FEFFFFEB 		bl	uart1_transmit
 1662 09bc 0000D4E5 		ldrb	r0, [r4, #0]	@ zero_extendqisi2
 1663 09c0 FEFFFFEB 		bl	uart1_transmit
 1664 09c4 0000D5E5 		ldrb	r0, [r5, #0]	@ zero_extendqisi2
 1665 09c8 FEFFFFEB 		bl	uart1_transmit
 1666 09cc BD0200EA 		b	.L68
 1667              	.L356:
 1668              		.align	2
 1669              	.L355:
 1670 09d0 00000000 		.word	_60Hz.4
 1671 09d4 00000000 		.word	_20Hz.5
 1672 09d8 00000000 		.word	_10Hz.6
 1673 09dc 00000000 		.word	_4Hz.7
 1674 09e0 00000000 		.word	_1Hz.8
 1675 09e4 00000000 		.word	boot.10
 1676 09e8 00000000 		.word	version
 1677 09ec 00000000 		.word	telemetry_mode_Ap_DefaultChannel
 1678 09f0 00000000 		.word	i15.11
 1679 09f4 00000000 		.word	i30.12
 1680 09f8 00000000 		.word	i60.13
 1681 09fc 00000000 		.word	i63.14
 1682 0a00 00000000 		.word	i90.17
 1683 0a04 00000000 		.word	i120.18
 1684 0a08 00000000 		.word	i126.19
 1685 0a0c 00000000 		.word	i150.20
 1686 0a10 00000000 		.word	i300.21
 1687 0a14 00000000 		.word	i306.22
 1688 0a18 31010000 		.word	305
 1689 0a1c 00000000 		.word	i540.23
 1690 0a20 00000000 		.word	estimator_phi
 1691 0a24 00000000 		.word	estimator_psi
 1692 0a28 00000000 		.word	estimator_theta
 1693 0a2c 00000000 		.word	estimator_z
 1694 0a30 00000000 		.word	estimator_z_dot
 1695 0a34 00000000 		.word	i.24
 1696 0a38 00000000 		.word	nb_waypoint
 1697 0a3c 00000000 		.word	nav_utm_east0
 1698 0a40 00000000 		.word	waypoints
 1699 0a44 00000000 		.word	nav_utm_north0
 1700 0a48 00000000 		.word	nav_utm_zone0
 1701 0a4c 00000000 		.word	nav_circle_radians
 1702 0a50 00000000 		.word	nav_block
 1703 0a54 00000000 		.word	nav_stage
 1704 0a58 00000000 		.word	estimator_x
 1705 0a5c 00000000 		.word	estimator_y
 1706 0a60 00000000 		.word	dist2_to_wp
 1707 0a64 00000000 		.word	dist2_to_home
 1708 0a68 00000000 		.word	nav_oval_count
 1709 0a6c 00000000 		.word	nav_in_circle
 1710 0a70 00000000 		.word	nav_circle_x
 1711 0a74 00000000 		.word	nav_circle_y
 1712 0a78 00000000 		.word	nav_circle_radius
 1713 0a7c 00000000 		.word	h_ctl_roll_setpoint
 1714 0a80 00000000 		.word	h_ctl_pitch_loop_setpoint
 1715 0a84 00000000 		.word	h_ctl_course_setpoint
 1716 0a88 00000000 		.word	desired_x
 1717 0a8c 00000000 		.word	desired_y
 1718 0a90 00000000 		.word	v_ctl_altitude_setpoint
 1719 0a94 00000000 		.word	v_ctl_climb_setpoint
 1720 0a98 00000000 		.word	i66.15
 1721 0a9c 00000000 		.word	energy
 1722 0aa0 00000000 		.word	v_ctl_throttle_slewed
 1723 0aa4 00000000 		.word	vsupply
 1724 0aa8 00000000 		.word	estimator_flight_time
 1725 0aac 00000000 		.word	kill_throttle
 1726 0ab0 00000000 		.word	block_time
 1727 0ab4 FB211940 		.word	1075388923
 1728 0ab8 182D4454 		.word	1413754136
 1729 0abc 00000000 		.word	stage_time
 1730 0ac0 00000000 		.word	roll_rate_adc
 1731 0ac4 00000000 		.word	estimator_p
 1732 0ac8 00000000 		.word	temp_comp
 1733 0acc 00000000 		.word	downlink_nb_ovrn
 1734 0ad0 00000000 		.word	i72.16
 1735 0ad4 00000000 		.word	nav_in_segment
 1736 0ad8 00000000 		.word	downlink_nb_bytes
 1737 0adc 00000000 		.word	downlink_nb_msgs
 1738 0ae0 00000000 		.word	ck_a
 1739 0ae4 00000000 		.word	ck_b
 1740 0ae8 00000000 		.word	nav_segment_x_1
 1741              	.L75:
 1742 0aec 28201FE5 		ldr	r2, .L355+252
 1743 0af0 0030D2E5 		ldrb	r3, [r2, #0]	@ zero_extendqisi2
 1744 0af4 013083E2 		add	r3, r3, #1
 1745 0af8 0030C2E5 		strb	r3, [r2, #0]
 1746              	.L68:
 1747 0afc 0030DAE5 		ldrb	r3, [sl, #0]	@ zero_extendqisi2
 1748 0b00 180053E3 		cmp	r3, #24
 1749 0b04 AF03000A 		beq	.L78
 1750 0b08 1E0053E3 		cmp	r3, #30
 1751 0b0c AF03001A 		bne	.L78
 1752 0b10 CC301FE5 		ldr	r3, .L355+124
 1753 0b14 003093E5 		ldr	r3, [r3, #0]
 1754 0b18 0201C3E3 		bic	r0, r3, #-2147483648
 1755 0b1c FEFFFFEB 		bl	__extendsfdf2
 1756 0b20 74204FE2 		adr	r2, .L355+228
 1757 0b24 0C0092E8 		ldmia	r2, {r2-r3}
 1758 0b28 FEFFFFEB 		bl	__divdf3
 1759 0b2c FEFFFFEB 		bl	__fixunsdfsi
 1760 0b30 29004BE5 		strb	r0, [fp, #-41]
 1761 0b34 1A00A0E3 		mov	r0, #26
 1762 0b38 FEFFFFEB 		bl	uart1_check_free_space
 1763 0b3c FF0010E3 		tst	r0, #255
 1764 0b40 7C201F05 		ldreq	r2, .L355+252
 1765 0b44 0030D205 		ldreqb	r3, [r2, #0]	@ zero_extendqisi2
 1766 0b48 01308302 		addeq	r3, r3, #1
 1767 0b4c 0030C205 		streqb	r3, [r2, #0]
 1768 0b50 AF03000A 		beq	.L78
 1769 0b54 84101FE5 		ldr	r1, .L355+264
 1770 0b58 84C01FE5 		ldr	ip, .L355+268
 1771 0b5c B030D1E1 		ldrh	r3, [r1, #0]
 1772 0b60 B020DCE1 		ldrh	r2, [ip, #0]
 1773 0b64 1A3083E2 		add	r3, r3, #26
 1774 0b68 012082E2 		add	r2, r2, #1
 1775 0b6c B030C1E1 		strh	r3, [r1, #0]	@ movhi 
 1776 0b70 B020CCE1 		strh	r2, [ip, #0]	@ movhi 
 1777 0b74 9900A0E3 		mov	r0, #153
 1778 0b78 A0401FE5 		ldr	r4, .L355+272
 1779 0b7c FEFFFFEB 		bl	uart1_transmit
 1780 0b80 1A00A0E3 		mov	r0, #26
 1781 0b84 A8501FE5 		ldr	r5, .L355+276
 1782 0b88 FEFFFFEB 		bl	uart1_transmit
 1783 0b8c 2C30A0E3 		mov	r3, #44
 1784 0b90 0030C4E5 		strb	r3, [r4, #0]
 1785 0b94 1A3083E2 		add	r3, r3, #26
 1786 0b98 1200A0E3 		mov	r0, #18
 1787 0b9c 0030C5E5 		strb	r3, [r5, #0]
 1788 0ba0 FEFFFFEB 		bl	uart1_transmit
 1789 0ba4 0030D4E5 		ldrb	r3, [r4, #0]	@ zero_extendqisi2
 1790 0ba8 0A3083E2 		add	r3, r3, #10
 1791 0bac 0030C4E5 		strb	r3, [r4, #0]
 1792 0bb0 0030D5E5 		ldrb	r3, [r5, #0]	@ zero_extendqisi2
 1793 0bb4 0020D4E5 		ldrb	r2, [r4, #0]	@ zero_extendqisi2
 1794 0bb8 023083E0 		add	r3, r3, r2
 1795 0bbc 0A00A0E3 		mov	r0, #10
 1796 0bc0 0030C5E5 		strb	r3, [r5, #0]
 1797 0bc4 FEFFFFEB 		bl	uart1_transmit
 1798 0bc8 80311FE5 		ldr	r3, .L355+128
 1799 0bcc 0000D3E5 		ldrb	r0, [r3, #0]	@ zero_extendqisi2
 1800 0bd0 0030D4E5 		ldrb	r3, [r4, #0]	@ zero_extendqisi2
 1801 0bd4 033080E0 		add	r3, r0, r3
 1802 0bd8 0030C4E5 		strb	r3, [r4, #0]
 1803 0bdc 0030D5E5 		ldrb	r3, [r5, #0]	@ zero_extendqisi2
 1804 0be0 0020D4E5 		ldrb	r2, [r4, #0]	@ zero_extendqisi2
 1805 0be4 023083E0 		add	r3, r3, r2
 1806 0be8 0030C5E5 		strb	r3, [r5, #0]
 1807 0bec FEFFFFEB 		bl	uart1_transmit
 1808 0bf0 A4311FE5 		ldr	r3, .L355+132
 1809 0bf4 0000D3E5 		ldrb	r0, [r3, #0]	@ zero_extendqisi2
 1810 0bf8 0030D4E5 		ldrb	r3, [r4, #0]	@ zero_extendqisi2
 1811 0bfc 033080E0 		add	r3, r0, r3
 1812 0c00 0030C4E5 		strb	r3, [r4, #0]
 1813 0c04 0030D5E5 		ldrb	r3, [r5, #0]	@ zero_extendqisi2
 1814 0c08 0020D4E5 		ldrb	r2, [r4, #0]	@ zero_extendqisi2
 1815 0c0c BC611FE5 		ldr	r6, .L355+136
 1816 0c10 023083E0 		add	r3, r3, r2
 1817 0c14 0030C5E5 		strb	r3, [r5, #0]
 1818 0c18 FEFFFFEB 		bl	uart1_transmit
 1819 0c1c 0000D6E5 		ldrb	r0, [r6, #0]	@ zero_extendqisi2
 1820 0c20 0030D4E5 		ldrb	r3, [r4, #0]	@ zero_extendqisi2
 1821 0c24 033080E0 		add	r3, r0, r3
 1822 0c28 0030C4E5 		strb	r3, [r4, #0]
 1823 0c2c 0030D5E5 		ldrb	r3, [r5, #0]	@ zero_extendqisi2
 1824 0c30 0020D4E5 		ldrb	r2, [r4, #0]	@ zero_extendqisi2
 1825 0c34 023083E0 		add	r3, r3, r2
 1826 0c38 0030C5E5 		strb	r3, [r5, #0]
 1827 0c3c FEFFFFEB 		bl	uart1_transmit
 1828 0c40 0100D6E5 		ldrb	r0, [r6, #1]	@ zero_extendqisi2
 1829 0c44 0030D4E5 		ldrb	r3, [r4, #0]	@ zero_extendqisi2
 1830 0c48 033080E0 		add	r3, r0, r3
 1831 0c4c 0030C4E5 		strb	r3, [r4, #0]
 1832 0c50 0030D5E5 		ldrb	r3, [r5, #0]	@ zero_extendqisi2
 1833 0c54 0020D4E5 		ldrb	r2, [r4, #0]	@ zero_extendqisi2
 1834 0c58 023083E0 		add	r3, r3, r2
 1835 0c5c 0030C5E5 		strb	r3, [r5, #0]
 1836 0c60 FEFFFFEB 		bl	uart1_transmit
 1837 0c64 0200D6E5 		ldrb	r0, [r6, #2]	@ zero_extendqisi2
 1838 0c68 0030D4E5 		ldrb	r3, [r4, #0]	@ zero_extendqisi2
 1839 0c6c 033080E0 		add	r3, r0, r3
 1840 0c70 0030C4E5 		strb	r3, [r4, #0]
 1841 0c74 0030D5E5 		ldrb	r3, [r5, #0]	@ zero_extendqisi2
 1842 0c78 0020D4E5 		ldrb	r2, [r4, #0]	@ zero_extendqisi2
 1843 0c7c 023083E0 		add	r3, r3, r2
 1844 0c80 0030C5E5 		strb	r3, [r5, #0]
 1845 0c84 FEFFFFEB 		bl	uart1_transmit
 1846 0c88 0300D6E5 		ldrb	r0, [r6, #3]	@ zero_extendqisi2
 1847 0c8c 0030D4E5 		ldrb	r3, [r4, #0]	@ zero_extendqisi2
 1848 0c90 033080E0 		add	r3, r0, r3
 1849 0c94 0030C4E5 		strb	r3, [r4, #0]
 1850 0c98 0030D5E5 		ldrb	r3, [r5, #0]	@ zero_extendqisi2
 1851 0c9c 0020D4E5 		ldrb	r2, [r4, #0]	@ zero_extendqisi2
 1852 0ca0 4C621FE5 		ldr	r6, .L355+140
 1853 0ca4 023083E0 		add	r3, r3, r2
 1854 0ca8 0030C5E5 		strb	r3, [r5, #0]
 1855 0cac FEFFFFEB 		bl	uart1_transmit
 1856 0cb0 0000D6E5 		ldrb	r0, [r6, #0]	@ zero_extendqisi2
 1857 0cb4 0030D4E5 		ldrb	r3, [r4, #0]	@ zero_extendqisi2
 1858 0cb8 033080E0 		add	r3, r0, r3
 1859 0cbc 0030C4E5 		strb	r3, [r4, #0]
 1860 0cc0 0030D5E5 		ldrb	r3, [r5, #0]	@ zero_extendqisi2
 1861 0cc4 0020D4E5 		ldrb	r2, [r4, #0]	@ zero_extendqisi2
 1862 0cc8 023083E0 		add	r3, r3, r2
 1863 0ccc 0030C5E5 		strb	r3, [r5, #0]
 1864 0cd0 FEFFFFEB 		bl	uart1_transmit
 1865 0cd4 0100D6E5 		ldrb	r0, [r6, #1]	@ zero_extendqisi2
 1866 0cd8 0030D4E5 		ldrb	r3, [r4, #0]	@ zero_extendqisi2
 1867 0cdc 033080E0 		add	r3, r0, r3
 1868 0ce0 0030C4E5 		strb	r3, [r4, #0]
 1869 0ce4 0030D5E5 		ldrb	r3, [r5, #0]	@ zero_extendqisi2
 1870 0ce8 0020D4E5 		ldrb	r2, [r4, #0]	@ zero_extendqisi2
 1871 0cec 023083E0 		add	r3, r3, r2
 1872 0cf0 0030C5E5 		strb	r3, [r5, #0]
 1873 0cf4 FEFFFFEB 		bl	uart1_transmit
 1874 0cf8 0200D6E5 		ldrb	r0, [r6, #2]	@ zero_extendqisi2
 1875 0cfc 0030D4E5 		ldrb	r3, [r4, #0]	@ zero_extendqisi2
 1876 0d00 033080E0 		add	r3, r0, r3
 1877 0d04 0030C4E5 		strb	r3, [r4, #0]
 1878 0d08 0030D5E5 		ldrb	r3, [r5, #0]	@ zero_extendqisi2
 1879 0d0c 0020D4E5 		ldrb	r2, [r4, #0]	@ zero_extendqisi2
 1880 0d10 023083E0 		add	r3, r3, r2
 1881 0d14 0030C5E5 		strb	r3, [r5, #0]
 1882 0d18 FEFFFFEB 		bl	uart1_transmit
 1883 0d1c 0300D6E5 		ldrb	r0, [r6, #3]	@ zero_extendqisi2
 1884 0d20 0030D4E5 		ldrb	r3, [r4, #0]	@ zero_extendqisi2
 1885 0d24 033080E0 		add	r3, r0, r3
 1886 0d28 0030C4E5 		strb	r3, [r4, #0]
 1887 0d2c 0030D5E5 		ldrb	r3, [r5, #0]	@ zero_extendqisi2
 1888 0d30 0020D4E5 		ldrb	r2, [r4, #0]	@ zero_extendqisi2
 1889 0d34 DC621FE5 		ldr	r6, .L355+144
 1890 0d38 023083E0 		add	r3, r3, r2
 1891 0d3c 0030C5E5 		strb	r3, [r5, #0]
 1892 0d40 FEFFFFEB 		bl	uart1_transmit
 1893 0d44 0000D6E5 		ldrb	r0, [r6, #0]	@ zero_extendqisi2
 1894 0d48 0030D4E5 		ldrb	r3, [r4, #0]	@ zero_extendqisi2
 1895 0d4c 033080E0 		add	r3, r0, r3
 1896 0d50 0030C4E5 		strb	r3, [r4, #0]
 1897 0d54 0030D5E5 		ldrb	r3, [r5, #0]	@ zero_extendqisi2
 1898 0d58 0020D4E5 		ldrb	r2, [r4, #0]	@ zero_extendqisi2
 1899 0d5c 023083E0 		add	r3, r3, r2
 1900 0d60 0030C5E5 		strb	r3, [r5, #0]
 1901 0d64 FEFFFFEB 		bl	uart1_transmit
 1902 0d68 0100D6E5 		ldrb	r0, [r6, #1]	@ zero_extendqisi2
 1903 0d6c 0030D4E5 		ldrb	r3, [r4, #0]	@ zero_extendqisi2
 1904 0d70 033080E0 		add	r3, r0, r3
 1905 0d74 0030C4E5 		strb	r3, [r4, #0]
 1906 0d78 0030D5E5 		ldrb	r3, [r5, #0]	@ zero_extendqisi2
 1907 0d7c 0020D4E5 		ldrb	r2, [r4, #0]	@ zero_extendqisi2
 1908 0d80 023083E0 		add	r3, r3, r2
 1909 0d84 0030C5E5 		strb	r3, [r5, #0]
 1910 0d88 FEFFFFEB 		bl	uart1_transmit
 1911 0d8c 0200D6E5 		ldrb	r0, [r6, #2]	@ zero_extendqisi2
 1912 0d90 0030D4E5 		ldrb	r3, [r4, #0]	@ zero_extendqisi2
 1913 0d94 033080E0 		add	r3, r0, r3
 1914 0d98 0030C4E5 		strb	r3, [r4, #0]
 1915 0d9c 0030D5E5 		ldrb	r3, [r5, #0]	@ zero_extendqisi2
 1916 0da0 0020D4E5 		ldrb	r2, [r4, #0]	@ zero_extendqisi2
 1917 0da4 023083E0 		add	r3, r3, r2
 1918 0da8 0030C5E5 		strb	r3, [r5, #0]
 1919 0dac FEFFFFEB 		bl	uart1_transmit
 1920 0db0 0300D6E5 		ldrb	r0, [r6, #3]	@ zero_extendqisi2
 1921 0db4 0030D4E5 		ldrb	r3, [r4, #0]	@ zero_extendqisi2
 1922 0db8 033080E0 		add	r3, r0, r3
 1923 0dbc 0030C4E5 		strb	r3, [r4, #0]
 1924 0dc0 0030D5E5 		ldrb	r3, [r5, #0]	@ zero_extendqisi2
 1925 0dc4 0020D4E5 		ldrb	r2, [r4, #0]	@ zero_extendqisi2
 1926 0dc8 6C631FE5 		ldr	r6, .L355+148
 1927 0dcc 023083E0 		add	r3, r3, r2
 1928 0dd0 0030C5E5 		strb	r3, [r5, #0]
 1929 0dd4 FEFFFFEB 		bl	uart1_transmit
 1930 0dd8 0000D6E5 		ldrb	r0, [r6, #0]	@ zero_extendqisi2
 1931 0ddc 0030D4E5 		ldrb	r3, [r4, #0]	@ zero_extendqisi2
 1932 0de0 033080E0 		add	r3, r0, r3
 1933 0de4 0030C4E5 		strb	r3, [r4, #0]
 1934 0de8 0030D5E5 		ldrb	r3, [r5, #0]	@ zero_extendqisi2
 1935 0dec 0020D4E5 		ldrb	r2, [r4, #0]	@ zero_extendqisi2
 1936 0df0 023083E0 		add	r3, r3, r2
 1937 0df4 0030C5E5 		strb	r3, [r5, #0]
 1938 0df8 FEFFFFEB 		bl	uart1_transmit
 1939 0dfc 0100D6E5 		ldrb	r0, [r6, #1]	@ zero_extendqisi2
 1940 0e00 0030D4E5 		ldrb	r3, [r4, #0]	@ zero_extendqisi2
 1941 0e04 033080E0 		add	r3, r0, r3
 1942 0e08 0030C4E5 		strb	r3, [r4, #0]
 1943 0e0c 0030D5E5 		ldrb	r3, [r5, #0]	@ zero_extendqisi2
 1944 0e10 0020D4E5 		ldrb	r2, [r4, #0]	@ zero_extendqisi2
 1945 0e14 023083E0 		add	r3, r3, r2
 1946 0e18 0030C5E5 		strb	r3, [r5, #0]
 1947 0e1c FEFFFFEB 		bl	uart1_transmit
 1948 0e20 0200D6E5 		ldrb	r0, [r6, #2]	@ zero_extendqisi2
 1949 0e24 0030D4E5 		ldrb	r3, [r4, #0]	@ zero_extendqisi2
 1950 0e28 033080E0 		add	r3, r0, r3
 1951 0e2c 0030C4E5 		strb	r3, [r4, #0]
 1952 0e30 0030D5E5 		ldrb	r3, [r5, #0]	@ zero_extendqisi2
 1953 0e34 0020D4E5 		ldrb	r2, [r4, #0]	@ zero_extendqisi2
 1954 0e38 023083E0 		add	r3, r3, r2
 1955 0e3c 0030C5E5 		strb	r3, [r5, #0]
 1956 0e40 FEFFFFEB 		bl	uart1_transmit
 1957 0e44 0300D6E5 		ldrb	r0, [r6, #3]	@ zero_extendqisi2
 1958 0e48 0030D4E5 		ldrb	r3, [r4, #0]	@ zero_extendqisi2
 1959 0e4c 033080E0 		add	r3, r0, r3
 1960 0e50 0030C4E5 		strb	r3, [r4, #0]
 1961 0e54 0030D5E5 		ldrb	r3, [r5, #0]	@ zero_extendqisi2
 1962 0e58 0020D4E5 		ldrb	r2, [r4, #0]	@ zero_extendqisi2
 1963 0e5c 023083E0 		add	r3, r3, r2
 1964 0e60 0030C5E5 		strb	r3, [r5, #0]
 1965 0e64 FEFFFFEB 		bl	uart1_transmit
 1966 0e68 29005BE5 		ldrb	r0, [fp, #-41]	@ zero_extendqisi2
 1967 0e6c 0030D4E5 		ldrb	r3, [r4, #0]	@ zero_extendqisi2
 1968 0e70 033080E0 		add	r3, r0, r3
 1969 0e74 0030C4E5 		strb	r3, [r4, #0]
 1970 0e78 0030D5E5 		ldrb	r3, [r5, #0]	@ zero_extendqisi2
 1971 0e7c 0020D4E5 		ldrb	r2, [r4, #0]	@ zero_extendqisi2
 1972 0e80 023083E0 		add	r3, r3, r2
 1973 0e84 0030C5E5 		strb	r3, [r5, #0]
 1974 0e88 FEFFFFEB 		bl	uart1_transmit
 1975 0e8c 2C341FE5 		ldr	r3, .L355+152
 1976 0e90 0000D3E5 		ldrb	r0, [r3, #0]	@ zero_extendqisi2
 1977 0e94 0030D4E5 		ldrb	r3, [r4, #0]	@ zero_extendqisi2
 1978 0e98 033080E0 		add	r3, r0, r3
 1979 0e9c 0030C4E5 		strb	r3, [r4, #0]
 1980 0ea0 0030D5E5 		ldrb	r3, [r5, #0]	@ zero_extendqisi2
 1981 0ea4 0020D4E5 		ldrb	r2, [r4, #0]	@ zero_extendqisi2
 1982 0ea8 023083E0 		add	r3, r3, r2
 1983 0eac 0030C5E5 		strb	r3, [r5, #0]
 1984 0eb0 FEFFFFEB 		bl	uart1_transmit
 1985 0eb4 0000D4E5 		ldrb	r0, [r4, #0]	@ zero_extendqisi2
 1986 0eb8 FEFFFFEB 		bl	uart1_transmit
 1987 0ebc 0000D5E5 		ldrb	r0, [r5, #0]	@ zero_extendqisi2
 1988 0ec0 FEFFFFEB 		bl	uart1_transmit
 1989              	.L78:
 1990 0ec4 0030D9E5 		ldrb	r3, [r9, #0]	@ zero_extendqisi2
 1991 0ec8 300053E3 		cmp	r3, #48
 1992 0ecc 2104001A 		bne	.L86
 1993 0ed0 6C341FE5 		ldr	r3, .L355+156
 1994 0ed4 0030D3E5 		ldrb	r3, [r3, #0]	@ zero_extendqisi2
 1995 0ed8 000053E3 		cmp	r3, #0
 1996 0edc 5005000A 		beq	.L90
 1997 0ee0 1200A0E3 		mov	r0, #18
 1998 0ee4 FEFFFFEB 		bl	uart1_check_free_space
 1999 0ee8 FF0010E3 		tst	r0, #255
 2000 0eec 4C05000A 		beq	.L92
 2001 0ef0 20141FE5 		ldr	r1, .L355+264
 2002 0ef4 20C41FE5 		ldr	ip, .L355+268
 2003 0ef8 B030D1E1 		ldrh	r3, [r1, #0]
 2004 0efc B020DCE1 		ldrh	r2, [ip, #0]
 2005 0f00 123083E2 		add	r3, r3, #18
 2006 0f04 012082E2 		add	r2, r2, #1
 2007 0f08 B030C1E1 		strh	r3, [r1, #0]	@ movhi 
 2008 0f0c B020CCE1 		strh	r2, [ip, #0]	@ movhi 
 2009 0f10 1260A0E3 		mov	r6, #18
 2010 0f14 9900A0E3 		mov	r0, #153
 2011 0f18 40441FE5 		ldr	r4, .L355+272
 2012 0f1c FEFFFFEB 		bl	uart1_transmit
 2013 0f20 0600A0E1 		mov	r0, r6
 2014 0f24 48541FE5 		ldr	r5, .L355+276
 2015 0f28 FEFFFFEB 		bl	uart1_transmit
 2016 0f2c 2430A0E3 		mov	r3, #36
 2017 0f30 0030C4E5 		strb	r3, [r4, #0]
 2018 0f34 063083E0 		add	r3, r3, r6
 2019 0f38 0600A0E1 		mov	r0, r6
 2020 0f3c 0030C5E5 		strb	r3, [r5, #0]
 2021 0f40 FEFFFFEB 		bl	uart1_transmit
 2022 0f44 0030D4E5 		ldrb	r3, [r4, #0]	@ zero_extendqisi2
 2023 0f48 153083E2 		add	r3, r3, #21
 2024 0f4c 0030C4E5 		strb	r3, [r4, #0]
 2025 0f50 0030D5E5 		ldrb	r3, [r5, #0]	@ zero_extendqisi2
 2026 0f54 0020D4E5 		ldrb	r2, [r4, #0]	@ zero_extendqisi2
 2027 0f58 F0641FE5 		ldr	r6, .L355+160
 2028 0f5c 023083E0 		add	r3, r3, r2
 2029 0f60 1500A0E3 		mov	r0, #21
 2030 0f64 0030C5E5 		strb	r3, [r5, #0]
 2031 0f68 FEFFFFEB 		bl	uart1_transmit
 2032 0f6c 0000D6E5 		ldrb	r0, [r6, #0]	@ zero_extendqisi2
 2033 0f70 0030D4E5 		ldrb	r3, [r4, #0]	@ zero_extendqisi2
 2034 0f74 033080E0 		add	r3, r0, r3
 2035 0f78 0030C4E5 		strb	r3, [r4, #0]
 2036 0f7c 0030D5E5 		ldrb	r3, [r5, #0]	@ zero_extendqisi2
 2037 0f80 0020D4E5 		ldrb	r2, [r4, #0]	@ zero_extendqisi2
 2038 0f84 023083E0 		add	r3, r3, r2
 2039 0f88 0030C5E5 		strb	r3, [r5, #0]
 2040 0f8c FEFFFFEB 		bl	uart1_transmit
 2041 0f90 0100D6E5 		ldrb	r0, [r6, #1]	@ zero_extendqisi2
 2042 0f94 0030D4E5 		ldrb	r3, [r4, #0]	@ zero_extendqisi2
 2043 0f98 033080E0 		add	r3, r0, r3
 2044 0f9c 0030C4E5 		strb	r3, [r4, #0]
 2045 0fa0 0030D5E5 		ldrb	r3, [r5, #0]	@ zero_extendqisi2
 2046 0fa4 0020D4E5 		ldrb	r2, [r4, #0]	@ zero_extendqisi2
 2047 0fa8 023083E0 		add	r3, r3, r2
 2048 0fac 0030C5E5 		strb	r3, [r5, #0]
 2049 0fb0 FEFFFFEB 		bl	uart1_transmit
 2050 0fb4 0200D6E5 		ldrb	r0, [r6, #2]	@ zero_extendqisi2
 2051 0fb8 0030D4E5 		ldrb	r3, [r4, #0]	@ zero_extendqisi2
 2052 0fbc 033080E0 		add	r3, r0, r3
 2053 0fc0 0030C4E5 		strb	r3, [r4, #0]
 2054 0fc4 0030D5E5 		ldrb	r3, [r5, #0]	@ zero_extendqisi2
 2055 0fc8 0020D4E5 		ldrb	r2, [r4, #0]	@ zero_extendqisi2
 2056 0fcc 023083E0 		add	r3, r3, r2
 2057 0fd0 0030C5E5 		strb	r3, [r5, #0]
 2058 0fd4 FEFFFFEB 		bl	uart1_transmit
 2059 0fd8 0300D6E5 		ldrb	r0, [r6, #3]	@ zero_extendqisi2
 2060 0fdc 0030D4E5 		ldrb	r3, [r4, #0]	@ zero_extendqisi2
 2061 0fe0 033080E0 		add	r3, r0, r3
 2062 0fe4 0030C4E5 		strb	r3, [r4, #0]
 2063 0fe8 0030D5E5 		ldrb	r3, [r5, #0]	@ zero_extendqisi2
 2064 0fec 0020D4E5 		ldrb	r2, [r4, #0]	@ zero_extendqisi2
 2065 0ff0 84651FE5 		ldr	r6, .L355+164
 2066 0ff4 023083E0 		add	r3, r3, r2
 2067 0ff8 0030C5E5 		strb	r3, [r5, #0]
 2068 0ffc FEFFFFEB 		bl	uart1_transmit
 2069 1000 0000D6E5 		ldrb	r0, [r6, #0]	@ zero_extendqisi2
 2070 1004 0030D4E5 		ldrb	r3, [r4, #0]	@ zero_extendqisi2
 2071 1008 033080E0 		add	r3, r0, r3
 2072 100c 0030C4E5 		strb	r3, [r4, #0]
 2073 1010 0030D5E5 		ldrb	r3, [r5, #0]	@ zero_extendqisi2
 2074 1014 0020D4E5 		ldrb	r2, [r4, #0]	@ zero_extendqisi2
 2075 1018 023083E0 		add	r3, r3, r2
 2076 101c 0030C5E5 		strb	r3, [r5, #0]
 2077 1020 FEFFFFEB 		bl	uart1_transmit
 2078 1024 0100D6E5 		ldrb	r0, [r6, #1]	@ zero_extendqisi2
 2079 1028 0030D4E5 		ldrb	r3, [r4, #0]	@ zero_extendqisi2
 2080 102c 033080E0 		add	r3, r0, r3
 2081 1030 0030C4E5 		strb	r3, [r4, #0]
 2082 1034 0030D5E5 		ldrb	r3, [r5, #0]	@ zero_extendqisi2
 2083 1038 0020D4E5 		ldrb	r2, [r4, #0]	@ zero_extendqisi2
 2084 103c 023083E0 		add	r3, r3, r2
 2085 1040 0030C5E5 		strb	r3, [r5, #0]
 2086 1044 FEFFFFEB 		bl	uart1_transmit
 2087 1048 0200D6E5 		ldrb	r0, [r6, #2]	@ zero_extendqisi2
 2088 104c 0030D4E5 		ldrb	r3, [r4, #0]	@ zero_extendqisi2
 2089 1050 033080E0 		add	r3, r0, r3
 2090 1054 0030C4E5 		strb	r3, [r4, #0]
 2091 1058 0030D5E5 		ldrb	r3, [r5, #0]	@ zero_extendqisi2
 2092 105c 0020D4E5 		ldrb	r2, [r4, #0]	@ zero_extendqisi2
 2093 1060 023083E0 		add	r3, r3, r2
 2094 1064 0030C5E5 		strb	r3, [r5, #0]
 2095 1068 FEFFFFEB 		bl	uart1_transmit
 2096 106c 0300D6E5 		ldrb	r0, [r6, #3]	@ zero_extendqisi2
 2097 1070 0030D4E5 		ldrb	r3, [r4, #0]	@ zero_extendqisi2
 2098 1074 033080E0 		add	r3, r0, r3
 2099 1078 0030C4E5 		strb	r3, [r4, #0]
 2100 107c 0C661FE5 		ldr	r6, .L355+168
 2101 1080 0030D5E5 		ldrb	r3, [r5, #0]	@ zero_extendqisi2
 2102 1084 0020D4E5 		ldrb	r2, [r4, #0]	@ zero_extendqisi2
 2103 1088 200500EA 		b	.L331
 2104              	.L86:
 2105 108c 360053E3 		cmp	r3, #54
 2106 1090 5005001A 		bne	.L90
 2107 1094 2200A0E3 		mov	r0, #34
 2108 1098 FEFFFFEB 		bl	uart1_check_free_space
 2109 109c FF0010E3 		tst	r0, #255
 2110 10a0 4C05000A 		beq	.L92
 2111 10a4 D4151FE5 		ldr	r1, .L355+264
 2112 10a8 D4C51FE5 		ldr	ip, .L355+268
 2113 10ac B030D1E1 		ldrh	r3, [r1, #0]
 2114 10b0 B020DCE1 		ldrh	r2, [ip, #0]
 2115 10b4 223083E2 		add	r3, r3, #34
 2116 10b8 012082E2 		add	r2, r2, #1
 2117 10bc B030C1E1 		strh	r3, [r1, #0]	@ movhi 
 2118 10c0 B020CCE1 		strh	r2, [ip, #0]	@ movhi 
 2119 10c4 9900A0E3 		mov	r0, #153
 2120 10c8 F0451FE5 		ldr	r4, .L355+272
 2121 10cc FEFFFFEB 		bl	uart1_transmit
 2122 10d0 2200A0E3 		mov	r0, #34
 2123 10d4 F8551FE5 		ldr	r5, .L355+276
 2124 10d8 FEFFFFEB 		bl	uart1_transmit
 2125 10dc 3430A0E3 		mov	r3, #52
 2126 10e0 0030C4E5 		strb	r3, [r4, #0]
 2127 10e4 223083E2 		add	r3, r3, #34
 2128 10e8 1200A0E3 		mov	r0, #18
 2129 10ec 0030C5E5 		strb	r3, [r5, #0]
 2130 10f0 FEFFFFEB 		bl	uart1_transmit
 2131 10f4 0030D4E5 		ldrb	r3, [r4, #0]	@ zero_extendqisi2
 2132 10f8 103083E2 		add	r3, r3, #16
 2133 10fc 0030C4E5 		strb	r3, [r4, #0]
 2134 1100 0030D5E5 		ldrb	r3, [r5, #0]	@ zero_extendqisi2
 2135 1104 0020D4E5 		ldrb	r2, [r4, #0]	@ zero_extendqisi2
 2136 1108 94661FE5 		ldr	r6, .L355+172
 2137 110c 023083E0 		add	r3, r3, r2
 2138 1110 1000A0E3 		mov	r0, #16
 2139 1114 0030C5E5 		strb	r3, [r5, #0]
 2140 1118 FEFFFFEB 		bl	uart1_transmit
 2141 111c 0000D6E5 		ldrb	r0, [r6, #0]	@ zero_extendqisi2
 2142 1120 0030D4E5 		ldrb	r3, [r4, #0]	@ zero_extendqisi2
 2143 1124 033080E0 		add	r3, r0, r3
 2144 1128 0030C4E5 		strb	r3, [r4, #0]
 2145 112c 0030D5E5 		ldrb	r3, [r5, #0]	@ zero_extendqisi2
 2146 1130 0020D4E5 		ldrb	r2, [r4, #0]	@ zero_extendqisi2
 2147 1134 023083E0 		add	r3, r3, r2
 2148 1138 0030C5E5 		strb	r3, [r5, #0]
 2149 113c FEFFFFEB 		bl	uart1_transmit
 2150 1140 0100D6E5 		ldrb	r0, [r6, #1]	@ zero_extendqisi2
 2151 1144 0030D4E5 		ldrb	r3, [r4, #0]	@ zero_extendqisi2
 2152 1148 033080E0 		add	r3, r0, r3
 2153 114c 0030C4E5 		strb	r3, [r4, #0]
 2154 1150 0030D5E5 		ldrb	r3, [r5, #0]	@ zero_extendqisi2
 2155 1154 0020D4E5 		ldrb	r2, [r4, #0]	@ zero_extendqisi2
 2156 1158 023083E0 		add	r3, r3, r2
 2157 115c 0030C5E5 		strb	r3, [r5, #0]
 2158 1160 FEFFFFEB 		bl	uart1_transmit
 2159 1164 0200D6E5 		ldrb	r0, [r6, #2]	@ zero_extendqisi2
 2160 1168 0030D4E5 		ldrb	r3, [r4, #0]	@ zero_extendqisi2
 2161 116c 033080E0 		add	r3, r0, r3
 2162 1170 0030C4E5 		strb	r3, [r4, #0]
 2163 1174 0030D5E5 		ldrb	r3, [r5, #0]	@ zero_extendqisi2
 2164 1178 0020D4E5 		ldrb	r2, [r4, #0]	@ zero_extendqisi2
 2165 117c 023083E0 		add	r3, r3, r2
 2166 1180 0030C5E5 		strb	r3, [r5, #0]
 2167 1184 FEFFFFEB 		bl	uart1_transmit
 2168 1188 0300D6E5 		ldrb	r0, [r6, #3]	@ zero_extendqisi2
 2169 118c 0030D4E5 		ldrb	r3, [r4, #0]	@ zero_extendqisi2
 2170 1190 033080E0 		add	r3, r0, r3
 2171 1194 0030C4E5 		strb	r3, [r4, #0]
 2172 1198 0030D5E5 		ldrb	r3, [r5, #0]	@ zero_extendqisi2
 2173 119c 0020D4E5 		ldrb	r2, [r4, #0]	@ zero_extendqisi2
 2174 11a0 28671FE5 		ldr	r6, .L355+176
 2175 11a4 023083E0 		add	r3, r3, r2
 2176 11a8 0030C5E5 		strb	r3, [r5, #0]
 2177 11ac FEFFFFEB 		bl	uart1_transmit
 2178 11b0 0000D6E5 		ldrb	r0, [r6, #0]	@ zero_extendqisi2
 2179 11b4 0030D4E5 		ldrb	r3, [r4, #0]	@ zero_extendqisi2
 2180 11b8 033080E0 		add	r3, r0, r3
 2181 11bc 0030C4E5 		strb	r3, [r4, #0]
 2182 11c0 0030D5E5 		ldrb	r3, [r5, #0]	@ zero_extendqisi2
 2183 11c4 0020D4E5 		ldrb	r2, [r4, #0]	@ zero_extendqisi2
 2184 11c8 023083E0 		add	r3, r3, r2
 2185 11cc 0030C5E5 		strb	r3, [r5, #0]
 2186 11d0 FEFFFFEB 		bl	uart1_transmit
 2187 11d4 0100D6E5 		ldrb	r0, [r6, #1]	@ zero_extendqisi2
 2188 11d8 0030D4E5 		ldrb	r3, [r4, #0]	@ zero_extendqisi2
 2189 11dc 033080E0 		add	r3, r0, r3
 2190 11e0 0030C4E5 		strb	r3, [r4, #0]
 2191 11e4 0030D5E5 		ldrb	r3, [r5, #0]	@ zero_extendqisi2
 2192 11e8 0020D4E5 		ldrb	r2, [r4, #0]	@ zero_extendqisi2
 2193 11ec 023083E0 		add	r3, r3, r2
 2194 11f0 0030C5E5 		strb	r3, [r5, #0]
 2195 11f4 FEFFFFEB 		bl	uart1_transmit
 2196 11f8 0200D6E5 		ldrb	r0, [r6, #2]	@ zero_extendqisi2
 2197 11fc 0030D4E5 		ldrb	r3, [r4, #0]	@ zero_extendqisi2
 2198 1200 033080E0 		add	r3, r0, r3
 2199 1204 0030C4E5 		strb	r3, [r4, #0]
 2200 1208 0030D5E5 		ldrb	r3, [r5, #0]	@ zero_extendqisi2
 2201 120c 0020D4E5 		ldrb	r2, [r4, #0]	@ zero_extendqisi2
 2202 1210 023083E0 		add	r3, r3, r2
 2203 1214 0030C5E5 		strb	r3, [r5, #0]
 2204 1218 FEFFFFEB 		bl	uart1_transmit
 2205 121c 0300D6E5 		ldrb	r0, [r6, #3]	@ zero_extendqisi2
 2206 1220 0030D4E5 		ldrb	r3, [r4, #0]	@ zero_extendqisi2
 2207 1224 033080E0 		add	r3, r0, r3
 2208 1228 0030C4E5 		strb	r3, [r4, #0]
 2209 122c 0030D5E5 		ldrb	r3, [r5, #0]	@ zero_extendqisi2
 2210 1230 0020D4E5 		ldrb	r2, [r4, #0]	@ zero_extendqisi2
 2211 1234 B8671FE5 		ldr	r6, .L355+180
 2212 1238 023083E0 		add	r3, r3, r2
 2213 123c 0030C5E5 		strb	r3, [r5, #0]
 2214 1240 FEFFFFEB 		bl	uart1_transmit
 2215 1244 0000D6E5 		ldrb	r0, [r6, #0]	@ zero_extendqisi2
 2216 1248 0030D4E5 		ldrb	r3, [r4, #0]	@ zero_extendqisi2
 2217 124c 033080E0 		add	r3, r0, r3
 2218 1250 0030C4E5 		strb	r3, [r4, #0]
 2219 1254 0030D5E5 		ldrb	r3, [r5, #0]	@ zero_extendqisi2
 2220 1258 0020D4E5 		ldrb	r2, [r4, #0]	@ zero_extendqisi2
 2221 125c 023083E0 		add	r3, r3, r2
 2222 1260 0030C5E5 		strb	r3, [r5, #0]
 2223 1264 FEFFFFEB 		bl	uart1_transmit
 2224 1268 0100D6E5 		ldrb	r0, [r6, #1]	@ zero_extendqisi2
 2225 126c 0030D4E5 		ldrb	r3, [r4, #0]	@ zero_extendqisi2
 2226 1270 033080E0 		add	r3, r0, r3
 2227 1274 0030C4E5 		strb	r3, [r4, #0]
 2228 1278 0030D5E5 		ldrb	r3, [r5, #0]	@ zero_extendqisi2
 2229 127c 0020D4E5 		ldrb	r2, [r4, #0]	@ zero_extendqisi2
 2230 1280 023083E0 		add	r3, r3, r2
 2231 1284 0030C5E5 		strb	r3, [r5, #0]
 2232 1288 FEFFFFEB 		bl	uart1_transmit
 2233 128c 0200D6E5 		ldrb	r0, [r6, #2]	@ zero_extendqisi2
 2234 1290 0030D4E5 		ldrb	r3, [r4, #0]	@ zero_extendqisi2
 2235 1294 033080E0 		add	r3, r0, r3
 2236 1298 0030C4E5 		strb	r3, [r4, #0]
 2237 129c 0030D5E5 		ldrb	r3, [r5, #0]	@ zero_extendqisi2
 2238 12a0 0020D4E5 		ldrb	r2, [r4, #0]	@ zero_extendqisi2
 2239 12a4 023083E0 		add	r3, r3, r2
 2240 12a8 0030C5E5 		strb	r3, [r5, #0]
 2241 12ac FEFFFFEB 		bl	uart1_transmit
 2242 12b0 0300D6E5 		ldrb	r0, [r6, #3]	@ zero_extendqisi2
 2243 12b4 0030D4E5 		ldrb	r3, [r4, #0]	@ zero_extendqisi2
 2244 12b8 033080E0 		add	r3, r0, r3
 2245 12bc 0030C4E5 		strb	r3, [r4, #0]
 2246 12c0 0030D5E5 		ldrb	r3, [r5, #0]	@ zero_extendqisi2
 2247 12c4 0020D4E5 		ldrb	r2, [r4, #0]	@ zero_extendqisi2
 2248 12c8 48681FE5 		ldr	r6, .L355+184
 2249 12cc 023083E0 		add	r3, r3, r2
 2250 12d0 0030C5E5 		strb	r3, [r5, #0]
 2251 12d4 FEFFFFEB 		bl	uart1_transmit
 2252 12d8 0000D6E5 		ldrb	r0, [r6, #0]	@ zero_extendqisi2
 2253 12dc 0030D4E5 		ldrb	r3, [r4, #0]	@ zero_extendqisi2
 2254 12e0 033080E0 		add	r3, r0, r3
 2255 12e4 0030C4E5 		strb	r3, [r4, #0]
 2256 12e8 0030D5E5 		ldrb	r3, [r5, #0]	@ zero_extendqisi2
 2257 12ec 0020D4E5 		ldrb	r2, [r4, #0]	@ zero_extendqisi2
 2258 12f0 023083E0 		add	r3, r3, r2
 2259 12f4 0030C5E5 		strb	r3, [r5, #0]
 2260 12f8 FEFFFFEB 		bl	uart1_transmit
 2261 12fc 0100D6E5 		ldrb	r0, [r6, #1]	@ zero_extendqisi2
 2262 1300 0030D4E5 		ldrb	r3, [r4, #0]	@ zero_extendqisi2
 2263 1304 033080E0 		add	r3, r0, r3
 2264 1308 0030C4E5 		strb	r3, [r4, #0]
 2265 130c 0030D5E5 		ldrb	r3, [r5, #0]	@ zero_extendqisi2
 2266 1310 0020D4E5 		ldrb	r2, [r4, #0]	@ zero_extendqisi2
 2267 1314 023083E0 		add	r3, r3, r2
 2268 1318 0030C5E5 		strb	r3, [r5, #0]
 2269 131c FEFFFFEB 		bl	uart1_transmit
 2270 1320 0200D6E5 		ldrb	r0, [r6, #2]	@ zero_extendqisi2
 2271 1324 0030D4E5 		ldrb	r3, [r4, #0]	@ zero_extendqisi2
 2272 1328 033080E0 		add	r3, r0, r3
 2273 132c 0030C4E5 		strb	r3, [r4, #0]
 2274 1330 0030D5E5 		ldrb	r3, [r5, #0]	@ zero_extendqisi2
 2275 1334 0020D4E5 		ldrb	r2, [r4, #0]	@ zero_extendqisi2
 2276 1338 023083E0 		add	r3, r3, r2
 2277 133c 0030C5E5 		strb	r3, [r5, #0]
 2278 1340 FEFFFFEB 		bl	uart1_transmit
 2279 1344 0300D6E5 		ldrb	r0, [r6, #3]	@ zero_extendqisi2
 2280 1348 0030D4E5 		ldrb	r3, [r4, #0]	@ zero_extendqisi2
 2281 134c 033080E0 		add	r3, r0, r3
 2282 1350 0030C4E5 		strb	r3, [r4, #0]
 2283 1354 0030D5E5 		ldrb	r3, [r5, #0]	@ zero_extendqisi2
 2284 1358 0020D4E5 		ldrb	r2, [r4, #0]	@ zero_extendqisi2
 2285 135c D8681FE5 		ldr	r6, .L355+188
 2286 1360 023083E0 		add	r3, r3, r2
 2287 1364 0030C5E5 		strb	r3, [r5, #0]
 2288 1368 FEFFFFEB 		bl	uart1_transmit
 2289 136c 0000D6E5 		ldrb	r0, [r6, #0]	@ zero_extendqisi2
 2290 1370 0030D4E5 		ldrb	r3, [r4, #0]	@ zero_extendqisi2
 2291 1374 033080E0 		add	r3, r0, r3
 2292 1378 0030C4E5 		strb	r3, [r4, #0]
 2293 137c 0030D5E5 		ldrb	r3, [r5, #0]	@ zero_extendqisi2
 2294 1380 0020D4E5 		ldrb	r2, [r4, #0]	@ zero_extendqisi2
 2295 1384 023083E0 		add	r3, r3, r2
 2296 1388 0030C5E5 		strb	r3, [r5, #0]
 2297 138c FEFFFFEB 		bl	uart1_transmit
 2298 1390 0100D6E5 		ldrb	r0, [r6, #1]	@ zero_extendqisi2
 2299 1394 0030D4E5 		ldrb	r3, [r4, #0]	@ zero_extendqisi2
 2300 1398 033080E0 		add	r3, r0, r3
 2301 139c 0030C4E5 		strb	r3, [r4, #0]
 2302 13a0 0030D5E5 		ldrb	r3, [r5, #0]	@ zero_extendqisi2
 2303 13a4 0020D4E5 		ldrb	r2, [r4, #0]	@ zero_extendqisi2
 2304 13a8 023083E0 		add	r3, r3, r2
 2305 13ac 0030C5E5 		strb	r3, [r5, #0]
 2306 13b0 FEFFFFEB 		bl	uart1_transmit
 2307 13b4 0200D6E5 		ldrb	r0, [r6, #2]	@ zero_extendqisi2
 2308 13b8 0030D4E5 		ldrb	r3, [r4, #0]	@ zero_extendqisi2
 2309 13bc 033080E0 		add	r3, r0, r3
 2310 13c0 0030C4E5 		strb	r3, [r4, #0]
 2311 13c4 0030D5E5 		ldrb	r3, [r5, #0]	@ zero_extendqisi2
 2312 13c8 0020D4E5 		ldrb	r2, [r4, #0]	@ zero_extendqisi2
 2313 13cc 023083E0 		add	r3, r3, r2
 2314 13d0 0030C5E5 		strb	r3, [r5, #0]
 2315 13d4 FEFFFFEB 		bl	uart1_transmit
 2316 13d8 0300D6E5 		ldrb	r0, [r6, #3]	@ zero_extendqisi2
 2317 13dc 0030D4E5 		ldrb	r3, [r4, #0]	@ zero_extendqisi2
 2318 13e0 033080E0 		add	r3, r0, r3
 2319 13e4 0030C4E5 		strb	r3, [r4, #0]
 2320 13e8 0030D5E5 		ldrb	r3, [r5, #0]	@ zero_extendqisi2
 2321 13ec 0020D4E5 		ldrb	r2, [r4, #0]	@ zero_extendqisi2
 2322 13f0 68691FE5 		ldr	r6, .L355+192
 2323 13f4 023083E0 		add	r3, r3, r2
 2324 13f8 0030C5E5 		strb	r3, [r5, #0]
 2325 13fc FEFFFFEB 		bl	uart1_transmit
 2326 1400 0000D6E5 		ldrb	r0, [r6, #0]	@ zero_extendqisi2
 2327 1404 0030D4E5 		ldrb	r3, [r4, #0]	@ zero_extendqisi2
 2328 1408 033080E0 		add	r3, r0, r3
 2329 140c 0030C4E5 		strb	r3, [r4, #0]
 2330 1410 0030D5E5 		ldrb	r3, [r5, #0]	@ zero_extendqisi2
 2331 1414 0020D4E5 		ldrb	r2, [r4, #0]	@ zero_extendqisi2
 2332 1418 023083E0 		add	r3, r3, r2
 2333 141c 0030C5E5 		strb	r3, [r5, #0]
 2334 1420 FEFFFFEB 		bl	uart1_transmit
 2335 1424 0100D6E5 		ldrb	r0, [r6, #1]	@ zero_extendqisi2
 2336 1428 0030D4E5 		ldrb	r3, [r4, #0]	@ zero_extendqisi2
 2337 142c 033080E0 		add	r3, r0, r3
 2338 1430 0030C4E5 		strb	r3, [r4, #0]
 2339 1434 0030D5E5 		ldrb	r3, [r5, #0]	@ zero_extendqisi2
 2340 1438 0020D4E5 		ldrb	r2, [r4, #0]	@ zero_extendqisi2
 2341 143c 023083E0 		add	r3, r3, r2
 2342 1440 0030C5E5 		strb	r3, [r5, #0]
 2343 1444 FEFFFFEB 		bl	uart1_transmit
 2344 1448 0200D6E5 		ldrb	r0, [r6, #2]	@ zero_extendqisi2
 2345 144c 0030D4E5 		ldrb	r3, [r4, #0]	@ zero_extendqisi2
 2346 1450 033080E0 		add	r3, r0, r3
 2347 1454 0030C4E5 		strb	r3, [r4, #0]
 2348 1458 0030D5E5 		ldrb	r3, [r5, #0]	@ zero_extendqisi2
 2349 145c 0020D4E5 		ldrb	r2, [r4, #0]	@ zero_extendqisi2
 2350 1460 023083E0 		add	r3, r3, r2
 2351 1464 0030C5E5 		strb	r3, [r5, #0]
 2352 1468 FEFFFFEB 		bl	uart1_transmit
 2353 146c 0300D6E5 		ldrb	r0, [r6, #3]	@ zero_extendqisi2
 2354 1470 0030D4E5 		ldrb	r3, [r4, #0]	@ zero_extendqisi2
 2355 1474 033080E0 		add	r3, r0, r3
 2356 1478 0030C4E5 		strb	r3, [r4, #0]
 2357 147c F0691FE5 		ldr	r6, .L355+196
 2358 1480 0030D5E5 		ldrb	r3, [r5, #0]	@ zero_extendqisi2
 2359 1484 0020D4E5 		ldrb	r2, [r4, #0]	@ zero_extendqisi2
 2360              	.L331:
 2361 1488 023083E0 		add	r3, r3, r2
 2362 148c 0030C5E5 		strb	r3, [r5, #0]
 2363 1490 FEFFFFEB 		bl	uart1_transmit
 2364 1494 0000D6E5 		ldrb	r0, [r6, #0]	@ zero_extendqisi2
 2365 1498 0030D4E5 		ldrb	r3, [r4, #0]	@ zero_extendqisi2
 2366 149c 033080E0 		add	r3, r0, r3
 2367 14a0 0030C4E5 		strb	r3, [r4, #0]
 2368 14a4 0030D5E5 		ldrb	r3, [r5, #0]	@ zero_extendqisi2
 2369 14a8 0020D4E5 		ldrb	r2, [r4, #0]	@ zero_extendqisi2
 2370 14ac 023083E0 		add	r3, r3, r2
 2371 14b0 0030C5E5 		strb	r3, [r5, #0]
 2372 14b4 FEFFFFEB 		bl	uart1_transmit
 2373 14b8 0100D6E5 		ldrb	r0, [r6, #1]	@ zero_extendqisi2
 2374 14bc 0030D4E5 		ldrb	r3, [r4, #0]	@ zero_extendqisi2
 2375 14c0 033080E0 		add	r3, r0, r3
 2376 14c4 0030C4E5 		strb	r3, [r4, #0]
 2377 14c8 0030D5E5 		ldrb	r3, [r5, #0]	@ zero_extendqisi2
 2378 14cc 0020D4E5 		ldrb	r2, [r4, #0]	@ zero_extendqisi2
 2379 14d0 023083E0 		add	r3, r3, r2
 2380 14d4 0030C5E5 		strb	r3, [r5, #0]
 2381 14d8 FEFFFFEB 		bl	uart1_transmit
 2382 14dc 0200D6E5 		ldrb	r0, [r6, #2]	@ zero_extendqisi2
 2383 14e0 0030D4E5 		ldrb	r3, [r4, #0]	@ zero_extendqisi2
 2384 14e4 033080E0 		add	r3, r0, r3
 2385 14e8 0030C4E5 		strb	r3, [r4, #0]
 2386 14ec 0030D5E5 		ldrb	r3, [r5, #0]	@ zero_extendqisi2
 2387 14f0 0020D4E5 		ldrb	r2, [r4, #0]	@ zero_extendqisi2
 2388 14f4 023083E0 		add	r3, r3, r2
 2389 14f8 0030C5E5 		strb	r3, [r5, #0]
 2390 14fc FEFFFFEB 		bl	uart1_transmit
 2391 1500 0300D6E5 		ldrb	r0, [r6, #3]	@ zero_extendqisi2
 2392 1504 0030D4E5 		ldrb	r3, [r4, #0]	@ zero_extendqisi2
 2393 1508 033080E0 		add	r3, r0, r3
 2394 150c 0030C4E5 		strb	r3, [r4, #0]
 2395 1510 0030D5E5 		ldrb	r3, [r5, #0]	@ zero_extendqisi2
 2396 1514 0020D4E5 		ldrb	r2, [r4, #0]	@ zero_extendqisi2
 2397 1518 023083E0 		add	r3, r3, r2
 2398 151c 0030C5E5 		strb	r3, [r5, #0]
 2399 1520 FEFFFFEB 		bl	uart1_transmit
 2400 1524 0000D4E5 		ldrb	r0, [r4, #0]	@ zero_extendqisi2
 2401 1528 FEFFFFEB 		bl	uart1_transmit
 2402 152c 0000D5E5 		ldrb	r0, [r5, #0]	@ zero_extendqisi2
 2403 1530 FEFFFFEB 		bl	uart1_transmit
 2404 1534 500500EA 		b	.L90
 2405              	.L92:
 2406 1538 742A1FE5 		ldr	r2, .L355+252
 2407 153c 0030D2E5 		ldrb	r3, [r2, #0]	@ zero_extendqisi2
 2408 1540 013083E2 		add	r3, r3, #1
 2409 1544 0030C2E5 		strb	r3, [r2, #0]
 2410              	.L90:
 2411 1548 B80A1FE5 		ldr	r0, .L355+200
 2412 154c 0030D0E5 		ldrb	r3, [r0, #0]	@ zero_extendqisi2
 2413 1550 3C0053E3 		cmp	r3, #60
 2414 1554 F805001A 		bne	.L94
 2415 1558 C43A1FE5 		ldr	r3, .L355+204
 2416 155c 0020A0E3 		mov	r2, #0	@ movhi
 2417 1560 000093E5 		ldr	r0, [r3, #0]	@ float
 2418 1564 BC224BE1 		strh	r2, [fp, #-44]	@ movhi 
 2419 1568 FEFFFFEB 		bl	__fixsfsi
 2420 156c BE024BE1 		strh	r0, [fp, #-46]	@ movhi 
 2421 1570 1400A0E3 		mov	r0, #20
 2422 1574 FEFFFFEB 		bl	uart1_check_free_space
 2423 1578 FF0010E3 		tst	r0, #255
 2424 157c 7D06000A 		beq	.L99
 2425 1580 B01A1FE5 		ldr	r1, .L355+264
 2426 1584 B0CA1FE5 		ldr	ip, .L355+268
 2427 1588 B030D1E1 		ldrh	r3, [r1, #0]
 2428 158c B020DCE1 		ldrh	r2, [ip, #0]
 2429 1590 143083E2 		add	r3, r3, #20
 2430 1594 012082E2 		add	r2, r2, #1
 2431 1598 B030C1E1 		strh	r3, [r1, #0]	@ movhi 
 2432 159c B020CCE1 		strh	r2, [ip, #0]	@ movhi 
 2433 15a0 9900A0E3 		mov	r0, #153
 2434 15a4 CC4A1FE5 		ldr	r4, .L355+272
 2435 15a8 FEFFFFEB 		bl	uart1_transmit
 2436 15ac 1400A0E3 		mov	r0, #20
 2437 15b0 D45A1FE5 		ldr	r5, .L355+276
 2438 15b4 FEFFFFEB 		bl	uart1_transmit
 2439 15b8 2630A0E3 		mov	r3, #38
 2440 15bc 0030C4E5 		strb	r3, [r4, #0]
 2441 15c0 143083E2 		add	r3, r3, #20
 2442 15c4 1200A0E3 		mov	r0, #18
 2443 15c8 0030C5E5 		strb	r3, [r5, #0]
 2444 15cc FEFFFFEB 		bl	uart1_transmit
 2445 15d0 0030D4E5 		ldrb	r3, [r4, #0]	@ zero_extendqisi2
 2446 15d4 0C3083E2 		add	r3, r3, #12
 2447 15d8 0030C4E5 		strb	r3, [r4, #0]
 2448 15dc 0030D5E5 		ldrb	r3, [r5, #0]	@ zero_extendqisi2
 2449 15e0 0020D4E5 		ldrb	r2, [r4, #0]	@ zero_extendqisi2
 2450 15e4 4C6B1FE5 		ldr	r6, .L355+208
 2451 15e8 023083E0 		add	r3, r3, r2
 2452 15ec 0C00A0E3 		mov	r0, #12
 2453 15f0 0030C5E5 		strb	r3, [r5, #0]
 2454 15f4 FEFFFFEB 		bl	uart1_transmit
 2455 15f8 0000D6E5 		ldrb	r0, [r6, #0]	@ zero_extendqisi2
 2456 15fc 0030D4E5 		ldrb	r3, [r4, #0]	@ zero_extendqisi2
 2457 1600 033080E0 		add	r3, r0, r3
 2458 1604 0030C4E5 		strb	r3, [r4, #0]
 2459 1608 0030D5E5 		ldrb	r3, [r5, #0]	@ zero_extendqisi2
 2460 160c 0020D4E5 		ldrb	r2, [r4, #0]	@ zero_extendqisi2
 2461 1610 023083E0 		add	r3, r3, r2
 2462 1614 0030C5E5 		strb	r3, [r5, #0]
 2463 1618 FEFFFFEB 		bl	uart1_transmit
 2464 161c 0100D6E5 		ldrb	r0, [r6, #1]	@ zero_extendqisi2
 2465 1620 0030D4E5 		ldrb	r3, [r4, #0]	@ zero_extendqisi2
 2466 1624 033080E0 		add	r3, r0, r3
 2467 1628 0030C4E5 		strb	r3, [r4, #0]
 2468 162c 0030D5E5 		ldrb	r3, [r5, #0]	@ zero_extendqisi2
 2469 1630 0020D4E5 		ldrb	r2, [r4, #0]	@ zero_extendqisi2
 2470 1634 023083E0 		add	r3, r3, r2
 2471 1638 0030C5E5 		strb	r3, [r5, #0]
 2472 163c FEFFFFEB 		bl	uart1_transmit
 2473 1640 A43B1FE5 		ldr	r3, .L355+212
 2474 1644 0000D3E5 		ldrb	r0, [r3, #0]	@ zero_extendqisi2
 2475 1648 0030D4E5 		ldrb	r3, [r4, #0]	@ zero_extendqisi2
 2476 164c 033080E0 		add	r3, r0, r3
 2477 1650 0030C4E5 		strb	r3, [r4, #0]
 2478 1654 0030D5E5 		ldrb	r3, [r5, #0]	@ zero_extendqisi2
 2479 1658 0020D4E5 		ldrb	r2, [r4, #0]	@ zero_extendqisi2
 2480 165c 023083E0 		add	r3, r3, r2
 2481 1660 0030C5E5 		strb	r3, [r5, #0]
 2482 1664 FEFFFFEB 		bl	uart1_transmit
 2483 1668 2C005BE5 		ldrb	r0, [fp, #-44]	@ zero_extendqisi2
 2484 166c 0030D4E5 		ldrb	r3, [r4, #0]	@ zero_extendqisi2
 2485 1670 033080E0 		add	r3, r0, r3
 2486 1674 0030C4E5 		strb	r3, [r4, #0]
 2487 1678 0030D5E5 		ldrb	r3, [r5, #0]	@ zero_extendqisi2
 2488 167c 0020D4E5 		ldrb	r2, [r4, #0]	@ zero_extendqisi2
 2489 1680 023083E0 		add	r3, r3, r2
 2490 1684 0030C5E5 		strb	r3, [r5, #0]
 2491 1688 FEFFFFEB 		bl	uart1_transmit
 2492 168c 2B005BE5 		ldrb	r0, [fp, #-43]	@ zero_extendqisi2
 2493 1690 0030D4E5 		ldrb	r3, [r4, #0]	@ zero_extendqisi2
 2494 1694 033080E0 		add	r3, r0, r3
 2495 1698 0030C4E5 		strb	r3, [r4, #0]
 2496 169c 0030D5E5 		ldrb	r3, [r5, #0]	@ zero_extendqisi2
 2497 16a0 0020D4E5 		ldrb	r2, [r4, #0]	@ zero_extendqisi2
 2498 16a4 046C1FE5 		ldr	r6, .L355+216
 2499 16a8 023083E0 		add	r3, r3, r2
 2500 16ac 0030C5E5 		strb	r3, [r5, #0]
 2501 16b0 FEFFFFEB 		bl	uart1_transmit
 2502 16b4 0000D6E5 		ldrb	r0, [r6, #0]	@ zero_extendqisi2
 2503 16b8 0030D4E5 		ldrb	r3, [r4, #0]	@ zero_extendqisi2
 2504 16bc 033080E0 		add	r3, r0, r3
 2505 16c0 0030C4E5 		strb	r3, [r4, #0]
 2506 16c4 0030D5E5 		ldrb	r3, [r5, #0]	@ zero_extendqisi2
 2507 16c8 0020D4E5 		ldrb	r2, [r4, #0]	@ zero_extendqisi2
 2508 16cc 023083E0 		add	r3, r3, r2
 2509 16d0 0030C5E5 		strb	r3, [r5, #0]
 2510 16d4 FEFFFFEB 		bl	uart1_transmit
 2511 16d8 0100D6E5 		ldrb	r0, [r6, #1]	@ zero_extendqisi2
 2512 16dc 0030D4E5 		ldrb	r3, [r4, #0]	@ zero_extendqisi2
 2513 16e0 033080E0 		add	r3, r0, r3
 2514 16e4 0030C4E5 		strb	r3, [r4, #0]
 2515 16e8 0030D5E5 		ldrb	r3, [r5, #0]	@ zero_extendqisi2
 2516 16ec 0020D4E5 		ldrb	r2, [r4, #0]	@ zero_extendqisi2
 2517 16f0 023083E0 		add	r3, r3, r2
 2518 16f4 0030C5E5 		strb	r3, [r5, #0]
 2519 16f8 FEFFFFEB 		bl	uart1_transmit
 2520 16fc 583C1FE5 		ldr	r3, .L355+220
 2521 1700 0000D3E5 		ldrb	r0, [r3, #0]	@ zero_extendqisi2
 2522 1704 0030D4E5 		ldrb	r3, [r4, #0]	@ zero_extendqisi2
 2523 1708 033080E0 		add	r3, r0, r3
 2524 170c 0030C4E5 		strb	r3, [r4, #0]
 2525 1710 0030D5E5 		ldrb	r3, [r5, #0]	@ zero_extendqisi2
 2526 1714 0020D4E5 		ldrb	r2, [r4, #0]	@ zero_extendqisi2
 2527 1718 706C1FE5 		ldr	r6, .L355+224
 2528 171c 023083E0 		add	r3, r3, r2
 2529 1720 0030C5E5 		strb	r3, [r5, #0]
 2530 1724 FEFFFFEB 		bl	uart1_transmit
 2531 1728 0000D6E5 		ldrb	r0, [r6, #0]	@ zero_extendqisi2
 2532 172c 0030D4E5 		ldrb	r3, [r4, #0]	@ zero_extendqisi2
 2533 1730 033080E0 		add	r3, r0, r3
 2534 1734 0030C4E5 		strb	r3, [r4, #0]
 2535 1738 0030D5E5 		ldrb	r3, [r5, #0]	@ zero_extendqisi2
 2536 173c 0020D4E5 		ldrb	r2, [r4, #0]	@ zero_extendqisi2
 2537 1740 023083E0 		add	r3, r3, r2
 2538 1744 0030C5E5 		strb	r3, [r5, #0]
 2539 1748 FEFFFFEB 		bl	uart1_transmit
 2540 174c 0100D6E5 		ldrb	r0, [r6, #1]	@ zero_extendqisi2
 2541 1750 0030D4E5 		ldrb	r3, [r4, #0]	@ zero_extendqisi2
 2542 1754 033080E0 		add	r3, r0, r3
 2543 1758 0030C4E5 		strb	r3, [r4, #0]
 2544 175c 0030D5E5 		ldrb	r3, [r5, #0]	@ zero_extendqisi2
 2545 1760 0020D4E5 		ldrb	r2, [r4, #0]	@ zero_extendqisi2
 2546 1764 B06C1FE5 		ldr	r6, .L355+236
 2547 1768 023083E0 		add	r3, r3, r2
 2548 176c 0030C5E5 		strb	r3, [r5, #0]
 2549 1770 FEFFFFEB 		bl	uart1_transmit
 2550 1774 0000D6E5 		ldrb	r0, [r6, #0]	@ zero_extendqisi2
 2551 1778 0030D4E5 		ldrb	r3, [r4, #0]	@ zero_extendqisi2
 2552 177c 033080E0 		add	r3, r0, r3
 2553 1780 0030C4E5 		strb	r3, [r4, #0]
 2554 1784 0030D5E5 		ldrb	r3, [r5, #0]	@ zero_extendqisi2
 2555 1788 0020D4E5 		ldrb	r2, [r4, #0]	@ zero_extendqisi2
 2556 178c 023083E0 		add	r3, r3, r2
 2557 1790 0030C5E5 		strb	r3, [r5, #0]
 2558 1794 FEFFFFEB 		bl	uart1_transmit
 2559 1798 0100D6E5 		ldrb	r0, [r6, #1]	@ zero_extendqisi2
 2560 179c 0030D4E5 		ldrb	r3, [r4, #0]	@ zero_extendqisi2
 2561 17a0 033080E0 		add	r3, r0, r3
 2562 17a4 0030C4E5 		strb	r3, [r4, #0]
 2563 17a8 0030D5E5 		ldrb	r3, [r5, #0]	@ zero_extendqisi2
 2564 17ac 0020D4E5 		ldrb	r2, [r4, #0]	@ zero_extendqisi2
 2565 17b0 023083E0 		add	r3, r3, r2
 2566 17b4 0030C5E5 		strb	r3, [r5, #0]
 2567 17b8 FEFFFFEB 		bl	uart1_transmit
 2568 17bc 2E005BE5 		ldrb	r0, [fp, #-46]	@ zero_extendqisi2
 2569 17c0 0030D4E5 		ldrb	r3, [r4, #0]	@ zero_extendqisi2
 2570 17c4 033080E0 		add	r3, r0, r3
 2571 17c8 0030C4E5 		strb	r3, [r4, #0]
 2572 17cc 0030D5E5 		ldrb	r3, [r5, #0]	@ zero_extendqisi2
 2573 17d0 0020D4E5 		ldrb	r2, [r4, #0]	@ zero_extendqisi2
 2574 17d4 023083E0 		add	r3, r3, r2
 2575 17d8 0030C5E5 		strb	r3, [r5, #0]
 2576 17dc FEFFFFEB 		bl	uart1_transmit
 2577 17e0 2D005BE5 		ldrb	r0, [fp, #-45]	@ zero_extendqisi2
 2578 17e4 700600EA 		b	.L332
 2579              	.L94:
 2580 17e8 000053E3 		cmp	r3, #0
 2581 17ec 8106001A 		bne	.L97
 2582 17f0 1000A0E3 		mov	r0, #16
 2583 17f4 FEFFFFEB 		bl	uart1_check_free_space
 2584 17f8 FF0010E3 		tst	r0, #255
 2585 17fc 7D06000A 		beq	.L99
 2586 1800 301D1FE5 		ldr	r1, .L355+264
 2587 1804 30CD1FE5 		ldr	ip, .L355+268
 2588 1808 B030D1E1 		ldrh	r3, [r1, #0]
 2589 180c B020DCE1 		ldrh	r2, [ip, #0]
 2590 1810 103083E2 		add	r3, r3, #16
 2591 1814 012082E2 		add	r2, r2, #1
 2592 1818 B030C1E1 		strh	r3, [r1, #0]	@ movhi 
 2593 181c B020CCE1 		strh	r2, [ip, #0]	@ movhi 
 2594 1820 9900A0E3 		mov	r0, #153
 2595 1824 4C4D1FE5 		ldr	r4, .L355+272
 2596 1828 FEFFFFEB 		bl	uart1_transmit
 2597 182c 1000A0E3 		mov	r0, #16
 2598 1830 545D1FE5 		ldr	r5, .L355+276
 2599 1834 FEFFFFEB 		bl	uart1_transmit
 2600 1838 2230A0E3 		mov	r3, #34
 2601 183c 0030C4E5 		strb	r3, [r4, #0]
 2602 1840 103083E2 		add	r3, r3, #16
 2603 1844 1200A0E3 		mov	r0, #18
 2604 1848 0030C5E5 		strb	r3, [r5, #0]
 2605 184c FEFFFFEB 		bl	uart1_transmit
 2606 1850 0030D4E5 		ldrb	r3, [r4, #0]	@ zero_extendqisi2
 2607 1854 243083E2 		add	r3, r3, #36
 2608 1858 0030C4E5 		strb	r3, [r4, #0]
 2609 185c 0030D5E5 		ldrb	r3, [r5, #0]	@ zero_extendqisi2
 2610 1860 0020D4E5 		ldrb	r2, [r4, #0]	@ zero_extendqisi2
 2611 1864 AC6D1FE5 		ldr	r6, .L355+240
 2612 1868 023083E0 		add	r3, r3, r2
 2613 186c 2400A0E3 		mov	r0, #36
 2614 1870 0030C5E5 		strb	r3, [r5, #0]
 2615 1874 FEFFFFEB 		bl	uart1_transmit
 2616 1878 0000D6E5 		ldrb	r0, [r6, #0]	@ zero_extendqisi2
 2617 187c 0030D4E5 		ldrb	r3, [r4, #0]	@ zero_extendqisi2
 2618 1880 033080E0 		add	r3, r0, r3
 2619 1884 0030C4E5 		strb	r3, [r4, #0]
 2620 1888 0030D5E5 		ldrb	r3, [r5, #0]	@ zero_extendqisi2
 2621 188c 0020D4E5 		ldrb	r2, [r4, #0]	@ zero_extendqisi2
 2622 1890 023083E0 		add	r3, r3, r2
 2623 1894 0030C5E5 		strb	r3, [r5, #0]
 2624 1898 FEFFFFEB 		bl	uart1_transmit
 2625 189c 0100D6E5 		ldrb	r0, [r6, #1]	@ zero_extendqisi2
 2626 18a0 0030D4E5 		ldrb	r3, [r4, #0]	@ zero_extendqisi2
 2627 18a4 033080E0 		add	r3, r0, r3
 2628 18a8 0030C4E5 		strb	r3, [r4, #0]
 2629 18ac 0030D5E5 		ldrb	r3, [r5, #0]	@ zero_extendqisi2
 2630 18b0 0020D4E5 		ldrb	r2, [r4, #0]	@ zero_extendqisi2
 2631 18b4 F86D1FE5 		ldr	r6, .L355+244
 2632 18b8 023083E0 		add	r3, r3, r2
 2633 18bc 0030C5E5 		strb	r3, [r5, #0]
 2634 18c0 FEFFFFEB 		bl	uart1_transmit
 2635 18c4 0000D6E5 		ldrb	r0, [r6, #0]	@ zero_extendqisi2
 2636 18c8 0030D4E5 		ldrb	r3, [r4, #0]	@ zero_extendqisi2
 2637 18cc 033080E0 		add	r3, r0, r3
 2638 18d0 0030C4E5 		strb	r3, [r4, #0]
 2639 18d4 0030D5E5 		ldrb	r3, [r5, #0]	@ zero_extendqisi2
 2640 18d8 0020D4E5 		ldrb	r2, [r4, #0]	@ zero_extendqisi2
 2641 18dc 023083E0 		add	r3, r3, r2
 2642 18e0 0030C5E5 		strb	r3, [r5, #0]
 2643 18e4 FEFFFFEB 		bl	uart1_transmit
 2644 18e8 0100D6E5 		ldrb	r0, [r6, #1]	@ zero_extendqisi2
 2645 18ec 0030D4E5 		ldrb	r3, [r4, #0]	@ zero_extendqisi2
 2646 18f0 033080E0 		add	r3, r0, r3
 2647 18f4 0030C4E5 		strb	r3, [r4, #0]
 2648 18f8 0030D5E5 		ldrb	r3, [r5, #0]	@ zero_extendqisi2
 2649 18fc 0020D4E5 		ldrb	r2, [r4, #0]	@ zero_extendqisi2
 2650 1900 023083E0 		add	r3, r3, r2
 2651 1904 0030C5E5 		strb	r3, [r5, #0]
 2652 1908 FEFFFFEB 		bl	uart1_transmit
 2653 190c 0200D6E5 		ldrb	r0, [r6, #2]	@ zero_extendqisi2
 2654 1910 0030D4E5 		ldrb	r3, [r4, #0]	@ zero_extendqisi2
 2655 1914 033080E0 		add	r3, r0, r3
 2656 1918 0030C4E5 		strb	r3, [r4, #0]
 2657 191c 0030D5E5 		ldrb	r3, [r5, #0]	@ zero_extendqisi2
 2658 1920 0020D4E5 		ldrb	r2, [r4, #0]	@ zero_extendqisi2
 2659 1924 023083E0 		add	r3, r3, r2
 2660 1928 0030C5E5 		strb	r3, [r5, #0]
 2661 192c FEFFFFEB 		bl	uart1_transmit
 2662 1930 0300D6E5 		ldrb	r0, [r6, #3]	@ zero_extendqisi2
 2663 1934 0030D4E5 		ldrb	r3, [r4, #0]	@ zero_extendqisi2
 2664 1938 033080E0 		add	r3, r0, r3
 2665 193c 0030C4E5 		strb	r3, [r4, #0]
 2666 1940 0030D5E5 		ldrb	r3, [r5, #0]	@ zero_extendqisi2
 2667 1944 0020D4E5 		ldrb	r2, [r4, #0]	@ zero_extendqisi2
 2668 1948 886E1FE5 		ldr	r6, .L355+248
 2669 194c 023083E0 		add	r3, r3, r2
 2670 1950 0030C5E5 		strb	r3, [r5, #0]
 2671 1954 FEFFFFEB 		bl	uart1_transmit
 2672 1958 0000D6E5 		ldrb	r0, [r6, #0]	@ zero_extendqisi2
 2673 195c 0030D4E5 		ldrb	r3, [r4, #0]	@ zero_extendqisi2
 2674 1960 033080E0 		add	r3, r0, r3
 2675 1964 0030C4E5 		strb	r3, [r4, #0]
 2676 1968 0030D5E5 		ldrb	r3, [r5, #0]	@ zero_extendqisi2
 2677 196c 0020D4E5 		ldrb	r2, [r4, #0]	@ zero_extendqisi2
 2678 1970 023083E0 		add	r3, r3, r2
 2679 1974 0030C5E5 		strb	r3, [r5, #0]
 2680 1978 FEFFFFEB 		bl	uart1_transmit
 2681 197c 0100D6E5 		ldrb	r0, [r6, #1]	@ zero_extendqisi2
 2682 1980 0030D4E5 		ldrb	r3, [r4, #0]	@ zero_extendqisi2
 2683 1984 033080E0 		add	r3, r0, r3
 2684 1988 0030C4E5 		strb	r3, [r4, #0]
 2685 198c 0030D5E5 		ldrb	r3, [r5, #0]	@ zero_extendqisi2
 2686 1990 0020D4E5 		ldrb	r2, [r4, #0]	@ zero_extendqisi2
 2687 1994 023083E0 		add	r3, r3, r2
 2688 1998 0030C5E5 		strb	r3, [r5, #0]
 2689 199c FEFFFFEB 		bl	uart1_transmit
 2690 19a0 0200D6E5 		ldrb	r0, [r6, #2]	@ zero_extendqisi2
 2691 19a4 0030D4E5 		ldrb	r3, [r4, #0]	@ zero_extendqisi2
 2692 19a8 033080E0 		add	r3, r0, r3
 2693 19ac 0030C4E5 		strb	r3, [r4, #0]
 2694 19b0 0030D5E5 		ldrb	r3, [r5, #0]	@ zero_extendqisi2
 2695 19b4 0020D4E5 		ldrb	r2, [r4, #0]	@ zero_extendqisi2
 2696 19b8 023083E0 		add	r3, r3, r2
 2697 19bc 0030C5E5 		strb	r3, [r5, #0]
 2698 19c0 FEFFFFEB 		bl	uart1_transmit
 2699 19c4 0300D6E5 		ldrb	r0, [r6, #3]	@ zero_extendqisi2
 2700              	.L332:
 2701 19c8 0030D4E5 		ldrb	r3, [r4, #0]	@ zero_extendqisi2
 2702 19cc 033080E0 		add	r3, r0, r3
 2703 19d0 0030C4E5 		strb	r3, [r4, #0]
 2704 19d4 0030D5E5 		ldrb	r3, [r5, #0]	@ zero_extendqisi2
 2705 19d8 0020D4E5 		ldrb	r2, [r4, #0]	@ zero_extendqisi2
 2706 19dc 023083E0 		add	r3, r3, r2
 2707 19e0 0030C5E5 		strb	r3, [r5, #0]
 2708 19e4 FEFFFFEB 		bl	uart1_transmit
 2709 19e8 0000D4E5 		ldrb	r0, [r4, #0]	@ zero_extendqisi2
 2710 19ec FEFFFFEB 		bl	uart1_transmit
 2711 19f0 0000D5E5 		ldrb	r0, [r5, #0]	@ zero_extendqisi2
 2712 19f4 FEFFFFEB 		bl	uart1_transmit
 2713 19f8 810600EA 		b	.L97
 2714              	.L99:
 2715 19fc 382F1FE5 		ldr	r2, .L355+252
 2716 1a00 0030D2E5 		ldrb	r3, [r2, #0]	@ zero_extendqisi2
 2717 1a04 013083E2 		add	r3, r3, #1
 2718 1a08 0030C2E5 		strb	r3, [r2, #0]
 2719              	.L97:
 2720 1a0c 440F1FE5 		ldr	r0, .L355+256
 2721 1a10 0030D0E5 		ldrb	r3, [r0, #0]	@ zero_extendqisi2
 2722 1a14 060053E3 		cmp	r3, #6
 2723 1a18 3807001A 		bne	.L101
 2724 1a1c 503F1FE5 		ldr	r3, .L355+260
 2725 1a20 0030D3E5 		ldrb	r3, [r3, #0]	@ zero_extendqisi2
 2726 1a24 000053E3 		cmp	r3, #0
 2727 1a28 BF07000A 		beq	.L105
 2728 1a2c 1600A0E3 		mov	r0, #22
 2729 1a30 FEFFFFEB 		bl	uart1_check_free_space
 2730 1a34 FF0010E3 		tst	r0, #255
 2731 1a38 BB07000A 		beq	.L107
 2732 1a3c 6C1F1FE5 		ldr	r1, .L355+264
 2733 1a40 6CCF1FE5 		ldr	ip, .L355+268
 2734 1a44 B030D1E1 		ldrh	r3, [r1, #0]
 2735 1a48 B020DCE1 		ldrh	r2, [ip, #0]
 2736 1a4c 163083E2 		add	r3, r3, #22
 2737 1a50 012082E2 		add	r2, r2, #1
 2738 1a54 B030C1E1 		strh	r3, [r1, #0]	@ movhi 
 2739 1a58 B020CCE1 		strh	r2, [ip, #0]	@ movhi 
 2740 1a5c 1670A0E3 		mov	r7, #22
 2741 1a60 9900A0E3 		mov	r0, #153
 2742 1a64 8C4F1FE5 		ldr	r4, .L355+272
 2743 1a68 FEFFFFEB 		bl	uart1_transmit
 2744 1a6c 0700A0E1 		mov	r0, r7
 2745 1a70 945F1FE5 		ldr	r5, .L355+276
 2746 1a74 FEFFFFEB 		bl	uart1_transmit
 2747 1a78 2830A0E3 		mov	r3, #40
 2748 1a7c 0030C4E5 		strb	r3, [r4, #0]
 2749 1a80 073083E0 		add	r3, r3, r7
 2750 1a84 1200A0E3 		mov	r0, #18
 2751 1a88 0030C5E5 		strb	r3, [r5, #0]
 2752 1a8c FEFFFFEB 		bl	uart1_transmit
 2753 1a90 0030D4E5 		ldrb	r3, [r4, #0]	@ zero_extendqisi2
 2754 1a94 073083E0 		add	r3, r3, r7
 2755 1a98 0030C4E5 		strb	r3, [r4, #0]
 2756 1a9c 0030D5E5 		ldrb	r3, [r5, #0]	@ zero_extendqisi2
 2757 1aa0 0020D4E5 		ldrb	r2, [r4, #0]	@ zero_extendqisi2
 2758 1aa4 C46F1FE5 		ldr	r6, .L355+280
 2759 1aa8 023083E0 		add	r3, r3, r2
 2760 1aac 0700A0E1 		mov	r0, r7
 2761 1ab0 0030C5E5 		strb	r3, [r5, #0]
 2762 1ab4 FEFFFFEB 		bl	uart1_transmit
 2763 1ab8 0000D6E5 		ldrb	r0, [r6, #0]	@ zero_extendqisi2
 2764 1abc 0030D4E5 		ldrb	r3, [r4, #0]	@ zero_extendqisi2
 2765 1ac0 033080E0 		add	r3, r0, r3
 2766 1ac4 0030C4E5 		strb	r3, [r4, #0]
 2767 1ac8 0030D5E5 		ldrb	r3, [r5, #0]	@ zero_extendqisi2
 2768 1acc 0020D4E5 		ldrb	r2, [r4, #0]	@ zero_extendqisi2
 2769 1ad0 023083E0 		add	r3, r3, r2
 2770 1ad4 0030C5E5 		strb	r3, [r5, #0]
 2771 1ad8 FEFFFFEB 		bl	uart1_transmit
 2772 1adc 0100D6E5 		ldrb	r0, [r6, #1]	@ zero_extendqisi2
 2773 1ae0 0030D4E5 		ldrb	r3, [r4, #0]	@ zero_extendqisi2
 2774 1ae4 033080E0 		add	r3, r0, r3
 2775 1ae8 0030C4E5 		strb	r3, [r4, #0]
 2776 1aec 0030D5E5 		ldrb	r3, [r5, #0]	@ zero_extendqisi2
 2777 1af0 0020D4E5 		ldrb	r2, [r4, #0]	@ zero_extendqisi2
 2778 1af4 023083E0 		add	r3, r3, r2
 2779 1af8 0030C5E5 		strb	r3, [r5, #0]
 2780 1afc FEFFFFEB 		bl	uart1_transmit
 2781 1b00 0200D6E5 		ldrb	r0, [r6, #2]	@ zero_extendqisi2
 2782 1b04 0030D4E5 		ldrb	r3, [r4, #0]	@ zero_extendqisi2
 2783 1b08 033080E0 		add	r3, r0, r3
 2784 1b0c 0030C4E5 		strb	r3, [r4, #0]
 2785 1b10 0030D5E5 		ldrb	r3, [r5, #0]	@ zero_extendqisi2
 2786 1b14 0020D4E5 		ldrb	r2, [r4, #0]	@ zero_extendqisi2
 2787 1b18 023083E0 		add	r3, r3, r2
 2788 1b1c 0030C5E5 		strb	r3, [r5, #0]
 2789 1b20 FEFFFFEB 		bl	uart1_transmit
 2790 1b24 0300D6E5 		ldrb	r0, [r6, #3]	@ zero_extendqisi2
 2791 1b28 0030D4E5 		ldrb	r3, [r4, #0]	@ zero_extendqisi2
 2792 1b2c 033080E0 		add	r3, r0, r3
 2793 1b30 0030C4E5 		strb	r3, [r4, #0]
 2794 1b34 0030D5E5 		ldrb	r3, [r5, #0]	@ zero_extendqisi2
 2795 1b38 0020D4E5 		ldrb	r2, [r4, #0]	@ zero_extendqisi2
 2796 1b3c C06C9FE5 		ldr	r6, .L357
 2797 1b40 023083E0 		add	r3, r3, r2
 2798 1b44 0030C5E5 		strb	r3, [r5, #0]
 2799 1b48 FEFFFFEB 		bl	uart1_transmit
 2800 1b4c 0000D6E5 		ldrb	r0, [r6, #0]	@ zero_extendqisi2
 2801 1b50 0030D4E5 		ldrb	r3, [r4, #0]	@ zero_extendqisi2
 2802 1b54 033080E0 		add	r3, r0, r3
 2803 1b58 0030C4E5 		strb	r3, [r4, #0]
 2804 1b5c 0030D5E5 		ldrb	r3, [r5, #0]	@ zero_extendqisi2
 2805 1b60 0020D4E5 		ldrb	r2, [r4, #0]	@ zero_extendqisi2
 2806 1b64 023083E0 		add	r3, r3, r2
 2807 1b68 0030C5E5 		strb	r3, [r5, #0]
 2808 1b6c FEFFFFEB 		bl	uart1_transmit
 2809 1b70 0100D6E5 		ldrb	r0, [r6, #1]	@ zero_extendqisi2
 2810 1b74 0030D4E5 		ldrb	r3, [r4, #0]	@ zero_extendqisi2
 2811 1b78 033080E0 		add	r3, r0, r3
 2812 1b7c 0030C4E5 		strb	r3, [r4, #0]
 2813 1b80 0030D5E5 		ldrb	r3, [r5, #0]	@ zero_extendqisi2
 2814 1b84 0020D4E5 		ldrb	r2, [r4, #0]	@ zero_extendqisi2
 2815 1b88 023083E0 		add	r3, r3, r2
 2816 1b8c 0030C5E5 		strb	r3, [r5, #0]
 2817 1b90 FEFFFFEB 		bl	uart1_transmit
 2818 1b94 0200D6E5 		ldrb	r0, [r6, #2]	@ zero_extendqisi2
 2819 1b98 0030D4E5 		ldrb	r3, [r4, #0]	@ zero_extendqisi2
 2820 1b9c 033080E0 		add	r3, r0, r3
 2821 1ba0 0030C4E5 		strb	r3, [r4, #0]
 2822 1ba4 0030D5E5 		ldrb	r3, [r5, #0]	@ zero_extendqisi2
 2823 1ba8 0020D4E5 		ldrb	r2, [r4, #0]	@ zero_extendqisi2
 2824 1bac 023083E0 		add	r3, r3, r2
 2825 1bb0 0030C5E5 		strb	r3, [r5, #0]
 2826 1bb4 FEFFFFEB 		bl	uart1_transmit
 2827 1bb8 0300D6E5 		ldrb	r0, [r6, #3]	@ zero_extendqisi2
 2828 1bbc 0030D4E5 		ldrb	r3, [r4, #0]	@ zero_extendqisi2
 2829 1bc0 033080E0 		add	r3, r0, r3
 2830 1bc4 0030C4E5 		strb	r3, [r4, #0]
 2831 1bc8 0030D5E5 		ldrb	r3, [r5, #0]	@ zero_extendqisi2
 2832 1bcc 0020D4E5 		ldrb	r2, [r4, #0]	@ zero_extendqisi2
 2833 1bd0 306C9FE5 		ldr	r6, .L357+4
 2834 1bd4 023083E0 		add	r3, r3, r2
 2835 1bd8 0030C5E5 		strb	r3, [r5, #0]
 2836 1bdc FEFFFFEB 		bl	uart1_transmit
 2837 1be0 0000D6E5 		ldrb	r0, [r6, #0]	@ zero_extendqisi2
 2838 1be4 0030D4E5 		ldrb	r3, [r4, #0]	@ zero_extendqisi2
 2839 1be8 033080E0 		add	r3, r0, r3
 2840 1bec 0030C4E5 		strb	r3, [r4, #0]
 2841 1bf0 0030D5E5 		ldrb	r3, [r5, #0]	@ zero_extendqisi2
 2842 1bf4 0020D4E5 		ldrb	r2, [r4, #0]	@ zero_extendqisi2
 2843 1bf8 023083E0 		add	r3, r3, r2
 2844 1bfc 0030C5E5 		strb	r3, [r5, #0]
 2845 1c00 FEFFFFEB 		bl	uart1_transmit
 2846 1c04 0100D6E5 		ldrb	r0, [r6, #1]	@ zero_extendqisi2
 2847 1c08 0030D4E5 		ldrb	r3, [r4, #0]	@ zero_extendqisi2
 2848 1c0c 033080E0 		add	r3, r0, r3
 2849 1c10 0030C4E5 		strb	r3, [r4, #0]
 2850 1c14 0030D5E5 		ldrb	r3, [r5, #0]	@ zero_extendqisi2
 2851 1c18 0020D4E5 		ldrb	r2, [r4, #0]	@ zero_extendqisi2
 2852 1c1c 023083E0 		add	r3, r3, r2
 2853 1c20 0030C5E5 		strb	r3, [r5, #0]
 2854 1c24 FEFFFFEB 		bl	uart1_transmit
 2855 1c28 0200D6E5 		ldrb	r0, [r6, #2]	@ zero_extendqisi2
 2856 1c2c 0030D4E5 		ldrb	r3, [r4, #0]	@ zero_extendqisi2
 2857 1c30 033080E0 		add	r3, r0, r3
 2858 1c34 0030C4E5 		strb	r3, [r4, #0]
 2859 1c38 0030D5E5 		ldrb	r3, [r5, #0]	@ zero_extendqisi2
 2860 1c3c 0020D4E5 		ldrb	r2, [r4, #0]	@ zero_extendqisi2
 2861 1c40 023083E0 		add	r3, r3, r2
 2862 1c44 0030C5E5 		strb	r3, [r5, #0]
 2863 1c48 FEFFFFEB 		bl	uart1_transmit
 2864 1c4c 0300D6E5 		ldrb	r0, [r6, #3]	@ zero_extendqisi2
 2865 1c50 0030D4E5 		ldrb	r3, [r4, #0]	@ zero_extendqisi2
 2866 1c54 033080E0 		add	r3, r0, r3
 2867 1c58 0030C4E5 		strb	r3, [r4, #0]
 2868 1c5c 0030D5E5 		ldrb	r3, [r5, #0]	@ zero_extendqisi2
 2869 1c60 0020D4E5 		ldrb	r2, [r4, #0]	@ zero_extendqisi2
 2870 1c64 A06B9FE5 		ldr	r6, .L357+8
 2871 1c68 023083E0 		add	r3, r3, r2
 2872 1c6c 0030C5E5 		strb	r3, [r5, #0]
 2873 1c70 FEFFFFEB 		bl	uart1_transmit
 2874 1c74 0000D6E5 		ldrb	r0, [r6, #0]	@ zero_extendqisi2
 2875 1c78 0030D4E5 		ldrb	r3, [r4, #0]	@ zero_extendqisi2
 2876 1c7c 033080E0 		add	r3, r0, r3
 2877 1c80 0030C4E5 		strb	r3, [r4, #0]
 2878 1c84 0030D5E5 		ldrb	r3, [r5, #0]	@ zero_extendqisi2
 2879 1c88 0020D4E5 		ldrb	r2, [r4, #0]	@ zero_extendqisi2
 2880 1c8c 023083E0 		add	r3, r3, r2
 2881 1c90 0030C5E5 		strb	r3, [r5, #0]
 2882 1c94 FEFFFFEB 		bl	uart1_transmit
 2883 1c98 0100D6E5 		ldrb	r0, [r6, #1]	@ zero_extendqisi2
 2884 1c9c 0030D4E5 		ldrb	r3, [r4, #0]	@ zero_extendqisi2
 2885 1ca0 033080E0 		add	r3, r0, r3
 2886 1ca4 0030C4E5 		strb	r3, [r4, #0]
 2887 1ca8 0030D5E5 		ldrb	r3, [r5, #0]	@ zero_extendqisi2
 2888 1cac 0020D4E5 		ldrb	r2, [r4, #0]	@ zero_extendqisi2
 2889 1cb0 023083E0 		add	r3, r3, r2
 2890 1cb4 0030C5E5 		strb	r3, [r5, #0]
 2891 1cb8 FEFFFFEB 		bl	uart1_transmit
 2892 1cbc 0200D6E5 		ldrb	r0, [r6, #2]	@ zero_extendqisi2
 2893 1cc0 0030D4E5 		ldrb	r3, [r4, #0]	@ zero_extendqisi2
 2894 1cc4 033080E0 		add	r3, r0, r3
 2895 1cc8 0030C4E5 		strb	r3, [r4, #0]
 2896 1ccc 0030D5E5 		ldrb	r3, [r5, #0]	@ zero_extendqisi2
 2897 1cd0 0020D4E5 		ldrb	r2, [r4, #0]	@ zero_extendqisi2
 2898 1cd4 023083E0 		add	r3, r3, r2
 2899 1cd8 0030C5E5 		strb	r3, [r5, #0]
 2900 1cdc FEFFFFEB 		bl	uart1_transmit
 2901 1ce0 0300D6E5 		ldrb	r0, [r6, #3]	@ zero_extendqisi2
 2902 1ce4 AE0700EA 		b	.L333
 2903              	.L101:
 2904 1ce8 0C0053E3 		cmp	r3, #12
 2905 1cec BF07001A 		bne	.L105
 2906 1cf0 1000A0E3 		mov	r0, #16
 2907 1cf4 FEFFFFEB 		bl	uart1_check_free_space
 2908 1cf8 FF0010E3 		tst	r0, #255
 2909 1cfc BB07000A 		beq	.L107
 2910 1d00 C41B9FE5 		ldr	r1, .L357+200
 2911 1d04 90CB9FE5 		ldr	ip, .L357+152
 2912 1d08 B030D1E1 		ldrh	r3, [r1, #0]
 2913 1d0c B020DCE1 		ldrh	r2, [ip, #0]
 2914 1d10 103083E2 		add	r3, r3, #16
 2915 1d14 012082E2 		add	r2, r2, #1
 2916 1d18 B030C1E1 		strh	r3, [r1, #0]	@ movhi 
 2917 1d1c B020CCE1 		strh	r2, [ip, #0]	@ movhi 
 2918 1d20 9900A0E3 		mov	r0, #153
 2919 1d24 744B9FE5 		ldr	r4, .L357+156
 2920 1d28 FEFFFFEB 		bl	uart1_transmit
 2921 1d2c 1000A0E3 		mov	r0, #16
 2922 1d30 6C5B9FE5 		ldr	r5, .L357+160
 2923 1d34 FEFFFFEB 		bl	uart1_transmit
 2924 1d38 2230A0E3 		mov	r3, #34
 2925 1d3c 0030C4E5 		strb	r3, [r4, #0]
 2926 1d40 103083E2 		add	r3, r3, #16
 2927 1d44 1200A0E3 		mov	r0, #18
 2928 1d48 0030C5E5 		strb	r3, [r5, #0]
 2929 1d4c FEFFFFEB 		bl	uart1_transmit
 2930 1d50 0030D4E5 		ldrb	r3, [r4, #0]	@ zero_extendqisi2
 2931 1d54 073083E2 		add	r3, r3, #7
 2932 1d58 0030C4E5 		strb	r3, [r4, #0]
 2933 1d5c 0030D5E5 		ldrb	r3, [r5, #0]	@ zero_extendqisi2
 2934 1d60 0020D4E5 		ldrb	r2, [r4, #0]	@ zero_extendqisi2
 2935 1d64 A46A9FE5 		ldr	r6, .L357+12
 2936 1d68 023083E0 		add	r3, r3, r2
 2937 1d6c 0700A0E3 		mov	r0, #7
 2938 1d70 0030C5E5 		strb	r3, [r5, #0]
 2939 1d74 FEFFFFEB 		bl	uart1_transmit
 2940 1d78 0000D6E5 		ldrb	r0, [r6, #0]	@ zero_extendqisi2
 2941 1d7c 0030D4E5 		ldrb	r3, [r4, #0]	@ zero_extendqisi2
 2942 1d80 033080E0 		add	r3, r0, r3
 2943 1d84 0030C4E5 		strb	r3, [r4, #0]
 2944 1d88 0030D5E5 		ldrb	r3, [r5, #0]	@ zero_extendqisi2
 2945 1d8c 0020D4E5 		ldrb	r2, [r4, #0]	@ zero_extendqisi2
 2946 1d90 023083E0 		add	r3, r3, r2
 2947 1d94 0030C5E5 		strb	r3, [r5, #0]
 2948 1d98 FEFFFFEB 		bl	uart1_transmit
 2949 1d9c 0100D6E5 		ldrb	r0, [r6, #1]	@ zero_extendqisi2
 2950 1da0 0030D4E5 		ldrb	r3, [r4, #0]	@ zero_extendqisi2
 2951 1da4 033080E0 		add	r3, r0, r3
 2952 1da8 0030C4E5 		strb	r3, [r4, #0]
 2953 1dac 0030D5E5 		ldrb	r3, [r5, #0]	@ zero_extendqisi2
 2954 1db0 0020D4E5 		ldrb	r2, [r4, #0]	@ zero_extendqisi2
 2955 1db4 023083E0 		add	r3, r3, r2
 2956 1db8 0030C5E5 		strb	r3, [r5, #0]
 2957 1dbc FEFFFFEB 		bl	uart1_transmit
 2958 1dc0 0200D6E5 		ldrb	r0, [r6, #2]	@ zero_extendqisi2
 2959 1dc4 0030D4E5 		ldrb	r3, [r4, #0]	@ zero_extendqisi2
 2960 1dc8 033080E0 		add	r3, r0, r3
 2961 1dcc 0030C4E5 		strb	r3, [r4, #0]
 2962 1dd0 0030D5E5 		ldrb	r3, [r5, #0]	@ zero_extendqisi2
 2963 1dd4 0020D4E5 		ldrb	r2, [r4, #0]	@ zero_extendqisi2
 2964 1dd8 023083E0 		add	r3, r3, r2
 2965 1ddc 0030C5E5 		strb	r3, [r5, #0]
 2966 1de0 FEFFFFEB 		bl	uart1_transmit
 2967 1de4 0300D6E5 		ldrb	r0, [r6, #3]	@ zero_extendqisi2
 2968 1de8 0030D4E5 		ldrb	r3, [r4, #0]	@ zero_extendqisi2
 2969 1dec 033080E0 		add	r3, r0, r3
 2970 1df0 0030C4E5 		strb	r3, [r4, #0]
 2971 1df4 0030D5E5 		ldrb	r3, [r5, #0]	@ zero_extendqisi2
 2972 1df8 0020D4E5 		ldrb	r2, [r4, #0]	@ zero_extendqisi2
 2973 1dfc 023083E0 		add	r3, r3, r2
 2974 1e00 0030C5E5 		strb	r3, [r5, #0]
 2975 1e04 FEFFFFEB 		bl	uart1_transmit
 2976 1e08 1600D6E5 		ldrb	r0, [r6, #22]	@ zero_extendqisi2
 2977 1e0c 0030D4E5 		ldrb	r3, [r4, #0]	@ zero_extendqisi2
 2978 1e10 033080E0 		add	r3, r0, r3
 2979 1e14 0030C4E5 		strb	r3, [r4, #0]
 2980 1e18 0030D5E5 		ldrb	r3, [r5, #0]	@ zero_extendqisi2
 2981 1e1c 0020D4E5 		ldrb	r2, [r4, #0]	@ zero_extendqisi2
 2982 1e20 023083E0 		add	r3, r3, r2
 2983 1e24 0030C5E5 		strb	r3, [r5, #0]
 2984 1e28 FEFFFFEB 		bl	uart1_transmit
 2985 1e2c 1700D6E5 		ldrb	r0, [r6, #23]	@ zero_extendqisi2
 2986 1e30 0030D4E5 		ldrb	r3, [r4, #0]	@ zero_extendqisi2
 2987 1e34 033080E0 		add	r3, r0, r3
 2988 1e38 0030C4E5 		strb	r3, [r4, #0]
 2989 1e3c 0030D5E5 		ldrb	r3, [r5, #0]	@ zero_extendqisi2
 2990 1e40 0020D4E5 		ldrb	r2, [r4, #0]	@ zero_extendqisi2
 2991 1e44 023083E0 		add	r3, r3, r2
 2992 1e48 0030C5E5 		strb	r3, [r5, #0]
 2993 1e4c FEFFFFEB 		bl	uart1_transmit
 2994 1e50 1400D6E5 		ldrb	r0, [r6, #20]	@ zero_extendqisi2
 2995 1e54 0030D4E5 		ldrb	r3, [r4, #0]	@ zero_extendqisi2
 2996 1e58 033080E0 		add	r3, r0, r3
 2997 1e5c 0030C4E5 		strb	r3, [r4, #0]
 2998 1e60 0030D5E5 		ldrb	r3, [r5, #0]	@ zero_extendqisi2
 2999 1e64 0020D4E5 		ldrb	r2, [r4, #0]	@ zero_extendqisi2
 3000 1e68 023083E0 		add	r3, r3, r2
 3001 1e6c 0030C5E5 		strb	r3, [r5, #0]
 3002 1e70 FEFFFFEB 		bl	uart1_transmit
 3003 1e74 1500D6E5 		ldrb	r0, [r6, #21]	@ zero_extendqisi2
 3004 1e78 0030D4E5 		ldrb	r3, [r4, #0]	@ zero_extendqisi2
 3005 1e7c 033080E0 		add	r3, r0, r3
 3006 1e80 0030C4E5 		strb	r3, [r4, #0]
 3007 1e84 0030D5E5 		ldrb	r3, [r5, #0]	@ zero_extendqisi2
 3008 1e88 0020D4E5 		ldrb	r2, [r4, #0]	@ zero_extendqisi2
 3009 1e8c 023083E0 		add	r3, r3, r2
 3010 1e90 0030C5E5 		strb	r3, [r5, #0]
 3011 1e94 FEFFFFEB 		bl	uart1_transmit
 3012 1e98 1800D6E5 		ldrb	r0, [r6, #24]	@ zero_extendqisi2
 3013 1e9c 0030D4E5 		ldrb	r3, [r4, #0]	@ zero_extendqisi2
 3014 1ea0 033080E0 		add	r3, r0, r3
 3015 1ea4 0030C4E5 		strb	r3, [r4, #0]
 3016 1ea8 0030D5E5 		ldrb	r3, [r5, #0]	@ zero_extendqisi2
 3017 1eac 0020D4E5 		ldrb	r2, [r4, #0]	@ zero_extendqisi2
 3018 1eb0 023083E0 		add	r3, r3, r2
 3019 1eb4 0030C5E5 		strb	r3, [r5, #0]
 3020 1eb8 FEFFFFEB 		bl	uart1_transmit
 3021 1ebc 1900D6E5 		ldrb	r0, [r6, #25]	@ zero_extendqisi2
 3022              	.L333:
 3023 1ec0 0030D4E5 		ldrb	r3, [r4, #0]	@ zero_extendqisi2
 3024 1ec4 033080E0 		add	r3, r0, r3
 3025 1ec8 0030C4E5 		strb	r3, [r4, #0]
 3026 1ecc 0030D5E5 		ldrb	r3, [r5, #0]	@ zero_extendqisi2
 3027 1ed0 0020D4E5 		ldrb	r2, [r4, #0]	@ zero_extendqisi2
 3028 1ed4 023083E0 		add	r3, r3, r2
 3029 1ed8 0030C5E5 		strb	r3, [r5, #0]
 3030 1edc FEFFFFEB 		bl	uart1_transmit
 3031 1ee0 0000D4E5 		ldrb	r0, [r4, #0]	@ zero_extendqisi2
 3032 1ee4 FEFFFFEB 		bl	uart1_transmit
 3033 1ee8 0000D5E5 		ldrb	r0, [r5, #0]	@ zero_extendqisi2
 3034 1eec FEFFFFEB 		bl	uart1_transmit
 3035 1ef0 BF0700EA 		b	.L105
 3036              	.L107:
 3037 1ef4 C4299FE5 		ldr	r2, .L357+188
 3038 1ef8 0030D2E5 		ldrb	r3, [r2, #0]	@ zero_extendqisi2
 3039 1efc 013083E2 		add	r3, r3, #1
 3040 1f00 0030C2E5 		strb	r3, [r2, #0]
 3041              	.L105:
 3042 1f04 08299FE5 		ldr	r2, .L357+16
 3043 1f08 0030D2E5 		ldrb	r3, [r2, #0]	@ zero_extendqisi2
 3044 1f0c 120053E3 		cmp	r3, #18
 3045 1f10 5D08001A 		bne	.L109
 3046 1f14 FC689FE5 		ldr	r6, .L357+20
 3047 1f18 0030D6E5 		ldrb	r3, [r6, #0]	@ zero_extendqisi2
 3048 1f1c 0B0053E3 		cmp	r3, #11
 3049 1f20 0030A083 		movhi	r3, #0
 3050 1f24 0030C685 		strhib	r3, [r6, #0]
 3051 1f28 0030D6E5 		ldrb	r3, [r6, #0]	@ zero_extendqisi2
 3052 1f2c 0B0053E3 		cmp	r3, #11
 3053 1f30 03F19F97 		ldrls	pc, [pc, r3, asl #2]
 3054 1f34 010800EA 		b	.L130
 3055              		.p2align 2
 3056              	.L131:
 3057 1f38 681F0000 		.word	.L112
 3058 1f3c 701F0000 		.word	.L113
 3059 1f40 7C1F0000 		.word	.L114
 3060 1f44 841F0000 		.word	.L115
 3061 1f48 8C1F0000 		.word	.L117
 3062 1f4c 941F0000 		.word	.L118
 3063 1f50 9C1F0000 		.word	.L120
 3064 1f54 A41F0000 		.word	.L122
 3065 1f58 AC1F0000 		.word	.L124
 3066 1f5c CC1F0000 		.word	.L126
 3067 1f60 F41F0000 		.word	.L128
 3068 1f64 00200000 		.word	.L129
 3069              	.L112:
 3070 1f68 AC389FE5 		ldr	r3, .L357+24
 3071 1f6c DB0700EA 		b	.L344
 3072              	.L113:
 3073 1f70 A8389FE5 		ldr	r3, .L357+28
 3074              	.L344:
 3075 1f74 003093E5 		ldr	r3, [r3, #0]	@ float
 3076 1f78 020800EA 		b	.L334
 3077              	.L114:
 3078 1f7c A0389FE5 		ldr	r3, .L357+32
 3079 1f80 DB0700EA 		b	.L344
 3080              	.L115:
 3081 1f84 9C389FE5 		ldr	r3, .L357+36
 3082 1f88 F20700EA 		b	.L348
 3083              	.L117:
 3084 1f8c 98389FE5 		ldr	r3, .L357+40
 3085 1f90 DB0700EA 		b	.L344
 3086              	.L118:
 3087 1f94 0C399FE5 		ldr	r3, .L357+164
 3088 1f98 EA0700EA 		b	.L352
 3089              	.L120:
 3090 1f9c 8C389FE5 		ldr	r3, .L357+44
 3091 1fa0 EA0700EA 		b	.L352
 3092              	.L122:
 3093 1fa4 88389FE5 		ldr	r3, .L357+48
 3094 1fa8 EA0700EA 		b	.L352
 3095              	.L124:
 3096 1fac 84389FE5 		ldr	r3, .L357+52
 3097              	.L352:
 3098 1fb0 D040D3E1 		ldrsb	r4, [r3, #0]
 3099 1fb4 0400A0E1 		mov	r0, r4
 3100 1fb8 FEFFFFEB 		bl	__floatsisf
 3101 1fbc 000054E3 		cmp	r4, #0
 3102 1fc0 BC189FB5 		ldrlt	r1, .L357+128
 3103 1fc4 F80700BA 		blt	.L343
 3104 1fc8 F90700EA 		b	.L127
 3105              	.L126:
 3106 1fcc 68389FE5 		ldr	r3, .L357+56
 3107              	.L348:
 3108 1fd0 F040D3E1 		ldrsh	r4, [r3, #0]
 3109 1fd4 0400A0E1 		mov	r0, r4
 3110 1fd8 FEFFFFEB 		bl	__floatsisf
 3111 1fdc 000054E3 		cmp	r4, #0
 3112 1fe0 F90700AA 		bge	.L127
 3113 1fe4 54189FE5 		ldr	r1, .L357+60
 3114              	.L343:
 3115 1fe8 FEFFFFEB 		bl	__addsf3
 3116              	.L127:
 3117 1fec 50000BE5 		str	r0, [fp, #-80]	@ float
 3118 1ff0 030800EA 		b	.L111
 3119              	.L128:
 3120 1ff4 14389FE5 		ldr	r3, .L357+12
 3121 1ff8 083093E5 		ldr	r3, [r3, #8]	@ float
 3122 1ffc 020800EA 		b	.L334
 3123              	.L129:
 3124 2000 08389FE5 		ldr	r3, .L357+12
 3125 2004 0C3093E5 		ldr	r3, [r3, #12]	@ float
 3126 2008 020800EA 		b	.L334
 3127              	.L130:
 3128 200c 0030A0E3 		mov	r3, #0
 3129              	.L334:
 3130 2010 50300BE5 		str	r3, [fp, #-80]	@ float
 3131              	.L111:
 3132 2014 0B00A0E3 		mov	r0, #11
 3133 2018 FEFFFFEB 		bl	uart1_check_free_space
 3134 201c FF0010E3 		tst	r0, #255
 3135 2020 98289F05 		ldreq	r2, .L357+188
 3136 2024 0030D205 		ldreqb	r3, [r2, #0]	@ zero_extendqisi2
 3137 2028 01308302 		addeq	r3, r3, #1
 3138 202c 0030C205 		streqb	r3, [r2, #0]
 3139 2030 5908000A 		beq	.L133
 3140 2034 90189FE5 		ldr	r1, .L357+200
 3141 2038 5CC89FE5 		ldr	ip, .L357+152
 3142 203c B030D1E1 		ldrh	r3, [r1, #0]
 3143 2040 B020DCE1 		ldrh	r2, [ip, #0]
 3144 2044 0B3083E2 		add	r3, r3, #11
 3145 2048 012082E2 		add	r2, r2, #1
 3146 204c B030C1E1 		strh	r3, [r1, #0]	@ movhi 
 3147 2050 B020CCE1 		strh	r2, [ip, #0]	@ movhi 
 3148 2054 9900A0E3 		mov	r0, #153
 3149 2058 40489FE5 		ldr	r4, .L357+156
 3150 205c FEFFFFEB 		bl	uart1_transmit
 3151 2060 0B00A0E3 		mov	r0, #11
 3152 2064 38589FE5 		ldr	r5, .L357+160
 3153 2068 FEFFFFEB 		bl	uart1_transmit
 3154 206c 1D30A0E3 		mov	r3, #29
 3155 2070 0030C4E5 		strb	r3, [r4, #0]
 3156 2074 0B3083E2 		add	r3, r3, #11
 3157 2078 1200A0E3 		mov	r0, #18
 3158 207c 0030C5E5 		strb	r3, [r5, #0]
 3159 2080 FEFFFFEB 		bl	uart1_transmit
 3160 2084 0030D4E5 		ldrb	r3, [r4, #0]	@ zero_extendqisi2
 3161 2088 1F3083E2 		add	r3, r3, #31
 3162 208c 0030C4E5 		strb	r3, [r4, #0]
 3163 2090 0030D5E5 		ldrb	r3, [r5, #0]	@ zero_extendqisi2
 3164 2094 0020D4E5 		ldrb	r2, [r4, #0]	@ zero_extendqisi2
 3165 2098 023083E0 		add	r3, r3, r2
 3166 209c 1F00A0E3 		mov	r0, #31
 3167 20a0 0030C5E5 		strb	r3, [r5, #0]
 3168 20a4 FEFFFFEB 		bl	uart1_transmit
 3169 20a8 0000D6E5 		ldrb	r0, [r6, #0]	@ zero_extendqisi2
 3170 20ac 0030D4E5 		ldrb	r3, [r4, #0]	@ zero_extendqisi2
 3171 20b0 033080E0 		add	r3, r0, r3
 3172 20b4 0030C4E5 		strb	r3, [r4, #0]
 3173 20b8 0030D5E5 		ldrb	r3, [r5, #0]	@ zero_extendqisi2
 3174 20bc 0020D4E5 		ldrb	r2, [r4, #0]	@ zero_extendqisi2
 3175 20c0 023083E0 		add	r3, r3, r2
 3176 20c4 0030C5E5 		strb	r3, [r5, #0]
 3177 20c8 FEFFFFEB 		bl	uart1_transmit
 3178 20cc 50005BE5 		ldrb	r0, [fp, #-80]	@ zero_extendqisi2
 3179 20d0 0030D4E5 		ldrb	r3, [r4, #0]	@ zero_extendqisi2
 3180 20d4 033080E0 		add	r3, r0, r3
 3181 20d8 0030C4E5 		strb	r3, [r4, #0]
 3182 20dc 0030D5E5 		ldrb	r3, [r5, #0]	@ zero_extendqisi2
 3183 20e0 0020D4E5 		ldrb	r2, [r4, #0]	@ zero_extendqisi2
 3184 20e4 023083E0 		add	r3, r3, r2
 3185 20e8 0030C5E5 		strb	r3, [r5, #0]
 3186 20ec FEFFFFEB 		bl	uart1_transmit
 3187 20f0 4F005BE5 		ldrb	r0, [fp, #-79]	@ zero_extendqisi2
 3188 20f4 0030D4E5 		ldrb	r3, [r4, #0]	@ zero_extendqisi2
 3189 20f8 033080E0 		add	r3, r0, r3
 3190 20fc 0030C4E5 		strb	r3, [r4, #0]
 3191 2100 0030D5E5 		ldrb	r3, [r5, #0]	@ zero_extendqisi2
 3192 2104 0020D4E5 		ldrb	r2, [r4, #0]	@ zero_extendqisi2
 3193 2108 023083E0 		add	r3, r3, r2
 3194 210c 0030C5E5 		strb	r3, [r5, #0]
 3195 2110 FEFFFFEB 		bl	uart1_transmit
 3196 2114 4E005BE5 		ldrb	r0, [fp, #-78]	@ zero_extendqisi2
 3197 2118 0030D4E5 		ldrb	r3, [r4, #0]	@ zero_extendqisi2
 3198 211c 033080E0 		add	r3, r0, r3
 3199 2120 0030C4E5 		strb	r3, [r4, #0]
 3200 2124 0030D5E5 		ldrb	r3, [r5, #0]	@ zero_extendqisi2
 3201 2128 0020D4E5 		ldrb	r2, [r4, #0]	@ zero_extendqisi2
 3202 212c 023083E0 		add	r3, r3, r2
 3203 2130 0030C5E5 		strb	r3, [r5, #0]
 3204 2134 FEFFFFEB 		bl	uart1_transmit
 3205 2138 4D005BE5 		ldrb	r0, [fp, #-77]	@ zero_extendqisi2
 3206 213c 0030D4E5 		ldrb	r3, [r4, #0]	@ zero_extendqisi2
 3207 2140 033080E0 		add	r3, r0, r3
 3208 2144 0030C4E5 		strb	r3, [r4, #0]
 3209 2148 0030D5E5 		ldrb	r3, [r5, #0]	@ zero_extendqisi2
 3210 214c 0020D4E5 		ldrb	r2, [r4, #0]	@ zero_extendqisi2
 3211 2150 023083E0 		add	r3, r3, r2
 3212 2154 0030C5E5 		strb	r3, [r5, #0]
 3213 2158 FEFFFFEB 		bl	uart1_transmit
 3214 215c 0000D4E5 		ldrb	r0, [r4, #0]	@ zero_extendqisi2
 3215 2160 FEFFFFEB 		bl	uart1_transmit
 3216 2164 0000D5E5 		ldrb	r0, [r5, #0]	@ zero_extendqisi2
 3217 2168 FEFFFFEB 		bl	uart1_transmit
 3218              	.L133:
 3219 216c A4269FE5 		ldr	r2, .L357+20
 3220 2170 0030D2E5 		ldrb	r3, [r2, #0]	@ zero_extendqisi2
 3221 2174 013083E2 		add	r3, r3, #1
 3222 2178 0030C2E5 		strb	r3, [r2, #0]
 3223              	.L109:
 3224 217c C0069FE5 		ldr	r0, .L357+64
 3225 2180 0030D0E5 		ldrb	r3, [r0, #0]	@ zero_extendqisi2
 3226 2184 180053E3 		cmp	r3, #24
 3227 2188 F208001A 		bne	.L134
 3228 218c 1100A0E3 		mov	r0, #17
 3229 2190 FEFFFFEB 		bl	uart1_check_free_space
 3230 2194 FF0010E3 		tst	r0, #255
 3231 2198 20279F05 		ldreq	r2, .L357+188
 3232 219c 0030D205 		ldreqb	r3, [r2, #0]	@ zero_extendqisi2
 3233 21a0 01308302 		addeq	r3, r3, #1
 3234 21a4 0030C205 		streqb	r3, [r2, #0]
 3235 21a8 F208000A 		beq	.L134
 3236 21ac 18179FE5 		ldr	r1, .L357+200
 3237 21b0 E4C69FE5 		ldr	ip, .L357+152
 3238 21b4 B030D1E1 		ldrh	r3, [r1, #0]
 3239 21b8 B020DCE1 		ldrh	r2, [ip, #0]
 3240 21bc 113083E2 		add	r3, r3, #17
 3241 21c0 012082E2 		add	r2, r2, #1
 3242 21c4 B030C1E1 		strh	r3, [r1, #0]	@ movhi 
 3243 21c8 B020CCE1 		strh	r2, [ip, #0]	@ movhi 
 3244 21cc 1170A0E3 		mov	r7, #17
 3245 21d0 9900A0E3 		mov	r0, #153
 3246 21d4 C4469FE5 		ldr	r4, .L357+156
 3247 21d8 FEFFFFEB 		bl	uart1_transmit
 3248 21dc 0700A0E1 		mov	r0, r7
 3249 21e0 BC569FE5 		ldr	r5, .L357+160
 3250 21e4 FEFFFFEB 		bl	uart1_transmit
 3251 21e8 2330A0E3 		mov	r3, #35
 3252 21ec 0030C4E5 		strb	r3, [r4, #0]
 3253 21f0 073083E0 		add	r3, r3, r7
 3254 21f4 1200A0E3 		mov	r0, #18
 3255 21f8 0030C5E5 		strb	r3, [r5, #0]
 3256 21fc FEFFFFEB 		bl	uart1_transmit
 3257 2200 0030D4E5 		ldrb	r3, [r4, #0]	@ zero_extendqisi2
 3258 2204 073083E0 		add	r3, r3, r7
 3259 2208 0030C4E5 		strb	r3, [r4, #0]
 3260 220c 0030D5E5 		ldrb	r3, [r5, #0]	@ zero_extendqisi2
 3261 2210 0020D4E5 		ldrb	r2, [r4, #0]	@ zero_extendqisi2
 3262 2214 2C669FE5 		ldr	r6, .L357+68
 3263 2218 023083E0 		add	r3, r3, r2
 3264 221c 0700A0E1 		mov	r0, r7
 3265 2220 0030C5E5 		strb	r3, [r5, #0]
 3266 2224 FEFFFFEB 		bl	uart1_transmit
 3267 2228 0000D6E5 		ldrb	r0, [r6, #0]	@ zero_extendqisi2
 3268 222c 0030D4E5 		ldrb	r3, [r4, #0]	@ zero_extendqisi2
 3269 2230 033080E0 		add	r3, r0, r3
 3270 2234 0030C4E5 		strb	r3, [r4, #0]
 3271 2238 0030D5E5 		ldrb	r3, [r5, #0]	@ zero_extendqisi2
 3272 223c 0020D4E5 		ldrb	r2, [r4, #0]	@ zero_extendqisi2
 3273 2240 023083E0 		add	r3, r3, r2
 3274 2244 0030C5E5 		strb	r3, [r5, #0]
 3275 2248 FEFFFFEB 		bl	uart1_transmit
 3276 224c 0100D6E5 		ldrb	r0, [r6, #1]	@ zero_extendqisi2
 3277 2250 0030D4E5 		ldrb	r3, [r4, #0]	@ zero_extendqisi2
 3278 2254 033080E0 		add	r3, r0, r3
 3279 2258 0030C4E5 		strb	r3, [r4, #0]
 3280 225c 0030D5E5 		ldrb	r3, [r5, #0]	@ zero_extendqisi2
 3281 2260 0020D4E5 		ldrb	r2, [r4, #0]	@ zero_extendqisi2
 3282 2264 023083E0 		add	r3, r3, r2
 3283 2268 0030C5E5 		strb	r3, [r5, #0]
 3284 226c FEFFFFEB 		bl	uart1_transmit
 3285 2270 0200D6E5 		ldrb	r0, [r6, #2]	@ zero_extendqisi2
 3286 2274 0030D4E5 		ldrb	r3, [r4, #0]	@ zero_extendqisi2
 3287 2278 033080E0 		add	r3, r0, r3
 3288 227c 0030C4E5 		strb	r3, [r4, #0]
 3289 2280 0030D5E5 		ldrb	r3, [r5, #0]	@ zero_extendqisi2
 3290 2284 0020D4E5 		ldrb	r2, [r4, #0]	@ zero_extendqisi2
 3291 2288 023083E0 		add	r3, r3, r2
 3292 228c 0030C5E5 		strb	r3, [r5, #0]
 3293 2290 FEFFFFEB 		bl	uart1_transmit
 3294 2294 0300D6E5 		ldrb	r0, [r6, #3]	@ zero_extendqisi2
 3295 2298 0030D4E5 		ldrb	r3, [r4, #0]	@ zero_extendqisi2
 3296 229c 033080E0 		add	r3, r0, r3
 3297 22a0 0030C4E5 		strb	r3, [r4, #0]
 3298 22a4 0030D5E5 		ldrb	r3, [r5, #0]	@ zero_extendqisi2
 3299 22a8 0020D4E5 		ldrb	r2, [r4, #0]	@ zero_extendqisi2
 3300 22ac 98659FE5 		ldr	r6, .L357+72
 3301 22b0 023083E0 		add	r3, r3, r2
 3302 22b4 0030C5E5 		strb	r3, [r5, #0]
 3303 22b8 FEFFFFEB 		bl	uart1_transmit
 3304 22bc 0000D6E5 		ldrb	r0, [r6, #0]	@ zero_extendqisi2
 3305 22c0 0030D4E5 		ldrb	r3, [r4, #0]	@ zero_extendqisi2
 3306 22c4 033080E0 		add	r3, r0, r3
 3307 22c8 0030C4E5 		strb	r3, [r4, #0]
 3308 22cc 0030D5E5 		ldrb	r3, [r5, #0]	@ zero_extendqisi2
 3309 22d0 0020D4E5 		ldrb	r2, [r4, #0]	@ zero_extendqisi2
 3310 22d4 023083E0 		add	r3, r3, r2
 3311 22d8 0030C5E5 		strb	r3, [r5, #0]
 3312 22dc FEFFFFEB 		bl	uart1_transmit
 3313 22e0 0100D6E5 		ldrb	r0, [r6, #1]	@ zero_extendqisi2
 3314 22e4 0030D4E5 		ldrb	r3, [r4, #0]	@ zero_extendqisi2
 3315 22e8 033080E0 		add	r3, r0, r3
 3316 22ec 0030C4E5 		strb	r3, [r4, #0]
 3317 22f0 0030D5E5 		ldrb	r3, [r5, #0]	@ zero_extendqisi2
 3318 22f4 0020D4E5 		ldrb	r2, [r4, #0]	@ zero_extendqisi2
 3319 22f8 023083E0 		add	r3, r3, r2
 3320 22fc 0030C5E5 		strb	r3, [r5, #0]
 3321 2300 FEFFFFEB 		bl	uart1_transmit
 3322 2304 0200D6E5 		ldrb	r0, [r6, #2]	@ zero_extendqisi2
 3323 2308 0030D4E5 		ldrb	r3, [r4, #0]	@ zero_extendqisi2
 3324 230c 033080E0 		add	r3, r0, r3
 3325 2310 0030C4E5 		strb	r3, [r4, #0]
 3326 2314 0030D5E5 		ldrb	r3, [r5, #0]	@ zero_extendqisi2
 3327 2318 0020D4E5 		ldrb	r2, [r4, #0]	@ zero_extendqisi2
 3328 231c 023083E0 		add	r3, r3, r2
 3329 2320 0030C5E5 		strb	r3, [r5, #0]
 3330 2324 FEFFFFEB 		bl	uart1_transmit
 3331 2328 0300D6E5 		ldrb	r0, [r6, #3]	@ zero_extendqisi2
 3332 232c 0030D4E5 		ldrb	r3, [r4, #0]	@ zero_extendqisi2
 3333 2330 033080E0 		add	r3, r0, r3
 3334 2334 0030C4E5 		strb	r3, [r4, #0]
 3335 2338 0030D5E5 		ldrb	r3, [r5, #0]	@ zero_extendqisi2
 3336 233c 0020D4E5 		ldrb	r2, [r4, #0]	@ zero_extendqisi2
 3337 2340 08659FE5 		ldr	r6, .L357+76
 3338 2344 023083E0 		add	r3, r3, r2
 3339 2348 0030C5E5 		strb	r3, [r5, #0]
 3340 234c FEFFFFEB 		bl	uart1_transmit
 3341 2350 0000D6E5 		ldrb	r0, [r6, #0]	@ zero_extendqisi2
 3342 2354 0030D4E5 		ldrb	r3, [r4, #0]	@ zero_extendqisi2
 3343 2358 033080E0 		add	r3, r0, r3
 3344 235c 0030C4E5 		strb	r3, [r4, #0]
 3345 2360 0030D5E5 		ldrb	r3, [r5, #0]	@ zero_extendqisi2
 3346 2364 0020D4E5 		ldrb	r2, [r4, #0]	@ zero_extendqisi2
 3347 2368 023083E0 		add	r3, r3, r2
 3348 236c 0030C5E5 		strb	r3, [r5, #0]
 3349 2370 FEFFFFEB 		bl	uart1_transmit
 3350 2374 0100D6E5 		ldrb	r0, [r6, #1]	@ zero_extendqisi2
 3351 2378 0030D4E5 		ldrb	r3, [r4, #0]	@ zero_extendqisi2
 3352 237c 033080E0 		add	r3, r0, r3
 3353 2380 0030C4E5 		strb	r3, [r4, #0]
 3354 2384 0030D5E5 		ldrb	r3, [r5, #0]	@ zero_extendqisi2
 3355 2388 0020D4E5 		ldrb	r2, [r4, #0]	@ zero_extendqisi2
 3356 238c 023083E0 		add	r3, r3, r2
 3357 2390 0030C5E5 		strb	r3, [r5, #0]
 3358 2394 FEFFFFEB 		bl	uart1_transmit
 3359 2398 B4349FE5 		ldr	r3, .L357+80
 3360 239c 0000D3E5 		ldrb	r0, [r3, #0]	@ zero_extendqisi2
 3361 23a0 0030D4E5 		ldrb	r3, [r4, #0]	@ zero_extendqisi2
 3362 23a4 033080E0 		add	r3, r0, r3
 3363 23a8 0030C4E5 		strb	r3, [r4, #0]
 3364 23ac 0030D5E5 		ldrb	r3, [r5, #0]	@ zero_extendqisi2
 3365 23b0 0020D4E5 		ldrb	r2, [r4, #0]	@ zero_extendqisi2
 3366 23b4 023083E0 		add	r3, r3, r2
 3367 23b8 0030C5E5 		strb	r3, [r5, #0]
 3368 23bc FEFFFFEB 		bl	uart1_transmit
 3369 23c0 0000D4E5 		ldrb	r0, [r4, #0]	@ zero_extendqisi2
 3370 23c4 FEFFFFEB 		bl	uart1_transmit
 3371 23c8 0000D5E5 		ldrb	r0, [r5, #0]	@ zero_extendqisi2
 3372 23cc FEFFFFEB 		bl	uart1_transmit
 3373              	.L134:
 3374 23d0 80249FE5 		ldr	r2, .L357+84
 3375 23d4 0030D2E5 		ldrb	r3, [r2, #0]	@ zero_extendqisi2
 3376 23d8 1E0053E3 		cmp	r3, #30
 3377 23dc 3F09001A 		bne	.L137
 3378 23e0 0B00A0E3 		mov	r0, #11
 3379 23e4 FEFFFFEB 		bl	uart1_check_free_space
 3380 23e8 FF0010E3 		tst	r0, #255
 3381 23ec 320A000A 		beq	.L143
 3382 23f0 D4149FE5 		ldr	r1, .L357+200
 3383 23f4 A0C49FE5 		ldr	ip, .L357+152
 3384 23f8 B030D1E1 		ldrh	r3, [r1, #0]
 3385 23fc B020DCE1 		ldrh	r2, [ip, #0]
 3386 2400 0B3083E2 		add	r3, r3, #11
 3387 2404 012082E2 		add	r2, r2, #1
 3388 2408 B030C1E1 		strh	r3, [r1, #0]	@ movhi 
 3389 240c B020CCE1 		strh	r2, [ip, #0]	@ movhi 
 3390 2410 9900A0E3 		mov	r0, #153
 3391 2414 84449FE5 		ldr	r4, .L357+156
 3392 2418 FEFFFFEB 		bl	uart1_transmit
 3393 241c 0B00A0E3 		mov	r0, #11
 3394 2420 7C549FE5 		ldr	r5, .L357+160
 3395 2424 FEFFFFEB 		bl	uart1_transmit
 3396 2428 1D30A0E3 		mov	r3, #29
 3397 242c 0030C4E5 		strb	r3, [r4, #0]
 3398 2430 0B3083E2 		add	r3, r3, #11
 3399 2434 1200A0E3 		mov	r0, #18
 3400 2438 0030C5E5 		strb	r3, [r5, #0]
 3401 243c FEFFFFEB 		bl	uart1_transmit
 3402 2440 0030D4E5 		ldrb	r3, [r4, #0]	@ zero_extendqisi2
 3403 2444 0E3083E2 		add	r3, r3, #14
 3404 2448 0030C4E5 		strb	r3, [r4, #0]
 3405 244c 0030D5E5 		ldrb	r3, [r5, #0]	@ zero_extendqisi2
 3406 2450 0020D4E5 		ldrb	r2, [r4, #0]	@ zero_extendqisi2
 3407 2454 00649FE5 		ldr	r6, .L357+88
 3408 2458 023083E0 		add	r3, r3, r2
 3409 245c 0E00A0E3 		mov	r0, #14
 3410 2460 0030C5E5 		strb	r3, [r5, #0]
 3411 2464 FEFFFFEB 		bl	uart1_transmit
 3412 2468 0000D6E5 		ldrb	r0, [r6, #0]	@ zero_extendqisi2
 3413 246c 0030D4E5 		ldrb	r3, [r4, #0]	@ zero_extendqisi2
 3414 2470 033080E0 		add	r3, r0, r3
 3415 2474 0030C4E5 		strb	r3, [r4, #0]
 3416 2478 0030D5E5 		ldrb	r3, [r5, #0]	@ zero_extendqisi2
 3417 247c 0020D4E5 		ldrb	r2, [r4, #0]	@ zero_extendqisi2
 3418 2480 023083E0 		add	r3, r3, r2
 3419 2484 0030C5E5 		strb	r3, [r5, #0]
 3420 2488 FEFFFFEB 		bl	uart1_transmit
 3421 248c 0100D6E5 		ldrb	r0, [r6, #1]	@ zero_extendqisi2
 3422 2490 0030D4E5 		ldrb	r3, [r4, #0]	@ zero_extendqisi2
 3423 2494 033080E0 		add	r3, r0, r3
 3424 2498 0030C4E5 		strb	r3, [r4, #0]
 3425 249c 0030D5E5 		ldrb	r3, [r5, #0]	@ zero_extendqisi2
 3426 24a0 0020D4E5 		ldrb	r2, [r4, #0]	@ zero_extendqisi2
 3427 24a4 023083E0 		add	r3, r3, r2
 3428 24a8 0030C5E5 		strb	r3, [r5, #0]
 3429 24ac FEFFFFEB 		bl	uart1_transmit
 3430 24b0 0200D6E5 		ldrb	r0, [r6, #2]	@ zero_extendqisi2
 3431 24b4 0030D4E5 		ldrb	r3, [r4, #0]	@ zero_extendqisi2
 3432 24b8 033080E0 		add	r3, r0, r3
 3433 24bc 0030C4E5 		strb	r3, [r4, #0]
 3434 24c0 0030D5E5 		ldrb	r3, [r5, #0]	@ zero_extendqisi2
 3435 24c4 0020D4E5 		ldrb	r2, [r4, #0]	@ zero_extendqisi2
 3436 24c8 023083E0 		add	r3, r3, r2
 3437 24cc 0030C5E5 		strb	r3, [r5, #0]
 3438 24d0 FEFFFFEB 		bl	uart1_transmit
 3439 24d4 0300D6E5 		ldrb	r0, [r6, #3]	@ zero_extendqisi2
 3440 24d8 0030D4E5 		ldrb	r3, [r4, #0]	@ zero_extendqisi2
 3441 24dc 033080E0 		add	r3, r0, r3
 3442 24e0 0030C4E5 		strb	r3, [r4, #0]
 3443 24e4 0030D5E5 		ldrb	r3, [r5, #0]	@ zero_extendqisi2
 3444 24e8 0020D4E5 		ldrb	r2, [r4, #0]	@ zero_extendqisi2
 3445 24ec 023083E0 		add	r3, r3, r2
 3446 24f0 0030C5E5 		strb	r3, [r5, #0]
 3447 24f4 FEFFFFEB 		bl	uart1_transmit
 3448 24f8 60339FE5 		ldr	r3, .L357+92
 3449 24fc 0000D3E5 		ldrb	r0, [r3, #0]	@ zero_extendqisi2
 3450 2500 F20900EA 		b	.L335
 3451              	.L137:
 3452 2504 240053E3 		cmp	r3, #36
 3453 2508 360A001A 		bne	.L140
 3454 250c 50339FE5 		ldr	r3, .L357+96
 3455 2510 0030D3E5 		ldrb	r3, [r3, #0]	@ zero_extendqisi2
 3456 2514 000053E3 		cmp	r3, #0
 3457 2518 360A000A 		beq	.L140
 3458 251c 1600A0E3 		mov	r0, #22
 3459 2520 FEFFFFEB 		bl	uart1_check_free_space
 3460 2524 FF0010E3 		tst	r0, #255
 3461 2528 320A000A 		beq	.L143
 3462 252c 98139FE5 		ldr	r1, .L357+200
 3463 2530 64C39FE5 		ldr	ip, .L357+152
 3464 2534 B030D1E1 		ldrh	r3, [r1, #0]
 3465 2538 B020DCE1 		ldrh	r2, [ip, #0]
 3466 253c 163083E2 		add	r3, r3, #22
 3467 2540 012082E2 		add	r2, r2, #1
 3468 2544 B030C1E1 		strh	r3, [r1, #0]	@ movhi 
 3469 2548 B020CCE1 		strh	r2, [ip, #0]	@ movhi 
 3470 254c 9900A0E3 		mov	r0, #153
 3471 2550 48439FE5 		ldr	r4, .L357+156
 3472 2554 FEFFFFEB 		bl	uart1_transmit
 3473 2558 1600A0E3 		mov	r0, #22
 3474 255c 40539FE5 		ldr	r5, .L357+160
 3475 2560 FEFFFFEB 		bl	uart1_transmit
 3476 2564 2830A0E3 		mov	r3, #40
 3477 2568 0030C4E5 		strb	r3, [r4, #0]
 3478 256c 163083E2 		add	r3, r3, #22
 3479 2570 1200A0E3 		mov	r0, #18
 3480 2574 0030C5E5 		strb	r3, [r5, #0]
 3481 2578 FEFFFFEB 		bl	uart1_transmit
 3482 257c 0030D4E5 		ldrb	r3, [r4, #0]	@ zero_extendqisi2
 3483 2580 1B3083E2 		add	r3, r3, #27
 3484 2584 0030C4E5 		strb	r3, [r4, #0]
 3485 2588 0030D5E5 		ldrb	r3, [r5, #0]	@ zero_extendqisi2
 3486 258c 0020D4E5 		ldrb	r2, [r4, #0]	@ zero_extendqisi2
 3487 2590 D0629FE5 		ldr	r6, .L357+100
 3488 2594 023083E0 		add	r3, r3, r2
 3489 2598 1B00A0E3 		mov	r0, #27
 3490 259c 0030C5E5 		strb	r3, [r5, #0]
 3491 25a0 FEFFFFEB 		bl	uart1_transmit
 3492 25a4 0000D6E5 		ldrb	r0, [r6, #0]	@ zero_extendqisi2
 3493 25a8 0030D4E5 		ldrb	r3, [r4, #0]	@ zero_extendqisi2
 3494 25ac 033080E0 		add	r3, r0, r3
 3495 25b0 0030C4E5 		strb	r3, [r4, #0]
 3496 25b4 0030D5E5 		ldrb	r3, [r5, #0]	@ zero_extendqisi2
 3497 25b8 0020D4E5 		ldrb	r2, [r4, #0]	@ zero_extendqisi2
 3498 25bc 023083E0 		add	r3, r3, r2
 3499 25c0 0030C5E5 		strb	r3, [r5, #0]
 3500 25c4 FEFFFFEB 		bl	uart1_transmit
 3501 25c8 0100D6E5 		ldrb	r0, [r6, #1]	@ zero_extendqisi2
 3502 25cc 0030D4E5 		ldrb	r3, [r4, #0]	@ zero_extendqisi2
 3503 25d0 033080E0 		add	r3, r0, r3
 3504 25d4 0030C4E5 		strb	r3, [r4, #0]
 3505 25d8 0030D5E5 		ldrb	r3, [r5, #0]	@ zero_extendqisi2
 3506 25dc 0020D4E5 		ldrb	r2, [r4, #0]	@ zero_extendqisi2
 3507 25e0 023083E0 		add	r3, r3, r2
 3508 25e4 0030C5E5 		strb	r3, [r5, #0]
 3509 25e8 FEFFFFEB 		bl	uart1_transmit
 3510 25ec 0200D6E5 		ldrb	r0, [r6, #2]	@ zero_extendqisi2
 3511 25f0 0030D4E5 		ldrb	r3, [r4, #0]	@ zero_extendqisi2
 3512 25f4 033080E0 		add	r3, r0, r3
 3513 25f8 0030C4E5 		strb	r3, [r4, #0]
 3514 25fc 0030D5E5 		ldrb	r3, [r5, #0]	@ zero_extendqisi2
 3515 2600 0020D4E5 		ldrb	r2, [r4, #0]	@ zero_extendqisi2
 3516 2604 023083E0 		add	r3, r3, r2
 3517 2608 0030C5E5 		strb	r3, [r5, #0]
 3518 260c FEFFFFEB 		bl	uart1_transmit
 3519 2610 0300D6E5 		ldrb	r0, [r6, #3]	@ zero_extendqisi2
 3520 2614 0030D4E5 		ldrb	r3, [r4, #0]	@ zero_extendqisi2
 3521 2618 033080E0 		add	r3, r0, r3
 3522 261c 0030C4E5 		strb	r3, [r4, #0]
 3523 2620 0030D5E5 		ldrb	r3, [r5, #0]	@ zero_extendqisi2
 3524 2624 0020D4E5 		ldrb	r2, [r4, #0]	@ zero_extendqisi2
 3525 2628 3C629FE5 		ldr	r6, .L357+104
 3526 262c 023083E0 		add	r3, r3, r2
 3527 2630 0030C5E5 		strb	r3, [r5, #0]
 3528 2634 FEFFFFEB 		bl	uart1_transmit
 3529 2638 0000D6E5 		ldrb	r0, [r6, #0]	@ zero_extendqisi2
 3530 263c 0030D4E5 		ldrb	r3, [r4, #0]	@ zero_extendqisi2
 3531 2640 033080E0 		add	r3, r0, r3
 3532 2644 0030C4E5 		strb	r3, [r4, #0]
 3533 2648 0030D5E5 		ldrb	r3, [r5, #0]	@ zero_extendqisi2
 3534 264c 0020D4E5 		ldrb	r2, [r4, #0]	@ zero_extendqisi2
 3535 2650 023083E0 		add	r3, r3, r2
 3536 2654 0030C5E5 		strb	r3, [r5, #0]
 3537 2658 FEFFFFEB 		bl	uart1_transmit
 3538 265c 0100D6E5 		ldrb	r0, [r6, #1]	@ zero_extendqisi2
 3539 2660 0030D4E5 		ldrb	r3, [r4, #0]	@ zero_extendqisi2
 3540 2664 033080E0 		add	r3, r0, r3
 3541 2668 0030C4E5 		strb	r3, [r4, #0]
 3542 266c 0030D5E5 		ldrb	r3, [r5, #0]	@ zero_extendqisi2
 3543 2670 0020D4E5 		ldrb	r2, [r4, #0]	@ zero_extendqisi2
 3544 2674 023083E0 		add	r3, r3, r2
 3545 2678 0030C5E5 		strb	r3, [r5, #0]
 3546 267c FEFFFFEB 		bl	uart1_transmit
 3547 2680 0200D6E5 		ldrb	r0, [r6, #2]	@ zero_extendqisi2
 3548 2684 0030D4E5 		ldrb	r3, [r4, #0]	@ zero_extendqisi2
 3549 2688 033080E0 		add	r3, r0, r3
 3550 268c 0030C4E5 		strb	r3, [r4, #0]
 3551 2690 0030D5E5 		ldrb	r3, [r5, #0]	@ zero_extendqisi2
 3552 2694 0020D4E5 		ldrb	r2, [r4, #0]	@ zero_extendqisi2
 3553 2698 023083E0 		add	r3, r3, r2
 3554 269c 0030C5E5 		strb	r3, [r5, #0]
 3555 26a0 FEFFFFEB 		bl	uart1_transmit
 3556 26a4 0300D6E5 		ldrb	r0, [r6, #3]	@ zero_extendqisi2
 3557 26a8 0030D4E5 		ldrb	r3, [r4, #0]	@ zero_extendqisi2
 3558 26ac 033080E0 		add	r3, r0, r3
 3559 26b0 0030C4E5 		strb	r3, [r4, #0]
 3560 26b4 0030D5E5 		ldrb	r3, [r5, #0]	@ zero_extendqisi2
 3561 26b8 0020D4E5 		ldrb	r2, [r4, #0]	@ zero_extendqisi2
 3562 26bc AC619FE5 		ldr	r6, .L357+108
 3563 26c0 023083E0 		add	r3, r3, r2
 3564 26c4 0030C5E5 		strb	r3, [r5, #0]
 3565 26c8 FEFFFFEB 		bl	uart1_transmit
 3566 26cc 0000D6E5 		ldrb	r0, [r6, #0]	@ zero_extendqisi2
 3567 26d0 0030D4E5 		ldrb	r3, [r4, #0]	@ zero_extendqisi2
 3568 26d4 033080E0 		add	r3, r0, r3
 3569 26d8 0030C4E5 		strb	r3, [r4, #0]
 3570 26dc 0030D5E5 		ldrb	r3, [r5, #0]	@ zero_extendqisi2
 3571 26e0 0020D4E5 		ldrb	r2, [r4, #0]	@ zero_extendqisi2
 3572 26e4 023083E0 		add	r3, r3, r2
 3573 26e8 0030C5E5 		strb	r3, [r5, #0]
 3574 26ec FEFFFFEB 		bl	uart1_transmit
 3575 26f0 0100D6E5 		ldrb	r0, [r6, #1]	@ zero_extendqisi2
 3576 26f4 0030D4E5 		ldrb	r3, [r4, #0]	@ zero_extendqisi2
 3577 26f8 033080E0 		add	r3, r0, r3
 3578 26fc 0030C4E5 		strb	r3, [r4, #0]
 3579 2700 0030D5E5 		ldrb	r3, [r5, #0]	@ zero_extendqisi2
 3580 2704 0020D4E5 		ldrb	r2, [r4, #0]	@ zero_extendqisi2
 3581 2708 023083E0 		add	r3, r3, r2
 3582 270c 0030C5E5 		strb	r3, [r5, #0]
 3583 2710 FEFFFFEB 		bl	uart1_transmit
 3584 2714 0200D6E5 		ldrb	r0, [r6, #2]	@ zero_extendqisi2
 3585 2718 0030D4E5 		ldrb	r3, [r4, #0]	@ zero_extendqisi2
 3586 271c 033080E0 		add	r3, r0, r3
 3587 2720 0030C4E5 		strb	r3, [r4, #0]
 3588 2724 0030D5E5 		ldrb	r3, [r5, #0]	@ zero_extendqisi2
 3589 2728 0020D4E5 		ldrb	r2, [r4, #0]	@ zero_extendqisi2
 3590 272c 023083E0 		add	r3, r3, r2
 3591 2730 0030C5E5 		strb	r3, [r5, #0]
 3592 2734 FEFFFFEB 		bl	uart1_transmit
 3593 2738 0300D6E5 		ldrb	r0, [r6, #3]	@ zero_extendqisi2
 3594 273c 0030D4E5 		ldrb	r3, [r4, #0]	@ zero_extendqisi2
 3595 2740 033080E0 		add	r3, r0, r3
 3596 2744 0030C4E5 		strb	r3, [r4, #0]
 3597 2748 0030D5E5 		ldrb	r3, [r5, #0]	@ zero_extendqisi2
 3598 274c 0020D4E5 		ldrb	r2, [r4, #0]	@ zero_extendqisi2
 3599 2750 1C619FE5 		ldr	r6, .L357+112
 3600 2754 023083E0 		add	r3, r3, r2
 3601 2758 0030C5E5 		strb	r3, [r5, #0]
 3602 275c FEFFFFEB 		bl	uart1_transmit
 3603 2760 0000D6E5 		ldrb	r0, [r6, #0]	@ zero_extendqisi2
 3604 2764 0030D4E5 		ldrb	r3, [r4, #0]	@ zero_extendqisi2
 3605 2768 033080E0 		add	r3, r0, r3
 3606 276c 0030C4E5 		strb	r3, [r4, #0]
 3607 2770 0030D5E5 		ldrb	r3, [r5, #0]	@ zero_extendqisi2
 3608 2774 0020D4E5 		ldrb	r2, [r4, #0]	@ zero_extendqisi2
 3609 2778 023083E0 		add	r3, r3, r2
 3610 277c 0030C5E5 		strb	r3, [r5, #0]
 3611 2780 FEFFFFEB 		bl	uart1_transmit
 3612 2784 0100D6E5 		ldrb	r0, [r6, #1]	@ zero_extendqisi2
 3613 2788 0030D4E5 		ldrb	r3, [r4, #0]	@ zero_extendqisi2
 3614 278c 033080E0 		add	r3, r0, r3
 3615 2790 0030C4E5 		strb	r3, [r4, #0]
 3616 2794 0030D5E5 		ldrb	r3, [r5, #0]	@ zero_extendqisi2
 3617 2798 0020D4E5 		ldrb	r2, [r4, #0]	@ zero_extendqisi2
 3618 279c 023083E0 		add	r3, r3, r2
 3619 27a0 0030C5E5 		strb	r3, [r5, #0]
 3620 27a4 FEFFFFEB 		bl	uart1_transmit
 3621 27a8 0200D6E5 		ldrb	r0, [r6, #2]	@ zero_extendqisi2
 3622 27ac 0030D4E5 		ldrb	r3, [r4, #0]	@ zero_extendqisi2
 3623 27b0 033080E0 		add	r3, r0, r3
 3624 27b4 0030C4E5 		strb	r3, [r4, #0]
 3625 27b8 0030D5E5 		ldrb	r3, [r5, #0]	@ zero_extendqisi2
 3626 27bc 0020D4E5 		ldrb	r2, [r4, #0]	@ zero_extendqisi2
 3627 27c0 023083E0 		add	r3, r3, r2
 3628 27c4 0030C5E5 		strb	r3, [r5, #0]
 3629 27c8 FEFFFFEB 		bl	uart1_transmit
 3630 27cc 0300D6E5 		ldrb	r0, [r6, #3]	@ zero_extendqisi2
 3631              	.L335:
 3632 27d0 0030D4E5 		ldrb	r3, [r4, #0]	@ zero_extendqisi2
 3633 27d4 033080E0 		add	r3, r0, r3
 3634 27d8 0030C4E5 		strb	r3, [r4, #0]
 3635 27dc 0030D5E5 		ldrb	r3, [r5, #0]	@ zero_extendqisi2
 3636 27e0 0020D4E5 		ldrb	r2, [r4, #0]	@ zero_extendqisi2
 3637 27e4 023083E0 		add	r3, r3, r2
 3638 27e8 0030C5E5 		strb	r3, [r5, #0]
 3639 27ec FEFFFFEB 		bl	uart1_transmit
 3640 27f0 0000D4E5 		ldrb	r0, [r4, #0]	@ zero_extendqisi2
 3641 27f4 FEFFFFEB 		bl	uart1_transmit
 3642 27f8 0000D5E5 		ldrb	r0, [r5, #0]	@ zero_extendqisi2
 3643 27fc FEFFFFEB 		bl	uart1_transmit
 3644 2800 360A00EA 		b	.L140
 3645              	.L358:
 3646              		.align	2
 3647              	.L357:
 3648 2804 00000000 		.word	nav_segment_y_1
 3649 2808 00000000 		.word	nav_segment_x_2
 3650 280c 00000000 		.word	nav_segment_y_2
 3651 2810 00000000 		.word	infrared
 3652 2814 00000000 		.word	i90.17
 3653 2818 00000000 		.word	i.25
 3654 281c 00000000 		.word	flight_altitude
 3655 2820 00000000 		.word	nav_course
 3656 2824 00000000 		.word	nav_shift
 3657 2828 00000000 		.word	estimator_flight_time
 3658 282c 00000000 		.word	nav_radius
 3659 2830 00000000 		.word	launch
 3660 2834 00000000 		.word	kill_throttle
 3661 2838 00000000 		.word	telemetry_mode_Ap_DefaultChannel
 3662 283c 00000000 		.word	gps_reset
 3663 2840 00008047 		.word	1199570944
 3664 2844 00000000 		.word	i120.18
 3665 2848 00000000 		.word	gps_Pacc
 3666 284c 00000000 		.word	gps_Sacc
 3667 2850 00000000 		.word	gps_PDOP
 3668 2854 00000000 		.word	gps_numSV
 3669 2858 00000000 		.word	i126.19
 3670 285c 00000000 		.word	v_ctl_auto_throttle_sum_err
 3671 2860 00000000 		.word	v_ctl_auto_throttle_submode
 3672 2864 00000000 		.word	nav_survey_active
 3673 2868 00000000 		.word	nav_survey_east
 3674 286c 00000000 		.word	nav_survey_north
 3675 2870 00000000 		.word	nav_survey_west
 3676 2874 00000000 		.word	nav_survey_south
 3677 2878 00000000 		.word	i150.20
 3678 287c 00000000 		.word	energy
 3679 2880 00000000 		.word	vsupply
 3680 2884 00008043 		.word	1132462080
 3681 2888 00002041 		.word	1092616192
 3682 288c 00000000 		.word	current
 3683 2890 00007A44 		.word	1148846080
 3684 2894 00000000 		.word	i300.21
 3685 2898 00000000 		.word	.LC0
 3686 289c 00000000 		.word	downlink_nb_msgs
 3687 28a0 00000000 		.word	ck_a
 3688 28a4 00000000 		.word	ck_b
 3689 28a8 00000000 		.word	pprz_mode
 3690 28ac 00000000 		.word	v_ctl_mode
 3691 28b0 00000000 		.word	lateral_mode
 3692 28b4 00000000 		.word	horizontal_mode
 3693 28b8 00000000 		.word	rc_settings_mode
 3694 28bc 00000000 		.word	mcu1_status
 3695 28c0 00000000 		.word	downlink_nb_ovrn
 3696 28c4 00000000 		.word	i306.22
 3697 28c8 00000000 		.word	last.26
 3698 28cc 00000000 		.word	downlink_nb_bytes
 3699              	.L143:
 3700 28d0 18201FE5 		ldr	r2, .L357+188
 3701 28d4 0030D2E5 		ldrb	r3, [r2, #0]	@ zero_extendqisi2
 3702 28d8 013083E2 		add	r3, r3, #1
 3703 28dc 0030C2E5 		strb	r3, [r2, #0]
 3704              	.L140:
 3705 28e0 70001FE5 		ldr	r0, .L357+116
 3706 28e4 0030D0E5 		ldrb	r3, [r0, #0]	@ zero_extendqisi2
 3707 28e8 2A0053E3 		cmp	r3, #42
 3708 28ec FB0A001A 		bne	.L145
 3709 28f0 7C301FE5 		ldr	r3, .L357+120
 3710 28f4 000093E5 		ldr	r0, [r3, #0]	@ float
 3711 28f8 FEFFFFEB 		bl	__fixsfsi
 3712 28fc 84301FE5 		ldr	r3, .L357+124
 3713 2900 D040D3E1 		ldrsb	r4, [r3, #0]
 3714 2904 B0034BE1 		strh	r0, [fp, #-48]	@ movhi 
 3715 2908 0400A0E1 		mov	r0, r4
 3716 290c FEFFFFEB 		bl	__floatsisf
 3717 2910 000054E3 		cmp	r4, #0
 3718 2914 98101FB5 		ldrlt	r1, .L357+128
 3719 2918 FEFFFFBB 		bllt	__addsf3
 3720              	.L146:
 3721 291c 9C101FE5 		ldr	r1, .L357+132
 3722 2920 FEFFFFEB 		bl	__divsf3
 3723 2924 A0301FE5 		ldr	r3, .L357+136
 3724 2928 0040A0E1 		mov	r4, r0
 3725 292c 000093E5 		ldr	r0, [r3, #0]
 3726 2930 54400BE5 		str	r4, [fp, #-84]	@ float
 3727 2934 FEFFFFEB 		bl	__floatsisf
 3728 2938 B0101FE5 		ldr	r1, .L357+140
 3729 293c FEFFFFEB 		bl	__divsf3
 3730 2940 0030A0E1 		mov	r3, r0
 3731 2944 0010A0E1 		mov	r1, r0
 3732 2948 0400A0E1 		mov	r0, r4
 3733 294c 58300BE5 		str	r3, [fp, #-88]	@ float
 3734 2950 FEFFFFEB 		bl	__mulsf3
 3735 2954 5C000BE5 		str	r0, [fp, #-92]	@ float
 3736 2958 1400A0E3 		mov	r0, #20
 3737 295c FEFFFFEB 		bl	uart1_check_free_space
 3738 2960 FF0010E3 		tst	r0, #255
 3739 2964 AC201F05 		ldreq	r2, .L357+188
 3740 2968 0030D205 		ldreqb	r3, [r2, #0]	@ zero_extendqisi2
 3741 296c 01308302 		addeq	r3, r3, #1
 3742 2970 0030C205 		streqb	r3, [r2, #0]
 3743 2974 FB0A000A 		beq	.L145
 3744 2978 B4101FE5 		ldr	r1, .L357+200
 3745 297c E8C01FE5 		ldr	ip, .L357+152
 3746 2980 B030D1E1 		ldrh	r3, [r1, #0]
 3747 2984 B020DCE1 		ldrh	r2, [ip, #0]
 3748 2988 143083E2 		add	r3, r3, #20
 3749 298c 012082E2 		add	r2, r2, #1
 3750 2990 B030C1E1 		strh	r3, [r1, #0]	@ movhi 
 3751 2994 B020CCE1 		strh	r2, [ip, #0]	@ movhi 
 3752 2998 9900A0E3 		mov	r0, #153
 3753 299c 04411FE5 		ldr	r4, .L357+156
 3754 29a0 FEFFFFEB 		bl	uart1_transmit
 3755 29a4 1400A0E3 		mov	r0, #20
 3756 29a8 0C511FE5 		ldr	r5, .L357+160
 3757 29ac FEFFFFEB 		bl	uart1_transmit
 3758 29b0 2630A0E3 		mov	r3, #38
 3759 29b4 0030C4E5 		strb	r3, [r4, #0]
 3760 29b8 143083E2 		add	r3, r3, #20
 3761 29bc 1200A0E3 		mov	r0, #18
 3762 29c0 0030C5E5 		strb	r3, [r5, #0]
 3763 29c4 FEFFFFEB 		bl	uart1_transmit
 3764 29c8 0030D4E5 		ldrb	r3, [r4, #0]	@ zero_extendqisi2
 3765 29cc 253083E2 		add	r3, r3, #37
 3766 29d0 0030C4E5 		strb	r3, [r4, #0]
 3767 29d4 0030D5E5 		ldrb	r3, [r5, #0]	@ zero_extendqisi2
 3768 29d8 0020D4E5 		ldrb	r2, [r4, #0]	@ zero_extendqisi2
 3769 29dc 023083E0 		add	r3, r3, r2
 3770 29e0 2500A0E3 		mov	r0, #37
 3771 29e4 0030C5E5 		strb	r3, [r5, #0]
 3772 29e8 FEFFFFEB 		bl	uart1_transmit
 3773 29ec 54005BE5 		ldrb	r0, [fp, #-84]	@ zero_extendqisi2
 3774 29f0 0030D4E5 		ldrb	r3, [r4, #0]	@ zero_extendqisi2
 3775 29f4 033080E0 		add	r3, r0, r3
 3776 29f8 0030C4E5 		strb	r3, [r4, #0]
 3777 29fc 0030D5E5 		ldrb	r3, [r5, #0]	@ zero_extendqisi2
 3778 2a00 0020D4E5 		ldrb	r2, [r4, #0]	@ zero_extendqisi2
 3779 2a04 023083E0 		add	r3, r3, r2
 3780 2a08 0030C5E5 		strb	r3, [r5, #0]
 3781 2a0c FEFFFFEB 		bl	uart1_transmit
 3782 2a10 53005BE5 		ldrb	r0, [fp, #-83]	@ zero_extendqisi2
 3783 2a14 0030D4E5 		ldrb	r3, [r4, #0]	@ zero_extendqisi2
 3784 2a18 033080E0 		add	r3, r0, r3
 3785 2a1c 0030C4E5 		strb	r3, [r4, #0]
 3786 2a20 0030D5E5 		ldrb	r3, [r5, #0]	@ zero_extendqisi2
 3787 2a24 0020D4E5 		ldrb	r2, [r4, #0]	@ zero_extendqisi2
 3788 2a28 023083E0 		add	r3, r3, r2
 3789 2a2c 0030C5E5 		strb	r3, [r5, #0]
 3790 2a30 FEFFFFEB 		bl	uart1_transmit
 3791 2a34 52005BE5 		ldrb	r0, [fp, #-82]	@ zero_extendqisi2
 3792 2a38 0030D4E5 		ldrb	r3, [r4, #0]	@ zero_extendqisi2
 3793 2a3c 033080E0 		add	r3, r0, r3
 3794 2a40 0030C4E5 		strb	r3, [r4, #0]
 3795 2a44 0030D5E5 		ldrb	r3, [r5, #0]	@ zero_extendqisi2
 3796 2a48 0020D4E5 		ldrb	r2, [r4, #0]	@ zero_extendqisi2
 3797 2a4c 023083E0 		add	r3, r3, r2
 3798 2a50 0030C5E5 		strb	r3, [r5, #0]
 3799 2a54 FEFFFFEB 		bl	uart1_transmit
 3800 2a58 51005BE5 		ldrb	r0, [fp, #-81]	@ zero_extendqisi2
 3801 2a5c 0030D4E5 		ldrb	r3, [r4, #0]	@ zero_extendqisi2
 3802 2a60 033080E0 		add	r3, r0, r3
 3803 2a64 0030C4E5 		strb	r3, [r4, #0]
 3804 2a68 0030D5E5 		ldrb	r3, [r5, #0]	@ zero_extendqisi2
 3805 2a6c 0020D4E5 		ldrb	r2, [r4, #0]	@ zero_extendqisi2
 3806 2a70 023083E0 		add	r3, r3, r2
 3807 2a74 0030C5E5 		strb	r3, [r5, #0]
 3808 2a78 FEFFFFEB 		bl	uart1_transmit
 3809 2a7c 58005BE5 		ldrb	r0, [fp, #-88]	@ zero_extendqisi2
 3810 2a80 0030D4E5 		ldrb	r3, [r4, #0]	@ zero_extendqisi2
 3811 2a84 033080E0 		add	r3, r0, r3
 3812 2a88 0030C4E5 		strb	r3, [r4, #0]
 3813 2a8c 0030D5E5 		ldrb	r3, [r5, #0]	@ zero_extendqisi2
 3814 2a90 0020D4E5 		ldrb	r2, [r4, #0]	@ zero_extendqisi2
 3815 2a94 023083E0 		add	r3, r3, r2
 3816 2a98 0030C5E5 		strb	r3, [r5, #0]
 3817 2a9c FEFFFFEB 		bl	uart1_transmit
 3818 2aa0 57005BE5 		ldrb	r0, [fp, #-87]	@ zero_extendqisi2
 3819 2aa4 0030D4E5 		ldrb	r3, [r4, #0]	@ zero_extendqisi2
 3820 2aa8 033080E0 		add	r3, r0, r3
 3821 2aac 0030C4E5 		strb	r3, [r4, #0]
 3822 2ab0 0030D5E5 		ldrb	r3, [r5, #0]	@ zero_extendqisi2
 3823 2ab4 0020D4E5 		ldrb	r2, [r4, #0]	@ zero_extendqisi2
 3824 2ab8 023083E0 		add	r3, r3, r2
 3825 2abc 0030C5E5 		strb	r3, [r5, #0]
 3826 2ac0 FEFFFFEB 		bl	uart1_transmit
 3827 2ac4 56005BE5 		ldrb	r0, [fp, #-86]	@ zero_extendqisi2
 3828 2ac8 0030D4E5 		ldrb	r3, [r4, #0]	@ zero_extendqisi2
 3829 2acc 033080E0 		add	r3, r0, r3
 3830 2ad0 0030C4E5 		strb	r3, [r4, #0]
 3831 2ad4 0030D5E5 		ldrb	r3, [r5, #0]	@ zero_extendqisi2
 3832 2ad8 0020D4E5 		ldrb	r2, [r4, #0]	@ zero_extendqisi2
 3833 2adc 023083E0 		add	r3, r3, r2
 3834 2ae0 0030C5E5 		strb	r3, [r5, #0]
 3835 2ae4 FEFFFFEB 		bl	uart1_transmit
 3836 2ae8 55005BE5 		ldrb	r0, [fp, #-85]	@ zero_extendqisi2
 3837 2aec 0030D4E5 		ldrb	r3, [r4, #0]	@ zero_extendqisi2
 3838 2af0 033080E0 		add	r3, r0, r3
 3839 2af4 0030C4E5 		strb	r3, [r4, #0]
 3840 2af8 0030D5E5 		ldrb	r3, [r5, #0]	@ zero_extendqisi2
 3841 2afc 0020D4E5 		ldrb	r2, [r4, #0]	@ zero_extendqisi2
 3842 2b00 023083E0 		add	r3, r3, r2
 3843 2b04 0030C5E5 		strb	r3, [r5, #0]
 3844 2b08 FEFFFFEB 		bl	uart1_transmit
 3845 2b0c 30005BE5 		ldrb	r0, [fp, #-48]	@ zero_extendqisi2
 3846 2b10 0030D4E5 		ldrb	r3, [r4, #0]	@ zero_extendqisi2
 3847 2b14 033080E0 		add	r3, r0, r3
 3848 2b18 0030C4E5 		strb	r3, [r4, #0]
 3849 2b1c 0030D5E5 		ldrb	r3, [r5, #0]	@ zero_extendqisi2
 3850 2b20 0020D4E5 		ldrb	r2, [r4, #0]	@ zero_extendqisi2
 3851 2b24 023083E0 		add	r3, r3, r2
 3852 2b28 0030C5E5 		strb	r3, [r5, #0]
 3853 2b2c FEFFFFEB 		bl	uart1_transmit
 3854 2b30 2F005BE5 		ldrb	r0, [fp, #-47]	@ zero_extendqisi2
 3855 2b34 0030D4E5 		ldrb	r3, [r4, #0]	@ zero_extendqisi2
 3856 2b38 033080E0 		add	r3, r0, r3
 3857 2b3c 0030C4E5 		strb	r3, [r4, #0]
 3858 2b40 0030D5E5 		ldrb	r3, [r5, #0]	@ zero_extendqisi2
 3859 2b44 0020D4E5 		ldrb	r2, [r4, #0]	@ zero_extendqisi2
 3860 2b48 023083E0 		add	r3, r3, r2
 3861 2b4c 0030C5E5 		strb	r3, [r5, #0]
 3862 2b50 FEFFFFEB 		bl	uart1_transmit
 3863 2b54 5C005BE5 		ldrb	r0, [fp, #-92]	@ zero_extendqisi2
 3864 2b58 0030D4E5 		ldrb	r3, [r4, #0]	@ zero_extendqisi2
 3865 2b5c 033080E0 		add	r3, r0, r3
 3866 2b60 0030C4E5 		strb	r3, [r4, #0]
 3867 2b64 0030D5E5 		ldrb	r3, [r5, #0]	@ zero_extendqisi2
 3868 2b68 0020D4E5 		ldrb	r2, [r4, #0]	@ zero_extendqisi2
 3869 2b6c 023083E0 		add	r3, r3, r2
 3870 2b70 0030C5E5 		strb	r3, [r5, #0]
 3871 2b74 FEFFFFEB 		bl	uart1_transmit
 3872 2b78 5B005BE5 		ldrb	r0, [fp, #-91]	@ zero_extendqisi2
 3873 2b7c 0030D4E5 		ldrb	r3, [r4, #0]	@ zero_extendqisi2
 3874 2b80 033080E0 		add	r3, r0, r3
 3875 2b84 0030C4E5 		strb	r3, [r4, #0]
 3876 2b88 0030D5E5 		ldrb	r3, [r5, #0]	@ zero_extendqisi2
 3877 2b8c 0020D4E5 		ldrb	r2, [r4, #0]	@ zero_extendqisi2
 3878 2b90 023083E0 		add	r3, r3, r2
 3879 2b94 0030C5E5 		strb	r3, [r5, #0]
 3880 2b98 FEFFFFEB 		bl	uart1_transmit
 3881 2b9c 5A005BE5 		ldrb	r0, [fp, #-90]	@ zero_extendqisi2
 3882 2ba0 0030D4E5 		ldrb	r3, [r4, #0]	@ zero_extendqisi2
 3883 2ba4 033080E0 		add	r3, r0, r3
 3884 2ba8 0030C4E5 		strb	r3, [r4, #0]
 3885 2bac 0030D5E5 		ldrb	r3, [r5, #0]	@ zero_extendqisi2
 3886 2bb0 0020D4E5 		ldrb	r2, [r4, #0]	@ zero_extendqisi2
 3887 2bb4 023083E0 		add	r3, r3, r2
 3888 2bb8 0030C5E5 		strb	r3, [r5, #0]
 3889 2bbc FEFFFFEB 		bl	uart1_transmit
 3890 2bc0 59005BE5 		ldrb	r0, [fp, #-89]	@ zero_extendqisi2
 3891 2bc4 0030D4E5 		ldrb	r3, [r4, #0]	@ zero_extendqisi2
 3892 2bc8 033080E0 		add	r3, r0, r3
 3893 2bcc 0030C4E5 		strb	r3, [r4, #0]
 3894 2bd0 0030D5E5 		ldrb	r3, [r5, #0]	@ zero_extendqisi2
 3895 2bd4 0020D4E5 		ldrb	r2, [r4, #0]	@ zero_extendqisi2
 3896 2bd8 023083E0 		add	r3, r3, r2
 3897 2bdc 0030C5E5 		strb	r3, [r5, #0]
 3898 2be0 FEFFFFEB 		bl	uart1_transmit
 3899 2be4 0000D4E5 		ldrb	r0, [r4, #0]	@ zero_extendqisi2
 3900 2be8 FEFFFFEB 		bl	uart1_transmit
 3901 2bec 0000D5E5 		ldrb	r0, [r5, #0]	@ zero_extendqisi2
 3902 2bf0 FEFFFFEB 		bl	uart1_transmit
 3903              	.L145:
 3904 2bf4 68231FE5 		ldr	r2, .L357+144
 3905 2bf8 B030D2E1 		ldrh	r3, [r2, #0]
 3906 2bfc 300053E3 		cmp	r3, #48
 3907 2c00 3C0B001A 		bne	.L149
 3908 2c04 1700A0E3 		mov	r0, #23
 3909 2c08 FEFFFFEB 		bl	uart1_check_free_space
 3910 2c0c FF0010E3 		tst	r0, #255
 3911 2c10 A00B000A 		beq	.L158
 3912 2c14 50131FE5 		ldr	r1, .L357+200
 3913 2c18 84C31FE5 		ldr	ip, .L357+152
 3914 2c1c B030D1E1 		ldrh	r3, [r1, #0]
 3915 2c20 B020DCE1 		ldrh	r2, [ip, #0]
 3916 2c24 173083E2 		add	r3, r3, #23
 3917 2c28 012082E2 		add	r2, r2, #1
 3918 2c2c B030C1E1 		strh	r3, [r1, #0]	@ movhi 
 3919 2c30 B020CCE1 		strh	r2, [ip, #0]	@ movhi 
 3920 2c34 9900A0E3 		mov	r0, #153
 3921 2c38 A0431FE5 		ldr	r4, .L357+156
 3922 2c3c FEFFFFEB 		bl	uart1_transmit
 3923 2c40 1700A0E3 		mov	r0, #23
 3924 2c44 FEFFFFEB 		bl	uart1_transmit
 3925 2c48 AC631FE5 		ldr	r6, .L357+160
 3926 2c4c 2930A0E3 		mov	r3, #41
 3927 2c50 0030C4E5 		strb	r3, [r4, #0]
 3928 2c54 173083E2 		add	r3, r3, #23
 3929 2c58 1200A0E3 		mov	r0, #18
 3930 2c5c 0030C6E5 		strb	r3, [r6, #0]
 3931 2c60 FEFFFFEB 		bl	uart1_transmit
 3932 2c64 0030D4E5 		ldrb	r3, [r4, #0]	@ zero_extendqisi2
 3933 2c68 023083E2 		add	r3, r3, #2
 3934 2c6c 0030C4E5 		strb	r3, [r4, #0]
 3935 2c70 0030D6E5 		ldrb	r3, [r6, #0]	@ zero_extendqisi2
 3936 2c74 0020D4E5 		ldrb	r2, [r4, #0]	@ zero_extendqisi2
 3937 2c78 023083E0 		add	r3, r3, r2
 3938 2c7c 0200A0E3 		mov	r0, #2
 3939 2c80 0030C6E5 		strb	r3, [r6, #0]
 3940 2c84 FEFFFFEB 		bl	uart1_transmit
 3941 2c88 0030D4E5 		ldrb	r3, [r4, #0]	@ zero_extendqisi2
 3942 2c8c 103083E2 		add	r3, r3, #16
 3943 2c90 0030C4E5 		strb	r3, [r4, #0]
 3944 2c94 0030D6E5 		ldrb	r3, [r6, #0]	@ zero_extendqisi2
 3945 2c98 0020D4E5 		ldrb	r2, [r4, #0]	@ zero_extendqisi2
 3946 2c9c 023083E0 		add	r3, r3, r2
 3947 2ca0 1000A0E3 		mov	r0, #16
 3948 2ca4 0030C6E5 		strb	r3, [r6, #0]
 3949 2ca8 FEFFFFEB 		bl	uart1_transmit
 3950 2cac 0050A0E3 		mov	r5, #0
 3951              	.L154:
 3952 2cb0 20341FE5 		ldr	r3, .L357+148
 3953 2cb4 0300D5E7 		ldrb	r0, [r5, r3]	@ zero_extendqisi2
 3954 2cb8 0030D4E5 		ldrb	r3, [r4, #0]	@ zero_extendqisi2
 3955 2cbc 033080E0 		add	r3, r0, r3
 3956 2cc0 0030C4E5 		strb	r3, [r4, #0]
 3957 2cc4 0030D6E5 		ldrb	r3, [r6, #0]	@ zero_extendqisi2
 3958 2cc8 0020D4E5 		ldrb	r2, [r4, #0]	@ zero_extendqisi2
 3959 2ccc 023083E0 		add	r3, r3, r2
 3960 2cd0 0030C6E5 		strb	r3, [r6, #0]
 3961 2cd4 FEFFFFEB 		bl	uart1_transmit
 3962 2cd8 013085E2 		add	r3, r5, #1
 3963 2cdc FF5003E2 		and	r5, r3, #255
 3964 2ce0 0F0055E3 		cmp	r5, #15
 3965 2ce4 2A0B009A 		bls	.L154
 3966 2ce8 0000D4E5 		ldrb	r0, [r4, #0]	@ zero_extendqisi2
 3967 2cec FEFFFFEB 		bl	uart1_transmit
 3968 2cf0 0000D6E5 		ldrb	r0, [r6, #0]	@ zero_extendqisi2
 3969 2cf4 9E0B00EA 		b	.L336
 3970              	.L149:
 3971 2cf8 360053E3 		cmp	r3, #54
 3972 2cfc A40B001A 		bne	.L156
 3973 2d00 0C00A0E3 		mov	r0, #12
 3974 2d04 FEFFFFEB 		bl	uart1_check_free_space
 3975 2d08 FF0010E3 		tst	r0, #255
 3976 2d0c A00B000A 		beq	.L158
 3977 2d10 4C141FE5 		ldr	r1, .L357+200
 3978 2d14 80C41FE5 		ldr	ip, .L357+152
 3979 2d18 B030D1E1 		ldrh	r3, [r1, #0]
 3980 2d1c B020DCE1 		ldrh	r2, [ip, #0]
 3981 2d20 0C3083E2 		add	r3, r3, #12
 3982 2d24 012082E2 		add	r2, r2, #1
 3983 2d28 B030C1E1 		strh	r3, [r1, #0]	@ movhi 
 3984 2d2c B020CCE1 		strh	r2, [ip, #0]	@ movhi 
 3985 2d30 9900A0E3 		mov	r0, #153
 3986 2d34 9C441FE5 		ldr	r4, .L357+156
 3987 2d38 FEFFFFEB 		bl	uart1_transmit
 3988 2d3c 0C00A0E3 		mov	r0, #12
 3989 2d40 A4541FE5 		ldr	r5, .L357+160
 3990 2d44 FEFFFFEB 		bl	uart1_transmit
 3991 2d48 1E30A0E3 		mov	r3, #30
 3992 2d4c 0030C4E5 		strb	r3, [r4, #0]
 3993 2d50 0C3083E2 		add	r3, r3, #12
 3994 2d54 1200A0E3 		mov	r0, #18
 3995 2d58 0030C5E5 		strb	r3, [r5, #0]
 3996 2d5c FEFFFFEB 		bl	uart1_transmit
 3997 2d60 0030D4E5 		ldrb	r3, [r4, #0]	@ zero_extendqisi2
 3998 2d64 0B3083E2 		add	r3, r3, #11
 3999 2d68 0030C4E5 		strb	r3, [r4, #0]
 4000 2d6c 0030D5E5 		ldrb	r3, [r5, #0]	@ zero_extendqisi2
 4001 2d70 0020D4E5 		ldrb	r2, [r4, #0]	@ zero_extendqisi2
 4002 2d74 023083E0 		add	r3, r3, r2
 4003 2d78 0B00A0E3 		mov	r0, #11
 4004 2d7c 0030C5E5 		strb	r3, [r5, #0]
 4005 2d80 FEFFFFEB 		bl	uart1_transmit
 4006 2d84 E4341FE5 		ldr	r3, .L357+164
 4007 2d88 0000D3E5 		ldrb	r0, [r3, #0]	@ zero_extendqisi2
 4008 2d8c 0030D4E5 		ldrb	r3, [r4, #0]	@ zero_extendqisi2
 4009 2d90 033080E0 		add	r3, r0, r3
 4010 2d94 0030C4E5 		strb	r3, [r4, #0]
 4011 2d98 0030D5E5 		ldrb	r3, [r5, #0]	@ zero_extendqisi2
 4012 2d9c 0020D4E5 		ldrb	r2, [r4, #0]	@ zero_extendqisi2
 4013 2da0 023083E0 		add	r3, r3, r2
 4014 2da4 0030C5E5 		strb	r3, [r5, #0]
 4015 2da8 FEFFFFEB 		bl	uart1_transmit
 4016 2dac 08351FE5 		ldr	r3, .L357+168
 4017 2db0 0000D3E5 		ldrb	r0, [r3, #0]	@ zero_extendqisi2
 4018 2db4 0030D4E5 		ldrb	r3, [r4, #0]	@ zero_extendqisi2
 4019 2db8 033080E0 		add	r3, r0, r3
 4020 2dbc 0030C4E5 		strb	r3, [r4, #0]
 4021 2dc0 0030D5E5 		ldrb	r3, [r5, #0]	@ zero_extendqisi2
 4022 2dc4 0020D4E5 		ldrb	r2, [r4, #0]	@ zero_extendqisi2
 4023 2dc8 023083E0 		add	r3, r3, r2
 4024 2dcc 0030C5E5 		strb	r3, [r5, #0]
 4025 2dd0 FEFFFFEB 		bl	uart1_transmit
 4026 2dd4 2C351FE5 		ldr	r3, .L357+172
 4027 2dd8 0000D3E5 		ldrb	r0, [r3, #0]	@ zero_extendqisi2
 4028 2ddc 0030D4E5 		ldrb	r3, [r4, #0]	@ zero_extendqisi2
 4029 2de0 033080E0 		add	r3, r0, r3
 4030 2de4 0030C4E5 		strb	r3, [r4, #0]
 4031 2de8 0030D5E5 		ldrb	r3, [r5, #0]	@ zero_extendqisi2
 4032 2dec 0020D4E5 		ldrb	r2, [r4, #0]	@ zero_extendqisi2
 4033 2df0 023083E0 		add	r3, r3, r2
 4034 2df4 0030C5E5 		strb	r3, [r5, #0]
 4035 2df8 FEFFFFEB 		bl	uart1_transmit
 4036 2dfc 50351FE5 		ldr	r3, .L357+176
 4037 2e00 0000D3E5 		ldrb	r0, [r3, #0]	@ zero_extendqisi2
 4038 2e04 0030D4E5 		ldrb	r3, [r4, #0]	@ zero_extendqisi2
 4039 2e08 033080E0 		add	r3, r0, r3
 4040 2e0c 0030C4E5 		strb	r3, [r4, #0]
 4041 2e10 0030D5E5 		ldrb	r3, [r5, #0]	@ zero_extendqisi2
 4042 2e14 0020D4E5 		ldrb	r2, [r4, #0]	@ zero_extendqisi2
 4043 2e18 023083E0 		add	r3, r3, r2
 4044 2e1c 0030C5E5 		strb	r3, [r5, #0]
 4045 2e20 FEFFFFEB 		bl	uart1_transmit
 4046 2e24 74351FE5 		ldr	r3, .L357+180
 4047 2e28 0000D3E5 		ldrb	r0, [r3, #0]	@ zero_extendqisi2
 4048 2e2c 0030D4E5 		ldrb	r3, [r4, #0]	@ zero_extendqisi2
 4049 2e30 033080E0 		add	r3, r0, r3
 4050 2e34 0030C4E5 		strb	r3, [r4, #0]
 4051 2e38 0030D5E5 		ldrb	r3, [r5, #0]	@ zero_extendqisi2
 4052 2e3c 0020D4E5 		ldrb	r2, [r4, #0]	@ zero_extendqisi2
 4053 2e40 023083E0 		add	r3, r3, r2
 4054 2e44 0030C5E5 		strb	r3, [r5, #0]
 4055 2e48 FEFFFFEB 		bl	uart1_transmit
 4056 2e4c 98351FE5 		ldr	r3, .L357+184
 4057 2e50 0000D3E5 		ldrb	r0, [r3, #0]	@ zero_extendqisi2
 4058 2e54 0030D4E5 		ldrb	r3, [r4, #0]	@ zero_extendqisi2
 4059 2e58 033080E0 		add	r3, r0, r3
 4060 2e5c 0030C4E5 		strb	r3, [r4, #0]
 4061 2e60 0030D5E5 		ldrb	r3, [r5, #0]	@ zero_extendqisi2
 4062 2e64 0020D4E5 		ldrb	r2, [r4, #0]	@ zero_extendqisi2
 4063 2e68 023083E0 		add	r3, r3, r2
 4064 2e6c 0030C5E5 		strb	r3, [r5, #0]
 4065 2e70 FEFFFFEB 		bl	uart1_transmit
 4066 2e74 0000D4E5 		ldrb	r0, [r4, #0]	@ zero_extendqisi2
 4067 2e78 FEFFFFEB 		bl	uart1_transmit
 4068 2e7c 0000D5E5 		ldrb	r0, [r5, #0]	@ zero_extendqisi2
 4069              	.L336:
 4070 2e80 FEFFFFEB 		bl	uart1_transmit
 4071 2e84 A40B00EA 		b	.L156
 4072              	.L158:
 4073 2e88 D0251FE5 		ldr	r2, .L357+188
 4074 2e8c 0030D2E5 		ldrb	r3, [r2, #0]	@ zero_extendqisi2
 4075 2e90 013083E2 		add	r3, r3, #1
 4076 2e94 0030C2E5 		strb	r3, [r2, #0]
 4077              	.L156:
 4078 2e98 DC051FE5 		ldr	r0, .L357+192
 4079 2e9c B030D0E1 		ldrh	r3, [r0, #0]
 4080 2ea0 3C0053E3 		cmp	r3, #60
 4081 2ea4 090C001A 		bne	.L160
 4082 2ea8 E8451FE5 		ldr	r4, .L357+196
 4083 2eac E8751FE5 		ldr	r7, .L357+200
 4084 2eb0 B000D4E1 		ldrh	r0, [r4, #0]
 4085 2eb4 B050D7E1 		ldrh	r5, [r7, #0]
 4086 2eb8 050060E0 		rsb	r0, r0, r5
 4087 2ebc FEFFFFEB 		bl	__floatsidf
 4088 2ec0 FD2F8FE2 		adr	r2, .L359
 4089 2ec4 0C0092E8 		ldmia	r2, {r2-r3}
 4090 2ec8 FEFFFFEB 		bl	__divdf3
 4091 2ecc FEFFFFEB 		bl	__fixunsdfsi
 4092 2ed0 B2034BE1 		strh	r0, [fp, #-50]	@ movhi 
 4093 2ed4 0B00A0E3 		mov	r0, #11
 4094 2ed8 B050C4E1 		strh	r5, [r4, #0]	@ movhi 
 4095 2edc FEFFFFEB 		bl	uart1_check_free_space
 4096 2ee0 94A49FE5 		ldr	sl, .L359+192
 4097 2ee4 FF0010E3 		tst	r0, #255
 4098 2ee8 0030DA05 		ldreqb	r3, [sl, #0]	@ zero_extendqisi2
 4099 2eec 01308302 		addeq	r3, r3, #1
 4100 2ef0 0030CA05 		streqb	r3, [sl, #0]
 4101 2ef4 090C000A 		beq	.L160
 4102 2ef8 84649FE5 		ldr	r6, .L359+200
 4103 2efc B030D7E1 		ldrh	r3, [r7, #0]
 4104 2f00 B020D6E1 		ldrh	r2, [r6, #0]
 4105 2f04 0B3083E2 		add	r3, r3, #11
 4106 2f08 012082E2 		add	r2, r2, #1
 4107 2f0c B020C6E1 		strh	r2, [r6, #0]	@ movhi 
 4108 2f10 B030C7E1 		strh	r3, [r7, #0]	@ movhi 
 4109 2f14 9900A0E3 		mov	r0, #153
 4110 2f18 68449FE5 		ldr	r4, .L359+204
 4111 2f1c FEFFFFEB 		bl	uart1_transmit
 4112 2f20 0B00A0E3 		mov	r0, #11
 4113 2f24 60549FE5 		ldr	r5, .L359+208
 4114 2f28 FEFFFFEB 		bl	uart1_transmit
 4115 2f2c 1D30A0E3 		mov	r3, #29
 4116 2f30 0030C4E5 		strb	r3, [r4, #0]
 4117 2f34 0B3083E2 		add	r3, r3, #11
 4118 2f38 1200A0E3 		mov	r0, #18
 4119 2f3c 0030C5E5 		strb	r3, [r5, #0]
 4120 2f40 FEFFFFEB 		bl	uart1_transmit
 4121 2f44 0030D4E5 		ldrb	r3, [r4, #0]	@ zero_extendqisi2
 4122 2f48 1E3083E2 		add	r3, r3, #30
 4123 2f4c 0030C4E5 		strb	r3, [r4, #0]
 4124 2f50 0030D5E5 		ldrb	r3, [r5, #0]	@ zero_extendqisi2
 4125 2f54 0020D4E5 		ldrb	r2, [r4, #0]	@ zero_extendqisi2
 4126 2f58 023083E0 		add	r3, r3, r2
 4127 2f5c 1E00A0E3 		mov	r0, #30
 4128 2f60 0030C5E5 		strb	r3, [r5, #0]
 4129 2f64 FEFFFFEB 		bl	uart1_transmit
 4130 2f68 0000DAE5 		ldrb	r0, [sl, #0]	@ zero_extendqisi2
 4131 2f6c 0030D4E5 		ldrb	r3, [r4, #0]	@ zero_extendqisi2
 4132 2f70 033080E0 		add	r3, r0, r3
 4133 2f74 0030C4E5 		strb	r3, [r4, #0]
 4134 2f78 0030D5E5 		ldrb	r3, [r5, #0]	@ zero_extendqisi2
 4135 2f7c 0020D4E5 		ldrb	r2, [r4, #0]	@ zero_extendqisi2
 4136 2f80 023083E0 		add	r3, r3, r2
 4137 2f84 0030C5E5 		strb	r3, [r5, #0]
 4138 2f88 FEFFFFEB 		bl	uart1_transmit
 4139 2f8c 32005BE5 		ldrb	r0, [fp, #-50]	@ zero_extendqisi2
 4140 2f90 0030D4E5 		ldrb	r3, [r4, #0]	@ zero_extendqisi2
 4141 2f94 033080E0 		add	r3, r0, r3
 4142 2f98 0030C4E5 		strb	r3, [r4, #0]
 4143 2f9c 0030D5E5 		ldrb	r3, [r5, #0]	@ zero_extendqisi2
 4144 2fa0 0020D4E5 		ldrb	r2, [r4, #0]	@ zero_extendqisi2
 4145 2fa4 023083E0 		add	r3, r3, r2
 4146 2fa8 0030C5E5 		strb	r3, [r5, #0]
 4147 2fac FEFFFFEB 		bl	uart1_transmit
 4148 2fb0 31005BE5 		ldrb	r0, [fp, #-49]	@ zero_extendqisi2
 4149 2fb4 0030D4E5 		ldrb	r3, [r4, #0]	@ zero_extendqisi2
 4150 2fb8 033080E0 		add	r3, r0, r3
 4151 2fbc 0030C4E5 		strb	r3, [r4, #0]
 4152 2fc0 0030D5E5 		ldrb	r3, [r5, #0]	@ zero_extendqisi2
 4153 2fc4 0020D4E5 		ldrb	r2, [r4, #0]	@ zero_extendqisi2
 4154 2fc8 023083E0 		add	r3, r3, r2
 4155 2fcc 0030C5E5 		strb	r3, [r5, #0]
 4156 2fd0 FEFFFFEB 		bl	uart1_transmit
 4157 2fd4 0000D6E5 		ldrb	r0, [r6, #0]	@ zero_extendqisi2
 4158 2fd8 0030D4E5 		ldrb	r3, [r4, #0]	@ zero_extendqisi2
 4159 2fdc 033080E0 		add	r3, r0, r3
 4160 2fe0 0030C4E5 		strb	r3, [r4, #0]
 4161 2fe4 0030D5E5 		ldrb	r3, [r5, #0]	@ zero_extendqisi2
 4162 2fe8 0020D4E5 		ldrb	r2, [r4, #0]	@ zero_extendqisi2
 4163 2fec 023083E0 		add	r3, r3, r2
 4164 2ff0 0030C5E5 		strb	r3, [r5, #0]
 4165 2ff4 FEFFFFEB 		bl	uart1_transmit
 4166 2ff8 0100D6E5 		ldrb	r0, [r6, #1]	@ zero_extendqisi2
 4167 2ffc 0030D4E5 		ldrb	r3, [r4, #0]	@ zero_extendqisi2
 4168 3000 033080E0 		add	r3, r0, r3
 4169 3004 0030C4E5 		strb	r3, [r4, #0]
 4170 3008 0030D5E5 		ldrb	r3, [r5, #0]	@ zero_extendqisi2
 4171 300c 0020D4E5 		ldrb	r2, [r4, #0]	@ zero_extendqisi2
 4172 3010 023083E0 		add	r3, r3, r2
 4173 3014 0030C5E5 		strb	r3, [r5, #0]
 4174 3018 FEFFFFEB 		bl	uart1_transmit
 4175 301c 0000D4E5 		ldrb	r0, [r4, #0]	@ zero_extendqisi2
 4176 3020 FEFFFFEB 		bl	uart1_transmit
 4177 3024 0000D5E5 		ldrb	r0, [r5, #0]	@ zero_extendqisi2
 4178 3028 FEFFFFEB 		bl	uart1_transmit
 4179              	.L160:
 4180 302c 90229FE5 		ldr	r2, .L359+8
 4181 3030 B030D2E1 		ldrh	r3, [r2, #0]
 4182 3034 420053E3 		cmp	r3, #66
 4183 3038 8A0C001A 		bne	.L50
 4184 303c 0F00A0E3 		mov	r0, #15
 4185 3040 FEFFFFEB 		bl	uart1_check_free_space
 4186 3044 FF0010E3 		tst	r0, #255
 4187 3048 2C239F05 		ldreq	r2, .L359+192
 4188 304c 0030D205 		ldreqb	r3, [r2, #0]	@ zero_extendqisi2
 4189 3050 01308302 		addeq	r3, r3, #1
 4190 3054 0030C205 		streqb	r3, [r2, #0]
 4191 3058 8A0C000A 		beq	.L50
 4192 305c 1C139FE5 		ldr	r1, .L359+196
 4193 3060 1CC39FE5 		ldr	ip, .L359+200
 4194 3064 B030D1E1 		ldrh	r3, [r1, #0]
 4195 3068 B020DCE1 		ldrh	r2, [ip, #0]
 4196 306c 0F3083E2 		add	r3, r3, #15
 4197 3070 012082E2 		add	r2, r2, #1
 4198 3074 B030C1E1 		strh	r3, [r1, #0]	@ movhi 
 4199 3078 B020CCE1 		strh	r2, [ip, #0]	@ movhi 
 4200 307c 9900A0E3 		mov	r0, #153
 4201 3080 00439FE5 		ldr	r4, .L359+204
 4202 3084 FEFFFFEB 		bl	uart1_transmit
 4203 3088 0F00A0E3 		mov	r0, #15
 4204 308c F8529FE5 		ldr	r5, .L359+208
 4205 3090 FEFFFFEB 		bl	uart1_transmit
 4206 3094 2130A0E3 		mov	r3, #33
 4207 3098 0030C4E5 		strb	r3, [r4, #0]
 4208 309c 0F3083E2 		add	r3, r3, #15
 4209 30a0 1200A0E3 		mov	r0, #18
 4210 30a4 0030C5E5 		strb	r3, [r5, #0]
 4211 30a8 FEFFFFEB 		bl	uart1_transmit
 4212 30ac 0030D4E5 		ldrb	r3, [r4, #0]	@ zero_extendqisi2
 4213 30b0 093083E2 		add	r3, r3, #9
 4214 30b4 0030C4E5 		strb	r3, [r4, #0]
 4215 30b8 0030D5E5 		ldrb	r3, [r5, #0]	@ zero_extendqisi2
 4216 30bc 0020D4E5 		ldrb	r2, [r4, #0]	@ zero_extendqisi2
 4217 30c0 68629FE5 		ldr	r6, .L359+116
 4218 30c4 023083E0 		add	r3, r3, r2
 4219 30c8 0900A0E3 		mov	r0, #9
 4220 30cc 0030C5E5 		strb	r3, [r5, #0]
 4221 30d0 FEFFFFEB 		bl	uart1_transmit
 4222 30d4 0000D6E5 		ldrb	r0, [r6, #0]	@ zero_extendqisi2
 4223 30d8 0030D4E5 		ldrb	r3, [r4, #0]	@ zero_extendqisi2
 4224 30dc 033080E0 		add	r3, r0, r3
 4225 30e0 0030C4E5 		strb	r3, [r4, #0]
 4226 30e4 0030D5E5 		ldrb	r3, [r5, #0]	@ zero_extendqisi2
 4227 30e8 0020D4E5 		ldrb	r2, [r4, #0]	@ zero_extendqisi2
 4228 30ec 023083E0 		add	r3, r3, r2
 4229 30f0 0030C5E5 		strb	r3, [r5, #0]
 4230 30f4 FEFFFFEB 		bl	uart1_transmit
 4231 30f8 0100D6E5 		ldrb	r0, [r6, #1]	@ zero_extendqisi2
 4232 30fc 0030D4E5 		ldrb	r3, [r4, #0]	@ zero_extendqisi2
 4233 3100 033080E0 		add	r3, r0, r3
 4234 3104 0030C4E5 		strb	r3, [r4, #0]
 4235 3108 0030D5E5 		ldrb	r3, [r5, #0]	@ zero_extendqisi2
 4236 310c 0020D4E5 		ldrb	r2, [r4, #0]	@ zero_extendqisi2
 4237 3110 023083E0 		add	r3, r3, r2
 4238 3114 0030C5E5 		strb	r3, [r5, #0]
 4239 3118 FEFFFFEB 		bl	uart1_transmit
 4240 311c 0200D6E5 		ldrb	r0, [r6, #2]	@ zero_extendqisi2
 4241 3120 0030D4E5 		ldrb	r3, [r4, #0]	@ zero_extendqisi2
 4242 3124 033080E0 		add	r3, r0, r3
 4243 3128 0030C4E5 		strb	r3, [r4, #0]
 4244 312c 0030D5E5 		ldrb	r3, [r5, #0]	@ zero_extendqisi2
 4245 3130 0020D4E5 		ldrb	r2, [r4, #0]	@ zero_extendqisi2
 4246 3134 023083E0 		add	r3, r3, r2
 4247 3138 0030C5E5 		strb	r3, [r5, #0]
 4248 313c FEFFFFEB 		bl	uart1_transmit
 4249 3140 0300D6E5 		ldrb	r0, [r6, #3]	@ zero_extendqisi2
 4250 3144 0030D4E5 		ldrb	r3, [r4, #0]	@ zero_extendqisi2
 4251 3148 033080E0 		add	r3, r0, r3
 4252 314c 0030C4E5 		strb	r3, [r4, #0]
 4253 3150 0030D5E5 		ldrb	r3, [r5, #0]	@ zero_extendqisi2
 4254 3154 0020D4E5 		ldrb	r2, [r4, #0]	@ zero_extendqisi2
 4255 3158 D8619FE5 		ldr	r6, .L359+124
 4256 315c 023083E0 		add	r3, r3, r2
 4257 3160 0030C5E5 		strb	r3, [r5, #0]
 4258 3164 FEFFFFEB 		bl	uart1_transmit
 4259 3168 0000D6E5 		ldrb	r0, [r6, #0]	@ zero_extendqisi2
 4260 316c 0030D4E5 		ldrb	r3, [r4, #0]	@ zero_extendqisi2
 4261 3170 033080E0 		add	r3, r0, r3
 4262 3174 0030C4E5 		strb	r3, [r4, #0]
 4263 3178 0030D5E5 		ldrb	r3, [r5, #0]	@ zero_extendqisi2
 4264 317c 0020D4E5 		ldrb	r2, [r4, #0]	@ zero_extendqisi2
 4265 3180 023083E0 		add	r3, r3, r2
 4266 3184 0030C5E5 		strb	r3, [r5, #0]
 4267 3188 FEFFFFEB 		bl	uart1_transmit
 4268 318c 0100D6E5 		ldrb	r0, [r6, #1]	@ zero_extendqisi2
 4269 3190 0030D4E5 		ldrb	r3, [r4, #0]	@ zero_extendqisi2
 4270 3194 033080E0 		add	r3, r0, r3
 4271 3198 0030C4E5 		strb	r3, [r4, #0]
 4272 319c 0030D5E5 		ldrb	r3, [r5, #0]	@ zero_extendqisi2
 4273 31a0 0020D4E5 		ldrb	r2, [r4, #0]	@ zero_extendqisi2
 4274 31a4 023083E0 		add	r3, r3, r2
 4275 31a8 0030C5E5 		strb	r3, [r5, #0]
 4276 31ac FEFFFFEB 		bl	uart1_transmit
 4277 31b0 0200D6E5 		ldrb	r0, [r6, #2]	@ zero_extendqisi2
 4278 31b4 0030D4E5 		ldrb	r3, [r4, #0]	@ zero_extendqisi2
 4279 31b8 033080E0 		add	r3, r0, r3
 4280 31bc 0030C4E5 		strb	r3, [r4, #0]
 4281 31c0 0030D5E5 		ldrb	r3, [r5, #0]	@ zero_extendqisi2
 4282 31c4 0020D4E5 		ldrb	r2, [r4, #0]	@ zero_extendqisi2
 4283 31c8 023083E0 		add	r3, r3, r2
 4284 31cc 0030C5E5 		strb	r3, [r5, #0]
 4285 31d0 FEFFFFEB 		bl	uart1_transmit
 4286 31d4 0300D6E5 		ldrb	r0, [r6, #3]	@ zero_extendqisi2
 4287 31d8 0030D4E5 		ldrb	r3, [r4, #0]	@ zero_extendqisi2
 4288 31dc 033080E0 		add	r3, r0, r3
 4289 31e0 0030C4E5 		strb	r3, [r4, #0]
 4290 31e4 0030D5E5 		ldrb	r3, [r5, #0]	@ zero_extendqisi2
 4291 31e8 0020D4E5 		ldrb	r2, [r4, #0]	@ zero_extendqisi2
 4292 31ec 023083E0 		add	r3, r3, r2
 4293 31f0 0030C5E5 		strb	r3, [r5, #0]
 4294 31f4 FEFFFFEB 		bl	uart1_transmit
 4295 31f8 3C319FE5 		ldr	r3, .L359+128
 4296 31fc 0000D3E5 		ldrb	r0, [r3, #0]	@ zero_extendqisi2
 4297 3200 0030D4E5 		ldrb	r3, [r4, #0]	@ zero_extendqisi2
 4298 3204 033080E0 		add	r3, r0, r3
 4299 3208 0030C4E5 		strb	r3, [r4, #0]
 4300 320c 0030D5E5 		ldrb	r3, [r5, #0]	@ zero_extendqisi2
 4301 3210 0020D4E5 		ldrb	r2, [r4, #0]	@ zero_extendqisi2
 4302 3214 023083E0 		add	r3, r3, r2
 4303 3218 0030C5E5 		strb	r3, [r5, #0]
 4304 321c FEFFFFEB 		bl	uart1_transmit
 4305 3220 0000D4E5 		ldrb	r0, [r4, #0]	@ zero_extendqisi2
 4306 3224 FEFFFFEB 		bl	uart1_transmit
 4307 3228 0000D5E5 		ldrb	r0, [r5, #0]	@ zero_extendqisi2
 4308 322c FEFFFFEB 		bl	uart1_transmit
 4309              	.L50:
 4310 3230 28019FE5 		ldr	r0, .L359+164
 4311 3234 0030D0E5 		ldrb	r3, [r0, #0]	@ zero_extendqisi2
 4312 3238 010053E3 		cmp	r3, #1
 4313 323c 9F18001A 		bne	.L166
 4314 3240 80109FE5 		ldr	r1, .L359+12
 4315 3244 0030D1E5 		ldrb	r3, [r1, #0]	@ zero_extendqisi2
 4316 3248 013083E2 		add	r3, r3, #1
 4317 324c 0030C1E5 		strb	r3, [r1, #0]
 4318 3250 0030D1E5 		ldrb	r3, [r1, #0]	@ zero_extendqisi2
 4319 3254 70409FE5 		ldr	r4, .L359+16
 4320 3258 3E0053E3 		cmp	r3, #62
 4321 325c 0030A083 		movhi	r3, #0
 4322 3260 0030C185 		strhib	r3, [r1, #0]
 4323 3264 0030D4E5 		ldrb	r3, [r4, #0]	@ zero_extendqisi2
 4324 3268 013083E2 		add	r3, r3, #1
 4325 326c 0030C4E5 		strb	r3, [r4, #0]
 4326 3270 0030D4E5 		ldrb	r3, [r4, #0]	@ zero_extendqisi2
 4327 3274 54709FE5 		ldr	r7, .L359+20
 4328 3278 410053E3 		cmp	r3, #65
 4329 327c 0030A083 		movhi	r3, #0
 4330 3280 0030C485 		strhib	r3, [r4, #0]
 4331 3284 0030D7E5 		ldrb	r3, [r7, #0]	@ zero_extendqisi2
 4332 3288 013083E2 		add	r3, r3, #1
 4333 328c 0030C7E5 		strb	r3, [r7, #0]
 4334 3290 0030D7E5 		ldrb	r3, [r7, #0]	@ zero_extendqisi2
 4335 3294 38809FE5 		ldr	r8, .L359+24
 4336 3298 4D0053E3 		cmp	r3, #77
 4337 329c 0030A083 		movhi	r3, #0
 4338 32a0 0030C785 		strhib	r3, [r7, #0]
 4339 32a4 0030D8E5 		ldrb	r3, [r8, #0]	@ zero_extendqisi2
 4340 32a8 013083E2 		add	r3, r3, #1
 4341 32ac 0030C8E5 		strb	r3, [r8, #0]
 4342 32b0 0030D8E5 		ldrb	r3, [r8, #0]	@ zero_extendqisi2
 4343 32b4 1CA09FE5 		ldr	sl, .L359+28
 4344 32b8 E80C00EA 		b	.L360
 4345              	.L361:
 4346              		.align	2
 4347              	.L359:
 4348 32bc 66661440 		.word	1075078758
 4349 32c0 66666666 		.word	1717986918
 4350 32c4 00000000 		.word	i540.23
 4351 32c8 00000000 		.word	i63.27
 4352 32cc 00000000 		.word	i66.28
 4353 32d0 00000000 		.word	i78.29
 4354 32d4 00000000 		.word	i84.30
 4355 32d8 00000000 		.word	i90.31
 4356 32dc 00000000 		.word	i126.32
 4357 32e0 00000000 		.word	i183.34
 4358 32e4 00000000 		.word	i192.35
 4359 32e8 00000000 		.word	i240.36
 4360 32ec 00000000 		.word	i243.37
 4361 32f0 00000000 		.word	i300.38
 4362 32f4 00000000 		.word	i306.39
 4363 32f8 31010000 		.word	305
 4364 32fc 00000000 		.word	i312.40
 4365 3300 00000000 		.word	i540.41
 4366 3304 00000000 		.word	i606.42
 4367 3308 5D020000 		.word	605
 4368 330c 00000000 		.word	energy
 4369 3310 00000000 		.word	v_ctl_throttle_slewed
 4370 3314 00000000 		.word	vsupply
 4371 3318 00000000 		.word	block_time
 4372 331c 00000000 		.word	stage_time
 4373 3320 00000000 		.word	estimator_z
 4374 3324 00000000 		.word	estimator_z_dot
 4375 3328 00000000 		.word	i.43
 4376 332c 00000000 		.word	nb_waypoint
 4377 3330 00000000 		.word	nav_utm_east0
 4378 3334 00000000 		.word	waypoints
 4379 3338 00000000 		.word	nav_utm_north0
 4380 333c 00000000 		.word	nav_utm_zone0
 4381 3340 00000000 		.word	flight_altitude
 4382 3344 00000000 		.word	nav_course
 4383 3348 00000000 		.word	nav_shift
 4384 334c 00000000 		.word	estimator_flight_time
 4385 3350 00000000 		.word	nav_radius
 4386 3354 00000000 		.word	pprz_mode
 4387 3358 00000000 		.word	launch
 4388 335c 00000000 		.word	kill_throttle
 4389 3360 00000000 		.word	telemetry_mode_Ap_DefaultChannel
 4390 3364 00008043 		.word	1132462080
 4391 3368 00000000 		.word	gps_reset
 4392 336c 00008047 		.word	1199570944
 4393 3370 00000000 		.word	infrared
 4394 3374 00000000 		.word	i.44
 4395 3378 00000000 		.word	nav_survey_active
 4396 337c 00000000 		.word	downlink_nb_ovrn
 4397 3380 00000000 		.word	downlink_nb_bytes
 4398 3384 00000000 		.word	downlink_nb_msgs
 4399 3388 00000000 		.word	ck_a
 4400 338c 00000000 		.word	ck_b
 4401 3390 00000000 		.word	nav_survey_east
 4402 3394 00000000 		.word	nav_survey_north
 4403 3398 00000000 		.word	nav_survey_west
 4404 339c 00000000 		.word	nav_survey_south
 4405 33a0 00000000 		.word	i180.33
 4406 33a4 00000000 		.word	nav_circle_radians
 4407              	.L360:
 4408 33a8 530053E3 		cmp	r3, #83
 4409 33ac 0030A083 		movhi	r3, #0
 4410 33b0 0030C885 		strhib	r3, [r8, #0]
 4411 33b4 0030DAE5 		ldrb	r3, [sl, #0]	@ zero_extendqisi2
 4412 33b8 013083E2 		add	r3, r3, #1
 4413 33bc 0030CAE5 		strb	r3, [sl, #0]
 4414 33c0 0030DAE5 		ldrb	r3, [sl, #0]	@ zero_extendqisi2
 4415 33c4 F0901FE5 		ldr	r9, .L359+32
 4416 33c8 590053E3 		cmp	r3, #89
 4417 33cc 0030A083 		movhi	r3, #0
 4418 33d0 0030CA85 		strhib	r3, [sl, #0]
 4419 33d4 0030D9E5 		ldrb	r3, [r9, #0]	@ zero_extendqisi2
 4420 33d8 013083E2 		add	r3, r3, #1
 4421 33dc 0030C9E5 		strb	r3, [r9, #0]
 4422 33e0 0030D9E5 		ldrb	r3, [r9, #0]	@ zero_extendqisi2
 4423 33e4 4C201FE5 		ldr	r2, .L359+228
 4424 33e8 7D0053E3 		cmp	r3, #125
 4425 33ec 0030A083 		movhi	r3, #0
 4426 33f0 0030C985 		strhib	r3, [r9, #0]
 4427 33f4 0030D2E5 		ldrb	r3, [r2, #0]	@ zero_extendqisi2
 4428 33f8 013083E2 		add	r3, r3, #1
 4429 33fc 0030C2E5 		strb	r3, [r2, #0]
 4430 3400 0030D2E5 		ldrb	r3, [r2, #0]	@ zero_extendqisi2
 4431 3404 2C011FE5 		ldr	r0, .L359+36
 4432 3408 B30053E3 		cmp	r3, #179
 4433 340c 0030A083 		movhi	r3, #0
 4434 3410 0030C285 		strhib	r3, [r2, #0]
 4435 3414 0030D0E5 		ldrb	r3, [r0, #0]	@ zero_extendqisi2
 4436 3418 013083E2 		add	r3, r3, #1
 4437 341c 0030C0E5 		strb	r3, [r0, #0]
 4438 3420 0030D0E5 		ldrb	r3, [r0, #0]	@ zero_extendqisi2
 4439 3424 48211FE5 		ldr	r2, .L359+40
 4440 3428 B60053E3 		cmp	r3, #182
 4441 342c 0030A083 		movhi	r3, #0
 4442 3430 0030C085 		strhib	r3, [r0, #0]
 4443 3434 0030D2E5 		ldrb	r3, [r2, #0]	@ zero_extendqisi2
 4444 3438 013083E2 		add	r3, r3, #1
 4445 343c 0030C2E5 		strb	r3, [r2, #0]
 4446 3440 0030D2E5 		ldrb	r3, [r2, #0]	@ zero_extendqisi2
 4447 3444 64011FE5 		ldr	r0, .L359+44
 4448 3448 BF0053E3 		cmp	r3, #191
 4449 344c 0030A083 		movhi	r3, #0
 4450 3450 0030C285 		strhib	r3, [r2, #0]
 4451 3454 0030D0E5 		ldrb	r3, [r0, #0]	@ zero_extendqisi2
 4452 3458 013083E2 		add	r3, r3, #1
 4453 345c 0030C0E5 		strb	r3, [r0, #0]
 4454 3460 0030D0E5 		ldrb	r3, [r0, #0]	@ zero_extendqisi2
 4455 3464 80211FE5 		ldr	r2, .L359+48
 4456 3468 EF0053E3 		cmp	r3, #239
 4457 346c 0030A083 		movhi	r3, #0
 4458 3470 0030C085 		strhib	r3, [r0, #0]
 4459 3474 0030D2E5 		ldrb	r3, [r2, #0]	@ zero_extendqisi2
 4460 3478 013083E2 		add	r3, r3, #1
 4461 347c 0030C2E5 		strb	r3, [r2, #0]
 4462 3480 0030D2E5 		ldrb	r3, [r2, #0]	@ zero_extendqisi2
 4463 3484 9C011FE5 		ldr	r0, .L359+52
 4464 3488 F20053E3 		cmp	r3, #242
 4465 348c 0030A083 		movhi	r3, #0
 4466 3490 0030C285 		strhib	r3, [r2, #0]
 4467 3494 B030D0E1 		ldrh	r3, [r0, #0]
 4468 3498 013083E2 		add	r3, r3, #1
 4469 349c B030C0E1 		strh	r3, [r0, #0]	@ movhi 
 4470 34a0 B030D0E1 		ldrh	r3, [r0, #0]
 4471 34a4 4B0F53E3 		cmp	r3, #300
 4472 34a8 0020A023 		movcs	r2, #0	@ movhi
 4473 34ac B020C021 		strcsh	r2, [r0, #0]	@ movhi 
 4474 34b0 C4011FE5 		ldr	r0, .L359+56
 4475 34b4 B030D0E1 		ldrh	r3, [r0, #0]
 4476 34b8 013083E2 		add	r3, r3, #1
 4477 34bc B030C0E1 		strh	r3, [r0, #0]	@ movhi 
 4478 34c0 D0311FE5 		ldr	r3, .L359+60
 4479 34c4 B020D0E1 		ldrh	r2, [r0, #0]
 4480 34c8 030052E1 		cmp	r2, r3
 4481 34cc 0020A083 		movhi	r2, #0	@ movhi
 4482 34d0 B020C081 		strhih	r2, [r0, #0]	@ movhi 
 4483 34d4 E0011FE5 		ldr	r0, .L359+64
 4484 34d8 B030D0E1 		ldrh	r3, [r0, #0]
 4485 34dc 013083E2 		add	r3, r3, #1
 4486 34e0 B030C0E1 		strh	r3, [r0, #0]	@ movhi 
 4487 34e4 B030D0E1 		ldrh	r3, [r0, #0]
 4488 34e8 4E0F53E3 		cmp	r3, #312
 4489 34ec 0020A023 		movcs	r2, #0	@ movhi
 4490 34f0 B020C021 		strcsh	r2, [r0, #0]	@ movhi 
 4491 34f4 FC011FE5 		ldr	r0, .L359+68
 4492 34f8 B030D0E1 		ldrh	r3, [r0, #0]
 4493 34fc 013083E2 		add	r3, r3, #1
 4494 3500 B030C0E1 		strh	r3, [r0, #0]	@ movhi 
 4495 3504 B030D0E1 		ldrh	r3, [r0, #0]
 4496 3508 870F53E3 		cmp	r3, #540
 4497 350c 0020A023 		movcs	r2, #0	@ movhi
 4498 3510 B020C021 		strcsh	r2, [r0, #0]	@ movhi 
 4499 3514 18021FE5 		ldr	r0, .L359+72
 4500 3518 B030D0E1 		ldrh	r3, [r0, #0]
 4501 351c 013083E2 		add	r3, r3, #1
 4502 3520 B030C0E1 		strh	r3, [r0, #0]	@ movhi 
 4503 3524 24321FE5 		ldr	r3, .L359+76
 4504 3528 B020D0E1 		ldrh	r2, [r0, #0]
 4505 352c 030052E1 		cmp	r2, r3
 4506 3530 0030D1E5 		ldrb	r3, [r1, #0]	@ zero_extendqisi2
 4507 3534 0020A083 		movhi	r2, #0	@ movhi
 4508 3538 B020C081 		strhih	r2, [r0, #0]	@ movhi 
 4509 353c 000053E3 		cmp	r3, #0
 4510 3540 FEFFFF0B 		bleq	gps_send
 4511              	.L183:
 4512 3544 0030D4E5 		ldrb	r3, [r4, #0]	@ zero_extendqisi2
 4513 3548 060053E3 		cmp	r3, #6
 4514 354c 050E001A 		bne	.L184
 4515 3550 4C321FE5 		ldr	r3, .L359+80
 4516 3554 000093E5 		ldr	r0, [r3, #0]	@ float
 4517 3558 0030A0E3 		mov	r3, #0	@ movhi
 4518 355c B4334BE1 		strh	r3, [fp, #-52]	@ movhi 
 4519 3560 FEFFFFEB 		bl	__fixsfsi
 4520 3564 B6034BE1 		strh	r0, [fp, #-54]	@ movhi 
 4521 3568 1400A0E3 		mov	r0, #20
 4522 356c FEFFFFEB 		bl	uart1_check_free_space
 4523 3570 FF0010E3 		tst	r0, #255
 4524 3574 00221F05 		ldreq	r2, .L359+192
 4525 3578 0030D205 		ldreqb	r3, [r2, #0]	@ zero_extendqisi2
 4526 357c 01308302 		addeq	r3, r3, #1
 4527 3580 0030C205 		streqb	r3, [r2, #0]
 4528 3584 050E000A 		beq	.L184
 4529 3588 10121FE5 		ldr	r1, .L359+196
 4530 358c 10C21FE5 		ldr	ip, .L359+200
 4531 3590 B030D1E1 		ldrh	r3, [r1, #0]
 4532 3594 B020DCE1 		ldrh	r2, [ip, #0]
 4533 3598 143083E2 		add	r3, r3, #20
 4534 359c 012082E2 		add	r2, r2, #1
 4535 35a0 B030C1E1 		strh	r3, [r1, #0]	@ movhi 
 4536 35a4 B020CCE1 		strh	r2, [ip, #0]	@ movhi 
 4537 35a8 9900A0E3 		mov	r0, #153
 4538 35ac 2C421FE5 		ldr	r4, .L359+204
 4539 35b0 FEFFFFEB 		bl	uart1_transmit
 4540 35b4 1400A0E3 		mov	r0, #20
 4541 35b8 34521FE5 		ldr	r5, .L359+208
 4542 35bc FEFFFFEB 		bl	uart1_transmit
 4543 35c0 2630A0E3 		mov	r3, #38
 4544 35c4 0030C4E5 		strb	r3, [r4, #0]
 4545 35c8 143083E2 		add	r3, r3, #20
 4546 35cc 1200A0E3 		mov	r0, #18
 4547 35d0 0030C5E5 		strb	r3, [r5, #0]
 4548 35d4 FEFFFFEB 		bl	uart1_transmit
 4549 35d8 0030D4E5 		ldrb	r3, [r4, #0]	@ zero_extendqisi2
 4550 35dc 0C3083E2 		add	r3, r3, #12
 4551 35e0 0030C4E5 		strb	r3, [r4, #0]
 4552 35e4 0030D5E5 		ldrb	r3, [r5, #0]	@ zero_extendqisi2
 4553 35e8 0020D4E5 		ldrb	r2, [r4, #0]	@ zero_extendqisi2
 4554 35ec E4621FE5 		ldr	r6, .L359+84
 4555 35f0 023083E0 		add	r3, r3, r2
 4556 35f4 0C00A0E3 		mov	r0, #12
 4557 35f8 0030C5E5 		strb	r3, [r5, #0]
 4558 35fc FEFFFFEB 		bl	uart1_transmit
 4559 3600 0000D6E5 		ldrb	r0, [r6, #0]	@ zero_extendqisi2
 4560 3604 0030D4E5 		ldrb	r3, [r4, #0]	@ zero_extendqisi2
 4561 3608 033080E0 		add	r3, r0, r3
 4562 360c 0030C4E5 		strb	r3, [r4, #0]
 4563 3610 0030D5E5 		ldrb	r3, [r5, #0]	@ zero_extendqisi2
 4564 3614 0020D4E5 		ldrb	r2, [r4, #0]	@ zero_extendqisi2
 4565 3618 023083E0 		add	r3, r3, r2
 4566 361c 0030C5E5 		strb	r3, [r5, #0]
 4567 3620 FEFFFFEB 		bl	uart1_transmit
 4568 3624 0100D6E5 		ldrb	r0, [r6, #1]	@ zero_extendqisi2
 4569 3628 0030D4E5 		ldrb	r3, [r4, #0]	@ zero_extendqisi2
 4570 362c 033080E0 		add	r3, r0, r3
 4571 3630 0030C4E5 		strb	r3, [r4, #0]
 4572 3634 0030D5E5 		ldrb	r3, [r5, #0]	@ zero_extendqisi2
 4573 3638 0020D4E5 		ldrb	r2, [r4, #0]	@ zero_extendqisi2
 4574 363c 023083E0 		add	r3, r3, r2
 4575 3640 0030C5E5 		strb	r3, [r5, #0]
 4576 3644 FEFFFFEB 		bl	uart1_transmit
 4577 3648 3C331FE5 		ldr	r3, .L359+88
 4578 364c 0000D3E5 		ldrb	r0, [r3, #0]	@ zero_extendqisi2
 4579 3650 0030D4E5 		ldrb	r3, [r4, #0]	@ zero_extendqisi2
 4580 3654 033080E0 		add	r3, r0, r3
 4581 3658 0030C4E5 		strb	r3, [r4, #0]
 4582 365c 0030D5E5 		ldrb	r3, [r5, #0]	@ zero_extendqisi2
 4583 3660 0020D4E5 		ldrb	r2, [r4, #0]	@ zero_extendqisi2
 4584 3664 023083E0 		add	r3, r3, r2
 4585 3668 0030C5E5 		strb	r3, [r5, #0]
 4586 366c FEFFFFEB 		bl	uart1_transmit
 4587 3670 34005BE5 		ldrb	r0, [fp, #-52]	@ zero_extendqisi2
 4588 3674 0030D4E5 		ldrb	r3, [r4, #0]	@ zero_extendqisi2
 4589 3678 033080E0 		add	r3, r0, r3
 4590 367c 0030C4E5 		strb	r3, [r4, #0]
 4591 3680 0030D5E5 		ldrb	r3, [r5, #0]	@ zero_extendqisi2
 4592 3684 0020D4E5 		ldrb	r2, [r4, #0]	@ zero_extendqisi2
 4593 3688 023083E0 		add	r3, r3, r2
 4594 368c 0030C5E5 		strb	r3, [r5, #0]
 4595 3690 FEFFFFEB 		bl	uart1_transmit
 4596 3694 33005BE5 		ldrb	r0, [fp, #-51]	@ zero_extendqisi2
 4597 3698 0030D4E5 		ldrb	r3, [r4, #0]	@ zero_extendqisi2
 4598 369c 033080E0 		add	r3, r0, r3
 4599 36a0 0030C4E5 		strb	r3, [r4, #0]
 4600 36a4 0030D5E5 		ldrb	r3, [r5, #0]	@ zero_extendqisi2
 4601 36a8 0020D4E5 		ldrb	r2, [r4, #0]	@ zero_extendqisi2
 4602 36ac 68631FE5 		ldr	r6, .L359+144
 4603 36b0 023083E0 		add	r3, r3, r2
 4604 36b4 0030C5E5 		strb	r3, [r5, #0]
 4605 36b8 FEFFFFEB 		bl	uart1_transmit
 4606 36bc 0000D6E5 		ldrb	r0, [r6, #0]	@ zero_extendqisi2
 4607 36c0 0030D4E5 		ldrb	r3, [r4, #0]	@ zero_extendqisi2
 4608 36c4 033080E0 		add	r3, r0, r3
 4609 36c8 0030C4E5 		strb	r3, [r4, #0]
 4610 36cc 0030D5E5 		ldrb	r3, [r5, #0]	@ zero_extendqisi2
 4611 36d0 0020D4E5 		ldrb	r2, [r4, #0]	@ zero_extendqisi2
 4612 36d4 023083E0 		add	r3, r3, r2
 4613 36d8 0030C5E5 		strb	r3, [r5, #0]
 4614 36dc FEFFFFEB 		bl	uart1_transmit
 4615 36e0 0100D6E5 		ldrb	r0, [r6, #1]	@ zero_extendqisi2
 4616 36e4 0030D4E5 		ldrb	r3, [r4, #0]	@ zero_extendqisi2
 4617 36e8 033080E0 		add	r3, r0, r3
 4618 36ec 0030C4E5 		strb	r3, [r4, #0]
 4619 36f0 0030D5E5 		ldrb	r3, [r5, #0]	@ zero_extendqisi2
 4620 36f4 0020D4E5 		ldrb	r2, [r4, #0]	@ zero_extendqisi2
 4621 36f8 023083E0 		add	r3, r3, r2
 4622 36fc 0030C5E5 		strb	r3, [r5, #0]
 4623 3700 FEFFFFEB 		bl	uart1_transmit
 4624 3704 B0331FE5 		ldr	r3, .L359+160
 4625 3708 0000D3E5 		ldrb	r0, [r3, #0]	@ zero_extendqisi2
 4626 370c 0030D4E5 		ldrb	r3, [r4, #0]	@ zero_extendqisi2
 4627 3710 033080E0 		add	r3, r0, r3
 4628 3714 0030C4E5 		strb	r3, [r4, #0]
 4629 3718 0030D5E5 		ldrb	r3, [r5, #0]	@ zero_extendqisi2
 4630 371c 0020D4E5 		ldrb	r2, [r4, #0]	@ zero_extendqisi2
 4631 3720 10641FE5 		ldr	r6, .L359+92
 4632 3724 023083E0 		add	r3, r3, r2
 4633 3728 0030C5E5 		strb	r3, [r5, #0]
 4634 372c FEFFFFEB 		bl	uart1_transmit
 4635 3730 0000D6E5 		ldrb	r0, [r6, #0]	@ zero_extendqisi2
 4636 3734 0030D4E5 		ldrb	r3, [r4, #0]	@ zero_extendqisi2
 4637 3738 033080E0 		add	r3, r0, r3
 4638 373c 0030C4E5 		strb	r3, [r4, #0]
 4639 3740 0030D5E5 		ldrb	r3, [r5, #0]	@ zero_extendqisi2
 4640 3744 0020D4E5 		ldrb	r2, [r4, #0]	@ zero_extendqisi2
 4641 3748 023083E0 		add	r3, r3, r2
 4642 374c 0030C5E5 		strb	r3, [r5, #0]
 4643 3750 FEFFFFEB 		bl	uart1_transmit
 4644 3754 0100D6E5 		ldrb	r0, [r6, #1]	@ zero_extendqisi2
 4645 3758 0030D4E5 		ldrb	r3, [r4, #0]	@ zero_extendqisi2
 4646 375c 033080E0 		add	r3, r0, r3
 4647 3760 0030C4E5 		strb	r3, [r4, #0]
 4648 3764 0030D5E5 		ldrb	r3, [r5, #0]	@ zero_extendqisi2
 4649 3768 0020D4E5 		ldrb	r2, [r4, #0]	@ zero_extendqisi2
 4650 376c 58641FE5 		ldr	r6, .L359+96
 4651 3770 023083E0 		add	r3, r3, r2
 4652 3774 0030C5E5 		strb	r3, [r5, #0]
 4653 3778 FEFFFFEB 		bl	uart1_transmit
 4654 377c 0000D6E5 		ldrb	r0, [r6, #0]	@ zero_extendqisi2
 4655 3780 0030D4E5 		ldrb	r3, [r4, #0]	@ zero_extendqisi2
 4656 3784 033080E0 		add	r3, r0, r3
 4657 3788 0030C4E5 		strb	r3, [r4, #0]
 4658 378c 0030D5E5 		ldrb	r3, [r5, #0]	@ zero_extendqisi2
 4659 3790 0020D4E5 		ldrb	r2, [r4, #0]	@ zero_extendqisi2
 4660 3794 023083E0 		add	r3, r3, r2
 4661 3798 0030C5E5 		strb	r3, [r5, #0]
 4662 379c FEFFFFEB 		bl	uart1_transmit
 4663 37a0 0100D6E5 		ldrb	r0, [r6, #1]	@ zero_extendqisi2
 4664 37a4 0030D4E5 		ldrb	r3, [r4, #0]	@ zero_extendqisi2
 4665 37a8 033080E0 		add	r3, r0, r3
 4666 37ac 0030C4E5 		strb	r3, [r4, #0]
 4667 37b0 0030D5E5 		ldrb	r3, [r5, #0]	@ zero_extendqisi2
 4668 37b4 0020D4E5 		ldrb	r2, [r4, #0]	@ zero_extendqisi2
 4669 37b8 023083E0 		add	r3, r3, r2
 4670 37bc 0030C5E5 		strb	r3, [r5, #0]
 4671 37c0 FEFFFFEB 		bl	uart1_transmit
 4672 37c4 36005BE5 		ldrb	r0, [fp, #-54]	@ zero_extendqisi2
 4673 37c8 0030D4E5 		ldrb	r3, [r4, #0]	@ zero_extendqisi2
 4674 37cc 033080E0 		add	r3, r0, r3
 4675 37d0 0030C4E5 		strb	r3, [r4, #0]
 4676 37d4 0030D5E5 		ldrb	r3, [r5, #0]	@ zero_extendqisi2
 4677 37d8 0020D4E5 		ldrb	r2, [r4, #0]	@ zero_extendqisi2
 4678 37dc 023083E0 		add	r3, r3, r2
 4679 37e0 0030C5E5 		strb	r3, [r5, #0]
 4680 37e4 FEFFFFEB 		bl	uart1_transmit
 4681 37e8 35005BE5 		ldrb	r0, [fp, #-53]	@ zero_extendqisi2
 4682 37ec 0030D4E5 		ldrb	r3, [r4, #0]	@ zero_extendqisi2
 4683 37f0 033080E0 		add	r3, r0, r3
 4684 37f4 0030C4E5 		strb	r3, [r4, #0]
 4685 37f8 0030D5E5 		ldrb	r3, [r5, #0]	@ zero_extendqisi2
 4686 37fc 0020D4E5 		ldrb	r2, [r4, #0]	@ zero_extendqisi2
 4687 3800 023083E0 		add	r3, r3, r2
 4688 3804 0030C5E5 		strb	r3, [r5, #0]
 4689 3808 FEFFFFEB 		bl	uart1_transmit
 4690 380c 0000D4E5 		ldrb	r0, [r4, #0]	@ zero_extendqisi2
 4691 3810 FEFFFFEB 		bl	uart1_transmit
 4692 3814 0000D5E5 		ldrb	r0, [r5, #0]	@ zero_extendqisi2
 4693 3818 FEFFFFEB 		bl	uart1_transmit
 4694              	.L184:
 4695 381c 0030D7E5 		ldrb	r3, [r7, #0]	@ zero_extendqisi2
 4696 3820 0C0053E3 		cmp	r3, #12
 4697 3824 7B0E001A 		bne	.L187
 4698 3828 0E00A0E3 		mov	r0, #14
 4699 382c FEFFFFEB 		bl	uart1_check_free_space
 4700 3830 FF0010E3 		tst	r0, #255
 4701 3834 C0241F05 		ldreq	r2, .L359+192
 4702 3838 0030D205 		ldreqb	r3, [r2, #0]	@ zero_extendqisi2
 4703 383c 01308302 		addeq	r3, r3, #1
 4704 3840 0030C205 		streqb	r3, [r2, #0]
 4705 3844 7B0E000A 		beq	.L187
 4706 3848 D0141FE5 		ldr	r1, .L359+196
 4707 384c D0C41FE5 		ldr	ip, .L359+200
 4708 3850 B030D1E1 		ldrh	r3, [r1, #0]
 4709 3854 B020DCE1 		ldrh	r2, [ip, #0]
 4710 3858 0E3083E2 		add	r3, r3, #14
 4711 385c 012082E2 		add	r2, r2, #1
 4712 3860 B030C1E1 		strh	r3, [r1, #0]	@ movhi 
 4713 3864 B020CCE1 		strh	r2, [ip, #0]	@ movhi 
 4714 3868 9900A0E3 		mov	r0, #153
 4715 386c EC441FE5 		ldr	r4, .L359+204
 4716 3870 FEFFFFEB 		bl	uart1_transmit
 4717 3874 0E00A0E3 		mov	r0, #14
 4718 3878 F4541FE5 		ldr	r5, .L359+208
 4719 387c FEFFFFEB 		bl	uart1_transmit
 4720 3880 2030A0E3 		mov	r3, #32
 4721 3884 0030C4E5 		strb	r3, [r4, #0]
 4722 3888 0E3083E2 		add	r3, r3, #14
 4723 388c 1200A0E3 		mov	r0, #18
 4724 3890 0030C5E5 		strb	r3, [r5, #0]
 4725 3894 FEFFFFEB 		bl	uart1_transmit
 4726 3898 0030D4E5 		ldrb	r3, [r4, #0]	@ zero_extendqisi2
 4727 389c 2A3083E2 		add	r3, r3, #42
 4728 38a0 0030C4E5 		strb	r3, [r4, #0]
 4729 38a4 0030D5E5 		ldrb	r3, [r5, #0]	@ zero_extendqisi2
 4730 38a8 0020D4E5 		ldrb	r2, [r4, #0]	@ zero_extendqisi2
 4731 38ac 94651FE5 		ldr	r6, .L359+100
 4732 38b0 023083E0 		add	r3, r3, r2
 4733 38b4 2A00A0E3 		mov	r0, #42
 4734 38b8 0030C5E5 		strb	r3, [r5, #0]
 4735 38bc FEFFFFEB 		bl	uart1_transmit
 4736 38c0 0000D6E5 		ldrb	r0, [r6, #0]	@ zero_extendqisi2
 4737 38c4 0030D4E5 		ldrb	r3, [r4, #0]	@ zero_extendqisi2
 4738 38c8 033080E0 		add	r3, r0, r3
 4739 38cc 0030C4E5 		strb	r3, [r4, #0]
 4740 38d0 0030D5E5 		ldrb	r3, [r5, #0]	@ zero_extendqisi2
 4741 38d4 0020D4E5 		ldrb	r2, [r4, #0]	@ zero_extendqisi2
 4742 38d8 023083E0 		add	r3, r3, r2
 4743 38dc 0030C5E5 		strb	r3, [r5, #0]
 4744 38e0 FEFFFFEB 		bl	uart1_transmit
 4745 38e4 0100D6E5 		ldrb	r0, [r6, #1]	@ zero_extendqisi2
 4746 38e8 0030D4E5 		ldrb	r3, [r4, #0]	@ zero_extendqisi2
 4747 38ec 033080E0 		add	r3, r0, r3
 4748 38f0 0030C4E5 		strb	r3, [r4, #0]
 4749 38f4 0030D5E5 		ldrb	r3, [r5, #0]	@ zero_extendqisi2
 4750 38f8 0020D4E5 		ldrb	r2, [r4, #0]	@ zero_extendqisi2
 4751 38fc 023083E0 		add	r3, r3, r2
 4752 3900 0030C5E5 		strb	r3, [r5, #0]
 4753 3904 FEFFFFEB 		bl	uart1_transmit
 4754 3908 0200D6E5 		ldrb	r0, [r6, #2]	@ zero_extendqisi2
 4755 390c 0030D4E5 		ldrb	r3, [r4, #0]	@ zero_extendqisi2
 4756 3910 033080E0 		add	r3, r0, r3
 4757 3914 0030C4E5 		strb	r3, [r4, #0]
 4758 3918 0030D5E5 		ldrb	r3, [r5, #0]	@ zero_extendqisi2
 4759 391c 0020D4E5 		ldrb	r2, [r4, #0]	@ zero_extendqisi2
 4760 3920 023083E0 		add	r3, r3, r2
 4761 3924 0030C5E5 		strb	r3, [r5, #0]
 4762 3928 FEFFFFEB 		bl	uart1_transmit
 4763 392c 0300D6E5 		ldrb	r0, [r6, #3]	@ zero_extendqisi2
 4764 3930 0030D4E5 		ldrb	r3, [r4, #0]	@ zero_extendqisi2
 4765 3934 033080E0 		add	r3, r0, r3
 4766 3938 0030C4E5 		strb	r3, [r4, #0]
 4767 393c 0030D5E5 		ldrb	r3, [r5, #0]	@ zero_extendqisi2
 4768 3940 0020D4E5 		ldrb	r2, [r4, #0]	@ zero_extendqisi2
 4769 3944 28661FE5 		ldr	r6, .L359+104
 4770 3948 023083E0 		add	r3, r3, r2
 4771 394c 0030C5E5 		strb	r3, [r5, #0]
 4772 3950 FEFFFFEB 		bl	uart1_transmit
 4773 3954 0000D6E5 		ldrb	r0, [r6, #0]	@ zero_extendqisi2
 4774 3958 0030D4E5 		ldrb	r3, [r4, #0]	@ zero_extendqisi2
 4775 395c 033080E0 		add	r3, r0, r3
 4776 3960 0030C4E5 		strb	r3, [r4, #0]
 4777 3964 0030D5E5 		ldrb	r3, [r5, #0]	@ zero_extendqisi2
 4778 3968 0020D4E5 		ldrb	r2, [r4, #0]	@ zero_extendqisi2
 4779 396c 023083E0 		add	r3, r3, r2
 4780 3970 0030C5E5 		strb	r3, [r5, #0]
 4781 3974 FEFFFFEB 		bl	uart1_transmit
 4782 3978 0100D6E5 		ldrb	r0, [r6, #1]	@ zero_extendqisi2
 4783 397c 0030D4E5 		ldrb	r3, [r4, #0]	@ zero_extendqisi2
 4784 3980 033080E0 		add	r3, r0, r3
 4785 3984 0030C4E5 		strb	r3, [r4, #0]
 4786 3988 0030D5E5 		ldrb	r3, [r5, #0]	@ zero_extendqisi2
 4787 398c 0020D4E5 		ldrb	r2, [r4, #0]	@ zero_extendqisi2
 4788 3990 023083E0 		add	r3, r3, r2
 4789 3994 0030C5E5 		strb	r3, [r5, #0]
 4790 3998 FEFFFFEB 		bl	uart1_transmit
 4791 399c 0200D6E5 		ldrb	r0, [r6, #2]	@ zero_extendqisi2
 4792 39a0 0030D4E5 		ldrb	r3, [r4, #0]	@ zero_extendqisi2
 4793 39a4 033080E0 		add	r3, r0, r3
 4794 39a8 0030C4E5 		strb	r3, [r4, #0]
 4795 39ac 0030D5E5 		ldrb	r3, [r5, #0]	@ zero_extendqisi2
 4796 39b0 0020D4E5 		ldrb	r2, [r4, #0]	@ zero_extendqisi2
 4797 39b4 023083E0 		add	r3, r3, r2
 4798 39b8 0030C5E5 		strb	r3, [r5, #0]
 4799 39bc FEFFFFEB 		bl	uart1_transmit
 4800 39c0 0300D6E5 		ldrb	r0, [r6, #3]	@ zero_extendqisi2
 4801 39c4 0030D4E5 		ldrb	r3, [r4, #0]	@ zero_extendqisi2
 4802 39c8 033080E0 		add	r3, r0, r3
 4803 39cc 0030C4E5 		strb	r3, [r4, #0]
 4804 39d0 0030D5E5 		ldrb	r3, [r5, #0]	@ zero_extendqisi2
 4805 39d4 0020D4E5 		ldrb	r2, [r4, #0]	@ zero_extendqisi2
 4806 39d8 023083E0 		add	r3, r3, r2
 4807 39dc 0030C5E5 		strb	r3, [r5, #0]
 4808 39e0 FEFFFFEB 		bl	uart1_transmit
 4809 39e4 0000D4E5 		ldrb	r0, [r4, #0]	@ zero_extendqisi2
 4810 39e8 FEFFFFEB 		bl	uart1_transmit
 4811 39ec 0000D5E5 		ldrb	r0, [r5, #0]	@ zero_extendqisi2
 4812 39f0 FEFFFFEB 		bl	uart1_transmit
 4813              	.L187:
 4814 39f4 0070D8E5 		ldrb	r7, [r8, #0]	@ zero_extendqisi2
 4815 39f8 120057E3 		cmp	r7, #18
 4816 39fc 4D0F001A 		bne	.L190
 4817 3a00 E0661FE5 		ldr	r6, .L359+108
 4818 3a04 0030D6E5 		ldrb	r3, [r6, #0]	@ zero_extendqisi2
 4819 3a08 013083E2 		add	r3, r3, #1
 4820 3a0c 0030C6E5 		strb	r3, [r6, #0]
 4821 3a10 EC361FE5 		ldr	r3, .L359+112
 4822 3a14 0020D3E5 		ldrb	r2, [r3, #0]	@ zero_extendqisi2
 4823 3a18 0030D6E5 		ldrb	r3, [r6, #0]	@ zero_extendqisi2
 4824 3a1c 020053E1 		cmp	r3, r2
 4825 3a20 0030A023 		movcs	r3, #0
 4826 3a24 0030C625 		strcsb	r3, [r6, #0]
 4827 3a28 00371FE5 		ldr	r3, .L359+116
 4828 3a2c 000093E5 		ldr	r0, [r3, #0]
 4829 3a30 FEFFFFEB 		bl	__floatsisf
 4830 3a34 0040D6E5 		ldrb	r4, [r6, #0]	@ zero_extendqisi2
 4831 3a38 0C871FE5 		ldr	r8, .L359+120
 4832 3a3c 844084E0 		add	r4, r4, r4, asl #1
 4833 3a40 0441A0E1 		mov	r4, r4, asl #2
 4834 3a44 081094E7 		ldr	r1, [r4, r8]	@ float
 4835 3a48 FEFFFFEB 		bl	__addsf3
 4836 3a4c 1C371FE5 		ldr	r3, .L359+124
 4837 3a50 60000BE5 		str	r0, [fp, #-96]	@ float
 4838 3a54 084084E0 		add	r4, r4, r8
 4839 3a58 000093E5 		ldr	r0, [r3, #0]
 4840 3a5c FEFFFFEB 		bl	__floatsisf
 4841 3a60 041094E5 		ldr	r1, [r4, #4]	@ float
 4842 3a64 FEFFFFEB 		bl	__addsf3
 4843 3a68 64000BE5 		str	r0, [fp, #-100]	@ float
 4844 3a6c 1400A0E3 		mov	r0, #20
 4845 3a70 FEFFFFEB 		bl	uart1_check_free_space
 4846 3a74 FF0010E3 		tst	r0, #255
 4847 3a78 04271F05 		ldreq	r2, .L359+192
 4848 3a7c 0030D205 		ldreqb	r3, [r2, #0]	@ zero_extendqisi2
 4849 3a80 01308302 		addeq	r3, r3, #1
 4850 3a84 0030C205 		streqb	r3, [r2, #0]
 4851 3a88 4D0F000A 		beq	.L190
 4852 3a8c 14171FE5 		ldr	r1, .L359+196
 4853 3a90 14C71FE5 		ldr	ip, .L359+200
 4854 3a94 B030D1E1 		ldrh	r3, [r1, #0]
 4855 3a98 B020DCE1 		ldrh	r2, [ip, #0]
 4856 3a9c 143083E2 		add	r3, r3, #20
 4857 3aa0 012082E2 		add	r2, r2, #1
 4858 3aa4 B030C1E1 		strh	r3, [r1, #0]	@ movhi 
 4859 3aa8 B020CCE1 		strh	r2, [ip, #0]	@ movhi 
 4860 3aac 9900A0E3 		mov	r0, #153
 4861 3ab0 30471FE5 		ldr	r4, .L359+204
 4862 3ab4 FEFFFFEB 		bl	uart1_transmit
 4863 3ab8 1400A0E3 		mov	r0, #20
 4864 3abc 38571FE5 		ldr	r5, .L359+208
 4865 3ac0 FEFFFFEB 		bl	uart1_transmit
 4866 3ac4 2630A0E3 		mov	r3, #38
 4867 3ac8 0030C4E5 		strb	r3, [r4, #0]
 4868 3acc 143083E2 		add	r3, r3, #20
 4869 3ad0 0700A0E1 		mov	r0, r7
 4870 3ad4 0030C5E5 		strb	r3, [r5, #0]
 4871 3ad8 FEFFFFEB 		bl	uart1_transmit
 4872 3adc 0030D4E5 		ldrb	r3, [r4, #0]	@ zero_extendqisi2
 4873 3ae0 233083E2 		add	r3, r3, #35
 4874 3ae4 0030C4E5 		strb	r3, [r4, #0]
 4875 3ae8 0030D5E5 		ldrb	r3, [r5, #0]	@ zero_extendqisi2
 4876 3aec 0020D4E5 		ldrb	r2, [r4, #0]	@ zero_extendqisi2
 4877 3af0 023083E0 		add	r3, r3, r2
 4878 3af4 2300A0E3 		mov	r0, #35
 4879 3af8 0030C5E5 		strb	r3, [r5, #0]
 4880 3afc FEFFFFEB 		bl	uart1_transmit
 4881 3b00 0000D6E5 		ldrb	r0, [r6, #0]	@ zero_extendqisi2
 4882 3b04 0030D4E5 		ldrb	r3, [r4, #0]	@ zero_extendqisi2
 4883 3b08 033080E0 		add	r3, r0, r3
 4884 3b0c 0030C4E5 		strb	r3, [r4, #0]
 4885 3b10 0030D5E5 		ldrb	r3, [r5, #0]	@ zero_extendqisi2
 4886 3b14 0020D4E5 		ldrb	r2, [r4, #0]	@ zero_extendqisi2
 4887 3b18 023083E0 		add	r3, r3, r2
 4888 3b1c 0030C5E5 		strb	r3, [r5, #0]
 4889 3b20 FEFFFFEB 		bl	uart1_transmit
 4890 3b24 60005BE5 		ldrb	r0, [fp, #-96]	@ zero_extendqisi2
 4891 3b28 0030D4E5 		ldrb	r3, [r4, #0]	@ zero_extendqisi2
 4892 3b2c 033080E0 		add	r3, r0, r3
 4893 3b30 0030C4E5 		strb	r3, [r4, #0]
 4894 3b34 0030D5E5 		ldrb	r3, [r5, #0]	@ zero_extendqisi2
 4895 3b38 0020D4E5 		ldrb	r2, [r4, #0]	@ zero_extendqisi2
 4896 3b3c 023083E0 		add	r3, r3, r2
 4897 3b40 0030C5E5 		strb	r3, [r5, #0]
 4898 3b44 FEFFFFEB 		bl	uart1_transmit
 4899 3b48 5F005BE5 		ldrb	r0, [fp, #-95]	@ zero_extendqisi2
 4900 3b4c 0030D4E5 		ldrb	r3, [r4, #0]	@ zero_extendqisi2
 4901 3b50 033080E0 		add	r3, r0, r3
 4902 3b54 0030C4E5 		strb	r3, [r4, #0]
 4903 3b58 0030D5E5 		ldrb	r3, [r5, #0]	@ zero_extendqisi2
 4904 3b5c 0020D4E5 		ldrb	r2, [r4, #0]	@ zero_extendqisi2
 4905 3b60 023083E0 		add	r3, r3, r2
 4906 3b64 0030C5E5 		strb	r3, [r5, #0]
 4907 3b68 FEFFFFEB 		bl	uart1_transmit
 4908 3b6c 5E005BE5 		ldrb	r0, [fp, #-94]	@ zero_extendqisi2
 4909 3b70 0030D4E5 		ldrb	r3, [r4, #0]	@ zero_extendqisi2
 4910 3b74 033080E0 		add	r3, r0, r3
 4911 3b78 0030C4E5 		strb	r3, [r4, #0]
 4912 3b7c 0030D5E5 		ldrb	r3, [r5, #0]	@ zero_extendqisi2
 4913 3b80 0020D4E5 		ldrb	r2, [r4, #0]	@ zero_extendqisi2
 4914 3b84 023083E0 		add	r3, r3, r2
 4915 3b88 0030C5E5 		strb	r3, [r5, #0]
 4916 3b8c FEFFFFEB 		bl	uart1_transmit
 4917 3b90 5D005BE5 		ldrb	r0, [fp, #-93]	@ zero_extendqisi2
 4918 3b94 0030D4E5 		ldrb	r3, [r4, #0]	@ zero_extendqisi2
 4919 3b98 033080E0 		add	r3, r0, r3
 4920 3b9c 0030C4E5 		strb	r3, [r4, #0]
 4921 3ba0 0030D5E5 		ldrb	r3, [r5, #0]	@ zero_extendqisi2
 4922 3ba4 0020D4E5 		ldrb	r2, [r4, #0]	@ zero_extendqisi2
 4923 3ba8 023083E0 		add	r3, r3, r2
 4924 3bac 0030C5E5 		strb	r3, [r5, #0]
 4925 3bb0 FEFFFFEB 		bl	uart1_transmit
 4926 3bb4 64005BE5 		ldrb	r0, [fp, #-100]	@ zero_extendqisi2
 4927 3bb8 0030D4E5 		ldrb	r3, [r4, #0]	@ zero_extendqisi2
 4928 3bbc 033080E0 		add	r3, r0, r3
 4929 3bc0 0030C4E5 		strb	r3, [r4, #0]
 4930 3bc4 0030D5E5 		ldrb	r3, [r5, #0]	@ zero_extendqisi2
 4931 3bc8 0020D4E5 		ldrb	r2, [r4, #0]	@ zero_extendqisi2
 4932 3bcc 023083E0 		add	r3, r3, r2
 4933 3bd0 0030C5E5 		strb	r3, [r5, #0]
 4934 3bd4 FEFFFFEB 		bl	uart1_transmit
 4935 3bd8 63005BE5 		ldrb	r0, [fp, #-99]	@ zero_extendqisi2
 4936 3bdc 0030D4E5 		ldrb	r3, [r4, #0]	@ zero_extendqisi2
 4937 3be0 033080E0 		add	r3, r0, r3
 4938 3be4 0030C4E5 		strb	r3, [r4, #0]
 4939 3be8 0030D5E5 		ldrb	r3, [r5, #0]	@ zero_extendqisi2
 4940 3bec 0020D4E5 		ldrb	r2, [r4, #0]	@ zero_extendqisi2
 4941 3bf0 023083E0 		add	r3, r3, r2
 4942 3bf4 0030C5E5 		strb	r3, [r5, #0]
 4943 3bf8 FEFFFFEB 		bl	uart1_transmit
 4944 3bfc 62005BE5 		ldrb	r0, [fp, #-98]	@ zero_extendqisi2
 4945 3c00 0030D4E5 		ldrb	r3, [r4, #0]	@ zero_extendqisi2
 4946 3c04 033080E0 		add	r3, r0, r3
 4947 3c08 0030C4E5 		strb	r3, [r4, #0]
 4948 3c0c 0030D5E5 		ldrb	r3, [r5, #0]	@ zero_extendqisi2
 4949 3c10 0020D4E5 		ldrb	r2, [r4, #0]	@ zero_extendqisi2
 4950 3c14 023083E0 		add	r3, r3, r2
 4951 3c18 0030C5E5 		strb	r3, [r5, #0]
 4952 3c1c FEFFFFEB 		bl	uart1_transmit
 4953 3c20 61005BE5 		ldrb	r0, [fp, #-97]	@ zero_extendqisi2
 4954 3c24 0030D4E5 		ldrb	r3, [r4, #0]	@ zero_extendqisi2
 4955 3c28 033080E0 		add	r3, r0, r3
 4956 3c2c 0030C4E5 		strb	r3, [r4, #0]
 4957 3c30 0030D5E5 		ldrb	r3, [r5, #0]	@ zero_extendqisi2
 4958 3c34 0020D4E5 		ldrb	r2, [r4, #0]	@ zero_extendqisi2
 4959 3c38 023083E0 		add	r3, r3, r2
 4960 3c3c 0030C5E5 		strb	r3, [r5, #0]
 4961 3c40 FEFFFFEB 		bl	uart1_transmit
 4962 3c44 0030D6E5 		ldrb	r3, [r6, #0]	@ zero_extendqisi2
 4963 3c48 082088E2 		add	r2, r8, #8
 4964 3c4c 833083E0 		add	r3, r3, r3, asl #1
 4965 3c50 0301D2E7 		ldrb	r0, [r2, r3, asl #2]	@ zero_extendqisi2
 4966 3c54 0030D4E5 		ldrb	r3, [r4, #0]	@ zero_extendqisi2
 4967 3c58 033080E0 		add	r3, r0, r3
 4968 3c5c 0030C4E5 		strb	r3, [r4, #0]
 4969 3c60 0030D5E5 		ldrb	r3, [r5, #0]	@ zero_extendqisi2
 4970 3c64 0020D4E5 		ldrb	r2, [r4, #0]	@ zero_extendqisi2
 4971 3c68 023083E0 		add	r3, r3, r2
 4972 3c6c 0030C5E5 		strb	r3, [r5, #0]
 4973 3c70 FEFFFFEB 		bl	uart1_transmit
 4974 3c74 0030D6E5 		ldrb	r3, [r6, #0]	@ zero_extendqisi2
 4975 3c78 092088E2 		add	r2, r8, #9
 4976 3c7c 833083E0 		add	r3, r3, r3, asl #1
 4977 3c80 0301D2E7 		ldrb	r0, [r2, r3, asl #2]	@ zero_extendqisi2
 4978 3c84 0030D4E5 		ldrb	r3, [r4, #0]	@ zero_extendqisi2
 4979 3c88 033080E0 		add	r3, r0, r3
 4980 3c8c 0030C4E5 		strb	r3, [r4, #0]
 4981 3c90 0030D5E5 		ldrb	r3, [r5, #0]	@ zero_extendqisi2
 4982 3c94 0020D4E5 		ldrb	r2, [r4, #0]	@ zero_extendqisi2
 4983 3c98 023083E0 		add	r3, r3, r2
 4984 3c9c 0030C5E5 		strb	r3, [r5, #0]
 4985 3ca0 FEFFFFEB 		bl	uart1_transmit
 4986 3ca4 0030D6E5 		ldrb	r3, [r6, #0]	@ zero_extendqisi2
 4987 3ca8 0A2088E2 		add	r2, r8, #10
 4988 3cac 833083E0 		add	r3, r3, r3, asl #1
 4989 3cb0 0301D2E7 		ldrb	r0, [r2, r3, asl #2]	@ zero_extendqisi2
 4990 3cb4 0030D4E5 		ldrb	r3, [r4, #0]	@ zero_extendqisi2
 4991 3cb8 033080E0 		add	r3, r0, r3
 4992 3cbc 0030C4E5 		strb	r3, [r4, #0]
 4993 3cc0 0030D5E5 		ldrb	r3, [r5, #0]	@ zero_extendqisi2
 4994 3cc4 0020D4E5 		ldrb	r2, [r4, #0]	@ zero_extendqisi2
 4995 3cc8 023083E0 		add	r3, r3, r2
 4996 3ccc 0030C5E5 		strb	r3, [r5, #0]
 4997 3cd0 FEFFFFEB 		bl	uart1_transmit
 4998 3cd4 0030D6E5 		ldrb	r3, [r6, #0]	@ zero_extendqisi2
 4999 3cd8 0B2088E2 		add	r2, r8, #11
 5000 3cdc 833083E0 		add	r3, r3, r3, asl #1
 5001 3ce0 0301D2E7 		ldrb	r0, [r2, r3, asl #2]	@ zero_extendqisi2
 5002 3ce4 0030D4E5 		ldrb	r3, [r4, #0]	@ zero_extendqisi2
 5003 3ce8 033080E0 		add	r3, r0, r3
 5004 3cec 0030C4E5 		strb	r3, [r4, #0]
 5005 3cf0 0030D5E5 		ldrb	r3, [r5, #0]	@ zero_extendqisi2
 5006 3cf4 0020D4E5 		ldrb	r2, [r4, #0]	@ zero_extendqisi2
 5007 3cf8 023083E0 		add	r3, r3, r2
 5008 3cfc 0030C5E5 		strb	r3, [r5, #0]
 5009 3d00 FEFFFFEB 		bl	uart1_transmit
 5010 3d04 D0391FE5 		ldr	r3, .L359+128
 5011 3d08 0000D3E5 		ldrb	r0, [r3, #0]	@ zero_extendqisi2
 5012 3d0c 0030D4E5 		ldrb	r3, [r4, #0]	@ zero_extendqisi2
 5013 3d10 033080E0 		add	r3, r0, r3
 5014 3d14 0030C4E5 		strb	r3, [r4, #0]
 5015 3d18 0030D5E5 		ldrb	r3, [r5, #0]	@ zero_extendqisi2
 5016 3d1c 0020D4E5 		ldrb	r2, [r4, #0]	@ zero_extendqisi2
 5017 3d20 023083E0 		add	r3, r3, r2
 5018 3d24 0030C5E5 		strb	r3, [r5, #0]
 5019 3d28 FEFFFFEB 		bl	uart1_transmit
 5020 3d2c 0000D4E5 		ldrb	r0, [r4, #0]	@ zero_extendqisi2
 5021 3d30 FEFFFFEB 		bl	uart1_transmit
 5022 3d34 0000D5E5 		ldrb	r0, [r5, #0]	@ zero_extendqisi2
 5023 3d38 FEFFFFEB 		bl	uart1_transmit
 5024              	.L190:
 5025 3d3c 0030DAE5 		ldrb	r3, [sl, #0]	@ zero_extendqisi2
 5026 3d40 180053E3 		cmp	r3, #24
 5027 3d44 EB0F001A 		bne	.L194
 5028 3d48 DC691FE5 		ldr	r6, .L359+184
 5029 3d4c 0030D6E5 		ldrb	r3, [r6, #0]	@ zero_extendqisi2
 5030 3d50 0B0053E3 		cmp	r3, #11
 5031 3d54 0030A083 		movhi	r3, #0
 5032 3d58 0030C685 		strhib	r3, [r6, #0]
 5033 3d5c 0030D6E5 		ldrb	r3, [r6, #0]	@ zero_extendqisi2
 5034 3d60 0B0053E3 		cmp	r3, #11
 5035 3d64 03F19F97 		ldrls	pc, [pc, r3, asl #2]
 5036 3d68 8F0F00EA 		b	.L215
 5037              		.p2align 2
 5038              	.L216:
 5039 3d6c 9C3D0000 		.word	.L197
 5040 3d70 A43D0000 		.word	.L198
 5041 3d74 B03D0000 		.word	.L199
 5042 3d78 B83D0000 		.word	.L200
 5043 3d7c C03D0000 		.word	.L202
 5044 3d80 C83D0000 		.word	.L203
 5045 3d84 D03D0000 		.word	.L205
 5046 3d88 D83D0000 		.word	.L207
 5047 3d8c E43D0000 		.word	.L209
 5048 3d90 043E0000 		.word	.L211
 5049 3d94 2C3E0000 		.word	.L213
 5050 3d98 383E0000 		.word	.L214
 5051              	.L197:
 5052 3d9c 643A1FE5 		ldr	r3, .L359+132
 5053 3da0 680F00EA 		b	.L347
 5054              	.L198:
 5055 3da4 683A1FE5 		ldr	r3, .L359+136
 5056              	.L347:
 5057 3da8 003093E5 		ldr	r3, [r3, #0]	@ float
 5058 3dac 900F00EA 		b	.L337
 5059              	.L199:
 5060 3db0 703A1FE5 		ldr	r3, .L359+140
 5061 3db4 680F00EA 		b	.L347
 5062              	.L200:
 5063 3db8 743A1FE5 		ldr	r3, .L359+144
 5064 3dbc 800F00EA 		b	.L350
 5065              	.L202:
 5066 3dc0 783A1FE5 		ldr	r3, .L359+148
 5067 3dc4 680F00EA 		b	.L347
 5068              	.L203:
 5069 3dc8 7C3A1FE5 		ldr	r3, .L359+152
 5070 3dcc 750F00EA 		b	.L354
 5071              	.L205:
 5072 3dd0 803A1FE5 		ldr	r3, .L359+156
 5073 3dd4 750F00EA 		b	.L354
 5074              	.L207:
 5075 3dd8 843A1FE5 		ldr	r3, .L359+160
 5076              	.L354:
 5077 3ddc D040D3E1 		ldrsb	r4, [r3, #0]
 5078 3de0 790F00EA 		b	.L353
 5079              	.L209:
 5080 3de4 8C0A1FE5 		ldr	r0, .L359+164
 5081 3de8 D040D0E1 		ldrsb	r4, [r0, #0]
 5082              	.L353:
 5083 3dec 0400A0E1 		mov	r0, r4
 5084 3df0 FEFFFFEB 		bl	__floatsisf
 5085 3df4 000054E3 		cmp	r4, #0
 5086 3df8 9C1A1FB5 		ldrlt	r1, .L359+168
 5087 3dfc 860F00BA 		blt	.L346
 5088 3e00 870F00EA 		b	.L212
 5089              	.L211:
 5090 3e04 A43A1FE5 		ldr	r3, .L359+172
 5091              	.L350:
 5092 3e08 F040D3E1 		ldrsh	r4, [r3, #0]
 5093 3e0c 0400A0E1 		mov	r0, r4
 5094 3e10 FEFFFFEB 		bl	__floatsisf
 5095 3e14 000054E3 		cmp	r4, #0
 5096 3e18 870F00AA 		bge	.L212
 5097 3e1c B81A1FE5 		ldr	r1, .L359+176
 5098              	.L346:
 5099 3e20 FEFFFFEB 		bl	__addsf3
 5100              	.L212:
 5101 3e24 68000BE5 		str	r0, [fp, #-104]	@ float
 5102 3e28 910F00EA 		b	.L196
 5103              	.L213:
 5104 3e2c C43A1FE5 		ldr	r3, .L359+180
 5105 3e30 083093E5 		ldr	r3, [r3, #8]	@ float
 5106 3e34 900F00EA 		b	.L337
 5107              	.L214:
 5108 3e38 D03A1FE5 		ldr	r3, .L359+180
 5109 3e3c 0C3093E5 		ldr	r3, [r3, #12]	@ float
 5110 3e40 900F00EA 		b	.L337
 5111              	.L215:
 5112 3e44 0030A0E3 		mov	r3, #0
 5113              	.L337:
 5114 3e48 68300BE5 		str	r3, [fp, #-104]	@ float
 5115              	.L196:
 5116 3e4c 0B00A0E3 		mov	r0, #11
 5117 3e50 FEFFFFEB 		bl	uart1_check_free_space
 5118 3e54 FF0010E3 		tst	r0, #255
 5119 3e58 E42A1F05 		ldreq	r2, .L359+192
 5120 3e5c 0030D205 		ldreqb	r3, [r2, #0]	@ zero_extendqisi2
 5121 3e60 01308302 		addeq	r3, r3, #1
 5122 3e64 0030C205 		streqb	r3, [r2, #0]
 5123 3e68 E70F000A 		beq	.L218
 5124 3e6c F41A1FE5 		ldr	r1, .L359+196
 5125 3e70 F4CA1FE5 		ldr	ip, .L359+200
 5126 3e74 B030D1E1 		ldrh	r3, [r1, #0]
 5127 3e78 B020DCE1 		ldrh	r2, [ip, #0]
 5128 3e7c 0B3083E2 		add	r3, r3, #11
 5129 3e80 012082E2 		add	r2, r2, #1
 5130 3e84 B030C1E1 		strh	r3, [r1, #0]	@ movhi 
 5131 3e88 B020CCE1 		strh	r2, [ip, #0]	@ movhi 
 5132 3e8c 9900A0E3 		mov	r0, #153
 5133 3e90 104B1FE5 		ldr	r4, .L359+204
 5134 3e94 FEFFFFEB 		bl	uart1_transmit
 5135 3e98 0B00A0E3 		mov	r0, #11
 5136 3e9c 185B1FE5 		ldr	r5, .L359+208
 5137 3ea0 FEFFFFEB 		bl	uart1_transmit
 5138 3ea4 1D30A0E3 		mov	r3, #29
 5139 3ea8 0030C4E5 		strb	r3, [r4, #0]
 5140 3eac 0B3083E2 		add	r3, r3, #11
 5141 3eb0 1200A0E3 		mov	r0, #18
 5142 3eb4 0030C5E5 		strb	r3, [r5, #0]
 5143 3eb8 FEFFFFEB 		bl	uart1_transmit
 5144 3ebc 0030D4E5 		ldrb	r3, [r4, #0]	@ zero_extendqisi2
 5145 3ec0 1F3083E2 		add	r3, r3, #31
 5146 3ec4 0030C4E5 		strb	r3, [r4, #0]
 5147 3ec8 0030D5E5 		ldrb	r3, [r5, #0]	@ zero_extendqisi2
 5148 3ecc 0020D4E5 		ldrb	r2, [r4, #0]	@ zero_extendqisi2
 5149 3ed0 023083E0 		add	r3, r3, r2
 5150 3ed4 1F00A0E3 		mov	r0, #31
 5151 3ed8 0030C5E5 		strb	r3, [r5, #0]
 5152 3edc FEFFFFEB 		bl	uart1_transmit
 5153 3ee0 0000D6E5 		ldrb	r0, [r6, #0]	@ zero_extendqisi2
 5154 3ee4 0030D4E5 		ldrb	r3, [r4, #0]	@ zero_extendqisi2
 5155 3ee8 033080E0 		add	r3, r0, r3
 5156 3eec 0030C4E5 		strb	r3, [r4, #0]
 5157 3ef0 0030D5E5 		ldrb	r3, [r5, #0]	@ zero_extendqisi2
 5158 3ef4 0020D4E5 		ldrb	r2, [r4, #0]	@ zero_extendqisi2
 5159 3ef8 023083E0 		add	r3, r3, r2
 5160 3efc 0030C5E5 		strb	r3, [r5, #0]
 5161 3f00 FEFFFFEB 		bl	uart1_transmit
 5162 3f04 68005BE5 		ldrb	r0, [fp, #-104]	@ zero_extendqisi2
 5163 3f08 0030D4E5 		ldrb	r3, [r4, #0]	@ zero_extendqisi2
 5164 3f0c 033080E0 		add	r3, r0, r3
 5165 3f10 0030C4E5 		strb	r3, [r4, #0]
 5166 3f14 0030D5E5 		ldrb	r3, [r5, #0]	@ zero_extendqisi2
 5167 3f18 0020D4E5 		ldrb	r2, [r4, #0]	@ zero_extendqisi2
 5168 3f1c 023083E0 		add	r3, r3, r2
 5169 3f20 0030C5E5 		strb	r3, [r5, #0]
 5170 3f24 FEFFFFEB 		bl	uart1_transmit
 5171 3f28 67005BE5 		ldrb	r0, [fp, #-103]	@ zero_extendqisi2
 5172 3f2c 0030D4E5 		ldrb	r3, [r4, #0]	@ zero_extendqisi2
 5173 3f30 033080E0 		add	r3, r0, r3
 5174 3f34 0030C4E5 		strb	r3, [r4, #0]
 5175 3f38 0030D5E5 		ldrb	r3, [r5, #0]	@ zero_extendqisi2
 5176 3f3c 0020D4E5 		ldrb	r2, [r4, #0]	@ zero_extendqisi2
 5177 3f40 023083E0 		add	r3, r3, r2
 5178 3f44 0030C5E5 		strb	r3, [r5, #0]
 5179 3f48 FEFFFFEB 		bl	uart1_transmit
 5180 3f4c 66005BE5 		ldrb	r0, [fp, #-102]	@ zero_extendqisi2
 5181 3f50 0030D4E5 		ldrb	r3, [r4, #0]	@ zero_extendqisi2
 5182 3f54 033080E0 		add	r3, r0, r3
 5183 3f58 0030C4E5 		strb	r3, [r4, #0]
 5184 3f5c 0030D5E5 		ldrb	r3, [r5, #0]	@ zero_extendqisi2
 5185 3f60 0020D4E5 		ldrb	r2, [r4, #0]	@ zero_extendqisi2
 5186 3f64 023083E0 		add	r3, r3, r2
 5187 3f68 0030C5E5 		strb	r3, [r5, #0]
 5188 3f6c FEFFFFEB 		bl	uart1_transmit
 5189 3f70 65005BE5 		ldrb	r0, [fp, #-101]	@ zero_extendqisi2
 5190 3f74 0030D4E5 		ldrb	r3, [r4, #0]	@ zero_extendqisi2
 5191 3f78 033080E0 		add	r3, r0, r3
 5192 3f7c 0030C4E5 		strb	r3, [r4, #0]
 5193 3f80 0030D5E5 		ldrb	r3, [r5, #0]	@ zero_extendqisi2
 5194 3f84 0020D4E5 		ldrb	r2, [r4, #0]	@ zero_extendqisi2
 5195 3f88 023083E0 		add	r3, r3, r2
 5196 3f8c 0030C5E5 		strb	r3, [r5, #0]
 5197 3f90 FEFFFFEB 		bl	uart1_transmit
 5198 3f94 0000D4E5 		ldrb	r0, [r4, #0]	@ zero_extendqisi2
 5199 3f98 FEFFFFEB 		bl	uart1_transmit
 5200 3f9c 0000D5E5 		ldrb	r0, [r5, #0]	@ zero_extendqisi2
 5201 3fa0 FEFFFFEB 		bl	uart1_transmit
 5202              	.L218:
 5203 3fa4 382C1FE5 		ldr	r2, .L359+184
 5204 3fa8 0030D2E5 		ldrb	r3, [r2, #0]	@ zero_extendqisi2
 5205 3fac 013083E2 		add	r3, r3, #1
 5206 3fb0 0030C2E5 		strb	r3, [r2, #0]
 5207              	.L194:
 5208 3fb4 0030D9E5 		ldrb	r3, [r9, #0]	@ zero_extendqisi2
 5209 3fb8 1E0053E3 		cmp	r3, #30
 5210 3fbc AF10001A 		bne	.L219
 5211 3fc0 503C1FE5 		ldr	r3, .L359+188
 5212 3fc4 0030D3E5 		ldrb	r3, [r3, #0]	@ zero_extendqisi2
 5213 3fc8 000053E3 		cmp	r3, #0
 5214 3fcc AF10000A 		beq	.L219
 5215 3fd0 1600A0E3 		mov	r0, #22
 5216 3fd4 FEFFFFEB 		bl	uart1_check_free_space
 5217 3fd8 FF0010E3 		tst	r0, #255
 5218 3fdc 682C1F05 		ldreq	r2, .L359+192
 5219 3fe0 0030D205 		ldreqb	r3, [r2, #0]	@ zero_extendqisi2
 5220 3fe4 01308302 		addeq	r3, r3, #1
 5221 3fe8 0030C205 		streqb	r3, [r2, #0]
 5222 3fec AF10000A 		beq	.L219
 5223 3ff0 781C1FE5 		ldr	r1, .L359+196
 5224 3ff4 78CC1FE5 		ldr	ip, .L359+200
 5225 3ff8 B030D1E1 		ldrh	r3, [r1, #0]
 5226 3ffc B020DCE1 		ldrh	r2, [ip, #0]
 5227 4000 163083E2 		add	r3, r3, #22
 5228 4004 012082E2 		add	r2, r2, #1
 5229 4008 B030C1E1 		strh	r3, [r1, #0]	@ movhi 
 5230 400c B020CCE1 		strh	r2, [ip, #0]	@ movhi 
 5231 4010 9900A0E3 		mov	r0, #153
 5232 4014 944C1FE5 		ldr	r4, .L359+204
 5233 4018 FEFFFFEB 		bl	uart1_transmit
 5234 401c 1600A0E3 		mov	r0, #22
 5235 4020 9C5C1FE5 		ldr	r5, .L359+208
 5236 4024 FEFFFFEB 		bl	uart1_transmit
 5237 4028 2830A0E3 		mov	r3, #40
 5238 402c 0030C4E5 		strb	r3, [r4, #0]
 5239 4030 163083E2 		add	r3, r3, #22
 5240 4034 1200A0E3 		mov	r0, #18
 5241 4038 0030C5E5 		strb	r3, [r5, #0]
 5242 403c FEFFFFEB 		bl	uart1_transmit
 5243 4040 0030D4E5 		ldrb	r3, [r4, #0]	@ zero_extendqisi2
 5244 4044 1B3083E2 		add	r3, r3, #27
 5245 4048 0030C4E5 		strb	r3, [r4, #0]
 5246 404c 0030D5E5 		ldrb	r3, [r5, #0]	@ zero_extendqisi2
 5247 4050 0020D4E5 		ldrb	r2, [r4, #0]	@ zero_extendqisi2
 5248 4054 CC6C1FE5 		ldr	r6, .L359+212
 5249 4058 023083E0 		add	r3, r3, r2
 5250 405c 1B00A0E3 		mov	r0, #27
 5251 4060 0030C5E5 		strb	r3, [r5, #0]
 5252 4064 FEFFFFEB 		bl	uart1_transmit
 5253 4068 0000D6E5 		ldrb	r0, [r6, #0]	@ zero_extendqisi2
 5254 406c 0030D4E5 		ldrb	r3, [r4, #0]	@ zero_extendqisi2
 5255 4070 033080E0 		add	r3, r0, r3
 5256 4074 0030C4E5 		strb	r3, [r4, #0]
 5257 4078 0030D5E5 		ldrb	r3, [r5, #0]	@ zero_extendqisi2
 5258 407c 0020D4E5 		ldrb	r2, [r4, #0]	@ zero_extendqisi2
 5259 4080 023083E0 		add	r3, r3, r2
 5260 4084 0030C5E5 		strb	r3, [r5, #0]
 5261 4088 FEFFFFEB 		bl	uart1_transmit
 5262 408c 0100D6E5 		ldrb	r0, [r6, #1]	@ zero_extendqisi2
 5263 4090 0030D4E5 		ldrb	r3, [r4, #0]	@ zero_extendqisi2
 5264 4094 033080E0 		add	r3, r0, r3
 5265 4098 0030C4E5 		strb	r3, [r4, #0]
 5266 409c 0030D5E5 		ldrb	r3, [r5, #0]	@ zero_extendqisi2
 5267 40a0 0020D4E5 		ldrb	r2, [r4, #0]	@ zero_extendqisi2
 5268 40a4 023083E0 		add	r3, r3, r2
 5269 40a8 0030C5E5 		strb	r3, [r5, #0]
 5270 40ac FEFFFFEB 		bl	uart1_transmit
 5271 40b0 0200D6E5 		ldrb	r0, [r6, #2]	@ zero_extendqisi2
 5272 40b4 0030D4E5 		ldrb	r3, [r4, #0]	@ zero_extendqisi2
 5273 40b8 033080E0 		add	r3, r0, r3
 5274 40bc 0030C4E5 		strb	r3, [r4, #0]
 5275 40c0 0030D5E5 		ldrb	r3, [r5, #0]	@ zero_extendqisi2
 5276 40c4 0020D4E5 		ldrb	r2, [r4, #0]	@ zero_extendqisi2
 5277 40c8 023083E0 		add	r3, r3, r2
 5278 40cc 0030C5E5 		strb	r3, [r5, #0]
 5279 40d0 FEFFFFEB 		bl	uart1_transmit
 5280 40d4 0300D6E5 		ldrb	r0, [r6, #3]	@ zero_extendqisi2
 5281 40d8 0030D4E5 		ldrb	r3, [r4, #0]	@ zero_extendqisi2
 5282 40dc 033080E0 		add	r3, r0, r3
 5283 40e0 0030C4E5 		strb	r3, [r4, #0]
 5284 40e4 0030D5E5 		ldrb	r3, [r5, #0]	@ zero_extendqisi2
 5285 40e8 0020D4E5 		ldrb	r2, [r4, #0]	@ zero_extendqisi2
 5286 40ec 606D1FE5 		ldr	r6, .L359+216
 5287 40f0 023083E0 		add	r3, r3, r2
 5288 40f4 0030C5E5 		strb	r3, [r5, #0]
 5289 40f8 FEFFFFEB 		bl	uart1_transmit
 5290 40fc 0000D6E5 		ldrb	r0, [r6, #0]	@ zero_extendqisi2
 5291 4100 0030D4E5 		ldrb	r3, [r4, #0]	@ zero_extendqisi2
 5292 4104 033080E0 		add	r3, r0, r3
 5293 4108 0030C4E5 		strb	r3, [r4, #0]
 5294 410c 0030D5E5 		ldrb	r3, [r5, #0]	@ zero_extendqisi2
 5295 4110 0020D4E5 		ldrb	r2, [r4, #0]	@ zero_extendqisi2
 5296 4114 023083E0 		add	r3, r3, r2
 5297 4118 0030C5E5 		strb	r3, [r5, #0]
 5298 411c FEFFFFEB 		bl	uart1_transmit
 5299 4120 0100D6E5 		ldrb	r0, [r6, #1]	@ zero_extendqisi2
 5300 4124 0030D4E5 		ldrb	r3, [r4, #0]	@ zero_extendqisi2
 5301 4128 033080E0 		add	r3, r0, r3
 5302 412c 0030C4E5 		strb	r3, [r4, #0]
 5303 4130 0030D5E5 		ldrb	r3, [r5, #0]	@ zero_extendqisi2
 5304 4134 0020D4E5 		ldrb	r2, [r4, #0]	@ zero_extendqisi2
 5305 4138 023083E0 		add	r3, r3, r2
 5306 413c 0030C5E5 		strb	r3, [r5, #0]
 5307 4140 FEFFFFEB 		bl	uart1_transmit
 5308 4144 0200D6E5 		ldrb	r0, [r6, #2]	@ zero_extendqisi2
 5309 4148 0030D4E5 		ldrb	r3, [r4, #0]	@ zero_extendqisi2
 5310 414c 033080E0 		add	r3, r0, r3
 5311 4150 0030C4E5 		strb	r3, [r4, #0]
 5312 4154 0030D5E5 		ldrb	r3, [r5, #0]	@ zero_extendqisi2
 5313 4158 0020D4E5 		ldrb	r2, [r4, #0]	@ zero_extendqisi2
 5314 415c 023083E0 		add	r3, r3, r2
 5315 4160 0030C5E5 		strb	r3, [r5, #0]
 5316 4164 FEFFFFEB 		bl	uart1_transmit
 5317 4168 0300D6E5 		ldrb	r0, [r6, #3]	@ zero_extendqisi2
 5318 416c 0030D4E5 		ldrb	r3, [r4, #0]	@ zero_extendqisi2
 5319 4170 033080E0 		add	r3, r0, r3
 5320 4174 0030C4E5 		strb	r3, [r4, #0]
 5321 4178 0030D5E5 		ldrb	r3, [r5, #0]	@ zero_extendqisi2
 5322 417c 0020D4E5 		ldrb	r2, [r4, #0]	@ zero_extendqisi2
 5323 4180 F06D1FE5 		ldr	r6, .L359+220
 5324 4184 023083E0 		add	r3, r3, r2
 5325 4188 0030C5E5 		strb	r3, [r5, #0]
 5326 418c FEFFFFEB 		bl	uart1_transmit
 5327 4190 0000D6E5 		ldrb	r0, [r6, #0]	@ zero_extendqisi2
 5328 4194 0030D4E5 		ldrb	r3, [r4, #0]	@ zero_extendqisi2
 5329 4198 033080E0 		add	r3, r0, r3
 5330 419c 0030C4E5 		strb	r3, [r4, #0]
 5331 41a0 0030D5E5 		ldrb	r3, [r5, #0]	@ zero_extendqisi2
 5332 41a4 0020D4E5 		ldrb	r2, [r4, #0]	@ zero_extendqisi2
 5333 41a8 023083E0 		add	r3, r3, r2
 5334 41ac 0030C5E5 		strb	r3, [r5, #0]
 5335 41b0 FEFFFFEB 		bl	uart1_transmit
 5336 41b4 0100D6E5 		ldrb	r0, [r6, #1]	@ zero_extendqisi2
 5337 41b8 0030D4E5 		ldrb	r3, [r4, #0]	@ zero_extendqisi2
 5338 41bc 033080E0 		add	r3, r0, r3
 5339 41c0 0030C4E5 		strb	r3, [r4, #0]
 5340 41c4 0030D5E5 		ldrb	r3, [r5, #0]	@ zero_extendqisi2
 5341 41c8 0020D4E5 		ldrb	r2, [r4, #0]	@ zero_extendqisi2
 5342 41cc 023083E0 		add	r3, r3, r2
 5343 41d0 0030C5E5 		strb	r3, [r5, #0]
 5344 41d4 FEFFFFEB 		bl	uart1_transmit
 5345 41d8 0200D6E5 		ldrb	r0, [r6, #2]	@ zero_extendqisi2
 5346 41dc 0030D4E5 		ldrb	r3, [r4, #0]	@ zero_extendqisi2
 5347 41e0 033080E0 		add	r3, r0, r3
 5348 41e4 0030C4E5 		strb	r3, [r4, #0]
 5349 41e8 0030D5E5 		ldrb	r3, [r5, #0]	@ zero_extendqisi2
 5350 41ec 0020D4E5 		ldrb	r2, [r4, #0]	@ zero_extendqisi2
 5351 41f0 023083E0 		add	r3, r3, r2
 5352 41f4 0030C5E5 		strb	r3, [r5, #0]
 5353 41f8 FEFFFFEB 		bl	uart1_transmit
 5354 41fc 0300D6E5 		ldrb	r0, [r6, #3]	@ zero_extendqisi2
 5355 4200 0030D4E5 		ldrb	r3, [r4, #0]	@ zero_extendqisi2
 5356 4204 033080E0 		add	r3, r0, r3
 5357 4208 0030C4E5 		strb	r3, [r4, #0]
 5358 420c 0030D5E5 		ldrb	r3, [r5, #0]	@ zero_extendqisi2
 5359 4210 0020D4E5 		ldrb	r2, [r4, #0]	@ zero_extendqisi2
 5360 4214 806E1FE5 		ldr	r6, .L359+224
 5361 4218 023083E0 		add	r3, r3, r2
 5362 421c 0030C5E5 		strb	r3, [r5, #0]
 5363 4220 FEFFFFEB 		bl	uart1_transmit
 5364 4224 0000D6E5 		ldrb	r0, [r6, #0]	@ zero_extendqisi2
 5365 4228 0030D4E5 		ldrb	r3, [r4, #0]	@ zero_extendqisi2
 5366 422c 033080E0 		add	r3, r0, r3
 5367 4230 0030C4E5 		strb	r3, [r4, #0]
 5368 4234 0030D5E5 		ldrb	r3, [r5, #0]	@ zero_extendqisi2
 5369 4238 0020D4E5 		ldrb	r2, [r4, #0]	@ zero_extendqisi2
 5370 423c 023083E0 		add	r3, r3, r2
 5371 4240 0030C5E5 		strb	r3, [r5, #0]
 5372 4244 FEFFFFEB 		bl	uart1_transmit
 5373 4248 0100D6E5 		ldrb	r0, [r6, #1]	@ zero_extendqisi2
 5374 424c 0030D4E5 		ldrb	r3, [r4, #0]	@ zero_extendqisi2
 5375 4250 033080E0 		add	r3, r0, r3
 5376 4254 0030C4E5 		strb	r3, [r4, #0]
 5377 4258 0030D5E5 		ldrb	r3, [r5, #0]	@ zero_extendqisi2
 5378 425c 0020D4E5 		ldrb	r2, [r4, #0]	@ zero_extendqisi2
 5379 4260 023083E0 		add	r3, r3, r2
 5380 4264 0030C5E5 		strb	r3, [r5, #0]
 5381 4268 FEFFFFEB 		bl	uart1_transmit
 5382 426c 0200D6E5 		ldrb	r0, [r6, #2]	@ zero_extendqisi2
 5383 4270 0030D4E5 		ldrb	r3, [r4, #0]	@ zero_extendqisi2
 5384 4274 033080E0 		add	r3, r0, r3
 5385 4278 0030C4E5 		strb	r3, [r4, #0]
 5386 427c 0030D5E5 		ldrb	r3, [r5, #0]	@ zero_extendqisi2
 5387 4280 0020D4E5 		ldrb	r2, [r4, #0]	@ zero_extendqisi2
 5388 4284 023083E0 		add	r3, r3, r2
 5389 4288 0030C5E5 		strb	r3, [r5, #0]
 5390 428c FEFFFFEB 		bl	uart1_transmit
 5391 4290 0300D6E5 		ldrb	r0, [r6, #3]	@ zero_extendqisi2
 5392 4294 0030D4E5 		ldrb	r3, [r4, #0]	@ zero_extendqisi2
 5393 4298 033080E0 		add	r3, r0, r3
 5394 429c 0030C4E5 		strb	r3, [r4, #0]
 5395 42a0 0030D5E5 		ldrb	r3, [r5, #0]	@ zero_extendqisi2
 5396 42a4 0020D4E5 		ldrb	r2, [r4, #0]	@ zero_extendqisi2
 5397 42a8 023083E0 		add	r3, r3, r2
 5398 42ac 0030C5E5 		strb	r3, [r5, #0]
 5399 42b0 FEFFFFEB 		bl	uart1_transmit
 5400 42b4 0000D4E5 		ldrb	r0, [r4, #0]	@ zero_extendqisi2
 5401 42b8 FEFFFFEB 		bl	uart1_transmit
 5402 42bc 0000D5E5 		ldrb	r0, [r5, #0]	@ zero_extendqisi2
 5403 42c0 FEFFFFEB 		bl	uart1_transmit
 5404              	.L219:
 5405 42c4 2C2F1FE5 		ldr	r2, .L359+228
 5406 42c8 0030D2E5 		ldrb	r3, [r2, #0]	@ zero_extendqisi2
 5407 42cc 240053E3 		cmp	r3, #36
 5408 42d0 A011001A 		bne	.L223
 5409 42d4 383F1FE5 		ldr	r3, .L359+232
 5410 42d8 003093E5 		ldr	r3, [r3, #0]
 5411 42dc 0201C3E3 		bic	r0, r3, #-2147483648
 5412 42e0 FEFFFFEB 		bl	__extendsfdf2
 5413 42e4 FD2F8FE2 		adr	r2, .L362
 5414 42e8 0C0092E8 		ldmia	r2, {r2-r3}
 5415 42ec FEFFFFEB 		bl	__divdf3
 5416 42f0 FEFFFFEB 		bl	__fixunsdfsi
 5417 42f4 37004BE5 		strb	r0, [fp, #-55]
 5418 42f8 1A00A0E3 		mov	r0, #26
 5419 42fc FEFFFFEB 		bl	uart1_check_free_space
 5420 4300 FF0010E3 		tst	r0, #255
 5421 4304 38249F05 		ldreq	r2, .L362+100
 5422 4308 0030D205 		ldreqb	r3, [r2, #0]	@ zero_extendqisi2
 5423 430c 01308302 		addeq	r3, r3, #1
 5424 4310 0030C205 		streqb	r3, [r2, #0]
 5425 4314 A011000A 		beq	.L223
 5426 4318 64149FE5 		ldr	r1, .L362+164
 5427 431c 64C49FE5 		ldr	ip, .L362+168
 5428 4320 B030D1E1 		ldrh	r3, [r1, #0]
 5429 4324 B020DCE1 		ldrh	r2, [ip, #0]
 5430 4328 1A3083E2 		add	r3, r3, #26
 5431 432c 012082E2 		add	r2, r2, #1
 5432 4330 B030C1E1 		strh	r3, [r1, #0]	@ movhi 
 5433 4334 B020CCE1 		strh	r2, [ip, #0]	@ movhi 
 5434 4338 9900A0E3 		mov	r0, #153
 5435 433c 48449FE5 		ldr	r4, .L362+172
 5436 4340 FEFFFFEB 		bl	uart1_transmit
 5437 4344 1A00A0E3 		mov	r0, #26
 5438 4348 40549FE5 		ldr	r5, .L362+176
 5439 434c FEFFFFEB 		bl	uart1_transmit
 5440 4350 2C30A0E3 		mov	r3, #44
 5441 4354 0030C4E5 		strb	r3, [r4, #0]
 5442 4358 1A3083E2 		add	r3, r3, #26
 5443 435c 1200A0E3 		mov	r0, #18
 5444 4360 0030C5E5 		strb	r3, [r5, #0]
 5445 4364 FEFFFFEB 		bl	uart1_transmit
 5446 4368 0030D4E5 		ldrb	r3, [r4, #0]	@ zero_extendqisi2
 5447 436c 0A3083E2 		add	r3, r3, #10
 5448 4370 0030C4E5 		strb	r3, [r4, #0]
 5449 4374 0030D5E5 		ldrb	r3, [r5, #0]	@ zero_extendqisi2
 5450 4378 0020D4E5 		ldrb	r2, [r4, #0]	@ zero_extendqisi2
 5451 437c 023083E0 		add	r3, r3, r2
 5452 4380 0A00A0E3 		mov	r0, #10
 5453 4384 0030C5E5 		strb	r3, [r5, #0]
 5454 4388 FEFFFFEB 		bl	uart1_transmit
 5455 438c 54339FE5 		ldr	r3, .L362+8
 5456 4390 0000D3E5 		ldrb	r0, [r3, #0]	@ zero_extendqisi2
 5457 4394 0030D4E5 		ldrb	r3, [r4, #0]	@ zero_extendqisi2
 5458 4398 033080E0 		add	r3, r0, r3
 5459 439c 0030C4E5 		strb	r3, [r4, #0]
 5460 43a0 0030D5E5 		ldrb	r3, [r5, #0]	@ zero_extendqisi2
 5461 43a4 0020D4E5 		ldrb	r2, [r4, #0]	@ zero_extendqisi2
 5462 43a8 023083E0 		add	r3, r3, r2
 5463 43ac 0030C5E5 		strb	r3, [r5, #0]
 5464 43b0 FEFFFFEB 		bl	uart1_transmit
 5465 43b4 30339FE5 		ldr	r3, .L362+12
 5466 43b8 0000D3E5 		ldrb	r0, [r3, #0]	@ zero_extendqisi2
 5467 43bc 0030D4E5 		ldrb	r3, [r4, #0]	@ zero_extendqisi2
 5468 43c0 033080E0 		add	r3, r0, r3
 5469 43c4 0030C4E5 		strb	r3, [r4, #0]
 5470 43c8 0030D5E5 		ldrb	r3, [r5, #0]	@ zero_extendqisi2
 5471 43cc 0020D4E5 		ldrb	r2, [r4, #0]	@ zero_extendqisi2
 5472 43d0 18639FE5 		ldr	r6, .L362+16
 5473 43d4 023083E0 		add	r3, r3, r2
 5474 43d8 0030C5E5 		strb	r3, [r5, #0]
 5475 43dc FEFFFFEB 		bl	uart1_transmit
 5476 43e0 0000D6E5 		ldrb	r0, [r6, #0]	@ zero_extendqisi2
 5477 43e4 0030D4E5 		ldrb	r3, [r4, #0]	@ zero_extendqisi2
 5478 43e8 033080E0 		add	r3, r0, r3
 5479 43ec 0030C4E5 		strb	r3, [r4, #0]
 5480 43f0 0030D5E5 		ldrb	r3, [r5, #0]	@ zero_extendqisi2
 5481 43f4 0020D4E5 		ldrb	r2, [r4, #0]	@ zero_extendqisi2
 5482 43f8 023083E0 		add	r3, r3, r2
 5483 43fc 0030C5E5 		strb	r3, [r5, #0]
 5484 4400 FEFFFFEB 		bl	uart1_transmit
 5485 4404 0100D6E5 		ldrb	r0, [r6, #1]	@ zero_extendqisi2
 5486 4408 0030D4E5 		ldrb	r3, [r4, #0]	@ zero_extendqisi2
 5487 440c 033080E0 		add	r3, r0, r3
 5488 4410 0030C4E5 		strb	r3, [r4, #0]
 5489 4414 0030D5E5 		ldrb	r3, [r5, #0]	@ zero_extendqisi2
 5490 4418 0020D4E5 		ldrb	r2, [r4, #0]	@ zero_extendqisi2
 5491 441c 023083E0 		add	r3, r3, r2
 5492 4420 0030C5E5 		strb	r3, [r5, #0]
 5493 4424 FEFFFFEB 		bl	uart1_transmit
 5494 4428 0200D6E5 		ldrb	r0, [r6, #2]	@ zero_extendqisi2
 5495 442c 0030D4E5 		ldrb	r3, [r4, #0]	@ zero_extendqisi2
 5496 4430 033080E0 		add	r3, r0, r3
 5497 4434 0030C4E5 		strb	r3, [r4, #0]
 5498 4438 0030D5E5 		ldrb	r3, [r5, #0]	@ zero_extendqisi2
 5499 443c 0020D4E5 		ldrb	r2, [r4, #0]	@ zero_extendqisi2
 5500 4440 023083E0 		add	r3, r3, r2
 5501 4444 0030C5E5 		strb	r3, [r5, #0]
 5502 4448 FEFFFFEB 		bl	uart1_transmit
 5503 444c 0300D6E5 		ldrb	r0, [r6, #3]	@ zero_extendqisi2
 5504 4450 0030D4E5 		ldrb	r3, [r4, #0]	@ zero_extendqisi2
 5505 4454 033080E0 		add	r3, r0, r3
 5506 4458 0030C4E5 		strb	r3, [r4, #0]
 5507 445c 0030D5E5 		ldrb	r3, [r5, #0]	@ zero_extendqisi2
 5508 4460 0020D4E5 		ldrb	r2, [r4, #0]	@ zero_extendqisi2
 5509 4464 88629FE5 		ldr	r6, .L362+20
 5510 4468 023083E0 		add	r3, r3, r2
 5511 446c 0030C5E5 		strb	r3, [r5, #0]
 5512 4470 FEFFFFEB 		bl	uart1_transmit
 5513 4474 0000D6E5 		ldrb	r0, [r6, #0]	@ zero_extendqisi2
 5514 4478 0030D4E5 		ldrb	r3, [r4, #0]	@ zero_extendqisi2
 5515 447c 033080E0 		add	r3, r0, r3
 5516 4480 0030C4E5 		strb	r3, [r4, #0]
 5517 4484 0030D5E5 		ldrb	r3, [r5, #0]	@ zero_extendqisi2
 5518 4488 0020D4E5 		ldrb	r2, [r4, #0]	@ zero_extendqisi2
 5519 448c 023083E0 		add	r3, r3, r2
 5520 4490 0030C5E5 		strb	r3, [r5, #0]
 5521 4494 FEFFFFEB 		bl	uart1_transmit
 5522 4498 0100D6E5 		ldrb	r0, [r6, #1]	@ zero_extendqisi2
 5523 449c 0030D4E5 		ldrb	r3, [r4, #0]	@ zero_extendqisi2
 5524 44a0 033080E0 		add	r3, r0, r3
 5525 44a4 0030C4E5 		strb	r3, [r4, #0]
 5526 44a8 0030D5E5 		ldrb	r3, [r5, #0]	@ zero_extendqisi2
 5527 44ac 0020D4E5 		ldrb	r2, [r4, #0]	@ zero_extendqisi2
 5528 44b0 023083E0 		add	r3, r3, r2
 5529 44b4 0030C5E5 		strb	r3, [r5, #0]
 5530 44b8 FEFFFFEB 		bl	uart1_transmit
 5531 44bc 0200D6E5 		ldrb	r0, [r6, #2]	@ zero_extendqisi2
 5532 44c0 0030D4E5 		ldrb	r3, [r4, #0]	@ zero_extendqisi2
 5533 44c4 033080E0 		add	r3, r0, r3
 5534 44c8 0030C4E5 		strb	r3, [r4, #0]
 5535 44cc 0030D5E5 		ldrb	r3, [r5, #0]	@ zero_extendqisi2
 5536 44d0 0020D4E5 		ldrb	r2, [r4, #0]	@ zero_extendqisi2
 5537 44d4 023083E0 		add	r3, r3, r2
 5538 44d8 0030C5E5 		strb	r3, [r5, #0]
 5539 44dc FEFFFFEB 		bl	uart1_transmit
 5540 44e0 0300D6E5 		ldrb	r0, [r6, #3]	@ zero_extendqisi2
 5541 44e4 0030D4E5 		ldrb	r3, [r4, #0]	@ zero_extendqisi2
 5542 44e8 033080E0 		add	r3, r0, r3
 5543 44ec 0030C4E5 		strb	r3, [r4, #0]
 5544 44f0 0030D5E5 		ldrb	r3, [r5, #0]	@ zero_extendqisi2
 5545 44f4 0020D4E5 		ldrb	r2, [r4, #0]	@ zero_extendqisi2
 5546 44f8 F8619FE5 		ldr	r6, .L362+24
 5547 44fc 023083E0 		add	r3, r3, r2
 5548 4500 0030C5E5 		strb	r3, [r5, #0]
 5549 4504 FEFFFFEB 		bl	uart1_transmit
 5550 4508 0000D6E5 		ldrb	r0, [r6, #0]	@ zero_extendqisi2
 5551 450c 0030D4E5 		ldrb	r3, [r4, #0]	@ zero_extendqisi2
 5552 4510 033080E0 		add	r3, r0, r3
 5553 4514 0030C4E5 		strb	r3, [r4, #0]
 5554 4518 0030D5E5 		ldrb	r3, [r5, #0]	@ zero_extendqisi2
 5555 451c 0020D4E5 		ldrb	r2, [r4, #0]	@ zero_extendqisi2
 5556 4520 023083E0 		add	r3, r3, r2
 5557 4524 0030C5E5 		strb	r3, [r5, #0]
 5558 4528 FEFFFFEB 		bl	uart1_transmit
 5559 452c 0100D6E5 		ldrb	r0, [r6, #1]	@ zero_extendqisi2
 5560 4530 0030D4E5 		ldrb	r3, [r4, #0]	@ zero_extendqisi2
 5561 4534 033080E0 		add	r3, r0, r3
 5562 4538 0030C4E5 		strb	r3, [r4, #0]
 5563 453c 0030D5E5 		ldrb	r3, [r5, #0]	@ zero_extendqisi2
 5564 4540 0020D4E5 		ldrb	r2, [r4, #0]	@ zero_extendqisi2
 5565 4544 023083E0 		add	r3, r3, r2
 5566 4548 0030C5E5 		strb	r3, [r5, #0]
 5567 454c FEFFFFEB 		bl	uart1_transmit
 5568 4550 0200D6E5 		ldrb	r0, [r6, #2]	@ zero_extendqisi2
 5569 4554 0030D4E5 		ldrb	r3, [r4, #0]	@ zero_extendqisi2
 5570 4558 033080E0 		add	r3, r0, r3
 5571 455c 0030C4E5 		strb	r3, [r4, #0]
 5572 4560 0030D5E5 		ldrb	r3, [r5, #0]	@ zero_extendqisi2
 5573 4564 0020D4E5 		ldrb	r2, [r4, #0]	@ zero_extendqisi2
 5574 4568 023083E0 		add	r3, r3, r2
 5575 456c 0030C5E5 		strb	r3, [r5, #0]
 5576 4570 FEFFFFEB 		bl	uart1_transmit
 5577 4574 0300D6E5 		ldrb	r0, [r6, #3]	@ zero_extendqisi2
 5578 4578 0030D4E5 		ldrb	r3, [r4, #0]	@ zero_extendqisi2
 5579 457c 033080E0 		add	r3, r0, r3
 5580 4580 0030C4E5 		strb	r3, [r4, #0]
 5581 4584 0030D5E5 		ldrb	r3, [r5, #0]	@ zero_extendqisi2
 5582 4588 0020D4E5 		ldrb	r2, [r4, #0]	@ zero_extendqisi2
 5583 458c 68619FE5 		ldr	r6, .L362+28
 5584 4590 023083E0 		add	r3, r3, r2
 5585 4594 0030C5E5 		strb	r3, [r5, #0]
 5586 4598 FEFFFFEB 		bl	uart1_transmit
 5587 459c 0000D6E5 		ldrb	r0, [r6, #0]	@ zero_extendqisi2
 5588 45a0 0030D4E5 		ldrb	r3, [r4, #0]	@ zero_extendqisi2
 5589 45a4 033080E0 		add	r3, r0, r3
 5590 45a8 0030C4E5 		strb	r3, [r4, #0]
 5591 45ac 0030D5E5 		ldrb	r3, [r5, #0]	@ zero_extendqisi2
 5592 45b0 0020D4E5 		ldrb	r2, [r4, #0]	@ zero_extendqisi2
 5593 45b4 023083E0 		add	r3, r3, r2
 5594 45b8 0030C5E5 		strb	r3, [r5, #0]
 5595 45bc FEFFFFEB 		bl	uart1_transmit
 5596 45c0 0100D6E5 		ldrb	r0, [r6, #1]	@ zero_extendqisi2
 5597 45c4 0030D4E5 		ldrb	r3, [r4, #0]	@ zero_extendqisi2
 5598 45c8 033080E0 		add	r3, r0, r3
 5599 45cc 0030C4E5 		strb	r3, [r4, #0]
 5600 45d0 0030D5E5 		ldrb	r3, [r5, #0]	@ zero_extendqisi2
 5601 45d4 0020D4E5 		ldrb	r2, [r4, #0]	@ zero_extendqisi2
 5602 45d8 023083E0 		add	r3, r3, r2
 5603 45dc 0030C5E5 		strb	r3, [r5, #0]
 5604 45e0 FEFFFFEB 		bl	uart1_transmit
 5605 45e4 0200D6E5 		ldrb	r0, [r6, #2]	@ zero_extendqisi2
 5606 45e8 0030D4E5 		ldrb	r3, [r4, #0]	@ zero_extendqisi2
 5607 45ec 033080E0 		add	r3, r0, r3
 5608 45f0 0030C4E5 		strb	r3, [r4, #0]
 5609 45f4 0030D5E5 		ldrb	r3, [r5, #0]	@ zero_extendqisi2
 5610 45f8 0020D4E5 		ldrb	r2, [r4, #0]	@ zero_extendqisi2
 5611 45fc 023083E0 		add	r3, r3, r2
 5612 4600 0030C5E5 		strb	r3, [r5, #0]
 5613 4604 FEFFFFEB 		bl	uart1_transmit
 5614 4608 0300D6E5 		ldrb	r0, [r6, #3]	@ zero_extendqisi2
 5615 460c 0030D4E5 		ldrb	r3, [r4, #0]	@ zero_extendqisi2
 5616 4610 033080E0 		add	r3, r0, r3
 5617 4614 0030C4E5 		strb	r3, [r4, #0]
 5618 4618 0030D5E5 		ldrb	r3, [r5, #0]	@ zero_extendqisi2
 5619 461c 0020D4E5 		ldrb	r2, [r4, #0]	@ zero_extendqisi2
 5620 4620 023083E0 		add	r3, r3, r2
 5621 4624 0030C5E5 		strb	r3, [r5, #0]
 5622 4628 FEFFFFEB 		bl	uart1_transmit
 5623 462c 37005BE5 		ldrb	r0, [fp, #-55]	@ zero_extendqisi2
 5624 4630 0030D4E5 		ldrb	r3, [r4, #0]	@ zero_extendqisi2
 5625 4634 033080E0 		add	r3, r0, r3
 5626 4638 0030C4E5 		strb	r3, [r4, #0]
 5627 463c 0030D5E5 		ldrb	r3, [r5, #0]	@ zero_extendqisi2
 5628 4640 0020D4E5 		ldrb	r2, [r4, #0]	@ zero_extendqisi2
 5629 4644 023083E0 		add	r3, r3, r2
 5630 4648 0030C5E5 		strb	r3, [r5, #0]
 5631 464c FEFFFFEB 		bl	uart1_transmit
 5632 4650 A8309FE5 		ldr	r3, .L362+32
 5633 4654 0000D3E5 		ldrb	r0, [r3, #0]	@ zero_extendqisi2
 5634 4658 0030D4E5 		ldrb	r3, [r4, #0]	@ zero_extendqisi2
 5635 465c 033080E0 		add	r3, r0, r3
 5636 4660 0030C4E5 		strb	r3, [r4, #0]
 5637 4664 0030D5E5 		ldrb	r3, [r5, #0]	@ zero_extendqisi2
 5638 4668 0020D4E5 		ldrb	r2, [r4, #0]	@ zero_extendqisi2
 5639 466c 023083E0 		add	r3, r3, r2
 5640 4670 0030C5E5 		strb	r3, [r5, #0]
 5641 4674 FEFFFFEB 		bl	uart1_transmit
 5642 4678 0000D4E5 		ldrb	r0, [r4, #0]	@ zero_extendqisi2
 5643 467c FEFFFFEB 		bl	uart1_transmit
 5644 4680 0000D5E5 		ldrb	r0, [r5, #0]	@ zero_extendqisi2
 5645 4684 FEFFFFEB 		bl	uart1_transmit
 5646              	.L223:
 5647 4688 74009FE5 		ldr	r0, .L362+36
 5648 468c 0030D0E5 		ldrb	r3, [r0, #0]	@ zero_extendqisi2
 5649 4690 2A0053E3 		cmp	r3, #42
 5650 4694 7112001A 		bne	.L226
 5651 4698 68309FE5 		ldr	r3, .L362+40
 5652 469c 0030D3E5 		ldrb	r3, [r3, #0]	@ zero_extendqisi2
 5653 46a0 000053E3 		cmp	r3, #0
 5654 46a4 7112000A 		beq	.L226
 5655 46a8 1200A0E3 		mov	r0, #18
 5656 46ac FEFFFFEB 		bl	uart1_check_free_space
 5657 46b0 FF0010E3 		tst	r0, #255
 5658 46b4 88209F05 		ldreq	r2, .L362+100
 5659 46b8 0030D205 		ldreqb	r3, [r2, #0]	@ zero_extendqisi2
 5660 46bc 01308302 		addeq	r3, r3, #1
 5661 46c0 0030C205 		streqb	r3, [r2, #0]
 5662 46c4 7112000A 		beq	.L226
 5663 46c8 B4109FE5 		ldr	r1, .L362+164
 5664 46cc B4C09FE5 		ldr	ip, .L362+168
 5665 46d0 B030D1E1 		ldrh	r3, [r1, #0]
 5666 46d4 B020DCE1 		ldrh	r2, [ip, #0]
 5667 46d8 123083E2 		add	r3, r3, #18
 5668 46dc E51100EA 		b	.L363
 5669              	.L364:
 5670              		.align	2
 5671              	.L362:
 5672 46e0 FB211940 		.word	1075388923
 5673 46e4 182D4454 		.word	1413754136
 5674 46e8 00000000 		.word	nav_block
 5675 46ec 00000000 		.word	nav_stage
 5676 46f0 00000000 		.word	estimator_x
 5677 46f4 00000000 		.word	estimator_y
 5678 46f8 00000000 		.word	dist2_to_wp
 5679 46fc 00000000 		.word	dist2_to_home
 5680 4700 00000000 		.word	nav_oval_count
 5681 4704 00000000 		.word	i183.34
 5682 4708 00000000 		.word	nav_in_circle
 5683 470c 00000000 		.word	nav_circle_x
 5684 4710 00000000 		.word	nav_circle_y
 5685 4714 00000000 		.word	nav_circle_radius
 5686 4718 00000000 		.word	i192.35
 5687 471c 00000000 		.word	nav_in_segment
 5688 4720 00000000 		.word	nav_segment_x_1
 5689 4724 00000000 		.word	nav_segment_y_1
 5690 4728 00000000 		.word	nav_segment_x_2
 5691 472c 00000000 		.word	nav_segment_y_2
 5692 4730 00000000 		.word	i240.36
 5693 4734 00000000 		.word	estimator_phi
 5694 4738 00000000 		.word	estimator_psi
 5695 473c 00000000 		.word	estimator_theta
 5696 4740 00000000 		.word	i243.37
 5697 4744 00000000 		.word	downlink_nb_ovrn
 5698 4748 00000000 		.word	h_ctl_roll_setpoint
 5699 474c 00000000 		.word	h_ctl_pitch_loop_setpoint
 5700 4750 00000000 		.word	h_ctl_course_setpoint
 5701 4754 00000000 		.word	desired_x
 5702 4758 00000000 		.word	desired_y
 5703 475c 00000000 		.word	v_ctl_altitude_setpoint
 5704 4760 00000000 		.word	v_ctl_climb_setpoint
 5705 4764 00000000 		.word	i300.38
 5706 4768 00000000 		.word	.LC0
 5707 476c 00000000 		.word	pprz_mode
 5708 4770 00000000 		.word	v_ctl_mode
 5709 4774 00000000 		.word	lateral_mode
 5710 4778 00000000 		.word	horizontal_mode
 5711 477c 00000000 		.word	rc_settings_mode
 5712 4780 00000000 		.word	mcu1_status
 5713 4784 00000000 		.word	downlink_nb_bytes
 5714 4788 00000000 		.word	downlink_nb_msgs
 5715 478c 00000000 		.word	ck_a
 5716 4790 00000000 		.word	ck_b
 5717 4794 00000000 		.word	gps_Pacc
 5718 4798 00000000 		.word	gps_Sacc
 5719              	.L363:
 5720 479c 012082E2 		add	r2, r2, #1
 5721 47a0 B030C1E1 		strh	r3, [r1, #0]	@ movhi 
 5722 47a4 B020CCE1 		strh	r2, [ip, #0]	@ movhi 
 5723 47a8 1260A0E3 		mov	r6, #18
 5724 47ac 9900A0E3 		mov	r0, #153
 5725 47b0 2C401FE5 		ldr	r4, .L362+172
 5726 47b4 FEFFFFEB 		bl	uart1_transmit
 5727 47b8 0600A0E1 		mov	r0, r6
 5728 47bc 34501FE5 		ldr	r5, .L362+176
 5729 47c0 FEFFFFEB 		bl	uart1_transmit
 5730 47c4 2430A0E3 		mov	r3, #36
 5731 47c8 0030C4E5 		strb	r3, [r4, #0]
 5732 47cc 063083E0 		add	r3, r3, r6
 5733 47d0 0600A0E1 		mov	r0, r6
 5734 47d4 0030C5E5 		strb	r3, [r5, #0]
 5735 47d8 FEFFFFEB 		bl	uart1_transmit
 5736 47dc 0030D4E5 		ldrb	r3, [r4, #0]	@ zero_extendqisi2
 5737 47e0 153083E2 		add	r3, r3, #21
 5738 47e4 0030C4E5 		strb	r3, [r4, #0]
 5739 47e8 0030D5E5 		ldrb	r3, [r5, #0]	@ zero_extendqisi2
 5740 47ec 0020D4E5 		ldrb	r2, [r4, #0]	@ zero_extendqisi2
 5741 47f0 EC601FE5 		ldr	r6, .L362+44
 5742 47f4 023083E0 		add	r3, r3, r2
 5743 47f8 1500A0E3 		mov	r0, #21
 5744 47fc 0030C5E5 		strb	r3, [r5, #0]
 5745 4800 FEFFFFEB 		bl	uart1_transmit
 5746 4804 0000D6E5 		ldrb	r0, [r6, #0]	@ zero_extendqisi2
 5747 4808 0030D4E5 		ldrb	r3, [r4, #0]	@ zero_extendqisi2
 5748 480c 033080E0 		add	r3, r0, r3
 5749 4810 0030C4E5 		strb	r3, [r4, #0]
 5750 4814 0030D5E5 		ldrb	r3, [r5, #0]	@ zero_extendqisi2
 5751 4818 0020D4E5 		ldrb	r2, [r4, #0]	@ zero_extendqisi2
 5752 481c 023083E0 		add	r3, r3, r2
 5753 4820 0030C5E5 		strb	r3, [r5, #0]
 5754 4824 FEFFFFEB 		bl	uart1_transmit
 5755 4828 0100D6E5 		ldrb	r0, [r6, #1]	@ zero_extendqisi2
 5756 482c 0030D4E5 		ldrb	r3, [r4, #0]	@ zero_extendqisi2
 5757 4830 033080E0 		add	r3, r0, r3
 5758 4834 0030C4E5 		strb	r3, [r4, #0]
 5759 4838 0030D5E5 		ldrb	r3, [r5, #0]	@ zero_extendqisi2
 5760 483c 0020D4E5 		ldrb	r2, [r4, #0]	@ zero_extendqisi2
 5761 4840 023083E0 		add	r3, r3, r2
 5762 4844 0030C5E5 		strb	r3, [r5, #0]
 5763 4848 FEFFFFEB 		bl	uart1_transmit
 5764 484c 0200D6E5 		ldrb	r0, [r6, #2]	@ zero_extendqisi2
 5765 4850 0030D4E5 		ldrb	r3, [r4, #0]	@ zero_extendqisi2
 5766 4854 033080E0 		add	r3, r0, r3
 5767 4858 0030C4E5 		strb	r3, [r4, #0]
 5768 485c 0030D5E5 		ldrb	r3, [r5, #0]	@ zero_extendqisi2
 5769 4860 0020D4E5 		ldrb	r2, [r4, #0]	@ zero_extendqisi2
 5770 4864 023083E0 		add	r3, r3, r2
 5771 4868 0030C5E5 		strb	r3, [r5, #0]
 5772 486c FEFFFFEB 		bl	uart1_transmit
 5773 4870 0300D6E5 		ldrb	r0, [r6, #3]	@ zero_extendqisi2
 5774 4874 0030D4E5 		ldrb	r3, [r4, #0]	@ zero_extendqisi2
 5775 4878 033080E0 		add	r3, r0, r3
 5776 487c 0030C4E5 		strb	r3, [r4, #0]
 5777 4880 0030D5E5 		ldrb	r3, [r5, #0]	@ zero_extendqisi2
 5778 4884 0020D4E5 		ldrb	r2, [r4, #0]	@ zero_extendqisi2
 5779 4888 80611FE5 		ldr	r6, .L362+48
 5780 488c 023083E0 		add	r3, r3, r2
 5781 4890 0030C5E5 		strb	r3, [r5, #0]
 5782 4894 FEFFFFEB 		bl	uart1_transmit
 5783 4898 0000D6E5 		ldrb	r0, [r6, #0]	@ zero_extendqisi2
 5784 489c 0030D4E5 		ldrb	r3, [r4, #0]	@ zero_extendqisi2
 5785 48a0 033080E0 		add	r3, r0, r3
 5786 48a4 0030C4E5 		strb	r3, [r4, #0]
 5787 48a8 0030D5E5 		ldrb	r3, [r5, #0]	@ zero_extendqisi2
 5788 48ac 0020D4E5 		ldrb	r2, [r4, #0]	@ zero_extendqisi2
 5789 48b0 023083E0 		add	r3, r3, r2
 5790 48b4 0030C5E5 		strb	r3, [r5, #0]
 5791 48b8 FEFFFFEB 		bl	uart1_transmit
 5792 48bc 0100D6E5 		ldrb	r0, [r6, #1]	@ zero_extendqisi2
 5793 48c0 0030D4E5 		ldrb	r3, [r4, #0]	@ zero_extendqisi2
 5794 48c4 033080E0 		add	r3, r0, r3
 5795 48c8 0030C4E5 		strb	r3, [r4, #0]
 5796 48cc 0030D5E5 		ldrb	r3, [r5, #0]	@ zero_extendqisi2
 5797 48d0 0020D4E5 		ldrb	r2, [r4, #0]	@ zero_extendqisi2
 5798 48d4 023083E0 		add	r3, r3, r2
 5799 48d8 0030C5E5 		strb	r3, [r5, #0]
 5800 48dc FEFFFFEB 		bl	uart1_transmit
 5801 48e0 0200D6E5 		ldrb	r0, [r6, #2]	@ zero_extendqisi2
 5802 48e4 0030D4E5 		ldrb	r3, [r4, #0]	@ zero_extendqisi2
 5803 48e8 033080E0 		add	r3, r0, r3
 5804 48ec 0030C4E5 		strb	r3, [r4, #0]
 5805 48f0 0030D5E5 		ldrb	r3, [r5, #0]	@ zero_extendqisi2
 5806 48f4 0020D4E5 		ldrb	r2, [r4, #0]	@ zero_extendqisi2
 5807 48f8 023083E0 		add	r3, r3, r2
 5808 48fc 0030C5E5 		strb	r3, [r5, #0]
 5809 4900 FEFFFFEB 		bl	uart1_transmit
 5810 4904 0300D6E5 		ldrb	r0, [r6, #3]	@ zero_extendqisi2
 5811 4908 0030D4E5 		ldrb	r3, [r4, #0]	@ zero_extendqisi2
 5812 490c 033080E0 		add	r3, r0, r3
 5813 4910 0030C4E5 		strb	r3, [r4, #0]
 5814 4914 0030D5E5 		ldrb	r3, [r5, #0]	@ zero_extendqisi2
 5815 4918 0020D4E5 		ldrb	r2, [r4, #0]	@ zero_extendqisi2
 5816 491c 10621FE5 		ldr	r6, .L362+52
 5817 4920 023083E0 		add	r3, r3, r2
 5818 4924 0030C5E5 		strb	r3, [r5, #0]
 5819 4928 FEFFFFEB 		bl	uart1_transmit
 5820 492c 0000D6E5 		ldrb	r0, [r6, #0]	@ zero_extendqisi2
 5821 4930 0030D4E5 		ldrb	r3, [r4, #0]	@ zero_extendqisi2
 5822 4934 033080E0 		add	r3, r0, r3
 5823 4938 0030C4E5 		strb	r3, [r4, #0]
 5824 493c 0030D5E5 		ldrb	r3, [r5, #0]	@ zero_extendqisi2
 5825 4940 0020D4E5 		ldrb	r2, [r4, #0]	@ zero_extendqisi2
 5826 4944 023083E0 		add	r3, r3, r2
 5827 4948 0030C5E5 		strb	r3, [r5, #0]
 5828 494c FEFFFFEB 		bl	uart1_transmit
 5829 4950 0100D6E5 		ldrb	r0, [r6, #1]	@ zero_extendqisi2
 5830 4954 0030D4E5 		ldrb	r3, [r4, #0]	@ zero_extendqisi2
 5831 4958 033080E0 		add	r3, r0, r3
 5832 495c 0030C4E5 		strb	r3, [r4, #0]
 5833 4960 0030D5E5 		ldrb	r3, [r5, #0]	@ zero_extendqisi2
 5834 4964 0020D4E5 		ldrb	r2, [r4, #0]	@ zero_extendqisi2
 5835 4968 023083E0 		add	r3, r3, r2
 5836 496c 0030C5E5 		strb	r3, [r5, #0]
 5837 4970 FEFFFFEB 		bl	uart1_transmit
 5838 4974 0200D6E5 		ldrb	r0, [r6, #2]	@ zero_extendqisi2
 5839 4978 0030D4E5 		ldrb	r3, [r4, #0]	@ zero_extendqisi2
 5840 497c 033080E0 		add	r3, r0, r3
 5841 4980 0030C4E5 		strb	r3, [r4, #0]
 5842 4984 0030D5E5 		ldrb	r3, [r5, #0]	@ zero_extendqisi2
 5843 4988 0020D4E5 		ldrb	r2, [r4, #0]	@ zero_extendqisi2
 5844 498c 023083E0 		add	r3, r3, r2
 5845 4990 0030C5E5 		strb	r3, [r5, #0]
 5846 4994 FEFFFFEB 		bl	uart1_transmit
 5847 4998 0300D6E5 		ldrb	r0, [r6, #3]	@ zero_extendqisi2
 5848 499c 0030D4E5 		ldrb	r3, [r4, #0]	@ zero_extendqisi2
 5849 49a0 033080E0 		add	r3, r0, r3
 5850 49a4 0030C4E5 		strb	r3, [r4, #0]
 5851 49a8 0030D5E5 		ldrb	r3, [r5, #0]	@ zero_extendqisi2
 5852 49ac 0020D4E5 		ldrb	r2, [r4, #0]	@ zero_extendqisi2
 5853 49b0 023083E0 		add	r3, r3, r2
 5854 49b4 0030C5E5 		strb	r3, [r5, #0]
 5855 49b8 FEFFFFEB 		bl	uart1_transmit
 5856 49bc 0000D4E5 		ldrb	r0, [r4, #0]	@ zero_extendqisi2
 5857 49c0 FEFFFFEB 		bl	uart1_transmit
 5858 49c4 0000D5E5 		ldrb	r0, [r5, #0]	@ zero_extendqisi2
 5859 49c8 FEFFFFEB 		bl	uart1_transmit
 5860              	.L226:
 5861 49cc BC221FE5 		ldr	r2, .L362+56
 5862 49d0 0030D2E5 		ldrb	r3, [r2, #0]	@ zero_extendqisi2
 5863 49d4 300053E3 		cmp	r3, #48
 5864 49d8 3713001A 		bne	.L230
 5865 49dc C8321FE5 		ldr	r3, .L362+60
 5866 49e0 0030D3E5 		ldrb	r3, [r3, #0]	@ zero_extendqisi2
 5867 49e4 000053E3 		cmp	r3, #0
 5868 49e8 3713000A 		beq	.L230
 5869 49ec 1600A0E3 		mov	r0, #22
 5870 49f0 FEFFFFEB 		bl	uart1_check_free_space
 5871 49f4 FF0010E3 		tst	r0, #255
 5872 49f8 BC221F05 		ldreq	r2, .L362+100
 5873 49fc 0030D205 		ldreqb	r3, [r2, #0]	@ zero_extendqisi2
 5874 4a00 01308302 		addeq	r3, r3, #1
 5875 4a04 0030C205 		streqb	r3, [r2, #0]
 5876 4a08 3713000A 		beq	.L230
 5877 4a0c 90121FE5 		ldr	r1, .L362+164
 5878 4a10 90C21FE5 		ldr	ip, .L362+168
 5879 4a14 B030D1E1 		ldrh	r3, [r1, #0]
 5880 4a18 B020DCE1 		ldrh	r2, [ip, #0]
 5881 4a1c 163083E2 		add	r3, r3, #22
 5882 4a20 012082E2 		add	r2, r2, #1
 5883 4a24 B030C1E1 		strh	r3, [r1, #0]	@ movhi 
 5884 4a28 B020CCE1 		strh	r2, [ip, #0]	@ movhi 
 5885 4a2c 1670A0E3 		mov	r7, #22
 5886 4a30 9900A0E3 		mov	r0, #153
 5887 4a34 B0421FE5 		ldr	r4, .L362+172
 5888 4a38 FEFFFFEB 		bl	uart1_transmit
 5889 4a3c 0700A0E1 		mov	r0, r7
 5890 4a40 B8521FE5 		ldr	r5, .L362+176
 5891 4a44 FEFFFFEB 		bl	uart1_transmit
 5892 4a48 2830A0E3 		mov	r3, #40
 5893 4a4c 0030C4E5 		strb	r3, [r4, #0]
 5894 4a50 073083E0 		add	r3, r3, r7
 5895 4a54 1200A0E3 		mov	r0, #18
 5896 4a58 0030C5E5 		strb	r3, [r5, #0]
 5897 4a5c FEFFFFEB 		bl	uart1_transmit
 5898 4a60 0030D4E5 		ldrb	r3, [r4, #0]	@ zero_extendqisi2
 5899 4a64 073083E0 		add	r3, r3, r7
 5900 4a68 0030C4E5 		strb	r3, [r4, #0]
 5901 4a6c 0030D5E5 		ldrb	r3, [r5, #0]	@ zero_extendqisi2
 5902 4a70 0020D4E5 		ldrb	r2, [r4, #0]	@ zero_extendqisi2
 5903 4a74 5C631FE5 		ldr	r6, .L362+64
 5904 4a78 023083E0 		add	r3, r3, r2
 5905 4a7c 0700A0E1 		mov	r0, r7
 5906 4a80 0030C5E5 		strb	r3, [r5, #0]
 5907 4a84 FEFFFFEB 		bl	uart1_transmit
 5908 4a88 0000D6E5 		ldrb	r0, [r6, #0]	@ zero_extendqisi2
 5909 4a8c 0030D4E5 		ldrb	r3, [r4, #0]	@ zero_extendqisi2
 5910 4a90 033080E0 		add	r3, r0, r3
 5911 4a94 0030C4E5 		strb	r3, [r4, #0]
 5912 4a98 0030D5E5 		ldrb	r3, [r5, #0]	@ zero_extendqisi2
 5913 4a9c 0020D4E5 		ldrb	r2, [r4, #0]	@ zero_extendqisi2
 5914 4aa0 023083E0 		add	r3, r3, r2
 5915 4aa4 0030C5E5 		strb	r3, [r5, #0]
 5916 4aa8 FEFFFFEB 		bl	uart1_transmit
 5917 4aac 0100D6E5 		ldrb	r0, [r6, #1]	@ zero_extendqisi2
 5918 4ab0 0030D4E5 		ldrb	r3, [r4, #0]	@ zero_extendqisi2
 5919 4ab4 033080E0 		add	r3, r0, r3
 5920 4ab8 0030C4E5 		strb	r3, [r4, #0]
 5921 4abc 0030D5E5 		ldrb	r3, [r5, #0]	@ zero_extendqisi2
 5922 4ac0 0020D4E5 		ldrb	r2, [r4, #0]	@ zero_extendqisi2
 5923 4ac4 023083E0 		add	r3, r3, r2
 5924 4ac8 0030C5E5 		strb	r3, [r5, #0]
 5925 4acc FEFFFFEB 		bl	uart1_transmit
 5926 4ad0 0200D6E5 		ldrb	r0, [r6, #2]	@ zero_extendqisi2
 5927 4ad4 0030D4E5 		ldrb	r3, [r4, #0]	@ zero_extendqisi2
 5928 4ad8 033080E0 		add	r3, r0, r3
 5929 4adc 0030C4E5 		strb	r3, [r4, #0]
 5930 4ae0 0030D5E5 		ldrb	r3, [r5, #0]	@ zero_extendqisi2
 5931 4ae4 0020D4E5 		ldrb	r2, [r4, #0]	@ zero_extendqisi2
 5932 4ae8 023083E0 		add	r3, r3, r2
 5933 4aec 0030C5E5 		strb	r3, [r5, #0]
 5934 4af0 FEFFFFEB 		bl	uart1_transmit
 5935 4af4 0300D6E5 		ldrb	r0, [r6, #3]	@ zero_extendqisi2
 5936 4af8 0030D4E5 		ldrb	r3, [r4, #0]	@ zero_extendqisi2
 5937 4afc 033080E0 		add	r3, r0, r3
 5938 4b00 0030C4E5 		strb	r3, [r4, #0]
 5939 4b04 0030D5E5 		ldrb	r3, [r5, #0]	@ zero_extendqisi2
 5940 4b08 0020D4E5 		ldrb	r2, [r4, #0]	@ zero_extendqisi2
 5941 4b0c F0631FE5 		ldr	r6, .L362+68
 5942 4b10 023083E0 		add	r3, r3, r2
 5943 4b14 0030C5E5 		strb	r3, [r5, #0]
 5944 4b18 FEFFFFEB 		bl	uart1_transmit
 5945 4b1c 0000D6E5 		ldrb	r0, [r6, #0]	@ zero_extendqisi2
 5946 4b20 0030D4E5 		ldrb	r3, [r4, #0]	@ zero_extendqisi2
 5947 4b24 033080E0 		add	r3, r0, r3
 5948 4b28 0030C4E5 		strb	r3, [r4, #0]
 5949 4b2c 0030D5E5 		ldrb	r3, [r5, #0]	@ zero_extendqisi2
 5950 4b30 0020D4E5 		ldrb	r2, [r4, #0]	@ zero_extendqisi2
 5951 4b34 023083E0 		add	r3, r3, r2
 5952 4b38 0030C5E5 		strb	r3, [r5, #0]
 5953 4b3c FEFFFFEB 		bl	uart1_transmit
 5954 4b40 0100D6E5 		ldrb	r0, [r6, #1]	@ zero_extendqisi2
 5955 4b44 0030D4E5 		ldrb	r3, [r4, #0]	@ zero_extendqisi2
 5956 4b48 033080E0 		add	r3, r0, r3
 5957 4b4c 0030C4E5 		strb	r3, [r4, #0]
 5958 4b50 0030D5E5 		ldrb	r3, [r5, #0]	@ zero_extendqisi2
 5959 4b54 0020D4E5 		ldrb	r2, [r4, #0]	@ zero_extendqisi2
 5960 4b58 023083E0 		add	r3, r3, r2
 5961 4b5c 0030C5E5 		strb	r3, [r5, #0]
 5962 4b60 FEFFFFEB 		bl	uart1_transmit
 5963 4b64 0200D6E5 		ldrb	r0, [r6, #2]	@ zero_extendqisi2
 5964 4b68 0030D4E5 		ldrb	r3, [r4, #0]	@ zero_extendqisi2
 5965 4b6c 033080E0 		add	r3, r0, r3
 5966 4b70 0030C4E5 		strb	r3, [r4, #0]
 5967 4b74 0030D5E5 		ldrb	r3, [r5, #0]	@ zero_extendqisi2
 5968 4b78 0020D4E5 		ldrb	r2, [r4, #0]	@ zero_extendqisi2
 5969 4b7c 023083E0 		add	r3, r3, r2
 5970 4b80 0030C5E5 		strb	r3, [r5, #0]
 5971 4b84 FEFFFFEB 		bl	uart1_transmit
 5972 4b88 0300D6E5 		ldrb	r0, [r6, #3]	@ zero_extendqisi2
 5973 4b8c 0030D4E5 		ldrb	r3, [r4, #0]	@ zero_extendqisi2
 5974 4b90 033080E0 		add	r3, r0, r3
 5975 4b94 0030C4E5 		strb	r3, [r4, #0]
 5976 4b98 0030D5E5 		ldrb	r3, [r5, #0]	@ zero_extendqisi2
 5977 4b9c 0020D4E5 		ldrb	r2, [r4, #0]	@ zero_extendqisi2
 5978 4ba0 80641FE5 		ldr	r6, .L362+72
 5979 4ba4 023083E0 		add	r3, r3, r2
 5980 4ba8 0030C5E5 		strb	r3, [r5, #0]
 5981 4bac FEFFFFEB 		bl	uart1_transmit
 5982 4bb0 0000D6E5 		ldrb	r0, [r6, #0]	@ zero_extendqisi2
 5983 4bb4 0030D4E5 		ldrb	r3, [r4, #0]	@ zero_extendqisi2
 5984 4bb8 033080E0 		add	r3, r0, r3
 5985 4bbc 0030C4E5 		strb	r3, [r4, #0]
 5986 4bc0 0030D5E5 		ldrb	r3, [r5, #0]	@ zero_extendqisi2
 5987 4bc4 0020D4E5 		ldrb	r2, [r4, #0]	@ zero_extendqisi2
 5988 4bc8 023083E0 		add	r3, r3, r2
 5989 4bcc 0030C5E5 		strb	r3, [r5, #0]
 5990 4bd0 FEFFFFEB 		bl	uart1_transmit
 5991 4bd4 0100D6E5 		ldrb	r0, [r6, #1]	@ zero_extendqisi2
 5992 4bd8 0030D4E5 		ldrb	r3, [r4, #0]	@ zero_extendqisi2
 5993 4bdc 033080E0 		add	r3, r0, r3
 5994 4be0 0030C4E5 		strb	r3, [r4, #0]
 5995 4be4 0030D5E5 		ldrb	r3, [r5, #0]	@ zero_extendqisi2
 5996 4be8 0020D4E5 		ldrb	r2, [r4, #0]	@ zero_extendqisi2
 5997 4bec 023083E0 		add	r3, r3, r2
 5998 4bf0 0030C5E5 		strb	r3, [r5, #0]
 5999 4bf4 FEFFFFEB 		bl	uart1_transmit
 6000 4bf8 0200D6E5 		ldrb	r0, [r6, #2]	@ zero_extendqisi2
 6001 4bfc 0030D4E5 		ldrb	r3, [r4, #0]	@ zero_extendqisi2
 6002 4c00 033080E0 		add	r3, r0, r3
 6003 4c04 0030C4E5 		strb	r3, [r4, #0]
 6004 4c08 0030D5E5 		ldrb	r3, [r5, #0]	@ zero_extendqisi2
 6005 4c0c 0020D4E5 		ldrb	r2, [r4, #0]	@ zero_extendqisi2
 6006 4c10 023083E0 		add	r3, r3, r2
 6007 4c14 0030C5E5 		strb	r3, [r5, #0]
 6008 4c18 FEFFFFEB 		bl	uart1_transmit
 6009 4c1c 0300D6E5 		ldrb	r0, [r6, #3]	@ zero_extendqisi2
 6010 4c20 0030D4E5 		ldrb	r3, [r4, #0]	@ zero_extendqisi2
 6011 4c24 033080E0 		add	r3, r0, r3
 6012 4c28 0030C4E5 		strb	r3, [r4, #0]
 6013 4c2c 0030D5E5 		ldrb	r3, [r5, #0]	@ zero_extendqisi2
 6014 4c30 0020D4E5 		ldrb	r2, [r4, #0]	@ zero_extendqisi2
 6015 4c34 10651FE5 		ldr	r6, .L362+76
 6016 4c38 023083E0 		add	r3, r3, r2
 6017 4c3c 0030C5E5 		strb	r3, [r5, #0]
 6018 4c40 FEFFFFEB 		bl	uart1_transmit
 6019 4c44 0000D6E5 		ldrb	r0, [r6, #0]	@ zero_extendqisi2
 6020 4c48 0030D4E5 		ldrb	r3, [r4, #0]	@ zero_extendqisi2
 6021 4c4c 033080E0 		add	r3, r0, r3
 6022 4c50 0030C4E5 		strb	r3, [r4, #0]
 6023 4c54 0030D5E5 		ldrb	r3, [r5, #0]	@ zero_extendqisi2
 6024 4c58 0020D4E5 		ldrb	r2, [r4, #0]	@ zero_extendqisi2
 6025 4c5c 023083E0 		add	r3, r3, r2
 6026 4c60 0030C5E5 		strb	r3, [r5, #0]
 6027 4c64 FEFFFFEB 		bl	uart1_transmit
 6028 4c68 0100D6E5 		ldrb	r0, [r6, #1]	@ zero_extendqisi2
 6029 4c6c 0030D4E5 		ldrb	r3, [r4, #0]	@ zero_extendqisi2
 6030 4c70 033080E0 		add	r3, r0, r3
 6031 4c74 0030C4E5 		strb	r3, [r4, #0]
 6032 4c78 0030D5E5 		ldrb	r3, [r5, #0]	@ zero_extendqisi2
 6033 4c7c 0020D4E5 		ldrb	r2, [r4, #0]	@ zero_extendqisi2
 6034 4c80 023083E0 		add	r3, r3, r2
 6035 4c84 0030C5E5 		strb	r3, [r5, #0]
 6036 4c88 FEFFFFEB 		bl	uart1_transmit
 6037 4c8c 0200D6E5 		ldrb	r0, [r6, #2]	@ zero_extendqisi2
 6038 4c90 0030D4E5 		ldrb	r3, [r4, #0]	@ zero_extendqisi2
 6039 4c94 033080E0 		add	r3, r0, r3
 6040 4c98 0030C4E5 		strb	r3, [r4, #0]
 6041 4c9c 0030D5E5 		ldrb	r3, [r5, #0]	@ zero_extendqisi2
 6042 4ca0 0020D4E5 		ldrb	r2, [r4, #0]	@ zero_extendqisi2
 6043 4ca4 023083E0 		add	r3, r3, r2
 6044 4ca8 0030C5E5 		strb	r3, [r5, #0]
 6045 4cac FEFFFFEB 		bl	uart1_transmit
 6046 4cb0 0300D6E5 		ldrb	r0, [r6, #3]	@ zero_extendqisi2
 6047 4cb4 0030D4E5 		ldrb	r3, [r4, #0]	@ zero_extendqisi2
 6048 4cb8 033080E0 		add	r3, r0, r3
 6049 4cbc 0030C4E5 		strb	r3, [r4, #0]
 6050 4cc0 0030D5E5 		ldrb	r3, [r5, #0]	@ zero_extendqisi2
 6051 4cc4 0020D4E5 		ldrb	r2, [r4, #0]	@ zero_extendqisi2
 6052 4cc8 023083E0 		add	r3, r3, r2
 6053 4ccc 0030C5E5 		strb	r3, [r5, #0]
 6054 4cd0 FEFFFFEB 		bl	uart1_transmit
 6055 4cd4 0000D4E5 		ldrb	r0, [r4, #0]	@ zero_extendqisi2
 6056 4cd8 FEFFFFEB 		bl	uart1_transmit
 6057 4cdc 0000D5E5 		ldrb	r0, [r5, #0]	@ zero_extendqisi2
 6058 4ce0 FEFFFFEB 		bl	uart1_transmit
 6059              	.L230:
 6060 4ce4 BC351FE5 		ldr	r3, .L362+80
 6061 4ce8 0070D3E5 		ldrb	r7, [r3, #0]	@ zero_extendqisi2
 6062 4cec 360057E3 		cmp	r7, #54
 6063 4cf0 D313001A 		bne	.L234
 6064 4cf4 1200A0E3 		mov	r0, #18
 6065 4cf8 FEFFFFEB 		bl	uart1_check_free_space
 6066 4cfc FF0010E3 		tst	r0, #255
 6067 4d00 C4251F05 		ldreq	r2, .L362+100
 6068 4d04 0030D205 		ldreqb	r3, [r2, #0]	@ zero_extendqisi2
 6069 4d08 01308302 		addeq	r3, r3, #1
 6070 4d0c 0030C205 		streqb	r3, [r2, #0]
 6071 4d10 D313000A 		beq	.L234
 6072 4d14 98151FE5 		ldr	r1, .L362+164
 6073 4d18 98C51FE5 		ldr	ip, .L362+168
 6074 4d1c B030D1E1 		ldrh	r3, [r1, #0]
 6075 4d20 B020DCE1 		ldrh	r2, [ip, #0]
 6076 4d24 123083E2 		add	r3, r3, #18
 6077 4d28 012082E2 		add	r2, r2, #1
 6078 4d2c B030C1E1 		strh	r3, [r1, #0]	@ movhi 
 6079 4d30 B020CCE1 		strh	r2, [ip, #0]	@ movhi 
 6080 4d34 1260A0E3 		mov	r6, #18
 6081 4d38 9900A0E3 		mov	r0, #153
 6082 4d3c B8451FE5 		ldr	r4, .L362+172
 6083 4d40 B8551FE5 		ldr	r5, .L362+176
 6084 4d44 FEFFFFEB 		bl	uart1_transmit
 6085 4d48 0600A0E1 		mov	r0, r6
 6086 4d4c FEFFFFEB 		bl	uart1_transmit
 6087 4d50 2430A0E3 		mov	r3, #36
 6088 4d54 0600A0E1 		mov	r0, r6
 6089 4d58 0030C4E5 		strb	r3, [r4, #0]
 6090 4d5c 0070C5E5 		strb	r7, [r5, #0]
 6091 4d60 FEFFFFEB 		bl	uart1_transmit
 6092 4d64 0030D4E5 		ldrb	r3, [r4, #0]	@ zero_extendqisi2
 6093 4d68 063083E2 		add	r3, r3, #6
 6094 4d6c 0030C4E5 		strb	r3, [r4, #0]
 6095 4d70 0030D5E5 		ldrb	r3, [r5, #0]	@ zero_extendqisi2
 6096 4d74 0020D4E5 		ldrb	r2, [r4, #0]	@ zero_extendqisi2
 6097 4d78 4C661FE5 		ldr	r6, .L362+84
 6098 4d7c 023083E0 		add	r3, r3, r2
 6099 4d80 0600A0E3 		mov	r0, #6
 6100 4d84 0030C5E5 		strb	r3, [r5, #0]
 6101 4d88 FEFFFFEB 		bl	uart1_transmit
 6102 4d8c 0000D6E5 		ldrb	r0, [r6, #0]	@ zero_extendqisi2
 6103 4d90 0030D4E5 		ldrb	r3, [r4, #0]	@ zero_extendqisi2
 6104 4d94 033080E0 		add	r3, r0, r3
 6105 4d98 0030C4E5 		strb	r3, [r4, #0]
 6106 4d9c 0030D5E5 		ldrb	r3, [r5, #0]	@ zero_extendqisi2
 6107 4da0 0020D4E5 		ldrb	r2, [r4, #0]	@ zero_extendqisi2
 6108 4da4 023083E0 		add	r3, r3, r2
 6109 4da8 0030C5E5 		strb	r3, [r5, #0]
 6110 4dac FEFFFFEB 		bl	uart1_transmit
 6111 4db0 0100D6E5 		ldrb	r0, [r6, #1]	@ zero_extendqisi2
 6112 4db4 0030D4E5 		ldrb	r3, [r4, #0]	@ zero_extendqisi2
 6113 4db8 033080E0 		add	r3, r0, r3
 6114 4dbc 0030C4E5 		strb	r3, [r4, #0]
 6115 4dc0 0030D5E5 		ldrb	r3, [r5, #0]	@ zero_extendqisi2
 6116 4dc4 0020D4E5 		ldrb	r2, [r4, #0]	@ zero_extendqisi2
 6117 4dc8 023083E0 		add	r3, r3, r2
 6118 4dcc 0030C5E5 		strb	r3, [r5, #0]
 6119 4dd0 FEFFFFEB 		bl	uart1_transmit
 6120 4dd4 0200D6E5 		ldrb	r0, [r6, #2]	@ zero_extendqisi2
 6121 4dd8 0030D4E5 		ldrb	r3, [r4, #0]	@ zero_extendqisi2
 6122 4ddc 033080E0 		add	r3, r0, r3
 6123 4de0 0030C4E5 		strb	r3, [r4, #0]
 6124 4de4 0030D5E5 		ldrb	r3, [r5, #0]	@ zero_extendqisi2
 6125 4de8 0020D4E5 		ldrb	r2, [r4, #0]	@ zero_extendqisi2
 6126 4dec 023083E0 		add	r3, r3, r2
 6127 4df0 0030C5E5 		strb	r3, [r5, #0]
 6128 4df4 FEFFFFEB 		bl	uart1_transmit
 6129 4df8 0300D6E5 		ldrb	r0, [r6, #3]	@ zero_extendqisi2
 6130 4dfc 0030D4E5 		ldrb	r3, [r4, #0]	@ zero_extendqisi2
 6131 4e00 033080E0 		add	r3, r0, r3
 6132 4e04 0030C4E5 		strb	r3, [r4, #0]
 6133 4e08 0030D5E5 		ldrb	r3, [r5, #0]	@ zero_extendqisi2
 6134 4e0c 0020D4E5 		ldrb	r2, [r4, #0]	@ zero_extendqisi2
 6135 4e10 E0661FE5 		ldr	r6, .L362+88
 6136 4e14 023083E0 		add	r3, r3, r2
 6137 4e18 0030C5E5 		strb	r3, [r5, #0]
 6138 4e1c FEFFFFEB 		bl	uart1_transmit
 6139 4e20 0000D6E5 		ldrb	r0, [r6, #0]	@ zero_extendqisi2
 6140 4e24 0030D4E5 		ldrb	r3, [r4, #0]	@ zero_extendqisi2
 6141 4e28 033080E0 		add	r3, r0, r3
 6142 4e2c 0030C4E5 		strb	r3, [r4, #0]
 6143 4e30 0030D5E5 		ldrb	r3, [r5, #0]	@ zero_extendqisi2
 6144 4e34 0020D4E5 		ldrb	r2, [r4, #0]	@ zero_extendqisi2
 6145 4e38 023083E0 		add	r3, r3, r2
 6146 4e3c 0030C5E5 		strb	r3, [r5, #0]
 6147 4e40 FEFFFFEB 		bl	uart1_transmit
 6148 4e44 0100D6E5 		ldrb	r0, [r6, #1]	@ zero_extendqisi2
 6149 4e48 0030D4E5 		ldrb	r3, [r4, #0]	@ zero_extendqisi2
 6150 4e4c 033080E0 		add	r3, r0, r3
 6151 4e50 0030C4E5 		strb	r3, [r4, #0]
 6152 4e54 0030D5E5 		ldrb	r3, [r5, #0]	@ zero_extendqisi2
 6153 4e58 0020D4E5 		ldrb	r2, [r4, #0]	@ zero_extendqisi2
 6154 4e5c 023083E0 		add	r3, r3, r2
 6155 4e60 0030C5E5 		strb	r3, [r5, #0]
 6156 4e64 FEFFFFEB 		bl	uart1_transmit
 6157 4e68 0200D6E5 		ldrb	r0, [r6, #2]	@ zero_extendqisi2
 6158 4e6c 0030D4E5 		ldrb	r3, [r4, #0]	@ zero_extendqisi2
 6159 4e70 033080E0 		add	r3, r0, r3
 6160 4e74 0030C4E5 		strb	r3, [r4, #0]
 6161 4e78 0030D5E5 		ldrb	r3, [r5, #0]	@ zero_extendqisi2
 6162 4e7c 0020D4E5 		ldrb	r2, [r4, #0]	@ zero_extendqisi2
 6163 4e80 023083E0 		add	r3, r3, r2
 6164 4e84 0030C5E5 		strb	r3, [r5, #0]
 6165 4e88 FEFFFFEB 		bl	uart1_transmit
 6166 4e8c 0300D6E5 		ldrb	r0, [r6, #3]	@ zero_extendqisi2
 6167 4e90 0030D4E5 		ldrb	r3, [r4, #0]	@ zero_extendqisi2
 6168 4e94 033080E0 		add	r3, r0, r3
 6169 4e98 0030C4E5 		strb	r3, [r4, #0]
 6170 4e9c 0030D5E5 		ldrb	r3, [r5, #0]	@ zero_extendqisi2
 6171 4ea0 0020D4E5 		ldrb	r2, [r4, #0]	@ zero_extendqisi2
 6172 4ea4 70671FE5 		ldr	r6, .L362+92
 6173 4ea8 023083E0 		add	r3, r3, r2
 6174 4eac 0030C5E5 		strb	r3, [r5, #0]
 6175 4eb0 FEFFFFEB 		bl	uart1_transmit
 6176 4eb4 0000D6E5 		ldrb	r0, [r6, #0]	@ zero_extendqisi2
 6177 4eb8 0030D4E5 		ldrb	r3, [r4, #0]	@ zero_extendqisi2
 6178 4ebc 033080E0 		add	r3, r0, r3
 6179 4ec0 0030C4E5 		strb	r3, [r4, #0]
 6180 4ec4 0030D5E5 		ldrb	r3, [r5, #0]	@ zero_extendqisi2
 6181 4ec8 0020D4E5 		ldrb	r2, [r4, #0]	@ zero_extendqisi2
 6182 4ecc 023083E0 		add	r3, r3, r2
 6183 4ed0 0030C5E5 		strb	r3, [r5, #0]
 6184 4ed4 FEFFFFEB 		bl	uart1_transmit
 6185 4ed8 0100D6E5 		ldrb	r0, [r6, #1]	@ zero_extendqisi2
 6186 4edc 0030D4E5 		ldrb	r3, [r4, #0]	@ zero_extendqisi2
 6187 4ee0 033080E0 		add	r3, r0, r3
 6188 4ee4 0030C4E5 		strb	r3, [r4, #0]
 6189 4ee8 0030D5E5 		ldrb	r3, [r5, #0]	@ zero_extendqisi2
 6190 4eec 0020D4E5 		ldrb	r2, [r4, #0]	@ zero_extendqisi2
 6191 4ef0 023083E0 		add	r3, r3, r2
 6192 4ef4 0030C5E5 		strb	r3, [r5, #0]
 6193 4ef8 FEFFFFEB 		bl	uart1_transmit
 6194 4efc 0200D6E5 		ldrb	r0, [r6, #2]	@ zero_extendqisi2
 6195 4f00 0030D4E5 		ldrb	r3, [r4, #0]	@ zero_extendqisi2
 6196 4f04 033080E0 		add	r3, r0, r3
 6197 4f08 0030C4E5 		strb	r3, [r4, #0]
 6198 4f0c 0030D5E5 		ldrb	r3, [r5, #0]	@ zero_extendqisi2
 6199 4f10 0020D4E5 		ldrb	r2, [r4, #0]	@ zero_extendqisi2
 6200 4f14 023083E0 		add	r3, r3, r2
 6201 4f18 0030C5E5 		strb	r3, [r5, #0]
 6202 4f1c FEFFFFEB 		bl	uart1_transmit
 6203 4f20 0300D6E5 		ldrb	r0, [r6, #3]	@ zero_extendqisi2
 6204 4f24 0030D4E5 		ldrb	r3, [r4, #0]	@ zero_extendqisi2
 6205 4f28 033080E0 		add	r3, r0, r3
 6206 4f2c 0030C4E5 		strb	r3, [r4, #0]
 6207 4f30 0030D5E5 		ldrb	r3, [r5, #0]	@ zero_extendqisi2
 6208 4f34 0020D4E5 		ldrb	r2, [r4, #0]	@ zero_extendqisi2
 6209 4f38 023083E0 		add	r3, r3, r2
 6210 4f3c 0030C5E5 		strb	r3, [r5, #0]
 6211 4f40 FEFFFFEB 		bl	uart1_transmit
 6212 4f44 0000D4E5 		ldrb	r0, [r4, #0]	@ zero_extendqisi2
 6213 4f48 FEFFFFEB 		bl	uart1_transmit
 6214 4f4c 0000D5E5 		ldrb	r0, [r5, #0]	@ zero_extendqisi2
 6215 4f50 FEFFFFEB 		bl	uart1_transmit
 6216              	.L234:
 6217 4f54 1C081FE5 		ldr	r0, .L362+96
 6218 4f58 0030D0E5 		ldrb	r3, [r0, #0]	@ zero_extendqisi2
 6219 4f5c 3C0053E3 		cmp	r3, #60
 6220 4f60 0315001A 		bne	.L237
 6221 4f64 2200A0E3 		mov	r0, #34
 6222 4f68 FEFFFFEB 		bl	uart1_check_free_space
 6223 4f6c FF0010E3 		tst	r0, #255
 6224 4f70 34281F05 		ldreq	r2, .L362+100
 6225 4f74 0030D205 		ldreqb	r3, [r2, #0]	@ zero_extendqisi2
 6226 4f78 01308302 		addeq	r3, r3, #1
 6227 4f7c 0030C205 		streqb	r3, [r2, #0]
 6228 4f80 0315000A 		beq	.L237
 6229 4f84 08181FE5 		ldr	r1, .L362+164
 6230 4f88 08C81FE5 		ldr	ip, .L362+168
 6231 4f8c B030D1E1 		ldrh	r3, [r1, #0]
 6232 4f90 B020DCE1 		ldrh	r2, [ip, #0]
 6233 4f94 223083E2 		add	r3, r3, #34
 6234 4f98 012082E2 		add	r2, r2, #1
 6235 4f9c B030C1E1 		strh	r3, [r1, #0]	@ movhi 
 6236 4fa0 B020CCE1 		strh	r2, [ip, #0]	@ movhi 
 6237 4fa4 9900A0E3 		mov	r0, #153
 6238 4fa8 24481FE5 		ldr	r4, .L362+172
 6239 4fac FEFFFFEB 		bl	uart1_transmit
 6240 4fb0 2200A0E3 		mov	r0, #34
 6241 4fb4 2C581FE5 		ldr	r5, .L362+176
 6242 4fb8 FEFFFFEB 		bl	uart1_transmit
 6243 4fbc 3430A0E3 		mov	r3, #52
 6244 4fc0 0030C4E5 		strb	r3, [r4, #0]
 6245 4fc4 223083E2 		add	r3, r3, #34
 6246 4fc8 1200A0E3 		mov	r0, #18
 6247 4fcc 0030C5E5 		strb	r3, [r5, #0]
 6248 4fd0 FEFFFFEB 		bl	uart1_transmit
 6249 4fd4 0030D4E5 		ldrb	r3, [r4, #0]	@ zero_extendqisi2
 6250 4fd8 103083E2 		add	r3, r3, #16
 6251 4fdc 0030C4E5 		strb	r3, [r4, #0]
 6252 4fe0 0030D5E5 		ldrb	r3, [r5, #0]	@ zero_extendqisi2
 6253 4fe4 0020D4E5 		ldrb	r2, [r4, #0]	@ zero_extendqisi2
 6254 4fe8 A8681FE5 		ldr	r6, .L362+104
 6255 4fec 023083E0 		add	r3, r3, r2
 6256 4ff0 1000A0E3 		mov	r0, #16
 6257 4ff4 0030C5E5 		strb	r3, [r5, #0]
 6258 4ff8 FEFFFFEB 		bl	uart1_transmit
 6259 4ffc 0000D6E5 		ldrb	r0, [r6, #0]	@ zero_extendqisi2
 6260 5000 0030D4E5 		ldrb	r3, [r4, #0]	@ zero_extendqisi2
 6261 5004 033080E0 		add	r3, r0, r3
 6262 5008 0030C4E5 		strb	r3, [r4, #0]
 6263 500c 0030D5E5 		ldrb	r3, [r5, #0]	@ zero_extendqisi2
 6264 5010 0020D4E5 		ldrb	r2, [r4, #0]	@ zero_extendqisi2
 6265 5014 023083E0 		add	r3, r3, r2
 6266 5018 0030C5E5 		strb	r3, [r5, #0]
 6267 501c FEFFFFEB 		bl	uart1_transmit
 6268 5020 0100D6E5 		ldrb	r0, [r6, #1]	@ zero_extendqisi2
 6269 5024 0030D4E5 		ldrb	r3, [r4, #0]	@ zero_extendqisi2
 6270 5028 033080E0 		add	r3, r0, r3
 6271 502c 0030C4E5 		strb	r3, [r4, #0]
 6272 5030 0030D5E5 		ldrb	r3, [r5, #0]	@ zero_extendqisi2
 6273 5034 0020D4E5 		ldrb	r2, [r4, #0]	@ zero_extendqisi2
 6274 5038 023083E0 		add	r3, r3, r2
 6275 503c 0030C5E5 		strb	r3, [r5, #0]
 6276 5040 FEFFFFEB 		bl	uart1_transmit
 6277 5044 0200D6E5 		ldrb	r0, [r6, #2]	@ zero_extendqisi2
 6278 5048 0030D4E5 		ldrb	r3, [r4, #0]	@ zero_extendqisi2
 6279 504c 033080E0 		add	r3, r0, r3
 6280 5050 0030C4E5 		strb	r3, [r4, #0]
 6281 5054 0030D5E5 		ldrb	r3, [r5, #0]	@ zero_extendqisi2
 6282 5058 0020D4E5 		ldrb	r2, [r4, #0]	@ zero_extendqisi2
 6283 505c 023083E0 		add	r3, r3, r2
 6284 5060 0030C5E5 		strb	r3, [r5, #0]
 6285 5064 FEFFFFEB 		bl	uart1_transmit
 6286 5068 0300D6E5 		ldrb	r0, [r6, #3]	@ zero_extendqisi2
 6287 506c 0030D4E5 		ldrb	r3, [r4, #0]	@ zero_extendqisi2
 6288 5070 033080E0 		add	r3, r0, r3
 6289 5074 0030C4E5 		strb	r3, [r4, #0]
 6290 5078 0030D5E5 		ldrb	r3, [r5, #0]	@ zero_extendqisi2
 6291 507c 0020D4E5 		ldrb	r2, [r4, #0]	@ zero_extendqisi2
 6292 5080 3C691FE5 		ldr	r6, .L362+108
 6293 5084 023083E0 		add	r3, r3, r2
 6294 5088 0030C5E5 		strb	r3, [r5, #0]
 6295 508c FEFFFFEB 		bl	uart1_transmit
 6296 5090 0000D6E5 		ldrb	r0, [r6, #0]	@ zero_extendqisi2
 6297 5094 0030D4E5 		ldrb	r3, [r4, #0]	@ zero_extendqisi2
 6298 5098 033080E0 		add	r3, r0, r3
 6299 509c 0030C4E5 		strb	r3, [r4, #0]
 6300 50a0 0030D5E5 		ldrb	r3, [r5, #0]	@ zero_extendqisi2
 6301 50a4 0020D4E5 		ldrb	r2, [r4, #0]	@ zero_extendqisi2
 6302 50a8 023083E0 		add	r3, r3, r2
 6303 50ac 0030C5E5 		strb	r3, [r5, #0]
 6304 50b0 FEFFFFEB 		bl	uart1_transmit
 6305 50b4 0100D6E5 		ldrb	r0, [r6, #1]	@ zero_extendqisi2
 6306 50b8 0030D4E5 		ldrb	r3, [r4, #0]	@ zero_extendqisi2
 6307 50bc 033080E0 		add	r3, r0, r3
 6308 50c0 0030C4E5 		strb	r3, [r4, #0]
 6309 50c4 0030D5E5 		ldrb	r3, [r5, #0]	@ zero_extendqisi2
 6310 50c8 0020D4E5 		ldrb	r2, [r4, #0]	@ zero_extendqisi2
 6311 50cc 023083E0 		add	r3, r3, r2
 6312 50d0 0030C5E5 		strb	r3, [r5, #0]
 6313 50d4 FEFFFFEB 		bl	uart1_transmit
 6314 50d8 0200D6E5 		ldrb	r0, [r6, #2]	@ zero_extendqisi2
 6315 50dc 0030D4E5 		ldrb	r3, [r4, #0]	@ zero_extendqisi2
 6316 50e0 033080E0 		add	r3, r0, r3
 6317 50e4 0030C4E5 		strb	r3, [r4, #0]
 6318 50e8 0030D5E5 		ldrb	r3, [r5, #0]	@ zero_extendqisi2
 6319 50ec 0020D4E5 		ldrb	r2, [r4, #0]	@ zero_extendqisi2
 6320 50f0 023083E0 		add	r3, r3, r2
 6321 50f4 0030C5E5 		strb	r3, [r5, #0]
 6322 50f8 FEFFFFEB 		bl	uart1_transmit
 6323 50fc 0300D6E5 		ldrb	r0, [r6, #3]	@ zero_extendqisi2
 6324 5100 0030D4E5 		ldrb	r3, [r4, #0]	@ zero_extendqisi2
 6325 5104 033080E0 		add	r3, r0, r3
 6326 5108 0030C4E5 		strb	r3, [r4, #0]
 6327 510c 0030D5E5 		ldrb	r3, [r5, #0]	@ zero_extendqisi2
 6328 5110 0020D4E5 		ldrb	r2, [r4, #0]	@ zero_extendqisi2
 6329 5114 CC691FE5 		ldr	r6, .L362+112
 6330 5118 023083E0 		add	r3, r3, r2
 6331 511c 0030C5E5 		strb	r3, [r5, #0]
 6332 5120 FEFFFFEB 		bl	uart1_transmit
 6333 5124 0000D6E5 		ldrb	r0, [r6, #0]	@ zero_extendqisi2
 6334 5128 0030D4E5 		ldrb	r3, [r4, #0]	@ zero_extendqisi2
 6335 512c 033080E0 		add	r3, r0, r3
 6336 5130 0030C4E5 		strb	r3, [r4, #0]
 6337 5134 0030D5E5 		ldrb	r3, [r5, #0]	@ zero_extendqisi2
 6338 5138 0020D4E5 		ldrb	r2, [r4, #0]	@ zero_extendqisi2
 6339 513c 023083E0 		add	r3, r3, r2
 6340 5140 0030C5E5 		strb	r3, [r5, #0]
 6341 5144 FEFFFFEB 		bl	uart1_transmit
 6342 5148 0100D6E5 		ldrb	r0, [r6, #1]	@ zero_extendqisi2
 6343 514c 0030D4E5 		ldrb	r3, [r4, #0]	@ zero_extendqisi2
 6344 5150 033080E0 		add	r3, r0, r3
 6345 5154 0030C4E5 		strb	r3, [r4, #0]
 6346 5158 0030D5E5 		ldrb	r3, [r5, #0]	@ zero_extendqisi2
 6347 515c 0020D4E5 		ldrb	r2, [r4, #0]	@ zero_extendqisi2
 6348 5160 023083E0 		add	r3, r3, r2
 6349 5164 0030C5E5 		strb	r3, [r5, #0]
 6350 5168 FEFFFFEB 		bl	uart1_transmit
 6351 516c 0200D6E5 		ldrb	r0, [r6, #2]	@ zero_extendqisi2
 6352 5170 0030D4E5 		ldrb	r3, [r4, #0]	@ zero_extendqisi2
 6353 5174 033080E0 		add	r3, r0, r3
 6354 5178 0030C4E5 		strb	r3, [r4, #0]
 6355 517c 0030D5E5 		ldrb	r3, [r5, #0]	@ zero_extendqisi2
 6356 5180 0020D4E5 		ldrb	r2, [r4, #0]	@ zero_extendqisi2
 6357 5184 023083E0 		add	r3, r3, r2
 6358 5188 0030C5E5 		strb	r3, [r5, #0]
 6359 518c FEFFFFEB 		bl	uart1_transmit
 6360 5190 0300D6E5 		ldrb	r0, [r6, #3]	@ zero_extendqisi2
 6361 5194 0030D4E5 		ldrb	r3, [r4, #0]	@ zero_extendqisi2
 6362 5198 033080E0 		add	r3, r0, r3
 6363 519c 0030C4E5 		strb	r3, [r4, #0]
 6364 51a0 0030D5E5 		ldrb	r3, [r5, #0]	@ zero_extendqisi2
 6365 51a4 0020D4E5 		ldrb	r2, [r4, #0]	@ zero_extendqisi2
 6366 51a8 5C6A1FE5 		ldr	r6, .L362+116
 6367 51ac 023083E0 		add	r3, r3, r2
 6368 51b0 0030C5E5 		strb	r3, [r5, #0]
 6369 51b4 FEFFFFEB 		bl	uart1_transmit
 6370 51b8 0000D6E5 		ldrb	r0, [r6, #0]	@ zero_extendqisi2
 6371 51bc 0030D4E5 		ldrb	r3, [r4, #0]	@ zero_extendqisi2
 6372 51c0 033080E0 		add	r3, r0, r3
 6373 51c4 0030C4E5 		strb	r3, [r4, #0]
 6374 51c8 0030D5E5 		ldrb	r3, [r5, #0]	@ zero_extendqisi2
 6375 51cc 0020D4E5 		ldrb	r2, [r4, #0]	@ zero_extendqisi2
 6376 51d0 023083E0 		add	r3, r3, r2
 6377 51d4 0030C5E5 		strb	r3, [r5, #0]
 6378 51d8 FEFFFFEB 		bl	uart1_transmit
 6379 51dc 0100D6E5 		ldrb	r0, [r6, #1]	@ zero_extendqisi2
 6380 51e0 0030D4E5 		ldrb	r3, [r4, #0]	@ zero_extendqisi2
 6381 51e4 033080E0 		add	r3, r0, r3
 6382 51e8 0030C4E5 		strb	r3, [r4, #0]
 6383 51ec 0030D5E5 		ldrb	r3, [r5, #0]	@ zero_extendqisi2
 6384 51f0 0020D4E5 		ldrb	r2, [r4, #0]	@ zero_extendqisi2
 6385 51f4 023083E0 		add	r3, r3, r2
 6386 51f8 0030C5E5 		strb	r3, [r5, #0]
 6387 51fc FEFFFFEB 		bl	uart1_transmit
 6388 5200 0200D6E5 		ldrb	r0, [r6, #2]	@ zero_extendqisi2
 6389 5204 0030D4E5 		ldrb	r3, [r4, #0]	@ zero_extendqisi2
 6390 5208 033080E0 		add	r3, r0, r3
 6391 520c 0030C4E5 		strb	r3, [r4, #0]
 6392 5210 0030D5E5 		ldrb	r3, [r5, #0]	@ zero_extendqisi2
 6393 5214 0020D4E5 		ldrb	r2, [r4, #0]	@ zero_extendqisi2
 6394 5218 023083E0 		add	r3, r3, r2
 6395 521c 0030C5E5 		strb	r3, [r5, #0]
 6396 5220 FEFFFFEB 		bl	uart1_transmit
 6397 5224 0300D6E5 		ldrb	r0, [r6, #3]	@ zero_extendqisi2
 6398 5228 0030D4E5 		ldrb	r3, [r4, #0]	@ zero_extendqisi2
 6399 522c 033080E0 		add	r3, r0, r3
 6400 5230 0030C4E5 		strb	r3, [r4, #0]
 6401 5234 0030D5E5 		ldrb	r3, [r5, #0]	@ zero_extendqisi2
 6402 5238 0020D4E5 		ldrb	r2, [r4, #0]	@ zero_extendqisi2
 6403 523c EC6A1FE5 		ldr	r6, .L362+120
 6404 5240 023083E0 		add	r3, r3, r2
 6405 5244 0030C5E5 		strb	r3, [r5, #0]
 6406 5248 FEFFFFEB 		bl	uart1_transmit
 6407 524c 0000D6E5 		ldrb	r0, [r6, #0]	@ zero_extendqisi2
 6408 5250 0030D4E5 		ldrb	r3, [r4, #0]	@ zero_extendqisi2
 6409 5254 033080E0 		add	r3, r0, r3
 6410 5258 0030C4E5 		strb	r3, [r4, #0]
 6411 525c 0030D5E5 		ldrb	r3, [r5, #0]	@ zero_extendqisi2
 6412 5260 0020D4E5 		ldrb	r2, [r4, #0]	@ zero_extendqisi2
 6413 5264 023083E0 		add	r3, r3, r2
 6414 5268 0030C5E5 		strb	r3, [r5, #0]
 6415 526c FEFFFFEB 		bl	uart1_transmit
 6416 5270 0100D6E5 		ldrb	r0, [r6, #1]	@ zero_extendqisi2
 6417 5274 0030D4E5 		ldrb	r3, [r4, #0]	@ zero_extendqisi2
 6418 5278 033080E0 		add	r3, r0, r3
 6419 527c 0030C4E5 		strb	r3, [r4, #0]
 6420 5280 0030D5E5 		ldrb	r3, [r5, #0]	@ zero_extendqisi2
 6421 5284 0020D4E5 		ldrb	r2, [r4, #0]	@ zero_extendqisi2
 6422 5288 023083E0 		add	r3, r3, r2
 6423 528c 0030C5E5 		strb	r3, [r5, #0]
 6424 5290 FEFFFFEB 		bl	uart1_transmit
 6425 5294 0200D6E5 		ldrb	r0, [r6, #2]	@ zero_extendqisi2
 6426 5298 0030D4E5 		ldrb	r3, [r4, #0]	@ zero_extendqisi2
 6427 529c 033080E0 		add	r3, r0, r3
 6428 52a0 0030C4E5 		strb	r3, [r4, #0]
 6429 52a4 0030D5E5 		ldrb	r3, [r5, #0]	@ zero_extendqisi2
 6430 52a8 0020D4E5 		ldrb	r2, [r4, #0]	@ zero_extendqisi2
 6431 52ac 023083E0 		add	r3, r3, r2
 6432 52b0 0030C5E5 		strb	r3, [r5, #0]
 6433 52b4 FEFFFFEB 		bl	uart1_transmit
 6434 52b8 0300D6E5 		ldrb	r0, [r6, #3]	@ zero_extendqisi2
 6435 52bc 0030D4E5 		ldrb	r3, [r4, #0]	@ zero_extendqisi2
 6436 52c0 033080E0 		add	r3, r0, r3
 6437 52c4 0030C4E5 		strb	r3, [r4, #0]
 6438 52c8 0030D5E5 		ldrb	r3, [r5, #0]	@ zero_extendqisi2
 6439 52cc 0020D4E5 		ldrb	r2, [r4, #0]	@ zero_extendqisi2
 6440 52d0 7C6B1FE5 		ldr	r6, .L362+124
 6441 52d4 023083E0 		add	r3, r3, r2
 6442 52d8 0030C5E5 		strb	r3, [r5, #0]
 6443 52dc FEFFFFEB 		bl	uart1_transmit
 6444 52e0 0000D6E5 		ldrb	r0, [r6, #0]	@ zero_extendqisi2
 6445 52e4 0030D4E5 		ldrb	r3, [r4, #0]	@ zero_extendqisi2
 6446 52e8 033080E0 		add	r3, r0, r3
 6447 52ec 0030C4E5 		strb	r3, [r4, #0]
 6448 52f0 0030D5E5 		ldrb	r3, [r5, #0]	@ zero_extendqisi2
 6449 52f4 0020D4E5 		ldrb	r2, [r4, #0]	@ zero_extendqisi2
 6450 52f8 023083E0 		add	r3, r3, r2
 6451 52fc 0030C5E5 		strb	r3, [r5, #0]
 6452 5300 FEFFFFEB 		bl	uart1_transmit
 6453 5304 0100D6E5 		ldrb	r0, [r6, #1]	@ zero_extendqisi2
 6454 5308 0030D4E5 		ldrb	r3, [r4, #0]	@ zero_extendqisi2
 6455 530c 033080E0 		add	r3, r0, r3
 6456 5310 0030C4E5 		strb	r3, [r4, #0]
 6457 5314 0030D5E5 		ldrb	r3, [r5, #0]	@ zero_extendqisi2
 6458 5318 0020D4E5 		ldrb	r2, [r4, #0]	@ zero_extendqisi2
 6459 531c 023083E0 		add	r3, r3, r2
 6460 5320 0030C5E5 		strb	r3, [r5, #0]
 6461 5324 FEFFFFEB 		bl	uart1_transmit
 6462 5328 0200D6E5 		ldrb	r0, [r6, #2]	@ zero_extendqisi2
 6463 532c 0030D4E5 		ldrb	r3, [r4, #0]	@ zero_extendqisi2
 6464 5330 033080E0 		add	r3, r0, r3
 6465 5334 0030C4E5 		strb	r3, [r4, #0]
 6466 5338 0030D5E5 		ldrb	r3, [r5, #0]	@ zero_extendqisi2
 6467 533c 0020D4E5 		ldrb	r2, [r4, #0]	@ zero_extendqisi2
 6468 5340 023083E0 		add	r3, r3, r2
 6469 5344 0030C5E5 		strb	r3, [r5, #0]
 6470 5348 FEFFFFEB 		bl	uart1_transmit
 6471 534c 0300D6E5 		ldrb	r0, [r6, #3]	@ zero_extendqisi2
 6472 5350 0030D4E5 		ldrb	r3, [r4, #0]	@ zero_extendqisi2
 6473 5354 033080E0 		add	r3, r0, r3
 6474 5358 0030C4E5 		strb	r3, [r4, #0]
 6475 535c 0030D5E5 		ldrb	r3, [r5, #0]	@ zero_extendqisi2
 6476 5360 0020D4E5 		ldrb	r2, [r4, #0]	@ zero_extendqisi2
 6477 5364 0C6C1FE5 		ldr	r6, .L362+128
 6478 5368 023083E0 		add	r3, r3, r2
 6479 536c 0030C5E5 		strb	r3, [r5, #0]
 6480 5370 FEFFFFEB 		bl	uart1_transmit
 6481 5374 0000D6E5 		ldrb	r0, [r6, #0]	@ zero_extendqisi2
 6482 5378 0030D4E5 		ldrb	r3, [r4, #0]	@ zero_extendqisi2
 6483 537c 033080E0 		add	r3, r0, r3
 6484 5380 0030C4E5 		strb	r3, [r4, #0]
 6485 5384 0030D5E5 		ldrb	r3, [r5, #0]	@ zero_extendqisi2
 6486 5388 0020D4E5 		ldrb	r2, [r4, #0]	@ zero_extendqisi2
 6487 538c 023083E0 		add	r3, r3, r2
 6488 5390 0030C5E5 		strb	r3, [r5, #0]
 6489 5394 FEFFFFEB 		bl	uart1_transmit
 6490 5398 0100D6E5 		ldrb	r0, [r6, #1]	@ zero_extendqisi2
 6491 539c 0030D4E5 		ldrb	r3, [r4, #0]	@ zero_extendqisi2
 6492 53a0 033080E0 		add	r3, r0, r3
 6493 53a4 0030C4E5 		strb	r3, [r4, #0]
 6494 53a8 0030D5E5 		ldrb	r3, [r5, #0]	@ zero_extendqisi2
 6495 53ac 0020D4E5 		ldrb	r2, [r4, #0]	@ zero_extendqisi2
 6496 53b0 023083E0 		add	r3, r3, r2
 6497 53b4 0030C5E5 		strb	r3, [r5, #0]
 6498 53b8 FEFFFFEB 		bl	uart1_transmit
 6499 53bc 0200D6E5 		ldrb	r0, [r6, #2]	@ zero_extendqisi2
 6500 53c0 0030D4E5 		ldrb	r3, [r4, #0]	@ zero_extendqisi2
 6501 53c4 033080E0 		add	r3, r0, r3
 6502 53c8 0030C4E5 		strb	r3, [r4, #0]
 6503 53cc 0030D5E5 		ldrb	r3, [r5, #0]	@ zero_extendqisi2
 6504 53d0 0020D4E5 		ldrb	r2, [r4, #0]	@ zero_extendqisi2
 6505 53d4 023083E0 		add	r3, r3, r2
 6506 53d8 0030C5E5 		strb	r3, [r5, #0]
 6507 53dc FEFFFFEB 		bl	uart1_transmit
 6508 53e0 0300D6E5 		ldrb	r0, [r6, #3]	@ zero_extendqisi2
 6509 53e4 0030D4E5 		ldrb	r3, [r4, #0]	@ zero_extendqisi2
 6510 53e8 033080E0 		add	r3, r0, r3
 6511 53ec 0030C4E5 		strb	r3, [r4, #0]
 6512 53f0 0030D5E5 		ldrb	r3, [r5, #0]	@ zero_extendqisi2
 6513 53f4 0020D4E5 		ldrb	r2, [r4, #0]	@ zero_extendqisi2
 6514 53f8 023083E0 		add	r3, r3, r2
 6515 53fc 0030C5E5 		strb	r3, [r5, #0]
 6516 5400 FEFFFFEB 		bl	uart1_transmit
 6517 5404 0000D4E5 		ldrb	r0, [r4, #0]	@ zero_extendqisi2
 6518 5408 FEFFFFEB 		bl	uart1_transmit
 6519 540c 0000D5E5 		ldrb	r0, [r5, #0]	@ zero_extendqisi2
 6520 5410 FEFFFFEB 		bl	uart1_transmit
 6521              	.L237:
 6522 5414 B82C1FE5 		ldr	r2, .L362+132
 6523 5418 B030D2E1 		ldrh	r3, [r2, #0]
 6524 541c 420053E3 		cmp	r3, #66
 6525 5420 4415001A 		bne	.L240
 6526 5424 1700A0E3 		mov	r0, #23
 6527 5428 FEFFFFEB 		bl	uart1_check_free_space
 6528 542c FF0010E3 		tst	r0, #255
 6529 5430 2B16000A 		beq	.L253
 6530 5434 B81C1FE5 		ldr	r1, .L362+164
 6531 5438 B8CC1FE5 		ldr	ip, .L362+168
 6532 543c B030D1E1 		ldrh	r3, [r1, #0]
 6533 5440 B020DCE1 		ldrh	r2, [ip, #0]
 6534 5444 173083E2 		add	r3, r3, #23
 6535 5448 012082E2 		add	r2, r2, #1
 6536 544c B030C1E1 		strh	r3, [r1, #0]	@ movhi 
 6537 5450 B020CCE1 		strh	r2, [ip, #0]	@ movhi 
 6538 5454 9900A0E3 		mov	r0, #153
 6539 5458 D44C1FE5 		ldr	r4, .L362+172
 6540 545c FEFFFFEB 		bl	uart1_transmit
 6541 5460 1700A0E3 		mov	r0, #23
 6542 5464 FEFFFFEB 		bl	uart1_transmit
 6543 5468 E06C1FE5 		ldr	r6, .L362+176
 6544 546c 2930A0E3 		mov	r3, #41
 6545 5470 0030C4E5 		strb	r3, [r4, #0]
 6546 5474 173083E2 		add	r3, r3, #23
 6547 5478 1200A0E3 		mov	r0, #18
 6548 547c 0030C6E5 		strb	r3, [r6, #0]
 6549 5480 FEFFFFEB 		bl	uart1_transmit
 6550 5484 0030D4E5 		ldrb	r3, [r4, #0]	@ zero_extendqisi2
 6551 5488 023083E2 		add	r3, r3, #2
 6552 548c 0030C4E5 		strb	r3, [r4, #0]
 6553 5490 0030D6E5 		ldrb	r3, [r6, #0]	@ zero_extendqisi2
 6554 5494 0020D4E5 		ldrb	r2, [r4, #0]	@ zero_extendqisi2
 6555 5498 023083E0 		add	r3, r3, r2
 6556 549c 0200A0E3 		mov	r0, #2
 6557 54a0 0030C6E5 		strb	r3, [r6, #0]
 6558 54a4 FEFFFFEB 		bl	uart1_transmit
 6559 54a8 0030D4E5 		ldrb	r3, [r4, #0]	@ zero_extendqisi2
 6560 54ac 103083E2 		add	r3, r3, #16
 6561 54b0 0030C4E5 		strb	r3, [r4, #0]
 6562 54b4 0030D6E5 		ldrb	r3, [r6, #0]	@ zero_extendqisi2
 6563 54b8 0020D4E5 		ldrb	r2, [r4, #0]	@ zero_extendqisi2
 6564 54bc 023083E0 		add	r3, r3, r2
 6565 54c0 1000A0E3 		mov	r0, #16
 6566 54c4 0030C6E5 		strb	r3, [r6, #0]
 6567 54c8 FEFFFFEB 		bl	uart1_transmit
 6568 54cc 0050A0E3 		mov	r5, #0
 6569              	.L245:
 6570 54d0 703D1FE5 		ldr	r3, .L362+136
 6571 54d4 0300D5E7 		ldrb	r0, [r5, r3]	@ zero_extendqisi2
 6572 54d8 0030D4E5 		ldrb	r3, [r4, #0]	@ zero_extendqisi2
 6573 54dc 033080E0 		add	r3, r0, r3
 6574 54e0 0030C4E5 		strb	r3, [r4, #0]
 6575 54e4 0030D6E5 		ldrb	r3, [r6, #0]	@ zero_extendqisi2
 6576 54e8 0020D4E5 		ldrb	r2, [r4, #0]	@ zero_extendqisi2
 6577 54ec 023083E0 		add	r3, r3, r2
 6578 54f0 0030C6E5 		strb	r3, [r6, #0]
 6579 54f4 FEFFFFEB 		bl	uart1_transmit
 6580 54f8 013085E2 		add	r3, r5, #1
 6581 54fc FF5003E2 		and	r5, r3, #255
 6582 5500 0F0055E3 		cmp	r5, #15
 6583 5504 3215009A 		bls	.L245
 6584 5508 0000D4E5 		ldrb	r0, [r4, #0]	@ zero_extendqisi2
 6585 550c FEFFFFEB 		bl	uart1_transmit
 6586 5510 0000D6E5 		ldrb	r0, [r6, #0]	@ zero_extendqisi2
 6587 5514 291600EA 		b	.L339
 6588              	.L240:
 6589 5518 480053E3 		cmp	r3, #72
 6590 551c 9B15001A 		bne	.L248
 6591 5520 0C00A0E3 		mov	r0, #12
 6592 5524 FEFFFFEB 		bl	uart1_check_free_space
 6593 5528 FF0010E3 		tst	r0, #255
 6594 552c 2B16000A 		beq	.L253
 6595 5530 B41D1FE5 		ldr	r1, .L362+164
 6596 5534 B4CD1FE5 		ldr	ip, .L362+168
 6597 5538 B030D1E1 		ldrh	r3, [r1, #0]
 6598 553c B020DCE1 		ldrh	r2, [ip, #0]
 6599 5540 0C3083E2 		add	r3, r3, #12
 6600 5544 012082E2 		add	r2, r2, #1
 6601 5548 B030C1E1 		strh	r3, [r1, #0]	@ movhi 
 6602 554c B020CCE1 		strh	r2, [ip, #0]	@ movhi 
 6603 5550 9900A0E3 		mov	r0, #153
 6604 5554 D04D1FE5 		ldr	r4, .L362+172
 6605 5558 FEFFFFEB 		bl	uart1_transmit
 6606 555c 0C00A0E3 		mov	r0, #12
 6607 5560 D85D1FE5 		ldr	r5, .L362+176
 6608 5564 FEFFFFEB 		bl	uart1_transmit
 6609 5568 1E30A0E3 		mov	r3, #30
 6610 556c 0030C4E5 		strb	r3, [r4, #0]
 6611 5570 0C3083E2 		add	r3, r3, #12
 6612 5574 1200A0E3 		mov	r0, #18
 6613 5578 0030C5E5 		strb	r3, [r5, #0]
 6614 557c FEFFFFEB 		bl	uart1_transmit
 6615 5580 0030D4E5 		ldrb	r3, [r4, #0]	@ zero_extendqisi2
 6616 5584 0B3083E2 		add	r3, r3, #11
 6617 5588 0030C4E5 		strb	r3, [r4, #0]
 6618 558c 0030D5E5 		ldrb	r3, [r5, #0]	@ zero_extendqisi2
 6619 5590 0020D4E5 		ldrb	r2, [r4, #0]	@ zero_extendqisi2
 6620 5594 023083E0 		add	r3, r3, r2
 6621 5598 0B00A0E3 		mov	r0, #11
 6622 559c 0030C5E5 		strb	r3, [r5, #0]
 6623 55a0 FEFFFFEB 		bl	uart1_transmit
 6624 55a4 403E1FE5 		ldr	r3, .L362+140
 6625 55a8 0000D3E5 		ldrb	r0, [r3, #0]	@ zero_extendqisi2
 6626 55ac 0030D4E5 		ldrb	r3, [r4, #0]	@ zero_extendqisi2
 6627 55b0 033080E0 		add	r3, r0, r3
 6628 55b4 0030C4E5 		strb	r3, [r4, #0]
 6629 55b8 0030D5E5 		ldrb	r3, [r5, #0]	@ zero_extendqisi2
 6630 55bc 0020D4E5 		ldrb	r2, [r4, #0]	@ zero_extendqisi2
 6631 55c0 023083E0 		add	r3, r3, r2
 6632 55c4 0030C5E5 		strb	r3, [r5, #0]
 6633 55c8 FEFFFFEB 		bl	uart1_transmit
 6634 55cc 643E1FE5 		ldr	r3, .L362+144
 6635 55d0 0000D3E5 		ldrb	r0, [r3, #0]	@ zero_extendqisi2
 6636 55d4 0030D4E5 		ldrb	r3, [r4, #0]	@ zero_extendqisi2
 6637 55d8 033080E0 		add	r3, r0, r3
 6638 55dc 0030C4E5 		strb	r3, [r4, #0]
 6639 55e0 0030D5E5 		ldrb	r3, [r5, #0]	@ zero_extendqisi2
 6640 55e4 0020D4E5 		ldrb	r2, [r4, #0]	@ zero_extendqisi2
 6641 55e8 023083E0 		add	r3, r3, r2
 6642 55ec 0030C5E5 		strb	r3, [r5, #0]
 6643 55f0 FEFFFFEB 		bl	uart1_transmit
 6644 55f4 883E1FE5 		ldr	r3, .L362+148
 6645 55f8 0000D3E5 		ldrb	r0, [r3, #0]	@ zero_extendqisi2
 6646 55fc 0030D4E5 		ldrb	r3, [r4, #0]	@ zero_extendqisi2
 6647 5600 033080E0 		add	r3, r0, r3
 6648 5604 0030C4E5 		strb	r3, [r4, #0]
 6649 5608 0030D5E5 		ldrb	r3, [r5, #0]	@ zero_extendqisi2
 6650 560c 0020D4E5 		ldrb	r2, [r4, #0]	@ zero_extendqisi2
 6651 5610 023083E0 		add	r3, r3, r2
 6652 5614 0030C5E5 		strb	r3, [r5, #0]
 6653 5618 FEFFFFEB 		bl	uart1_transmit
 6654 561c AC3E1FE5 		ldr	r3, .L362+152
 6655 5620 0000D3E5 		ldrb	r0, [r3, #0]	@ zero_extendqisi2
 6656 5624 0030D4E5 		ldrb	r3, [r4, #0]	@ zero_extendqisi2
 6657 5628 033080E0 		add	r3, r0, r3
 6658 562c 0030C4E5 		strb	r3, [r4, #0]
 6659 5630 0030D5E5 		ldrb	r3, [r5, #0]	@ zero_extendqisi2
 6660 5634 0020D4E5 		ldrb	r2, [r4, #0]	@ zero_extendqisi2
 6661 5638 023083E0 		add	r3, r3, r2
 6662 563c 0030C5E5 		strb	r3, [r5, #0]
 6663 5640 FEFFFFEB 		bl	uart1_transmit
 6664 5644 D03E1FE5 		ldr	r3, .L362+156
 6665 5648 0000D3E5 		ldrb	r0, [r3, #0]	@ zero_extendqisi2
 6666 564c 0030D4E5 		ldrb	r3, [r4, #0]	@ zero_extendqisi2
 6667 5650 033080E0 		add	r3, r0, r3
 6668 5654 0030C4E5 		strb	r3, [r4, #0]
 6669 5658 0030D5E5 		ldrb	r3, [r5, #0]	@ zero_extendqisi2
 6670 565c 0020D4E5 		ldrb	r2, [r4, #0]	@ zero_extendqisi2
 6671 5660 023083E0 		add	r3, r3, r2
 6672 5664 0030C5E5 		strb	r3, [r5, #0]
 6673 5668 FEFFFFEB 		bl	uart1_transmit
 6674 566c F43E1FE5 		ldr	r3, .L362+160
 6675 5670 1D1600EA 		b	.L338
 6676              	.L248:
 6677 5674 4E0053E3 		cmp	r3, #78
 6678 5678 2F16001A 		bne	.L247
 6679 567c 1100A0E3 		mov	r0, #17
 6680 5680 FEFFFFEB 		bl	uart1_check_free_space
 6681 5684 FF0010E3 		tst	r0, #255
 6682 5688 2B16000A 		beq	.L253
 6683 568c 101F1FE5 		ldr	r1, .L362+164
 6684 5690 10CF1FE5 		ldr	ip, .L362+168
 6685 5694 B030D1E1 		ldrh	r3, [r1, #0]
 6686 5698 B020DCE1 		ldrh	r2, [ip, #0]
 6687 569c 113083E2 		add	r3, r3, #17
 6688 56a0 012082E2 		add	r2, r2, #1
 6689 56a4 B030C1E1 		strh	r3, [r1, #0]	@ movhi 
 6690 56a8 B020CCE1 		strh	r2, [ip, #0]	@ movhi 
 6691 56ac 1170A0E3 		mov	r7, #17
 6692 56b0 9900A0E3 		mov	r0, #153
 6693 56b4 304F1FE5 		ldr	r4, .L362+172
 6694 56b8 FEFFFFEB 		bl	uart1_transmit
 6695 56bc 0700A0E1 		mov	r0, r7
 6696 56c0 385F1FE5 		ldr	r5, .L362+176
 6697 56c4 FEFFFFEB 		bl	uart1_transmit
 6698 56c8 2330A0E3 		mov	r3, #35
 6699 56cc 0030C4E5 		strb	r3, [r4, #0]
 6700 56d0 073083E0 		add	r3, r3, r7
 6701 56d4 1200A0E3 		mov	r0, #18
 6702 56d8 0030C5E5 		strb	r3, [r5, #0]
 6703 56dc FEFFFFEB 		bl	uart1_transmit
 6704 56e0 0030D4E5 		ldrb	r3, [r4, #0]	@ zero_extendqisi2
 6705 56e4 073083E0 		add	r3, r3, r7
 6706 56e8 0030C4E5 		strb	r3, [r4, #0]
 6707 56ec 0030D5E5 		ldrb	r3, [r5, #0]	@ zero_extendqisi2
 6708 56f0 0020D4E5 		ldrb	r2, [r4, #0]	@ zero_extendqisi2
 6709 56f4 686F1FE5 		ldr	r6, .L362+180
 6710 56f8 023083E0 		add	r3, r3, r2
 6711 56fc 0700A0E1 		mov	r0, r7
 6712 5700 0030C5E5 		strb	r3, [r5, #0]
 6713 5704 FEFFFFEB 		bl	uart1_transmit
 6714 5708 0000D6E5 		ldrb	r0, [r6, #0]	@ zero_extendqisi2
 6715 570c 0030D4E5 		ldrb	r3, [r4, #0]	@ zero_extendqisi2
 6716 5710 033080E0 		add	r3, r0, r3
 6717 5714 0030C4E5 		strb	r3, [r4, #0]
 6718 5718 0030D5E5 		ldrb	r3, [r5, #0]	@ zero_extendqisi2
 6719 571c 0020D4E5 		ldrb	r2, [r4, #0]	@ zero_extendqisi2
 6720 5720 023083E0 		add	r3, r3, r2
 6721 5724 0030C5E5 		strb	r3, [r5, #0]
 6722 5728 FEFFFFEB 		bl	uart1_transmit
 6723 572c 0100D6E5 		ldrb	r0, [r6, #1]	@ zero_extendqisi2
 6724 5730 0030D4E5 		ldrb	r3, [r4, #0]	@ zero_extendqisi2
 6725 5734 033080E0 		add	r3, r0, r3
 6726 5738 0030C4E5 		strb	r3, [r4, #0]
 6727 573c 0030D5E5 		ldrb	r3, [r5, #0]	@ zero_extendqisi2
 6728 5740 0020D4E5 		ldrb	r2, [r4, #0]	@ zero_extendqisi2
 6729 5744 023083E0 		add	r3, r3, r2
 6730 5748 0030C5E5 		strb	r3, [r5, #0]
 6731 574c FEFFFFEB 		bl	uart1_transmit
 6732 5750 0200D6E5 		ldrb	r0, [r6, #2]	@ zero_extendqisi2
 6733 5754 0030D4E5 		ldrb	r3, [r4, #0]	@ zero_extendqisi2
 6734 5758 033080E0 		add	r3, r0, r3
 6735 575c 0030C4E5 		strb	r3, [r4, #0]
 6736 5760 0030D5E5 		ldrb	r3, [r5, #0]	@ zero_extendqisi2
 6737 5764 0020D4E5 		ldrb	r2, [r4, #0]	@ zero_extendqisi2
 6738 5768 023083E0 		add	r3, r3, r2
 6739 576c 0030C5E5 		strb	r3, [r5, #0]
 6740 5770 FEFFFFEB 		bl	uart1_transmit
 6741 5774 0300D6E5 		ldrb	r0, [r6, #3]	@ zero_extendqisi2
 6742 5778 0030D4E5 		ldrb	r3, [r4, #0]	@ zero_extendqisi2
 6743 577c 033080E0 		add	r3, r0, r3
 6744 5780 0030C4E5 		strb	r3, [r4, #0]
 6745 5784 0030D5E5 		ldrb	r3, [r5, #0]	@ zero_extendqisi2
 6746 5788 0020D4E5 		ldrb	r2, [r4, #0]	@ zero_extendqisi2
 6747 578c FC6F1FE5 		ldr	r6, .L362+184
 6748 5790 023083E0 		add	r3, r3, r2
 6749 5794 0030C5E5 		strb	r3, [r5, #0]
 6750 5798 FEFFFFEB 		bl	uart1_transmit
 6751 579c 0000D6E5 		ldrb	r0, [r6, #0]	@ zero_extendqisi2
 6752 57a0 0030D4E5 		ldrb	r3, [r4, #0]	@ zero_extendqisi2
 6753 57a4 033080E0 		add	r3, r0, r3
 6754 57a8 0030C4E5 		strb	r3, [r4, #0]
 6755 57ac 0030D5E5 		ldrb	r3, [r5, #0]	@ zero_extendqisi2
 6756 57b0 0020D4E5 		ldrb	r2, [r4, #0]	@ zero_extendqisi2
 6757 57b4 023083E0 		add	r3, r3, r2
 6758 57b8 0030C5E5 		strb	r3, [r5, #0]
 6759 57bc FEFFFFEB 		bl	uart1_transmit
 6760 57c0 0100D6E5 		ldrb	r0, [r6, #1]	@ zero_extendqisi2
 6761 57c4 0030D4E5 		ldrb	r3, [r4, #0]	@ zero_extendqisi2
 6762 57c8 033080E0 		add	r3, r0, r3
 6763 57cc 0030C4E5 		strb	r3, [r4, #0]
 6764 57d0 0030D5E5 		ldrb	r3, [r5, #0]	@ zero_extendqisi2
 6765 57d4 0020D4E5 		ldrb	r2, [r4, #0]	@ zero_extendqisi2
 6766 57d8 023083E0 		add	r3, r3, r2
 6767 57dc 0030C5E5 		strb	r3, [r5, #0]
 6768 57e0 FEFFFFEB 		bl	uart1_transmit
 6769 57e4 0200D6E5 		ldrb	r0, [r6, #2]	@ zero_extendqisi2
 6770 57e8 0030D4E5 		ldrb	r3, [r4, #0]	@ zero_extendqisi2
 6771 57ec 033080E0 		add	r3, r0, r3
 6772 57f0 0030C4E5 		strb	r3, [r4, #0]
 6773 57f4 0030D5E5 		ldrb	r3, [r5, #0]	@ zero_extendqisi2
 6774 57f8 0020D4E5 		ldrb	r2, [r4, #0]	@ zero_extendqisi2
 6775 57fc 023083E0 		add	r3, r3, r2
 6776 5800 0030C5E5 		strb	r3, [r5, #0]
 6777 5804 FEFFFFEB 		bl	uart1_transmit
 6778 5808 0300D6E5 		ldrb	r0, [r6, #3]	@ zero_extendqisi2
 6779 580c 0030D4E5 		ldrb	r3, [r4, #0]	@ zero_extendqisi2
 6780 5810 033080E0 		add	r3, r0, r3
 6781 5814 0030C4E5 		strb	r3, [r4, #0]
 6782 5818 0030D5E5 		ldrb	r3, [r5, #0]	@ zero_extendqisi2
 6783 581c 0020D4E5 		ldrb	r2, [r4, #0]	@ zero_extendqisi2
 6784 5820 E0619FE5 		ldr	r6, .L365
 6785 5824 023083E0 		add	r3, r3, r2
 6786 5828 0030C5E5 		strb	r3, [r5, #0]
 6787 582c FEFFFFEB 		bl	uart1_transmit
 6788 5830 0000D6E5 		ldrb	r0, [r6, #0]	@ zero_extendqisi2
 6789 5834 0030D4E5 		ldrb	r3, [r4, #0]	@ zero_extendqisi2
 6790 5838 033080E0 		add	r3, r0, r3
 6791 583c 0030C4E5 		strb	r3, [r4, #0]
 6792 5840 0030D5E5 		ldrb	r3, [r5, #0]	@ zero_extendqisi2
 6793 5844 0020D4E5 		ldrb	r2, [r4, #0]	@ zero_extendqisi2
 6794 5848 023083E0 		add	r3, r3, r2
 6795 584c 0030C5E5 		strb	r3, [r5, #0]
 6796 5850 FEFFFFEB 		bl	uart1_transmit
 6797 5854 0100D6E5 		ldrb	r0, [r6, #1]	@ zero_extendqisi2
 6798 5858 0030D4E5 		ldrb	r3, [r4, #0]	@ zero_extendqisi2
 6799 585c 033080E0 		add	r3, r0, r3
 6800 5860 0030C4E5 		strb	r3, [r4, #0]
 6801 5864 0030D5E5 		ldrb	r3, [r5, #0]	@ zero_extendqisi2
 6802 5868 0020D4E5 		ldrb	r2, [r4, #0]	@ zero_extendqisi2
 6803 586c 023083E0 		add	r3, r3, r2
 6804 5870 0030C5E5 		strb	r3, [r5, #0]
 6805 5874 FEFFFFEB 		bl	uart1_transmit
 6806 5878 8C319FE5 		ldr	r3, .L365+4
 6807              	.L338:
 6808 587c 0000D3E5 		ldrb	r0, [r3, #0]	@ zero_extendqisi2
 6809 5880 0030D4E5 		ldrb	r3, [r4, #0]	@ zero_extendqisi2
 6810 5884 033080E0 		add	r3, r0, r3
 6811 5888 0030C4E5 		strb	r3, [r4, #0]
 6812 588c 0030D5E5 		ldrb	r3, [r5, #0]	@ zero_extendqisi2
 6813 5890 0020D4E5 		ldrb	r2, [r4, #0]	@ zero_extendqisi2
 6814 5894 023083E0 		add	r3, r3, r2
 6815 5898 0030C5E5 		strb	r3, [r5, #0]
 6816 589c FEFFFFEB 		bl	uart1_transmit
 6817 58a0 0000D4E5 		ldrb	r0, [r4, #0]	@ zero_extendqisi2
 6818 58a4 FEFFFFEB 		bl	uart1_transmit
 6819 58a8 0000D5E5 		ldrb	r0, [r5, #0]	@ zero_extendqisi2
 6820              	.L339:
 6821 58ac FEFFFFEB 		bl	uart1_transmit
 6822 58b0 2F1600EA 		b	.L247
 6823              	.L253:
 6824 58b4 C8219FE5 		ldr	r2, .L365+124
 6825 58b8 0030D2E5 		ldrb	r3, [r2, #0]	@ zero_extendqisi2
 6826 58bc 013083E2 		add	r3, r3, #1
 6827 58c0 0030C2E5 		strb	r3, [r2, #0]
 6828              	.L247:
 6829 58c4 44019FE5 		ldr	r0, .L365+8
 6830 58c8 B030D0E1 		ldrh	r3, [r0, #0]
 6831 58cc 540053E3 		cmp	r3, #84
 6832 58d0 A916001A 		bne	.L255
 6833 58d4 0B00A0E3 		mov	r0, #11
 6834 58d8 FEFFFFEB 		bl	uart1_check_free_space
 6835 58dc FF0010E3 		tst	r0, #255
 6836 58e0 9C219F05 		ldreq	r2, .L365+124
 6837 58e4 0030D205 		ldreqb	r3, [r2, #0]	@ zero_extendqisi2
 6838 58e8 01308302 		addeq	r3, r3, #1
 6839 58ec 0030C205 		streqb	r3, [r2, #0]
 6840 58f0 0C17000A 		beq	.L258
 6841 58f4 8C119FE5 		ldr	r1, .L365+128
 6842 58f8 8CC19FE5 		ldr	ip, .L365+132
 6843 58fc B030D1E1 		ldrh	r3, [r1, #0]
 6844 5900 B020DCE1 		ldrh	r2, [ip, #0]
 6845 5904 0B3083E2 		add	r3, r3, #11
 6846 5908 012082E2 		add	r2, r2, #1
 6847 590c B030C1E1 		strh	r3, [r1, #0]	@ movhi 
 6848 5910 B020CCE1 		strh	r2, [ip, #0]	@ movhi 
 6849 5914 9900A0E3 		mov	r0, #153
 6850 5918 70419FE5 		ldr	r4, .L365+136
 6851 591c FEFFFFEB 		bl	uart1_transmit
 6852 5920 0B00A0E3 		mov	r0, #11
 6853 5924 68519FE5 		ldr	r5, .L365+140
 6854 5928 FEFFFFEB 		bl	uart1_transmit
 6855 592c 1D30A0E3 		mov	r3, #29
 6856 5930 0030C4E5 		strb	r3, [r4, #0]
 6857 5934 0B3083E2 		add	r3, r3, #11
 6858 5938 1200A0E3 		mov	r0, #18
 6859 593c 0030C5E5 		strb	r3, [r5, #0]
 6860 5940 FEFFFFEB 		bl	uart1_transmit
 6861 5944 0030D4E5 		ldrb	r3, [r4, #0]	@ zero_extendqisi2
 6862 5948 0E3083E2 		add	r3, r3, #14
 6863 594c 0030C4E5 		strb	r3, [r4, #0]
 6864 5950 0030D5E5 		ldrb	r3, [r5, #0]	@ zero_extendqisi2
 6865 5954 0020D4E5 		ldrb	r2, [r4, #0]	@ zero_extendqisi2
 6866 5958 B4609FE5 		ldr	r6, .L365+12
 6867 595c 023083E0 		add	r3, r3, r2
 6868 5960 0E00A0E3 		mov	r0, #14
 6869 5964 0030C5E5 		strb	r3, [r5, #0]
 6870 5968 FEFFFFEB 		bl	uart1_transmit
 6871 596c 0000D6E5 		ldrb	r0, [r6, #0]	@ zero_extendqisi2
 6872 5970 0030D4E5 		ldrb	r3, [r4, #0]	@ zero_extendqisi2
 6873 5974 033080E0 		add	r3, r0, r3
 6874 5978 0030C4E5 		strb	r3, [r4, #0]
 6875 597c 0030D5E5 		ldrb	r3, [r5, #0]	@ zero_extendqisi2
 6876 5980 0020D4E5 		ldrb	r2, [r4, #0]	@ zero_extendqisi2
 6877 5984 023083E0 		add	r3, r3, r2
 6878 5988 0030C5E5 		strb	r3, [r5, #0]
 6879 598c FEFFFFEB 		bl	uart1_transmit
 6880 5990 0100D6E5 		ldrb	r0, [r6, #1]	@ zero_extendqisi2
 6881 5994 0030D4E5 		ldrb	r3, [r4, #0]	@ zero_extendqisi2
 6882 5998 033080E0 		add	r3, r0, r3
 6883 599c 0030C4E5 		strb	r3, [r4, #0]
 6884 59a0 0030D5E5 		ldrb	r3, [r5, #0]	@ zero_extendqisi2
 6885 59a4 0020D4E5 		ldrb	r2, [r4, #0]	@ zero_extendqisi2
 6886 59a8 023083E0 		add	r3, r3, r2
 6887 59ac 0030C5E5 		strb	r3, [r5, #0]
 6888 59b0 FEFFFFEB 		bl	uart1_transmit
 6889 59b4 0200D6E5 		ldrb	r0, [r6, #2]	@ zero_extendqisi2
 6890 59b8 0030D4E5 		ldrb	r3, [r4, #0]	@ zero_extendqisi2
 6891 59bc 033080E0 		add	r3, r0, r3
 6892 59c0 0030C4E5 		strb	r3, [r4, #0]
 6893 59c4 0030D5E5 		ldrb	r3, [r5, #0]	@ zero_extendqisi2
 6894 59c8 0020D4E5 		ldrb	r2, [r4, #0]	@ zero_extendqisi2
 6895 59cc 023083E0 		add	r3, r3, r2
 6896 59d0 0030C5E5 		strb	r3, [r5, #0]
 6897 59d4 FEFFFFEB 		bl	uart1_transmit
 6898 59d8 0300D6E5 		ldrb	r0, [r6, #3]	@ zero_extendqisi2
 6899 59dc 0030D4E5 		ldrb	r3, [r4, #0]	@ zero_extendqisi2
 6900 59e0 033080E0 		add	r3, r0, r3
 6901 59e4 0030C4E5 		strb	r3, [r4, #0]
 6902 59e8 0030D5E5 		ldrb	r3, [r5, #0]	@ zero_extendqisi2
 6903 59ec 0020D4E5 		ldrb	r2, [r4, #0]	@ zero_extendqisi2
 6904 59f0 023083E0 		add	r3, r3, r2
 6905 59f4 0030C5E5 		strb	r3, [r5, #0]
 6906 59f8 FEFFFFEB 		bl	uart1_transmit
 6907 59fc 14309FE5 		ldr	r3, .L365+16
 6908 5a00 0000D3E5 		ldrb	r0, [r3, #0]	@ zero_extendqisi2
 6909 5a04 001700EA 		b	.L340
 6910              	.L366:
 6911              		.align	2
 6912              	.L365:
 6913 5a08 00000000 		.word	gps_PDOP
 6914 5a0c 00000000 		.word	gps_numSV
 6915 5a10 00000000 		.word	i306.39
 6916 5a14 00000000 		.word	v_ctl_auto_throttle_sum_err
 6917 5a18 00000000 		.word	v_ctl_auto_throttle_submode
 6918 5a1c 00000000 		.word	last.45
 6919 5a20 00000000 		.word	i312.40
 6920 5a24 00000000 		.word	infrared
 6921 5a28 00000000 		.word	i540.41
 6922 5a2c 00000000 		.word	nav_utm_east0
 6923 5a30 00000000 		.word	nav_utm_north0
 6924 5a34 00000000 		.word	nav_utm_zone0
 6925 5a38 00000000 		.word	i606.42
 6926 5a3c 00000000 		.word	roll_rate_adc
 6927 5a40 00000000 		.word	estimator_p
 6928 5a44 00000000 		.word	temp_comp
 6929 5a48 00000000 		.word	telemetry_mode_Ap_DefaultChannel
 6930 5a4c 00000000 		.word	i300.46
 6931 5a50 00000000 		.word	i306.47
 6932 5a54 00000000 		.word	i318.48
 6933 5a58 31010000 		.word	305
 6934 5a5c 00000000 		.word	i324.49
 6935 5a60 3D010000 		.word	317
 6936 5a64 00000000 		.word	i330.50
 6937 5a68 49010000 		.word	329
 6938 5a6c 00000000 		.word	i342.51
 6939 5a70 55010000 		.word	341
 6940 5a74 00000000 		.word	i606.52
 6941 5a78 5D020000 		.word	605
 6942 5a7c 00000000 		.word	i612.53
 6943 5a80 00000000 		.word	.LC0
 6944 5a84 00000000 		.word	downlink_nb_ovrn
 6945 5a88 00000000 		.word	downlink_nb_bytes
 6946 5a8c 00000000 		.word	downlink_nb_msgs
 6947 5a90 00000000 		.word	ck_a
 6948 5a94 00000000 		.word	ck_b
 6949 5a98 00000000 		.word	estimator_z
 6950 5a9c 00000000 		.word	estimator_z_dot
 6951 5aa0 00000000 		.word	nav_circle_radians
 6952 5aa4 66661440 		.word	1075078758
 6953 5aa8 66666666 		.word	1717986918
 6954              	.L255:
 6955 5aac 5A0053E3 		cmp	r3, #90
 6956 5ab0 0C17001A 		bne	.L258
 6957 5ab4 A0401FE5 		ldr	r4, .L365+20
 6958 5ab8 38701FE5 		ldr	r7, .L365+128
 6959 5abc B000D4E1 		ldrh	r0, [r4, #0]
 6960 5ac0 B050D7E1 		ldrh	r5, [r7, #0]
 6961 5ac4 050060E0 		rsb	r0, r0, r5
 6962 5ac8 FEFFFFEB 		bl	__floatsidf
 6963 5acc 30204FE2 		adr	r2, .L365+156
 6964 5ad0 0C0092E8 		ldmia	r2, {r2-r3}
 6965 5ad4 FEFFFFEB 		bl	__divdf3
 6966 5ad8 FEFFFFEB 		bl	__fixunsdfsi
 6967 5adc BA034BE1 		strh	r0, [fp, #-58]	@ movhi 
 6968 5ae0 0B00A0E3 		mov	r0, #11
 6969 5ae4 B050C4E1 		strh	r5, [r4, #0]	@ movhi 
 6970 5ae8 FEFFFFEB 		bl	uart1_check_free_space
 6971 5aec 70A01FE5 		ldr	sl, .L365+124
 6972 5af0 FF0010E3 		tst	r0, #255
 6973 5af4 0030DA05 		ldreqb	r3, [sl, #0]	@ zero_extendqisi2
 6974 5af8 01308302 		addeq	r3, r3, #1
 6975 5afc 0030CA05 		streqb	r3, [sl, #0]
 6976 5b00 0C17000A 		beq	.L258
 6977 5b04 80601FE5 		ldr	r6, .L365+132
 6978 5b08 B030D7E1 		ldrh	r3, [r7, #0]
 6979 5b0c B020D6E1 		ldrh	r2, [r6, #0]
 6980 5b10 0B3083E2 		add	r3, r3, #11
 6981 5b14 012082E2 		add	r2, r2, #1
 6982 5b18 B020C6E1 		strh	r2, [r6, #0]	@ movhi 
 6983 5b1c B030C7E1 		strh	r3, [r7, #0]	@ movhi 
 6984 5b20 9900A0E3 		mov	r0, #153
 6985 5b24 9C401FE5 		ldr	r4, .L365+136
 6986 5b28 FEFFFFEB 		bl	uart1_transmit
 6987 5b2c 0B00A0E3 		mov	r0, #11
 6988 5b30 A4501FE5 		ldr	r5, .L365+140
 6989 5b34 FEFFFFEB 		bl	uart1_transmit
 6990 5b38 1D30A0E3 		mov	r3, #29
 6991 5b3c 0030C4E5 		strb	r3, [r4, #0]
 6992 5b40 0B3083E2 		add	r3, r3, #11
 6993 5b44 1200A0E3 		mov	r0, #18
 6994 5b48 0030C5E5 		strb	r3, [r5, #0]
 6995 5b4c FEFFFFEB 		bl	uart1_transmit
 6996 5b50 0030D4E5 		ldrb	r3, [r4, #0]	@ zero_extendqisi2
 6997 5b54 1E3083E2 		add	r3, r3, #30
 6998 5b58 0030C4E5 		strb	r3, [r4, #0]
 6999 5b5c 0030D5E5 		ldrb	r3, [r5, #0]	@ zero_extendqisi2
 7000 5b60 0020D4E5 		ldrb	r2, [r4, #0]	@ zero_extendqisi2
 7001 5b64 023083E0 		add	r3, r3, r2
 7002 5b68 1E00A0E3 		mov	r0, #30
 7003 5b6c 0030C5E5 		strb	r3, [r5, #0]
 7004 5b70 FEFFFFEB 		bl	uart1_transmit
 7005 5b74 0000DAE5 		ldrb	r0, [sl, #0]	@ zero_extendqisi2
 7006 5b78 0030D4E5 		ldrb	r3, [r4, #0]	@ zero_extendqisi2
 7007 5b7c 033080E0 		add	r3, r0, r3
 7008 5b80 0030C4E5 		strb	r3, [r4, #0]
 7009 5b84 0030D5E5 		ldrb	r3, [r5, #0]	@ zero_extendqisi2
 7010 5b88 0020D4E5 		ldrb	r2, [r4, #0]	@ zero_extendqisi2
 7011 5b8c 023083E0 		add	r3, r3, r2
 7012 5b90 0030C5E5 		strb	r3, [r5, #0]
 7013 5b94 FEFFFFEB 		bl	uart1_transmit
 7014 5b98 3A005BE5 		ldrb	r0, [fp, #-58]	@ zero_extendqisi2
 7015 5b9c 0030D4E5 		ldrb	r3, [r4, #0]	@ zero_extendqisi2
 7016 5ba0 033080E0 		add	r3, r0, r3
 7017 5ba4 0030C4E5 		strb	r3, [r4, #0]
 7018 5ba8 0030D5E5 		ldrb	r3, [r5, #0]	@ zero_extendqisi2
 7019 5bac 0020D4E5 		ldrb	r2, [r4, #0]	@ zero_extendqisi2
 7020 5bb0 023083E0 		add	r3, r3, r2
 7021 5bb4 0030C5E5 		strb	r3, [r5, #0]
 7022 5bb8 FEFFFFEB 		bl	uart1_transmit
 7023 5bbc 39005BE5 		ldrb	r0, [fp, #-57]	@ zero_extendqisi2
 7024 5bc0 0030D4E5 		ldrb	r3, [r4, #0]	@ zero_extendqisi2
 7025 5bc4 033080E0 		add	r3, r0, r3
 7026 5bc8 0030C4E5 		strb	r3, [r4, #0]
 7027 5bcc 0030D5E5 		ldrb	r3, [r5, #0]	@ zero_extendqisi2
 7028 5bd0 0020D4E5 		ldrb	r2, [r4, #0]	@ zero_extendqisi2
 7029 5bd4 023083E0 		add	r3, r3, r2
 7030 5bd8 0030C5E5 		strb	r3, [r5, #0]
 7031 5bdc FEFFFFEB 		bl	uart1_transmit
 7032 5be0 0000D6E5 		ldrb	r0, [r6, #0]	@ zero_extendqisi2
 7033 5be4 0030D4E5 		ldrb	r3, [r4, #0]	@ zero_extendqisi2
 7034 5be8 033080E0 		add	r3, r0, r3
 7035 5bec 0030C4E5 		strb	r3, [r4, #0]
 7036 5bf0 0030D5E5 		ldrb	r3, [r5, #0]	@ zero_extendqisi2
 7037 5bf4 0020D4E5 		ldrb	r2, [r4, #0]	@ zero_extendqisi2
 7038 5bf8 023083E0 		add	r3, r3, r2
 7039 5bfc 0030C5E5 		strb	r3, [r5, #0]
 7040 5c00 FEFFFFEB 		bl	uart1_transmit
 7041 5c04 0100D6E5 		ldrb	r0, [r6, #1]	@ zero_extendqisi2
 7042              	.L340:
 7043 5c08 0030D4E5 		ldrb	r3, [r4, #0]	@ zero_extendqisi2
 7044 5c0c 033080E0 		add	r3, r0, r3
 7045 5c10 0030C4E5 		strb	r3, [r4, #0]
 7046 5c14 0030D5E5 		ldrb	r3, [r5, #0]	@ zero_extendqisi2
 7047 5c18 0020D4E5 		ldrb	r2, [r4, #0]	@ zero_extendqisi2
 7048 5c1c 023083E0 		add	r3, r3, r2
 7049 5c20 0030C5E5 		strb	r3, [r5, #0]
 7050 5c24 FEFFFFEB 		bl	uart1_transmit
 7051 5c28 0000D4E5 		ldrb	r0, [r4, #0]	@ zero_extendqisi2
 7052 5c2c FEFFFFEB 		bl	uart1_transmit
 7053 5c30 0000D5E5 		ldrb	r0, [r5, #0]	@ zero_extendqisi2
 7054 5c34 FEFFFFEB 		bl	uart1_transmit
 7055              	.L258:
 7056 5c38 20221FE5 		ldr	r2, .L365+24
 7057 5c3c B030D2E1 		ldrh	r3, [r2, #0]
 7058 5c40 600053E3 		cmp	r3, #96
 7059 5c44 9417001A 		bne	.L262
 7060 5c48 1000A0E3 		mov	r0, #16
 7061 5c4c FEFFFFEB 		bl	uart1_check_free_space
 7062 5c50 FF0010E3 		tst	r0, #255
 7063 5c54 D8211F05 		ldreq	r2, .L365+124
 7064 5c58 0030D205 		ldreqb	r3, [r2, #0]	@ zero_extendqisi2
 7065 5c5c 01308302 		addeq	r3, r3, #1
 7066 5c60 0030C205 		streqb	r3, [r2, #0]
 7067 5c64 9417000A 		beq	.L262
 7068 5c68 E8111FE5 		ldr	r1, .L365+128
 7069 5c6c E8C11FE5 		ldr	ip, .L365+132
 7070 5c70 B030D1E1 		ldrh	r3, [r1, #0]
 7071 5c74 B020DCE1 		ldrh	r2, [ip, #0]
 7072 5c78 103083E2 		add	r3, r3, #16
 7073 5c7c 012082E2 		add	r2, r2, #1
 7074 5c80 B030C1E1 		strh	r3, [r1, #0]	@ movhi 
 7075 5c84 B020CCE1 		strh	r2, [ip, #0]	@ movhi 
 7076 5c88 9900A0E3 		mov	r0, #153
 7077 5c8c 04421FE5 		ldr	r4, .L365+136
 7078 5c90 FEFFFFEB 		bl	uart1_transmit
 7079 5c94 1000A0E3 		mov	r0, #16
 7080 5c98 0C521FE5 		ldr	r5, .L365+140
 7081 5c9c FEFFFFEB 		bl	uart1_transmit
 7082 5ca0 2230A0E3 		mov	r3, #34
 7083 5ca4 0030C4E5 		strb	r3, [r4, #0]
 7084 5ca8 103083E2 		add	r3, r3, #16
 7085 5cac 1200A0E3 		mov	r0, #18
 7086 5cb0 0030C5E5 		strb	r3, [r5, #0]
 7087 5cb4 FEFFFFEB 		bl	uart1_transmit
 7088 5cb8 0030D4E5 		ldrb	r3, [r4, #0]	@ zero_extendqisi2
 7089 5cbc 073083E2 		add	r3, r3, #7
 7090 5cc0 0030C4E5 		strb	r3, [r4, #0]
 7091 5cc4 0030D5E5 		ldrb	r3, [r5, #0]	@ zero_extendqisi2
 7092 5cc8 0020D4E5 		ldrb	r2, [r4, #0]	@ zero_extendqisi2
 7093 5ccc B0621FE5 		ldr	r6, .L365+28
 7094 5cd0 023083E0 		add	r3, r3, r2
 7095 5cd4 0700A0E3 		mov	r0, #7
 7096 5cd8 0030C5E5 		strb	r3, [r5, #0]
 7097 5cdc FEFFFFEB 		bl	uart1_transmit
 7098 5ce0 0000D6E5 		ldrb	r0, [r6, #0]	@ zero_extendqisi2
 7099 5ce4 0030D4E5 		ldrb	r3, [r4, #0]	@ zero_extendqisi2
 7100 5ce8 033080E0 		add	r3, r0, r3
 7101 5cec 0030C4E5 		strb	r3, [r4, #0]
 7102 5cf0 0030D5E5 		ldrb	r3, [r5, #0]	@ zero_extendqisi2
 7103 5cf4 0020D4E5 		ldrb	r2, [r4, #0]	@ zero_extendqisi2
 7104 5cf8 023083E0 		add	r3, r3, r2
 7105 5cfc 0030C5E5 		strb	r3, [r5, #0]
 7106 5d00 FEFFFFEB 		bl	uart1_transmit
 7107 5d04 0100D6E5 		ldrb	r0, [r6, #1]	@ zero_extendqisi2
 7108 5d08 0030D4E5 		ldrb	r3, [r4, #0]	@ zero_extendqisi2
 7109 5d0c 033080E0 		add	r3, r0, r3
 7110 5d10 0030C4E5 		strb	r3, [r4, #0]
 7111 5d14 0030D5E5 		ldrb	r3, [r5, #0]	@ zero_extendqisi2
 7112 5d18 0020D4E5 		ldrb	r2, [r4, #0]	@ zero_extendqisi2
 7113 5d1c 023083E0 		add	r3, r3, r2
 7114 5d20 0030C5E5 		strb	r3, [r5, #0]
 7115 5d24 FEFFFFEB 		bl	uart1_transmit
 7116 5d28 0200D6E5 		ldrb	r0, [r6, #2]	@ zero_extendqisi2
 7117 5d2c 0030D4E5 		ldrb	r3, [r4, #0]	@ zero_extendqisi2
 7118 5d30 033080E0 		add	r3, r0, r3
 7119 5d34 0030C4E5 		strb	r3, [r4, #0]
 7120 5d38 0030D5E5 		ldrb	r3, [r5, #0]	@ zero_extendqisi2
 7121 5d3c 0020D4E5 		ldrb	r2, [r4, #0]	@ zero_extendqisi2
 7122 5d40 023083E0 		add	r3, r3, r2
 7123 5d44 0030C5E5 		strb	r3, [r5, #0]
 7124 5d48 FEFFFFEB 		bl	uart1_transmit
 7125 5d4c 0300D6E5 		ldrb	r0, [r6, #3]	@ zero_extendqisi2
 7126 5d50 0030D4E5 		ldrb	r3, [r4, #0]	@ zero_extendqisi2
 7127 5d54 033080E0 		add	r3, r0, r3
 7128 5d58 0030C4E5 		strb	r3, [r4, #0]
 7129 5d5c 0030D5E5 		ldrb	r3, [r5, #0]	@ zero_extendqisi2
 7130 5d60 0020D4E5 		ldrb	r2, [r4, #0]	@ zero_extendqisi2
 7131 5d64 023083E0 		add	r3, r3, r2
 7132 5d68 0030C5E5 		strb	r3, [r5, #0]
 7133 5d6c FEFFFFEB 		bl	uart1_transmit
 7134 5d70 1600D6E5 		ldrb	r0, [r6, #22]	@ zero_extendqisi2
 7135 5d74 0030D4E5 		ldrb	r3, [r4, #0]	@ zero_extendqisi2
 7136 5d78 033080E0 		add	r3, r0, r3
 7137 5d7c 0030C4E5 		strb	r3, [r4, #0]
 7138 5d80 0030D5E5 		ldrb	r3, [r5, #0]	@ zero_extendqisi2
 7139 5d84 0020D4E5 		ldrb	r2, [r4, #0]	@ zero_extendqisi2
 7140 5d88 023083E0 		add	r3, r3, r2
 7141 5d8c 0030C5E5 		strb	r3, [r5, #0]
 7142 5d90 FEFFFFEB 		bl	uart1_transmit
 7143 5d94 1700D6E5 		ldrb	r0, [r6, #23]	@ zero_extendqisi2
 7144 5d98 0030D4E5 		ldrb	r3, [r4, #0]	@ zero_extendqisi2
 7145 5d9c 033080E0 		add	r3, r0, r3
 7146 5da0 0030C4E5 		strb	r3, [r4, #0]
 7147 5da4 0030D5E5 		ldrb	r3, [r5, #0]	@ zero_extendqisi2
 7148 5da8 0020D4E5 		ldrb	r2, [r4, #0]	@ zero_extendqisi2
 7149 5dac 023083E0 		add	r3, r3, r2
 7150 5db0 0030C5E5 		strb	r3, [r5, #0]
 7151 5db4 FEFFFFEB 		bl	uart1_transmit
 7152 5db8 1400D6E5 		ldrb	r0, [r6, #20]	@ zero_extendqisi2
 7153 5dbc 0030D4E5 		ldrb	r3, [r4, #0]	@ zero_extendqisi2
 7154 5dc0 033080E0 		add	r3, r0, r3
 7155 5dc4 0030C4E5 		strb	r3, [r4, #0]
 7156 5dc8 0030D5E5 		ldrb	r3, [r5, #0]	@ zero_extendqisi2
 7157 5dcc 0020D4E5 		ldrb	r2, [r4, #0]	@ zero_extendqisi2
 7158 5dd0 023083E0 		add	r3, r3, r2
 7159 5dd4 0030C5E5 		strb	r3, [r5, #0]
 7160 5dd8 FEFFFFEB 		bl	uart1_transmit
 7161 5ddc 1500D6E5 		ldrb	r0, [r6, #21]	@ zero_extendqisi2
 7162 5de0 0030D4E5 		ldrb	r3, [r4, #0]	@ zero_extendqisi2
 7163 5de4 033080E0 		add	r3, r0, r3
 7164 5de8 0030C4E5 		strb	r3, [r4, #0]
 7165 5dec 0030D5E5 		ldrb	r3, [r5, #0]	@ zero_extendqisi2
 7166 5df0 0020D4E5 		ldrb	r2, [r4, #0]	@ zero_extendqisi2
 7167 5df4 023083E0 		add	r3, r3, r2
 7168 5df8 0030C5E5 		strb	r3, [r5, #0]
 7169 5dfc FEFFFFEB 		bl	uart1_transmit
 7170 5e00 1800D6E5 		ldrb	r0, [r6, #24]	@ zero_extendqisi2
 7171 5e04 0030D4E5 		ldrb	r3, [r4, #0]	@ zero_extendqisi2
 7172 5e08 033080E0 		add	r3, r0, r3
 7173 5e0c 0030C4E5 		strb	r3, [r4, #0]
 7174 5e10 0030D5E5 		ldrb	r3, [r5, #0]	@ zero_extendqisi2
 7175 5e14 0020D4E5 		ldrb	r2, [r4, #0]	@ zero_extendqisi2
 7176 5e18 023083E0 		add	r3, r3, r2
 7177 5e1c 0030C5E5 		strb	r3, [r5, #0]
 7178 5e20 FEFFFFEB 		bl	uart1_transmit
 7179 5e24 1900D6E5 		ldrb	r0, [r6, #25]	@ zero_extendqisi2
 7180 5e28 0030D4E5 		ldrb	r3, [r4, #0]	@ zero_extendqisi2
 7181 5e2c 033080E0 		add	r3, r0, r3
 7182 5e30 0030C4E5 		strb	r3, [r4, #0]
 7183 5e34 0030D5E5 		ldrb	r3, [r5, #0]	@ zero_extendqisi2
 7184 5e38 0020D4E5 		ldrb	r2, [r4, #0]	@ zero_extendqisi2
 7185 5e3c 023083E0 		add	r3, r3, r2
 7186 5e40 0030C5E5 		strb	r3, [r5, #0]
 7187 5e44 FEFFFFEB 		bl	uart1_transmit
 7188 5e48 0000D4E5 		ldrb	r0, [r4, #0]	@ zero_extendqisi2
 7189 5e4c FEFFFFEB 		bl	uart1_transmit
 7190 5e50 0000D5E5 		ldrb	r0, [r5, #0]	@ zero_extendqisi2
 7191 5e54 FEFFFFEB 		bl	uart1_transmit
 7192              	.L262:
 7193 5e58 38041FE5 		ldr	r0, .L365+32
 7194 5e5c B030D0E1 		ldrh	r3, [r0, #0]
 7195 5e60 660053E3 		cmp	r3, #102
 7196 5e64 1518001A 		bne	.L265
 7197 5e68 0F00A0E3 		mov	r0, #15
 7198 5e6c FEFFFFEB 		bl	uart1_check_free_space
 7199 5e70 FF0010E3 		tst	r0, #255
 7200 5e74 F8231F05 		ldreq	r2, .L365+124
 7201 5e78 0030D205 		ldreqb	r3, [r2, #0]	@ zero_extendqisi2
 7202 5e7c 01308302 		addeq	r3, r3, #1
 7203 5e80 0030C205 		streqb	r3, [r2, #0]
 7204 5e84 1518000A 		beq	.L265
 7205 5e88 08141FE5 		ldr	r1, .L365+128
 7206 5e8c 08C41FE5 		ldr	ip, .L365+132
 7207 5e90 B030D1E1 		ldrh	r3, [r1, #0]
 7208 5e94 B020DCE1 		ldrh	r2, [ip, #0]
 7209 5e98 0F3083E2 		add	r3, r3, #15
 7210 5e9c 012082E2 		add	r2, r2, #1
 7211 5ea0 B030C1E1 		strh	r3, [r1, #0]	@ movhi 
 7212 5ea4 B020CCE1 		strh	r2, [ip, #0]	@ movhi 
 7213 5ea8 9900A0E3 		mov	r0, #153
 7214 5eac 24441FE5 		ldr	r4, .L365+136
 7215 5eb0 FEFFFFEB 		bl	uart1_transmit
 7216 5eb4 0F00A0E3 		mov	r0, #15
 7217 5eb8 2C541FE5 		ldr	r5, .L365+140
 7218 5ebc FEFFFFEB 		bl	uart1_transmit
 7219 5ec0 2130A0E3 		mov	r3, #33
 7220 5ec4 0030C4E5 		strb	r3, [r4, #0]
 7221 5ec8 0F3083E2 		add	r3, r3, #15
 7222 5ecc 1200A0E3 		mov	r0, #18
 7223 5ed0 0030C5E5 		strb	r3, [r5, #0]
 7224 5ed4 FEFFFFEB 		bl	uart1_transmit
 7225 5ed8 0030D4E5 		ldrb	r3, [r4, #0]	@ zero_extendqisi2
 7226 5edc 093083E2 		add	r3, r3, #9
 7227 5ee0 0030C4E5 		strb	r3, [r4, #0]
 7228 5ee4 0030D5E5 		ldrb	r3, [r5, #0]	@ zero_extendqisi2
 7229 5ee8 0020D4E5 		ldrb	r2, [r4, #0]	@ zero_extendqisi2
 7230 5eec C8641FE5 		ldr	r6, .L365+36
 7231 5ef0 023083E0 		add	r3, r3, r2
 7232 5ef4 0900A0E3 		mov	r0, #9
 7233 5ef8 0030C5E5 		strb	r3, [r5, #0]
 7234 5efc FEFFFFEB 		bl	uart1_transmit
 7235 5f00 0000D6E5 		ldrb	r0, [r6, #0]	@ zero_extendqisi2
 7236 5f04 0030D4E5 		ldrb	r3, [r4, #0]	@ zero_extendqisi2
 7237 5f08 033080E0 		add	r3, r0, r3
 7238 5f0c 0030C4E5 		strb	r3, [r4, #0]
 7239 5f10 0030D5E5 		ldrb	r3, [r5, #0]	@ zero_extendqisi2
 7240 5f14 0020D4E5 		ldrb	r2, [r4, #0]	@ zero_extendqisi2
 7241 5f18 023083E0 		add	r3, r3, r2
 7242 5f1c 0030C5E5 		strb	r3, [r5, #0]
 7243 5f20 FEFFFFEB 		bl	uart1_transmit
 7244 5f24 0100D6E5 		ldrb	r0, [r6, #1]	@ zero_extendqisi2
 7245 5f28 0030D4E5 		ldrb	r3, [r4, #0]	@ zero_extendqisi2
 7246 5f2c 033080E0 		add	r3, r0, r3
 7247 5f30 0030C4E5 		strb	r3, [r4, #0]
 7248 5f34 0030D5E5 		ldrb	r3, [r5, #0]	@ zero_extendqisi2
 7249 5f38 0020D4E5 		ldrb	r2, [r4, #0]	@ zero_extendqisi2
 7250 5f3c 023083E0 		add	r3, r3, r2
 7251 5f40 0030C5E5 		strb	r3, [r5, #0]
 7252 5f44 FEFFFFEB 		bl	uart1_transmit
 7253 5f48 0200D6E5 		ldrb	r0, [r6, #2]	@ zero_extendqisi2
 7254 5f4c 0030D4E5 		ldrb	r3, [r4, #0]	@ zero_extendqisi2
 7255 5f50 033080E0 		add	r3, r0, r3
 7256 5f54 0030C4E5 		strb	r3, [r4, #0]
 7257 5f58 0030D5E5 		ldrb	r3, [r5, #0]	@ zero_extendqisi2
 7258 5f5c 0020D4E5 		ldrb	r2, [r4, #0]	@ zero_extendqisi2
 7259 5f60 023083E0 		add	r3, r3, r2
 7260 5f64 0030C5E5 		strb	r3, [r5, #0]
 7261 5f68 FEFFFFEB 		bl	uart1_transmit
 7262 5f6c 0300D6E5 		ldrb	r0, [r6, #3]	@ zero_extendqisi2
 7263 5f70 0030D4E5 		ldrb	r3, [r4, #0]	@ zero_extendqisi2
 7264 5f74 033080E0 		add	r3, r0, r3
 7265 5f78 0030C4E5 		strb	r3, [r4, #0]
 7266 5f7c 0030D5E5 		ldrb	r3, [r5, #0]	@ zero_extendqisi2
 7267 5f80 0020D4E5 		ldrb	r2, [r4, #0]	@ zero_extendqisi2
 7268 5f84 5C651FE5 		ldr	r6, .L365+40
 7269 5f88 023083E0 		add	r3, r3, r2
 7270 5f8c 0030C5E5 		strb	r3, [r5, #0]
 7271 5f90 FEFFFFEB 		bl	uart1_transmit
 7272 5f94 0000D6E5 		ldrb	r0, [r6, #0]	@ zero_extendqisi2
 7273 5f98 0030D4E5 		ldrb	r3, [r4, #0]	@ zero_extendqisi2
 7274 5f9c 033080E0 		add	r3, r0, r3
 7275 5fa0 0030C4E5 		strb	r3, [r4, #0]
 7276 5fa4 0030D5E5 		ldrb	r3, [r5, #0]	@ zero_extendqisi2
 7277 5fa8 0020D4E5 		ldrb	r2, [r4, #0]	@ zero_extendqisi2
 7278 5fac 023083E0 		add	r3, r3, r2
 7279 5fb0 0030C5E5 		strb	r3, [r5, #0]
 7280 5fb4 FEFFFFEB 		bl	uart1_transmit
 7281 5fb8 0100D6E5 		ldrb	r0, [r6, #1]	@ zero_extendqisi2
 7282 5fbc 0030D4E5 		ldrb	r3, [r4, #0]	@ zero_extendqisi2
 7283 5fc0 033080E0 		add	r3, r0, r3
 7284 5fc4 0030C4E5 		strb	r3, [r4, #0]
 7285 5fc8 0030D5E5 		ldrb	r3, [r5, #0]	@ zero_extendqisi2
 7286 5fcc 0020D4E5 		ldrb	r2, [r4, #0]	@ zero_extendqisi2
 7287 5fd0 023083E0 		add	r3, r3, r2
 7288 5fd4 0030C5E5 		strb	r3, [r5, #0]
 7289 5fd8 FEFFFFEB 		bl	uart1_transmit
 7290 5fdc 0200D6E5 		ldrb	r0, [r6, #2]	@ zero_extendqisi2
 7291 5fe0 0030D4E5 		ldrb	r3, [r4, #0]	@ zero_extendqisi2
 7292 5fe4 033080E0 		add	r3, r0, r3
 7293 5fe8 0030C4E5 		strb	r3, [r4, #0]
 7294 5fec 0030D5E5 		ldrb	r3, [r5, #0]	@ zero_extendqisi2
 7295 5ff0 0020D4E5 		ldrb	r2, [r4, #0]	@ zero_extendqisi2
 7296 5ff4 023083E0 		add	r3, r3, r2
 7297 5ff8 0030C5E5 		strb	r3, [r5, #0]
 7298 5ffc FEFFFFEB 		bl	uart1_transmit
 7299 6000 0300D6E5 		ldrb	r0, [r6, #3]	@ zero_extendqisi2
 7300 6004 0030D4E5 		ldrb	r3, [r4, #0]	@ zero_extendqisi2
 7301 6008 033080E0 		add	r3, r0, r3
 7302 600c 0030C4E5 		strb	r3, [r4, #0]
 7303 6010 0030D5E5 		ldrb	r3, [r5, #0]	@ zero_extendqisi2
 7304 6014 0020D4E5 		ldrb	r2, [r4, #0]	@ zero_extendqisi2
 7305 6018 023083E0 		add	r3, r3, r2
 7306 601c 0030C5E5 		strb	r3, [r5, #0]
 7307 6020 FEFFFFEB 		bl	uart1_transmit
 7308 6024 F8351FE5 		ldr	r3, .L365+44
 7309 6028 0000D3E5 		ldrb	r0, [r3, #0]	@ zero_extendqisi2
 7310 602c 0030D4E5 		ldrb	r3, [r4, #0]	@ zero_extendqisi2
 7311 6030 033080E0 		add	r3, r0, r3
 7312 6034 0030C4E5 		strb	r3, [r4, #0]
 7313 6038 0030D5E5 		ldrb	r3, [r5, #0]	@ zero_extendqisi2
 7314 603c 0020D4E5 		ldrb	r2, [r4, #0]	@ zero_extendqisi2
 7315 6040 023083E0 		add	r3, r3, r2
 7316 6044 0030C5E5 		strb	r3, [r5, #0]
 7317 6048 FEFFFFEB 		bl	uart1_transmit
 7318 604c 0000D4E5 		ldrb	r0, [r4, #0]	@ zero_extendqisi2
 7319 6050 FEFFFFEB 		bl	uart1_transmit
 7320 6054 0000D5E5 		ldrb	r0, [r5, #0]	@ zero_extendqisi2
 7321 6058 FEFFFFEB 		bl	uart1_transmit
 7322              	.L265:
 7323 605c 2C261FE5 		ldr	r2, .L365+48
 7324 6060 B030D2E1 		ldrh	r3, [r2, #0]
 7325 6064 6C0053E3 		cmp	r3, #108
 7326 6068 9F18001A 		bne	.L166
 7327 606c 1000A0E3 		mov	r0, #16
 7328 6070 FEFFFFEB 		bl	uart1_check_free_space
 7329 6074 FF0010E3 		tst	r0, #255
 7330 6078 FC251F05 		ldreq	r2, .L365+124
 7331 607c 0030D205 		ldreqb	r3, [r2, #0]	@ zero_extendqisi2
 7332 6080 01308302 		addeq	r3, r3, #1
 7333 6084 0030C205 		streqb	r3, [r2, #0]
 7334 6088 9F18000A 		beq	.L166
 7335 608c 0C161FE5 		ldr	r1, .L365+128
 7336 6090 0CC61FE5 		ldr	ip, .L365+132
 7337 6094 B030D1E1 		ldrh	r3, [r1, #0]
 7338 6098 B020DCE1 		ldrh	r2, [ip, #0]
 7339 609c 103083E2 		add	r3, r3, #16
 7340 60a0 012082E2 		add	r2, r2, #1
 7341 60a4 B030C1E1 		strh	r3, [r1, #0]	@ movhi 
 7342 60a8 B020CCE1 		strh	r2, [ip, #0]	@ movhi 
 7343 60ac 9900A0E3 		mov	r0, #153
 7344 60b0 28461FE5 		ldr	r4, .L365+136
 7345 60b4 FEFFFFEB 		bl	uart1_transmit
 7346 60b8 1000A0E3 		mov	r0, #16
 7347 60bc 30561FE5 		ldr	r5, .L365+140
 7348 60c0 FEFFFFEB 		bl	uart1_transmit
 7349 60c4 2230A0E3 		mov	r3, #34
 7350 60c8 0030C4E5 		strb	r3, [r4, #0]
 7351 60cc 103083E2 		add	r3, r3, #16
 7352 60d0 1200A0E3 		mov	r0, #18
 7353 60d4 0030C5E5 		strb	r3, [r5, #0]
 7354 60d8 FEFFFFEB 		bl	uart1_transmit
 7355 60dc 0030D4E5 		ldrb	r3, [r4, #0]	@ zero_extendqisi2
 7356 60e0 243083E2 		add	r3, r3, #36
 7357 60e4 0030C4E5 		strb	r3, [r4, #0]
 7358 60e8 0030D5E5 		ldrb	r3, [r5, #0]	@ zero_extendqisi2
 7359 60ec 0020D4E5 		ldrb	r2, [r4, #0]	@ zero_extendqisi2
 7360 60f0 BC661FE5 		ldr	r6, .L365+52
 7361 60f4 023083E0 		add	r3, r3, r2
 7362 60f8 2400A0E3 		mov	r0, #36
 7363 60fc 0030C5E5 		strb	r3, [r5, #0]
 7364 6100 FEFFFFEB 		bl	uart1_transmit
 7365 6104 0000D6E5 		ldrb	r0, [r6, #0]	@ zero_extendqisi2
 7366 6108 0030D4E5 		ldrb	r3, [r4, #0]	@ zero_extendqisi2
 7367 610c 033080E0 		add	r3, r0, r3
 7368 6110 0030C4E5 		strb	r3, [r4, #0]
 7369 6114 0030D5E5 		ldrb	r3, [r5, #0]	@ zero_extendqisi2
 7370 6118 0020D4E5 		ldrb	r2, [r4, #0]	@ zero_extendqisi2
 7371 611c 023083E0 		add	r3, r3, r2
 7372 6120 0030C5E5 		strb	r3, [r5, #0]
 7373 6124 FEFFFFEB 		bl	uart1_transmit
 7374 6128 0100D6E5 		ldrb	r0, [r6, #1]	@ zero_extendqisi2
 7375 612c 0030D4E5 		ldrb	r3, [r4, #0]	@ zero_extendqisi2
 7376 6130 033080E0 		add	r3, r0, r3
 7377 6134 0030C4E5 		strb	r3, [r4, #0]
 7378 6138 0030D5E5 		ldrb	r3, [r5, #0]	@ zero_extendqisi2
 7379 613c 0020D4E5 		ldrb	r2, [r4, #0]	@ zero_extendqisi2
 7380 6140 08671FE5 		ldr	r6, .L365+56
 7381 6144 023083E0 		add	r3, r3, r2
 7382 6148 0030C5E5 		strb	r3, [r5, #0]
 7383 614c FEFFFFEB 		bl	uart1_transmit
 7384 6150 0000D6E5 		ldrb	r0, [r6, #0]	@ zero_extendqisi2
 7385 6154 0030D4E5 		ldrb	r3, [r4, #0]	@ zero_extendqisi2
 7386 6158 033080E0 		add	r3, r0, r3
 7387 615c 0030C4E5 		strb	r3, [r4, #0]
 7388 6160 0030D5E5 		ldrb	r3, [r5, #0]	@ zero_extendqisi2
 7389 6164 0020D4E5 		ldrb	r2, [r4, #0]	@ zero_extendqisi2
 7390 6168 023083E0 		add	r3, r3, r2
 7391 616c 0030C5E5 		strb	r3, [r5, #0]
 7392 6170 FEFFFFEB 		bl	uart1_transmit
 7393 6174 0100D6E5 		ldrb	r0, [r6, #1]	@ zero_extendqisi2
 7394 6178 0030D4E5 		ldrb	r3, [r4, #0]	@ zero_extendqisi2
 7395 617c 033080E0 		add	r3, r0, r3
 7396 6180 0030C4E5 		strb	r3, [r4, #0]
 7397 6184 0030D5E5 		ldrb	r3, [r5, #0]	@ zero_extendqisi2
 7398 6188 0020D4E5 		ldrb	r2, [r4, #0]	@ zero_extendqisi2
 7399 618c 023083E0 		add	r3, r3, r2
 7400 6190 0030C5E5 		strb	r3, [r5, #0]
 7401 6194 FEFFFFEB 		bl	uart1_transmit
 7402 6198 0200D6E5 		ldrb	r0, [r6, #2]	@ zero_extendqisi2
 7403 619c 0030D4E5 		ldrb	r3, [r4, #0]	@ zero_extendqisi2
 7404 61a0 033080E0 		add	r3, r0, r3
 7405 61a4 0030C4E5 		strb	r3, [r4, #0]
 7406 61a8 0030D5E5 		ldrb	r3, [r5, #0]	@ zero_extendqisi2
 7407 61ac 0020D4E5 		ldrb	r2, [r4, #0]	@ zero_extendqisi2
 7408 61b0 023083E0 		add	r3, r3, r2
 7409 61b4 0030C5E5 		strb	r3, [r5, #0]
 7410 61b8 FEFFFFEB 		bl	uart1_transmit
 7411 61bc 0300D6E5 		ldrb	r0, [r6, #3]	@ zero_extendqisi2
 7412 61c0 0030D4E5 		ldrb	r3, [r4, #0]	@ zero_extendqisi2
 7413 61c4 033080E0 		add	r3, r0, r3
 7414 61c8 0030C4E5 		strb	r3, [r4, #0]
 7415 61cc 0030D5E5 		ldrb	r3, [r5, #0]	@ zero_extendqisi2
 7416 61d0 0020D4E5 		ldrb	r2, [r4, #0]	@ zero_extendqisi2
 7417 61d4 98671FE5 		ldr	r6, .L365+60
 7418 61d8 023083E0 		add	r3, r3, r2
 7419 61dc 0030C5E5 		strb	r3, [r5, #0]
 7420 61e0 FEFFFFEB 		bl	uart1_transmit
 7421 61e4 0000D6E5 		ldrb	r0, [r6, #0]	@ zero_extendqisi2
 7422 61e8 0030D4E5 		ldrb	r3, [r4, #0]	@ zero_extendqisi2
 7423 61ec 033080E0 		add	r3, r0, r3
 7424 61f0 0030C4E5 		strb	r3, [r4, #0]
 7425 61f4 0030D5E5 		ldrb	r3, [r5, #0]	@ zero_extendqisi2
 7426 61f8 0020D4E5 		ldrb	r2, [r4, #0]	@ zero_extendqisi2
 7427 61fc 023083E0 		add	r3, r3, r2
 7428 6200 0030C5E5 		strb	r3, [r5, #0]
 7429 6204 FEFFFFEB 		bl	uart1_transmit
 7430 6208 0100D6E5 		ldrb	r0, [r6, #1]	@ zero_extendqisi2
 7431 620c 0030D4E5 		ldrb	r3, [r4, #0]	@ zero_extendqisi2
 7432 6210 033080E0 		add	r3, r0, r3
 7433 6214 0030C4E5 		strb	r3, [r4, #0]
 7434 6218 0030D5E5 		ldrb	r3, [r5, #0]	@ zero_extendqisi2
 7435 621c 0020D4E5 		ldrb	r2, [r4, #0]	@ zero_extendqisi2
 7436 6220 023083E0 		add	r3, r3, r2
 7437 6224 0030C5E5 		strb	r3, [r5, #0]
 7438 6228 FEFFFFEB 		bl	uart1_transmit
 7439 622c 0200D6E5 		ldrb	r0, [r6, #2]	@ zero_extendqisi2
 7440 6230 0030D4E5 		ldrb	r3, [r4, #0]	@ zero_extendqisi2
 7441 6234 033080E0 		add	r3, r0, r3
 7442 6238 0030C4E5 		strb	r3, [r4, #0]
 7443 623c 0030D5E5 		ldrb	r3, [r5, #0]	@ zero_extendqisi2
 7444 6240 0020D4E5 		ldrb	r2, [r4, #0]	@ zero_extendqisi2
 7445 6244 023083E0 		add	r3, r3, r2
 7446 6248 0030C5E5 		strb	r3, [r5, #0]
 7447 624c FEFFFFEB 		bl	uart1_transmit
 7448 6250 0300D6E5 		ldrb	r0, [r6, #3]	@ zero_extendqisi2
 7449 6254 0030D4E5 		ldrb	r3, [r4, #0]	@ zero_extendqisi2
 7450 6258 033080E0 		add	r3, r0, r3
 7451 625c 0030C4E5 		strb	r3, [r4, #0]
 7452 6260 0030D5E5 		ldrb	r3, [r5, #0]	@ zero_extendqisi2
 7453 6264 0020D4E5 		ldrb	r2, [r4, #0]	@ zero_extendqisi2
 7454 6268 023083E0 		add	r3, r3, r2
 7455 626c 0030C5E5 		strb	r3, [r5, #0]
 7456 6270 FEFFFFEB 		bl	uart1_transmit
 7457 6274 0000D4E5 		ldrb	r0, [r4, #0]	@ zero_extendqisi2
 7458 6278 FEFFFFEB 		bl	uart1_transmit
 7459 627c 0000D5E5 		ldrb	r0, [r5, #0]	@ zero_extendqisi2
 7460 6280 FEFFFFEB 		bl	uart1_transmit
 7461              	.L166:
 7462 6284 44381FE5 		ldr	r3, .L365+64
 7463 6288 00A0D3E5 		ldrb	sl, [r3, #0]	@ zero_extendqisi2
 7464 628c 02005AE3 		cmp	sl, #2
 7465 6290 751D001A 		bne	.L306
 7466 6294 50181FE5 		ldr	r1, .L365+68
 7467 6298 B030D1E1 		ldrh	r3, [r1, #0]
 7468 629c 013083E2 		add	r3, r3, #1
 7469 62a0 B030C1E1 		strh	r3, [r1, #0]	@ movhi 
 7470 62a4 B030D1E1 		ldrh	r3, [r1, #0]
 7471 62a8 60881FE5 		ldr	r8, .L365+72
 7472 62ac 4B0F53E3 		cmp	r3, #300
 7473 62b0 0030A023 		movcs	r3, #0	@ movhi
 7474 62b4 B030C121 		strcsh	r3, [r1, #0]	@ movhi 
 7475 62b8 B030D8E1 		ldrh	r3, [r8, #0]
 7476 62bc 013083E2 		add	r3, r3, #1
 7477 62c0 B030C8E1 		strh	r3, [r8, #0]	@ movhi 
 7478 62c4 78781FE5 		ldr	r7, .L365+76
 7479 62c8 B020D8E1 		ldrh	r2, [r8, #0]
 7480 62cc 7C381FE5 		ldr	r3, .L365+80
 7481 62d0 030052E1 		cmp	r2, r3
 7482 62d4 B030D7E1 		ldrh	r3, [r7, #0]
 7483 62d8 013083E2 		add	r3, r3, #1
 7484 62dc B030C7E1 		strh	r3, [r7, #0]	@ movhi 
 7485 62e0 8C981FE5 		ldr	r9, .L365+84
 7486 62e4 B020D7E1 		ldrh	r2, [r7, #0]
 7487 62e8 90381FE5 		ldr	r3, .L365+88
 7488 62ec 0000A083 		movhi	r0, #0	@ movhi
 7489 62f0 B000C881 		strhih	r0, [r8, #0]	@ movhi 
 7490 62f4 030052E1 		cmp	r2, r3
 7491 62f8 B030D9E1 		ldrh	r3, [r9, #0]
 7492 62fc 013083E2 		add	r3, r3, #1
 7493 6300 B030C9E1 		strh	r3, [r9, #0]	@ movhi 
 7494 6304 B030D9E1 		ldrh	r3, [r9, #0]
 7495 6308 0020A083 		movhi	r2, #0	@ movhi
 7496 630c B0081FE5 		ldr	r0, .L365+92
 7497 6310 B020C781 		strhih	r2, [r7, #0]	@ movhi 
 7498 6314 510F53E3 		cmp	r3, #324
 7499 6318 0030A023 		movcs	r3, #0	@ movhi
 7500 631c B030C921 		strcsh	r3, [r9, #0]	@ movhi 
 7501 6320 B030D0E1 		ldrh	r3, [r0, #0]
 7502 6324 013083E2 		add	r3, r3, #1
 7503 6328 B030C0E1 		strh	r3, [r0, #0]	@ movhi 
 7504 632c CC381FE5 		ldr	r3, .L365+96
 7505 6330 B020D0E1 		ldrh	r2, [r0, #0]
 7506 6334 030052E1 		cmp	r2, r3
 7507 6338 0020A083 		movhi	r2, #0	@ movhi
 7508 633c B020C081 		strhih	r2, [r0, #0]	@ movhi 
 7509 6340 DC081FE5 		ldr	r0, .L365+100
 7510 6344 B030D0E1 		ldrh	r3, [r0, #0]
 7511 6348 013083E2 		add	r3, r3, #1
 7512 634c B030C0E1 		strh	r3, [r0, #0]	@ movhi 
 7513 6350 E8381FE5 		ldr	r3, .L365+104
 7514 6354 B020D0E1 		ldrh	r2, [r0, #0]
 7515 6358 030052E1 		cmp	r2, r3
 7516 635c 0020A083 		movhi	r2, #0	@ movhi
 7517 6360 B020C081 		strhih	r2, [r0, #0]	@ movhi 
 7518 6364 F8081FE5 		ldr	r0, .L365+108
 7519 6368 B030D0E1 		ldrh	r3, [r0, #0]
 7520 636c 013083E2 		add	r3, r3, #1
 7521 6370 B030C0E1 		strh	r3, [r0, #0]	@ movhi 
 7522 6374 04391FE5 		ldr	r3, .L365+112
 7523 6378 B020D0E1 		ldrh	r2, [r0, #0]
 7524 637c 030052E1 		cmp	r2, r3
 7525 6380 0020A083 		movhi	r2, #0	@ movhi
 7526 6384 B020C081 		strhih	r2, [r0, #0]	@ movhi 
 7527 6388 14091FE5 		ldr	r0, .L365+116
 7528 638c B030D0E1 		ldrh	r3, [r0, #0]
 7529 6390 013083E2 		add	r3, r3, #1
 7530 6394 B030C0E1 		strh	r3, [r0, #0]	@ movhi 
 7531 6398 B030D0E1 		ldrh	r3, [r0, #0]
 7532 639c B050D1E1 		ldrh	r5, [r1, #0]
 7533 63a0 990F53E3 		cmp	r3, #612
 7534 63a4 0020A023 		movcs	r2, #0	@ movhi
 7535 63a8 B020C021 		strcsh	r2, [r0, #0]	@ movhi 
 7536 63ac 000055E3 		cmp	r5, #0
 7537 63b0 2B19001A 		bne	.L280
 7538 63b4 1700A0E3 		mov	r0, #23
 7539 63b8 FEFFFFEB 		bl	uart1_check_free_space
 7540 63bc FF0010E3 		tst	r0, #255
 7541 63c0 44291F05 		ldreq	r2, .L365+124
 7542 63c4 0030D205 		ldreqb	r3, [r2, #0]	@ zero_extendqisi2
 7543 63c8 01308302 		addeq	r3, r3, #1
 7544 63cc 0030C205 		streqb	r3, [r2, #0]
 7545 63d0 2B19000A 		beq	.L280
 7546 63d4 54191FE5 		ldr	r1, .L365+128
 7547 63d8 54C91FE5 		ldr	ip, .L365+132
 7548 63dc B030D1E1 		ldrh	r3, [r1, #0]
 7549 63e0 B020DCE1 		ldrh	r2, [ip, #0]
 7550 63e4 173083E2 		add	r3, r3, #23
 7551 63e8 012082E2 		add	r2, r2, #1
 7552 63ec B030C1E1 		strh	r3, [r1, #0]	@ movhi 
 7553 63f0 B020CCE1 		strh	r2, [ip, #0]	@ movhi 
 7554 63f4 9900A0E3 		mov	r0, #153
 7555 63f8 70491FE5 		ldr	r4, .L365+136
 7556 63fc FEFFFFEB 		bl	uart1_transmit
 7557 6400 1700A0E3 		mov	r0, #23
 7558 6404 FEFFFFEB 		bl	uart1_transmit
 7559 6408 7C691FE5 		ldr	r6, .L365+140
 7560 640c 2930A0E3 		mov	r3, #41
 7561 6410 0030C4E5 		strb	r3, [r4, #0]
 7562 6414 173083E2 		add	r3, r3, #23
 7563 6418 1200A0E3 		mov	r0, #18
 7564 641c 0030C6E5 		strb	r3, [r6, #0]
 7565 6420 FEFFFFEB 		bl	uart1_transmit
 7566 6424 0030D4E5 		ldrb	r3, [r4, #0]	@ zero_extendqisi2
 7567 6428 023083E2 		add	r3, r3, #2
 7568 642c 0030C4E5 		strb	r3, [r4, #0]
 7569 6430 0030D6E5 		ldrb	r3, [r6, #0]	@ zero_extendqisi2
 7570 6434 0020D4E5 		ldrb	r2, [r4, #0]	@ zero_extendqisi2
 7571 6438 023083E0 		add	r3, r3, r2
 7572 643c 0A00A0E1 		mov	r0, sl
 7573 6440 0030C6E5 		strb	r3, [r6, #0]
 7574 6444 FEFFFFEB 		bl	uart1_transmit
 7575 6448 0030D4E5 		ldrb	r3, [r4, #0]	@ zero_extendqisi2
 7576 644c 103083E2 		add	r3, r3, #16
 7577 6450 0030C4E5 		strb	r3, [r4, #0]
 7578 6454 0030D6E5 		ldrb	r3, [r6, #0]	@ zero_extendqisi2
 7579 6458 0020D4E5 		ldrb	r2, [r4, #0]	@ zero_extendqisi2
 7580 645c 023083E0 		add	r3, r3, r2
 7581 6460 1000A0E3 		mov	r0, #16
 7582 6464 0030C6E5 		strb	r3, [r6, #0]
 7583 6468 FEFFFFEB 		bl	uart1_transmit
 7584              	.L285:
 7585 646c F4391FE5 		ldr	r3, .L365+120
 7586 6470 0300D5E7 		ldrb	r0, [r5, r3]	@ zero_extendqisi2
 7587 6474 0030D4E5 		ldrb	r3, [r4, #0]	@ zero_extendqisi2
 7588 6478 033080E0 		add	r3, r0, r3
 7589 647c 0030C4E5 		strb	r3, [r4, #0]
 7590 6480 0030D6E5 		ldrb	r3, [r6, #0]	@ zero_extendqisi2
 7591 6484 0020D4E5 		ldrb	r2, [r4, #0]	@ zero_extendqisi2
 7592 6488 023083E0 		add	r3, r3, r2
 7593 648c 0030C6E5 		strb	r3, [r6, #0]
 7594 6490 FEFFFFEB 		bl	uart1_transmit
 7595 6494 013085E2 		add	r3, r5, #1
 7596 6498 FF5003E2 		and	r5, r3, #255
 7597 649c 0F0055E3 		cmp	r5, #15
 7598 64a0 1919009A 		bls	.L285
 7599 64a4 0000D4E5 		ldrb	r0, [r4, #0]	@ zero_extendqisi2
 7600 64a8 FEFFFFEB 		bl	uart1_transmit
 7601 64ac 0000D6E5 		ldrb	r0, [r6, #0]	@ zero_extendqisi2
 7602 64b0 FEFFFFEB 		bl	uart1_transmit
 7603              	.L280:
 7604 64b4 B030D8E1 		ldrh	r3, [r8, #0]
 7605 64b8 060053E3 		cmp	r3, #6
 7606 64bc FEFFFF0B 		bleq	gps_send
 7607              	.L287:
 7608 64c0 B030D7E1 		ldrh	r3, [r7, #0]
 7609 64c4 0C0053E3 		cmp	r3, #12
 7610 64c8 A419001A 		bne	.L288
 7611 64cc 0E00A0E3 		mov	r0, #14
 7612 64d0 FEFFFFEB 		bl	uart1_check_free_space
 7613 64d4 FF0010E3 		tst	r0, #255
 7614 64d8 5C2A1F05 		ldreq	r2, .L365+124
 7615 64dc 0030D205 		ldreqb	r3, [r2, #0]	@ zero_extendqisi2
 7616 64e0 01308302 		addeq	r3, r3, #1
 7617 64e4 0030C205 		streqb	r3, [r2, #0]
 7618 64e8 A419000A 		beq	.L288
 7619 64ec 6C1A1FE5 		ldr	r1, .L365+128
 7620 64f0 6CCA1FE5 		ldr	ip, .L365+132
 7621 64f4 B030D1E1 		ldrh	r3, [r1, #0]
 7622 64f8 B020DCE1 		ldrh	r2, [ip, #0]
 7623 64fc 0E3083E2 		add	r3, r3, #14
 7624 6500 012082E2 		add	r2, r2, #1
 7625 6504 B030C1E1 		strh	r3, [r1, #0]	@ movhi 
 7626 6508 B020CCE1 		strh	r2, [ip, #0]	@ movhi 
 7627 650c 9900A0E3 		mov	r0, #153
 7628 6510 884A1FE5 		ldr	r4, .L365+136
 7629 6514 FEFFFFEB 		bl	uart1_transmit
 7630 6518 0E00A0E3 		mov	r0, #14
 7631 651c 905A1FE5 		ldr	r5, .L365+140
 7632 6520 FEFFFFEB 		bl	uart1_transmit
 7633 6524 2030A0E3 		mov	r3, #32
 7634 6528 0030C4E5 		strb	r3, [r4, #0]
 7635 652c 0E3083E2 		add	r3, r3, #14
 7636 6530 1200A0E3 		mov	r0, #18
 7637 6534 0030C5E5 		strb	r3, [r5, #0]
 7638 6538 FEFFFFEB 		bl	uart1_transmit
 7639 653c 0030D4E5 		ldrb	r3, [r4, #0]	@ zero_extendqisi2
 7640 6540 2A3083E2 		add	r3, r3, #42
 7641 6544 0030C4E5 		strb	r3, [r4, #0]
 7642 6548 0030D5E5 		ldrb	r3, [r5, #0]	@ zero_extendqisi2
 7643 654c 0020D4E5 		ldrb	r2, [r4, #0]	@ zero_extendqisi2
 7644 6550 C06A1FE5 		ldr	r6, .L365+144
 7645 6554 023083E0 		add	r3, r3, r2
 7646 6558 2A00A0E3 		mov	r0, #42
 7647 655c 0030C5E5 		strb	r3, [r5, #0]
 7648 6560 FEFFFFEB 		bl	uart1_transmit
 7649 6564 0000D6E5 		ldrb	r0, [r6, #0]	@ zero_extendqisi2
 7650 6568 0030D4E5 		ldrb	r3, [r4, #0]	@ zero_extendqisi2
 7651 656c 033080E0 		add	r3, r0, r3
 7652 6570 0030C4E5 		strb	r3, [r4, #0]
 7653 6574 0030D5E5 		ldrb	r3, [r5, #0]	@ zero_extendqisi2
 7654 6578 0020D4E5 		ldrb	r2, [r4, #0]	@ zero_extendqisi2
 7655 657c 023083E0 		add	r3, r3, r2
 7656 6580 0030C5E5 		strb	r3, [r5, #0]
 7657 6584 FEFFFFEB 		bl	uart1_transmit
 7658 6588 0100D6E5 		ldrb	r0, [r6, #1]	@ zero_extendqisi2
 7659 658c 0030D4E5 		ldrb	r3, [r4, #0]	@ zero_extendqisi2
 7660 6590 033080E0 		add	r3, r0, r3
 7661 6594 0030C4E5 		strb	r3, [r4, #0]
 7662 6598 0030D5E5 		ldrb	r3, [r5, #0]	@ zero_extendqisi2
 7663 659c 0020D4E5 		ldrb	r2, [r4, #0]	@ zero_extendqisi2
 7664 65a0 023083E0 		add	r3, r3, r2
 7665 65a4 0030C5E5 		strb	r3, [r5, #0]
 7666 65a8 FEFFFFEB 		bl	uart1_transmit
 7667 65ac 0200D6E5 		ldrb	r0, [r6, #2]	@ zero_extendqisi2
 7668 65b0 0030D4E5 		ldrb	r3, [r4, #0]	@ zero_extendqisi2
 7669 65b4 033080E0 		add	r3, r0, r3
 7670 65b8 0030C4E5 		strb	r3, [r4, #0]
 7671 65bc 0030D5E5 		ldrb	r3, [r5, #0]	@ zero_extendqisi2
 7672 65c0 0020D4E5 		ldrb	r2, [r4, #0]	@ zero_extendqisi2
 7673 65c4 023083E0 		add	r3, r3, r2
 7674 65c8 0030C5E5 		strb	r3, [r5, #0]
 7675 65cc FEFFFFEB 		bl	uart1_transmit
 7676 65d0 0300D6E5 		ldrb	r0, [r6, #3]	@ zero_extendqisi2
 7677 65d4 0030D4E5 		ldrb	r3, [r4, #0]	@ zero_extendqisi2
 7678 65d8 033080E0 		add	r3, r0, r3
 7679 65dc 0030C4E5 		strb	r3, [r4, #0]
 7680 65e0 0030D5E5 		ldrb	r3, [r5, #0]	@ zero_extendqisi2
 7681 65e4 0020D4E5 		ldrb	r2, [r4, #0]	@ zero_extendqisi2
 7682 65e8 546B1FE5 		ldr	r6, .L365+148
 7683 65ec 023083E0 		add	r3, r3, r2
 7684 65f0 0030C5E5 		strb	r3, [r5, #0]
 7685 65f4 FEFFFFEB 		bl	uart1_transmit
 7686 65f8 0000D6E5 		ldrb	r0, [r6, #0]	@ zero_extendqisi2
 7687 65fc 0030D4E5 		ldrb	r3, [r4, #0]	@ zero_extendqisi2
 7688 6600 033080E0 		add	r3, r0, r3
 7689 6604 0030C4E5 		strb	r3, [r4, #0]
 7690 6608 0030D5E5 		ldrb	r3, [r5, #0]	@ zero_extendqisi2
 7691 660c 0020D4E5 		ldrb	r2, [r4, #0]	@ zero_extendqisi2
 7692 6610 023083E0 		add	r3, r3, r2
 7693 6614 0030C5E5 		strb	r3, [r5, #0]
 7694 6618 FEFFFFEB 		bl	uart1_transmit
 7695 661c 0100D6E5 		ldrb	r0, [r6, #1]	@ zero_extendqisi2
 7696 6620 0030D4E5 		ldrb	r3, [r4, #0]	@ zero_extendqisi2
 7697 6624 033080E0 		add	r3, r0, r3
 7698 6628 0030C4E5 		strb	r3, [r4, #0]
 7699 662c 0030D5E5 		ldrb	r3, [r5, #0]	@ zero_extendqisi2
 7700 6630 0020D4E5 		ldrb	r2, [r4, #0]	@ zero_extendqisi2
 7701 6634 023083E0 		add	r3, r3, r2
 7702 6638 0030C5E5 		strb	r3, [r5, #0]
 7703 663c FEFFFFEB 		bl	uart1_transmit
 7704 6640 0200D6E5 		ldrb	r0, [r6, #2]	@ zero_extendqisi2
 7705 6644 0030D4E5 		ldrb	r3, [r4, #0]	@ zero_extendqisi2
 7706 6648 033080E0 		add	r3, r0, r3
 7707 664c 0030C4E5 		strb	r3, [r4, #0]
 7708 6650 0030D5E5 		ldrb	r3, [r5, #0]	@ zero_extendqisi2
 7709 6654 0020D4E5 		ldrb	r2, [r4, #0]	@ zero_extendqisi2
 7710 6658 023083E0 		add	r3, r3, r2
 7711 665c 0030C5E5 		strb	r3, [r5, #0]
 7712 6660 FEFFFFEB 		bl	uart1_transmit
 7713 6664 0300D6E5 		ldrb	r0, [r6, #3]	@ zero_extendqisi2
 7714 6668 0030D4E5 		ldrb	r3, [r4, #0]	@ zero_extendqisi2
 7715 666c 033080E0 		add	r3, r0, r3
 7716 6670 0030C4E5 		strb	r3, [r4, #0]
 7717 6674 0030D5E5 		ldrb	r3, [r5, #0]	@ zero_extendqisi2
 7718 6678 0020D4E5 		ldrb	r2, [r4, #0]	@ zero_extendqisi2
 7719 667c 023083E0 		add	r3, r3, r2
 7720 6680 0030C5E5 		strb	r3, [r5, #0]
 7721 6684 FEFFFFEB 		bl	uart1_transmit
 7722 6688 0000D4E5 		ldrb	r0, [r4, #0]	@ zero_extendqisi2
 7723 668c FEFFFFEB 		bl	uart1_transmit
 7724 6690 0000D5E5 		ldrb	r0, [r5, #0]	@ zero_extendqisi2
 7725 6694 FEFFFFEB 		bl	uart1_transmit
 7726              	.L288:
 7727 6698 B060D9E1 		ldrh	r6, [r9, #0]
 7728 669c 120056E3 		cmp	r6, #18
 7729 66a0 941A001A 		bne	.L291
 7730 66a4 0C3C1FE5 		ldr	r3, .L365+152
 7731 66a8 003093E5 		ldr	r3, [r3, #0]
 7732 66ac 0201C3E3 		bic	r0, r3, #-2147483648
 7733 66b0 FEFFFFEB 		bl	__extendsfdf2
 7734 66b4 3F2E8FE2 		adr	r2, .L367
 7735 66b8 0C0092E8 		ldmia	r2, {r2-r3}
 7736 66bc FEFFFFEB 		bl	__divdf3
 7737 66c0 FEFFFFEB 		bl	__fixunsdfsi
 7738 66c4 3B004BE5 		strb	r0, [fp, #-59]
 7739 66c8 1A00A0E3 		mov	r0, #26
 7740 66cc FEFFFFEB 		bl	uart1_check_free_space
 7741 66d0 FF0010E3 		tst	r0, #255
 7742 66d4 34249F05 		ldreq	r2, .L367+100
 7743 66d8 0030D205 		ldreqb	r3, [r2, #0]	@ zero_extendqisi2
 7744 66dc 01308302 		addeq	r3, r3, #1
 7745 66e0 0030C205 		streqb	r3, [r2, #0]
 7746 66e4 941A000A 		beq	.L291
 7747 66e8 24149FE5 		ldr	r1, .L367+104
 7748 66ec 24C49FE5 		ldr	ip, .L367+108
 7749 66f0 B030D1E1 		ldrh	r3, [r1, #0]
 7750 66f4 B020DCE1 		ldrh	r2, [ip, #0]
 7751 66f8 1A3083E2 		add	r3, r3, #26
 7752 66fc 012082E2 		add	r2, r2, #1
 7753 6700 B030C1E1 		strh	r3, [r1, #0]	@ movhi 
 7754 6704 B020CCE1 		strh	r2, [ip, #0]	@ movhi 
 7755 6708 9900A0E3 		mov	r0, #153
 7756 670c 08449FE5 		ldr	r4, .L367+112
 7757 6710 FEFFFFEB 		bl	uart1_transmit
 7758 6714 1A00A0E3 		mov	r0, #26
 7759 6718 00549FE5 		ldr	r5, .L367+116
 7760 671c FEFFFFEB 		bl	uart1_transmit
 7761 6720 2C30A0E3 		mov	r3, #44
 7762 6724 0030C4E5 		strb	r3, [r4, #0]
 7763 6728 1A3083E2 		add	r3, r3, #26
 7764 672c 0600A0E1 		mov	r0, r6
 7765 6730 0030C5E5 		strb	r3, [r5, #0]
 7766 6734 FEFFFFEB 		bl	uart1_transmit
 7767 6738 0030D4E5 		ldrb	r3, [r4, #0]	@ zero_extendqisi2
 7768 673c 0A3083E2 		add	r3, r3, #10
 7769 6740 0030C4E5 		strb	r3, [r4, #0]
 7770 6744 0030D5E5 		ldrb	r3, [r5, #0]	@ zero_extendqisi2
 7771 6748 0020D4E5 		ldrb	r2, [r4, #0]	@ zero_extendqisi2
 7772 674c 023083E0 		add	r3, r3, r2
 7773 6750 0A00A0E3 		mov	r0, #10
 7774 6754 0030C5E5 		strb	r3, [r5, #0]
 7775 6758 FEFFFFEB 		bl	uart1_transmit
 7776 675c 50339FE5 		ldr	r3, .L367+8
 7777 6760 0000D3E5 		ldrb	r0, [r3, #0]	@ zero_extendqisi2
 7778 6764 0030D4E5 		ldrb	r3, [r4, #0]	@ zero_extendqisi2
 7779 6768 033080E0 		add	r3, r0, r3
 7780 676c 0030C4E5 		strb	r3, [r4, #0]
 7781 6770 0030D5E5 		ldrb	r3, [r5, #0]	@ zero_extendqisi2
 7782 6774 0020D4E5 		ldrb	r2, [r4, #0]	@ zero_extendqisi2
 7783 6778 023083E0 		add	r3, r3, r2
 7784 677c 0030C5E5 		strb	r3, [r5, #0]
 7785 6780 FEFFFFEB 		bl	uart1_transmit
 7786 6784 2C339FE5 		ldr	r3, .L367+12
 7787 6788 0000D3E5 		ldrb	r0, [r3, #0]	@ zero_extendqisi2
 7788 678c 0030D4E5 		ldrb	r3, [r4, #0]	@ zero_extendqisi2
 7789 6790 033080E0 		add	r3, r0, r3
 7790 6794 0030C4E5 		strb	r3, [r4, #0]
 7791 6798 0030D5E5 		ldrb	r3, [r5, #0]	@ zero_extendqisi2
 7792 679c 0020D4E5 		ldrb	r2, [r4, #0]	@ zero_extendqisi2
 7793 67a0 14639FE5 		ldr	r6, .L367+16
 7794 67a4 023083E0 		add	r3, r3, r2
 7795 67a8 0030C5E5 		strb	r3, [r5, #0]
 7796 67ac FEFFFFEB 		bl	uart1_transmit
 7797 67b0 0000D6E5 		ldrb	r0, [r6, #0]	@ zero_extendqisi2
 7798 67b4 0030D4E5 		ldrb	r3, [r4, #0]	@ zero_extendqisi2
 7799 67b8 033080E0 		add	r3, r0, r3
 7800 67bc 0030C4E5 		strb	r3, [r4, #0]
 7801 67c0 0030D5E5 		ldrb	r3, [r5, #0]	@ zero_extendqisi2
 7802 67c4 0020D4E5 		ldrb	r2, [r4, #0]	@ zero_extendqisi2
 7803 67c8 023083E0 		add	r3, r3, r2
 7804 67cc 0030C5E5 		strb	r3, [r5, #0]
 7805 67d0 FEFFFFEB 		bl	uart1_transmit
 7806 67d4 0100D6E5 		ldrb	r0, [r6, #1]	@ zero_extendqisi2
 7807 67d8 0030D4E5 		ldrb	r3, [r4, #0]	@ zero_extendqisi2
 7808 67dc 033080E0 		add	r3, r0, r3
 7809 67e0 0030C4E5 		strb	r3, [r4, #0]
 7810 67e4 0030D5E5 		ldrb	r3, [r5, #0]	@ zero_extendqisi2
 7811 67e8 0020D4E5 		ldrb	r2, [r4, #0]	@ zero_extendqisi2
 7812 67ec 023083E0 		add	r3, r3, r2
 7813 67f0 0030C5E5 		strb	r3, [r5, #0]
 7814 67f4 FEFFFFEB 		bl	uart1_transmit
 7815 67f8 0200D6E5 		ldrb	r0, [r6, #2]	@ zero_extendqisi2
 7816 67fc 0030D4E5 		ldrb	r3, [r4, #0]	@ zero_extendqisi2
 7817 6800 033080E0 		add	r3, r0, r3
 7818 6804 0030C4E5 		strb	r3, [r4, #0]
 7819 6808 0030D5E5 		ldrb	r3, [r5, #0]	@ zero_extendqisi2
 7820 680c 0020D4E5 		ldrb	r2, [r4, #0]	@ zero_extendqisi2
 7821 6810 023083E0 		add	r3, r3, r2
 7822 6814 0030C5E5 		strb	r3, [r5, #0]
 7823 6818 FEFFFFEB 		bl	uart1_transmit
 7824 681c 0300D6E5 		ldrb	r0, [r6, #3]	@ zero_extendqisi2
 7825 6820 0030D4E5 		ldrb	r3, [r4, #0]	@ zero_extendqisi2
 7826 6824 033080E0 		add	r3, r0, r3
 7827 6828 0030C4E5 		strb	r3, [r4, #0]
 7828 682c 0030D5E5 		ldrb	r3, [r5, #0]	@ zero_extendqisi2
 7829 6830 0020D4E5 		ldrb	r2, [r4, #0]	@ zero_extendqisi2
 7830 6834 84629FE5 		ldr	r6, .L367+20
 7831 6838 023083E0 		add	r3, r3, r2
 7832 683c 0030C5E5 		strb	r3, [r5, #0]
 7833 6840 FEFFFFEB 		bl	uart1_transmit
 7834 6844 0000D6E5 		ldrb	r0, [r6, #0]	@ zero_extendqisi2
 7835 6848 0030D4E5 		ldrb	r3, [r4, #0]	@ zero_extendqisi2
 7836 684c 033080E0 		add	r3, r0, r3
 7837 6850 0030C4E5 		strb	r3, [r4, #0]
 7838 6854 0030D5E5 		ldrb	r3, [r5, #0]	@ zero_extendqisi2
 7839 6858 0020D4E5 		ldrb	r2, [r4, #0]	@ zero_extendqisi2
 7840 685c 023083E0 		add	r3, r3, r2
 7841 6860 0030C5E5 		strb	r3, [r5, #0]
 7842 6864 FEFFFFEB 		bl	uart1_transmit
 7843 6868 0100D6E5 		ldrb	r0, [r6, #1]	@ zero_extendqisi2
 7844 686c 0030D4E5 		ldrb	r3, [r4, #0]	@ zero_extendqisi2
 7845 6870 033080E0 		add	r3, r0, r3
 7846 6874 0030C4E5 		strb	r3, [r4, #0]
 7847 6878 0030D5E5 		ldrb	r3, [r5, #0]	@ zero_extendqisi2
 7848 687c 0020D4E5 		ldrb	r2, [r4, #0]	@ zero_extendqisi2
 7849 6880 023083E0 		add	r3, r3, r2
 7850 6884 0030C5E5 		strb	r3, [r5, #0]
 7851 6888 FEFFFFEB 		bl	uart1_transmit
 7852 688c 0200D6E5 		ldrb	r0, [r6, #2]	@ zero_extendqisi2
 7853 6890 0030D4E5 		ldrb	r3, [r4, #0]	@ zero_extendqisi2
 7854 6894 033080E0 		add	r3, r0, r3
 7855 6898 0030C4E5 		strb	r3, [r4, #0]
 7856 689c 0030D5E5 		ldrb	r3, [r5, #0]	@ zero_extendqisi2
 7857 68a0 0020D4E5 		ldrb	r2, [r4, #0]	@ zero_extendqisi2
 7858 68a4 023083E0 		add	r3, r3, r2
 7859 68a8 0030C5E5 		strb	r3, [r5, #0]
 7860 68ac FEFFFFEB 		bl	uart1_transmit
 7861 68b0 0300D6E5 		ldrb	r0, [r6, #3]	@ zero_extendqisi2
 7862 68b4 0030D4E5 		ldrb	r3, [r4, #0]	@ zero_extendqisi2
 7863 68b8 033080E0 		add	r3, r0, r3
 7864 68bc 0030C4E5 		strb	r3, [r4, #0]
 7865 68c0 0030D5E5 		ldrb	r3, [r5, #0]	@ zero_extendqisi2
 7866 68c4 0020D4E5 		ldrb	r2, [r4, #0]	@ zero_extendqisi2
 7867 68c8 F4619FE5 		ldr	r6, .L367+24
 7868 68cc 023083E0 		add	r3, r3, r2
 7869 68d0 0030C5E5 		strb	r3, [r5, #0]
 7870 68d4 FEFFFFEB 		bl	uart1_transmit
 7871 68d8 0000D6E5 		ldrb	r0, [r6, #0]	@ zero_extendqisi2
 7872 68dc 0030D4E5 		ldrb	r3, [r4, #0]	@ zero_extendqisi2
 7873 68e0 033080E0 		add	r3, r0, r3
 7874 68e4 0030C4E5 		strb	r3, [r4, #0]
 7875 68e8 0030D5E5 		ldrb	r3, [r5, #0]	@ zero_extendqisi2
 7876 68ec 0020D4E5 		ldrb	r2, [r4, #0]	@ zero_extendqisi2
 7877 68f0 023083E0 		add	r3, r3, r2
 7878 68f4 0030C5E5 		strb	r3, [r5, #0]
 7879 68f8 FEFFFFEB 		bl	uart1_transmit
 7880 68fc 0100D6E5 		ldrb	r0, [r6, #1]	@ zero_extendqisi2
 7881 6900 0030D4E5 		ldrb	r3, [r4, #0]	@ zero_extendqisi2
 7882 6904 033080E0 		add	r3, r0, r3
 7883 6908 0030C4E5 		strb	r3, [r4, #0]
 7884 690c 0030D5E5 		ldrb	r3, [r5, #0]	@ zero_extendqisi2
 7885 6910 0020D4E5 		ldrb	r2, [r4, #0]	@ zero_extendqisi2
 7886 6914 023083E0 		add	r3, r3, r2
 7887 6918 0030C5E5 		strb	r3, [r5, #0]
 7888 691c FEFFFFEB 		bl	uart1_transmit
 7889 6920 0200D6E5 		ldrb	r0, [r6, #2]	@ zero_extendqisi2
 7890 6924 0030D4E5 		ldrb	r3, [r4, #0]	@ zero_extendqisi2
 7891 6928 033080E0 		add	r3, r0, r3
 7892 692c 0030C4E5 		strb	r3, [r4, #0]
 7893 6930 0030D5E5 		ldrb	r3, [r5, #0]	@ zero_extendqisi2
 7894 6934 0020D4E5 		ldrb	r2, [r4, #0]	@ zero_extendqisi2
 7895 6938 023083E0 		add	r3, r3, r2
 7896 693c 0030C5E5 		strb	r3, [r5, #0]
 7897 6940 FEFFFFEB 		bl	uart1_transmit
 7898 6944 0300D6E5 		ldrb	r0, [r6, #3]	@ zero_extendqisi2
 7899 6948 0030D4E5 		ldrb	r3, [r4, #0]	@ zero_extendqisi2
 7900 694c 033080E0 		add	r3, r0, r3
 7901 6950 0030C4E5 		strb	r3, [r4, #0]
 7902 6954 0030D5E5 		ldrb	r3, [r5, #0]	@ zero_extendqisi2
 7903 6958 0020D4E5 		ldrb	r2, [r4, #0]	@ zero_extendqisi2
 7904 695c 64619FE5 		ldr	r6, .L367+28
 7905 6960 023083E0 		add	r3, r3, r2
 7906 6964 0030C5E5 		strb	r3, [r5, #0]
 7907 6968 FEFFFFEB 		bl	uart1_transmit
 7908 696c 0000D6E5 		ldrb	r0, [r6, #0]	@ zero_extendqisi2
 7909 6970 0030D4E5 		ldrb	r3, [r4, #0]	@ zero_extendqisi2
 7910 6974 033080E0 		add	r3, r0, r3
 7911 6978 0030C4E5 		strb	r3, [r4, #0]
 7912 697c 0030D5E5 		ldrb	r3, [r5, #0]	@ zero_extendqisi2
 7913 6980 0020D4E5 		ldrb	r2, [r4, #0]	@ zero_extendqisi2
 7914 6984 023083E0 		add	r3, r3, r2
 7915 6988 0030C5E5 		strb	r3, [r5, #0]
 7916 698c FEFFFFEB 		bl	uart1_transmit
 7917 6990 0100D6E5 		ldrb	r0, [r6, #1]	@ zero_extendqisi2
 7918 6994 0030D4E5 		ldrb	r3, [r4, #0]	@ zero_extendqisi2
 7919 6998 033080E0 		add	r3, r0, r3
 7920 699c 0030C4E5 		strb	r3, [r4, #0]
 7921 69a0 0030D5E5 		ldrb	r3, [r5, #0]	@ zero_extendqisi2
 7922 69a4 0020D4E5 		ldrb	r2, [r4, #0]	@ zero_extendqisi2
 7923 69a8 023083E0 		add	r3, r3, r2
 7924 69ac 0030C5E5 		strb	r3, [r5, #0]
 7925 69b0 FEFFFFEB 		bl	uart1_transmit
 7926 69b4 0200D6E5 		ldrb	r0, [r6, #2]	@ zero_extendqisi2
 7927 69b8 0030D4E5 		ldrb	r3, [r4, #0]	@ zero_extendqisi2
 7928 69bc 033080E0 		add	r3, r0, r3
 7929 69c0 0030C4E5 		strb	r3, [r4, #0]
 7930 69c4 0030D5E5 		ldrb	r3, [r5, #0]	@ zero_extendqisi2
 7931 69c8 0020D4E5 		ldrb	r2, [r4, #0]	@ zero_extendqisi2
 7932 69cc 023083E0 		add	r3, r3, r2
 7933 69d0 0030C5E5 		strb	r3, [r5, #0]
 7934 69d4 FEFFFFEB 		bl	uart1_transmit
 7935 69d8 0300D6E5 		ldrb	r0, [r6, #3]	@ zero_extendqisi2
 7936 69dc 0030D4E5 		ldrb	r3, [r4, #0]	@ zero_extendqisi2
 7937 69e0 033080E0 		add	r3, r0, r3
 7938 69e4 0030C4E5 		strb	r3, [r4, #0]
 7939 69e8 0030D5E5 		ldrb	r3, [r5, #0]	@ zero_extendqisi2
 7940 69ec 0020D4E5 		ldrb	r2, [r4, #0]	@ zero_extendqisi2
 7941 69f0 023083E0 		add	r3, r3, r2
 7942 69f4 0030C5E5 		strb	r3, [r5, #0]
 7943 69f8 FEFFFFEB 		bl	uart1_transmit
 7944 69fc 3B005BE5 		ldrb	r0, [fp, #-59]	@ zero_extendqisi2
 7945 6a00 0030D4E5 		ldrb	r3, [r4, #0]	@ zero_extendqisi2
 7946 6a04 033080E0 		add	r3, r0, r3
 7947 6a08 0030C4E5 		strb	r3, [r4, #0]
 7948 6a0c 0030D5E5 		ldrb	r3, [r5, #0]	@ zero_extendqisi2
 7949 6a10 0020D4E5 		ldrb	r2, [r4, #0]	@ zero_extendqisi2
 7950 6a14 023083E0 		add	r3, r3, r2
 7951 6a18 0030C5E5 		strb	r3, [r5, #0]
 7952 6a1c FEFFFFEB 		bl	uart1_transmit
 7953 6a20 A4309FE5 		ldr	r3, .L367+32
 7954 6a24 0000D3E5 		ldrb	r0, [r3, #0]	@ zero_extendqisi2
 7955 6a28 0030D4E5 		ldrb	r3, [r4, #0]	@ zero_extendqisi2
 7956 6a2c 033080E0 		add	r3, r0, r3
 7957 6a30 0030C4E5 		strb	r3, [r4, #0]
 7958 6a34 0030D5E5 		ldrb	r3, [r5, #0]	@ zero_extendqisi2
 7959 6a38 0020D4E5 		ldrb	r2, [r4, #0]	@ zero_extendqisi2
 7960 6a3c 023083E0 		add	r3, r3, r2
 7961 6a40 0030C5E5 		strb	r3, [r5, #0]
 7962 6a44 FEFFFFEB 		bl	uart1_transmit
 7963 6a48 0000D4E5 		ldrb	r0, [r4, #0]	@ zero_extendqisi2
 7964 6a4c FEFFFFEB 		bl	uart1_transmit
 7965 6a50 0000D5E5 		ldrb	r0, [r5, #0]	@ zero_extendqisi2
 7966 6a54 FEFFFFEB 		bl	uart1_transmit
 7967              	.L291:
 7968 6a58 70009FE5 		ldr	r0, .L367+36
 7969 6a5c B030D0E1 		ldrh	r3, [r0, #0]
 7970 6a60 180053E3 		cmp	r3, #24
 7971 6a64 291B001A 		bne	.L294
 7972 6a68 0C00A0E3 		mov	r0, #12
 7973 6a6c FEFFFFEB 		bl	uart1_check_free_space
 7974 6a70 FF0010E3 		tst	r0, #255
 7975 6a74 94209F05 		ldreq	r2, .L367+100
 7976 6a78 0030D205 		ldreqb	r3, [r2, #0]	@ zero_extendqisi2
 7977 6a7c 01308302 		addeq	r3, r3, #1
 7978 6a80 0030C205 		streqb	r3, [r2, #0]
 7979 6a84 291B000A 		beq	.L294
 7980 6a88 84109FE5 		ldr	r1, .L367+104
 7981 6a8c 84C09FE5 		ldr	ip, .L367+108
 7982 6a90 B030D1E1 		ldrh	r3, [r1, #0]
 7983 6a94 B020DCE1 		ldrh	r2, [ip, #0]
 7984 6a98 0C3083E2 		add	r3, r3, #12
 7985 6a9c 012082E2 		add	r2, r2, #1
 7986 6aa0 B030C1E1 		strh	r3, [r1, #0]	@ movhi 
 7987 6aa4 B020CCE1 		strh	r2, [ip, #0]	@ movhi 
 7988 6aa8 D41A00EA 		b	.L368
 7989              	.L369:
 7990              		.align	2
 7991              	.L367:
 7992 6aac FB211940 		.word	1075388923
 7993 6ab0 182D4454 		.word	1413754136
 7994 6ab4 00000000 		.word	nav_block
 7995 6ab8 00000000 		.word	nav_stage
 7996 6abc 00000000 		.word	estimator_x
 7997 6ac0 00000000 		.word	estimator_y
 7998 6ac4 00000000 		.word	dist2_to_wp
 7999 6ac8 00000000 		.word	dist2_to_home
 8000 6acc 00000000 		.word	nav_oval_count
 8001 6ad0 00000000 		.word	i330.50
 8002 6ad4 00000000 		.word	pprz_mode
 8003 6ad8 00000000 		.word	v_ctl_mode
 8004 6adc 00000000 		.word	lateral_mode
 8005 6ae0 00000000 		.word	horizontal_mode
 8006 6ae4 00000000 		.word	rc_settings_mode
 8007 6ae8 00000000 		.word	mcu1_status
 8008 6aec 00000000 		.word	i342.51
 8009 6af0 00000000 		.word	last.54
 8010 6af4 00000000 		.word	i606.52
 8011 6af8 00000000 		.word	energy
 8012 6afc 00000000 		.word	v_ctl_throttle_slewed
 8013 6b00 00000000 		.word	kill_throttle
 8014 6b04 00000000 		.word	block_time
 8015 6b08 00000000 		.word	stage_time
 8016 6b0c 00000000 		.word	i612.53
 8017 6b10 00000000 		.word	downlink_nb_ovrn
 8018 6b14 00000000 		.word	downlink_nb_bytes
 8019 6b18 00000000 		.word	downlink_nb_msgs
 8020 6b1c 00000000 		.word	ck_a
 8021 6b20 00000000 		.word	ck_b
 8022 6b24 00000000 		.word	h_ctl_roll_setpoint
 8023 6b28 00000000 		.word	h_ctl_pitch_loop_setpoint
 8024 6b2c 00000000 		.word	h_ctl_course_setpoint
 8025 6b30 00000000 		.word	desired_x
 8026 6b34 00000000 		.word	desired_y
 8027 6b38 00000000 		.word	v_ctl_altitude_setpoint
 8028 6b3c 00000000 		.word	v_ctl_climb_setpoint
 8029 6b40 00000000 		.word	_1Hz.8
 8030 6b44 00000000 		.word	estimator_flight_time
 8031 6b48 00000000 		.word	datalink_time
 8032 6b4c 00000000 		.word	vsupply
 8033 6b50 66661440 		.word	1075078758
 8034 6b54 66666666 		.word	1717986918
 8035              	.L368:
 8036 6b58 9900A0E3 		mov	r0, #153
 8037 6b5c 48401FE5 		ldr	r4, .L367+112
 8038 6b60 FEFFFFEB 		bl	uart1_transmit
 8039 6b64 0C00A0E3 		mov	r0, #12
 8040 6b68 50501FE5 		ldr	r5, .L367+116
 8041 6b6c FEFFFFEB 		bl	uart1_transmit
 8042 6b70 1E30A0E3 		mov	r3, #30
 8043 6b74 0030C4E5 		strb	r3, [r4, #0]
 8044 6b78 0C3083E2 		add	r3, r3, #12
 8045 6b7c 1200A0E3 		mov	r0, #18
 8046 6b80 0030C5E5 		strb	r3, [r5, #0]
 8047 6b84 FEFFFFEB 		bl	uart1_transmit
 8048 6b88 0030D4E5 		ldrb	r3, [r4, #0]	@ zero_extendqisi2
 8049 6b8c 0B3083E2 		add	r3, r3, #11
 8050 6b90 0030C4E5 		strb	r3, [r4, #0]
 8051 6b94 0030D5E5 		ldrb	r3, [r5, #0]	@ zero_extendqisi2
 8052 6b98 0020D4E5 		ldrb	r2, [r4, #0]	@ zero_extendqisi2
 8053 6b9c 023083E0 		add	r3, r3, r2
 8054 6ba0 0B00A0E3 		mov	r0, #11
 8055 6ba4 0030C5E5 		strb	r3, [r5, #0]
 8056 6ba8 FEFFFFEB 		bl	uart1_transmit
 8057 6bac E0301FE5 		ldr	r3, .L367+40
 8058 6bb0 0000D3E5 		ldrb	r0, [r3, #0]	@ zero_extendqisi2
 8059 6bb4 0030D4E5 		ldrb	r3, [r4, #0]	@ zero_extendqisi2
 8060 6bb8 033080E0 		add	r3, r0, r3
 8061 6bbc 0030C4E5 		strb	r3, [r4, #0]
 8062 6bc0 0030D5E5 		ldrb	r3, [r5, #0]	@ zero_extendqisi2
 8063 6bc4 0020D4E5 		ldrb	r2, [r4, #0]	@ zero_extendqisi2
 8064 6bc8 023083E0 		add	r3, r3, r2
 8065 6bcc 0030C5E5 		strb	r3, [r5, #0]
 8066 6bd0 FEFFFFEB 		bl	uart1_transmit
 8067 6bd4 04311FE5 		ldr	r3, .L367+44
 8068 6bd8 0000D3E5 		ldrb	r0, [r3, #0]	@ zero_extendqisi2
 8069 6bdc 0030D4E5 		ldrb	r3, [r4, #0]	@ zero_extendqisi2
 8070 6be0 033080E0 		add	r3, r0, r3
 8071 6be4 0030C4E5 		strb	r3, [r4, #0]
 8072 6be8 0030D5E5 		ldrb	r3, [r5, #0]	@ zero_extendqisi2
 8073 6bec 0020D4E5 		ldrb	r2, [r4, #0]	@ zero_extendqisi2
 8074 6bf0 023083E0 		add	r3, r3, r2
 8075 6bf4 0030C5E5 		strb	r3, [r5, #0]
 8076 6bf8 FEFFFFEB 		bl	uart1_transmit
 8077 6bfc 28311FE5 		ldr	r3, .L367+48
 8078 6c00 0000D3E5 		ldrb	r0, [r3, #0]	@ zero_extendqisi2
 8079 6c04 0030D4E5 		ldrb	r3, [r4, #0]	@ zero_extendqisi2
 8080 6c08 033080E0 		add	r3, r0, r3
 8081 6c0c 0030C4E5 		strb	r3, [r4, #0]
 8082 6c10 0030D5E5 		ldrb	r3, [r5, #0]	@ zero_extendqisi2
 8083 6c14 0020D4E5 		ldrb	r2, [r4, #0]	@ zero_extendqisi2
 8084 6c18 023083E0 		add	r3, r3, r2
 8085 6c1c 0030C5E5 		strb	r3, [r5, #0]
 8086 6c20 FEFFFFEB 		bl	uart1_transmit
 8087 6c24 4C311FE5 		ldr	r3, .L367+52
 8088 6c28 0000D3E5 		ldrb	r0, [r3, #0]	@ zero_extendqisi2
 8089 6c2c 0030D4E5 		ldrb	r3, [r4, #0]	@ zero_extendqisi2
 8090 6c30 033080E0 		add	r3, r0, r3
 8091 6c34 0030C4E5 		strb	r3, [r4, #0]
 8092 6c38 0030D5E5 		ldrb	r3, [r5, #0]	@ zero_extendqisi2
 8093 6c3c 0020D4E5 		ldrb	r2, [r4, #0]	@ zero_extendqisi2
 8094 6c40 023083E0 		add	r3, r3, r2
 8095 6c44 0030C5E5 		strb	r3, [r5, #0]
 8096 6c48 FEFFFFEB 		bl	uart1_transmit
 8097 6c4c 70311FE5 		ldr	r3, .L367+56
 8098 6c50 0000D3E5 		ldrb	r0, [r3, #0]	@ zero_extendqisi2
 8099 6c54 0030D4E5 		ldrb	r3, [r4, #0]	@ zero_extendqisi2
 8100 6c58 033080E0 		add	r3, r0, r3
 8101 6c5c 0030C4E5 		strb	r3, [r4, #0]
 8102 6c60 0030D5E5 		ldrb	r3, [r5, #0]	@ zero_extendqisi2
 8103 6c64 0020D4E5 		ldrb	r2, [r4, #0]	@ zero_extendqisi2
 8104 6c68 023083E0 		add	r3, r3, r2
 8105 6c6c 0030C5E5 		strb	r3, [r5, #0]
 8106 6c70 FEFFFFEB 		bl	uart1_transmit
 8107 6c74 94311FE5 		ldr	r3, .L367+60
 8108 6c78 0000D3E5 		ldrb	r0, [r3, #0]	@ zero_extendqisi2
 8109 6c7c 0030D4E5 		ldrb	r3, [r4, #0]	@ zero_extendqisi2
 8110 6c80 033080E0 		add	r3, r0, r3
 8111 6c84 0030C4E5 		strb	r3, [r4, #0]
 8112 6c88 0030D5E5 		ldrb	r3, [r5, #0]	@ zero_extendqisi2
 8113 6c8c 0020D4E5 		ldrb	r2, [r4, #0]	@ zero_extendqisi2
 8114 6c90 023083E0 		add	r3, r3, r2
 8115 6c94 0030C5E5 		strb	r3, [r5, #0]
 8116 6c98 FEFFFFEB 		bl	uart1_transmit
 8117 6c9c 0000D4E5 		ldrb	r0, [r4, #0]	@ zero_extendqisi2
 8118 6ca0 FEFFFFEB 		bl	uart1_transmit
 8119 6ca4 0000D5E5 		ldrb	r0, [r5, #0]	@ zero_extendqisi2
 8120 6ca8 FEFFFFEB 		bl	uart1_transmit
 8121              	.L294:
 8122 6cac C8211FE5 		ldr	r2, .L367+64
 8123 6cb0 B080D2E1 		ldrh	r8, [r2, #0]
 8124 6cb4 1E0058E3 		cmp	r8, #30
 8125 6cb8 8E1B001A 		bne	.L297
 8126 6cbc D4411FE5 		ldr	r4, .L367+68
 8127 6cc0 B4711FE5 		ldr	r7, .L367+104
 8128 6cc4 B000D4E1 		ldrh	r0, [r4, #0]
 8129 6cc8 B050D7E1 		ldrh	r5, [r7, #0]
 8130 6ccc 050060E0 		rsb	r0, r0, r5
 8131 6cd0 FEFFFFEB 		bl	__floatsidf
 8132 6cd4 632F4FE2 		adr	r2, .L367+164
 8133 6cd8 0C0092E8 		ldmia	r2, {r2-r3}
 8134 6cdc FEFFFFEB 		bl	__divdf3
 8135 6ce0 FEFFFFEB 		bl	__fixunsdfsi
 8136 6ce4 BE034BE1 		strh	r0, [fp, #-62]	@ movhi 
 8137 6ce8 0B00A0E3 		mov	r0, #11
 8138 6cec B050C4E1 		strh	r5, [r4, #0]	@ movhi 
 8139 6cf0 FEFFFFEB 		bl	uart1_check_free_space
 8140 6cf4 ECA11FE5 		ldr	sl, .L367+100
 8141 6cf8 FF0010E3 		tst	r0, #255
 8142 6cfc 0030DA05 		ldreqb	r3, [sl, #0]	@ zero_extendqisi2
 8143 6d00 01308302 		addeq	r3, r3, #1
 8144 6d04 0030CA05 		streqb	r3, [sl, #0]
 8145 6d08 8E1B000A 		beq	.L297
 8146 6d0c FC611FE5 		ldr	r6, .L367+108
 8147 6d10 B030D7E1 		ldrh	r3, [r7, #0]
 8148 6d14 B020D6E1 		ldrh	r2, [r6, #0]
 8149 6d18 0B3083E2 		add	r3, r3, #11
 8150 6d1c 012082E2 		add	r2, r2, #1
 8151 6d20 B020C6E1 		strh	r2, [r6, #0]	@ movhi 
 8152 6d24 B030C7E1 		strh	r3, [r7, #0]	@ movhi 
 8153 6d28 9900A0E3 		mov	r0, #153
 8154 6d2c 18421FE5 		ldr	r4, .L367+112
 8155 6d30 FEFFFFEB 		bl	uart1_transmit
 8156 6d34 0B00A0E3 		mov	r0, #11
 8157 6d38 20521FE5 		ldr	r5, .L367+116
 8158 6d3c FEFFFFEB 		bl	uart1_transmit
 8159 6d40 1D30A0E3 		mov	r3, #29
 8160 6d44 0030C4E5 		strb	r3, [r4, #0]
 8161 6d48 0B3083E2 		add	r3, r3, #11
 8162 6d4c 1200A0E3 		mov	r0, #18
 8163 6d50 0030C5E5 		strb	r3, [r5, #0]
 8164 6d54 FEFFFFEB 		bl	uart1_transmit
 8165 6d58 0030D4E5 		ldrb	r3, [r4, #0]	@ zero_extendqisi2
 8166 6d5c 1E3083E2 		add	r3, r3, #30
 8167 6d60 0030C4E5 		strb	r3, [r4, #0]
 8168 6d64 0030D5E5 		ldrb	r3, [r5, #0]	@ zero_extendqisi2
 8169 6d68 0020D4E5 		ldrb	r2, [r4, #0]	@ zero_extendqisi2
 8170 6d6c 023083E0 		add	r3, r3, r2
 8171 6d70 0800A0E1 		mov	r0, r8
 8172 6d74 0030C5E5 		strb	r3, [r5, #0]
 8173 6d78 FEFFFFEB 		bl	uart1_transmit
 8174 6d7c 0000DAE5 		ldrb	r0, [sl, #0]	@ zero_extendqisi2
 8175 6d80 0030D4E5 		ldrb	r3, [r4, #0]	@ zero_extendqisi2
 8176 6d84 033080E0 		add	r3, r0, r3
 8177 6d88 0030C4E5 		strb	r3, [r4, #0]
 8178 6d8c 0030D5E5 		ldrb	r3, [r5, #0]	@ zero_extendqisi2
 8179 6d90 0020D4E5 		ldrb	r2, [r4, #0]	@ zero_extendqisi2
 8180 6d94 023083E0 		add	r3, r3, r2
 8181 6d98 0030C5E5 		strb	r3, [r5, #0]
 8182 6d9c FEFFFFEB 		bl	uart1_transmit
 8183 6da0 3E005BE5 		ldrb	r0, [fp, #-62]	@ zero_extendqisi2
 8184 6da4 0030D4E5 		ldrb	r3, [r4, #0]	@ zero_extendqisi2
 8185 6da8 033080E0 		add	r3, r0, r3
 8186 6dac 0030C4E5 		strb	r3, [r4, #0]
 8187 6db0 0030D5E5 		ldrb	r3, [r5, #0]	@ zero_extendqisi2
 8188 6db4 0020D4E5 		ldrb	r2, [r4, #0]	@ zero_extendqisi2
 8189 6db8 023083E0 		add	r3, r3, r2
 8190 6dbc 0030C5E5 		strb	r3, [r5, #0]
 8191 6dc0 FEFFFFEB 		bl	uart1_transmit
 8192 6dc4 3D005BE5 		ldrb	r0, [fp, #-61]	@ zero_extendqisi2
 8193 6dc8 0030D4E5 		ldrb	r3, [r4, #0]	@ zero_extendqisi2
 8194 6dcc 033080E0 		add	r3, r0, r3
 8195 6dd0 0030C4E5 		strb	r3, [r4, #0]
 8196 6dd4 0030D5E5 		ldrb	r3, [r5, #0]	@ zero_extendqisi2
 8197 6dd8 0020D4E5 		ldrb	r2, [r4, #0]	@ zero_extendqisi2
 8198 6ddc 023083E0 		add	r3, r3, r2
 8199 6de0 0030C5E5 		strb	r3, [r5, #0]
 8200 6de4 FEFFFFEB 		bl	uart1_transmit
 8201 6de8 0000D6E5 		ldrb	r0, [r6, #0]	@ zero_extendqisi2
 8202 6dec 0030D4E5 		ldrb	r3, [r4, #0]	@ zero_extendqisi2
 8203 6df0 033080E0 		add	r3, r0, r3
 8204 6df4 0030C4E5 		strb	r3, [r4, #0]
 8205 6df8 0030D5E5 		ldrb	r3, [r5, #0]	@ zero_extendqisi2
 8206 6dfc 0020D4E5 		ldrb	r2, [r4, #0]	@ zero_extendqisi2
 8207 6e00 023083E0 		add	r3, r3, r2
 8208 6e04 0030C5E5 		strb	r3, [r5, #0]
 8209 6e08 FEFFFFEB 		bl	uart1_transmit
 8210 6e0c 0100D6E5 		ldrb	r0, [r6, #1]	@ zero_extendqisi2
 8211 6e10 0030D4E5 		ldrb	r3, [r4, #0]	@ zero_extendqisi2
 8212 6e14 033080E0 		add	r3, r0, r3
 8213 6e18 0030C4E5 		strb	r3, [r4, #0]
 8214 6e1c 0030D5E5 		ldrb	r3, [r5, #0]	@ zero_extendqisi2
 8215 6e20 0020D4E5 		ldrb	r2, [r4, #0]	@ zero_extendqisi2
 8216 6e24 023083E0 		add	r3, r3, r2
 8217 6e28 0030C5E5 		strb	r3, [r5, #0]
 8218 6e2c FEFFFFEB 		bl	uart1_transmit
 8219 6e30 0000D4E5 		ldrb	r0, [r4, #0]	@ zero_extendqisi2
 8220 6e34 FEFFFFEB 		bl	uart1_transmit
 8221 6e38 0000D5E5 		ldrb	r0, [r5, #0]	@ zero_extendqisi2
 8222 6e3c FEFFFFEB 		bl	uart1_transmit
 8223              	.L297:
 8224 6e40 54031FE5 		ldr	r0, .L367+72
 8225 6e44 B030D0E1 		ldrh	r3, [r0, #0]
 8226 6e48 240053E3 		cmp	r3, #36
 8227 6e4c 451C001A 		bne	.L300
 8228 6e50 60331FE5 		ldr	r3, .L367+76
 8229 6e54 0020A0E3 		mov	r2, #0	@ movhi
 8230 6e58 000093E5 		ldr	r0, [r3, #0]	@ float
 8231 6e5c B0244BE1 		strh	r2, [fp, #-64]	@ movhi 
 8232 6e60 FEFFFFEB 		bl	__fixsfsi
 8233 6e64 B2044BE1 		strh	r0, [fp, #-66]	@ movhi 
 8234 6e68 1400A0E3 		mov	r0, #20
 8235 6e6c FEFFFFEB 		bl	uart1_check_free_space
 8236 6e70 FF0010E3 		tst	r0, #255
 8237 6e74 6C231F05 		ldreq	r2, .L367+100
 8238 6e78 0030D205 		ldreqb	r3, [r2, #0]	@ zero_extendqisi2
 8239 6e7c 01308302 		addeq	r3, r3, #1
 8240 6e80 0030C205 		streqb	r3, [r2, #0]
 8241 6e84 451C000A 		beq	.L300
 8242 6e88 7C131FE5 		ldr	r1, .L367+104
 8243 6e8c 7CC31FE5 		ldr	ip, .L367+108
 8244 6e90 B030D1E1 		ldrh	r3, [r1, #0]
 8245 6e94 B020DCE1 		ldrh	r2, [ip, #0]
 8246 6e98 143083E2 		add	r3, r3, #20
 8247 6e9c 012082E2 		add	r2, r2, #1
 8248 6ea0 B030C1E1 		strh	r3, [r1, #0]	@ movhi 
 8249 6ea4 B020CCE1 		strh	r2, [ip, #0]	@ movhi 
 8250 6ea8 9900A0E3 		mov	r0, #153
 8251 6eac 98431FE5 		ldr	r4, .L367+112
 8252 6eb0 FEFFFFEB 		bl	uart1_transmit
 8253 6eb4 1400A0E3 		mov	r0, #20
 8254 6eb8 A0531FE5 		ldr	r5, .L367+116
 8255 6ebc FEFFFFEB 		bl	uart1_transmit
 8256 6ec0 2630A0E3 		mov	r3, #38
 8257 6ec4 0030C4E5 		strb	r3, [r4, #0]
 8258 6ec8 143083E2 		add	r3, r3, #20
 8259 6ecc 1200A0E3 		mov	r0, #18
 8260 6ed0 0030C5E5 		strb	r3, [r5, #0]
 8261 6ed4 FEFFFFEB 		bl	uart1_transmit
 8262 6ed8 0030D4E5 		ldrb	r3, [r4, #0]	@ zero_extendqisi2
 8263 6edc 0C3083E2 		add	r3, r3, #12
 8264 6ee0 0030C4E5 		strb	r3, [r4, #0]
 8265 6ee4 0030D5E5 		ldrb	r3, [r5, #0]	@ zero_extendqisi2
 8266 6ee8 0020D4E5 		ldrb	r2, [r4, #0]	@ zero_extendqisi2
 8267 6eec F8631FE5 		ldr	r6, .L367+80
 8268 6ef0 023083E0 		add	r3, r3, r2
 8269 6ef4 0C00A0E3 		mov	r0, #12
 8270 6ef8 0030C5E5 		strb	r3, [r5, #0]
 8271 6efc FEFFFFEB 		bl	uart1_transmit
 8272 6f00 0000D6E5 		ldrb	r0, [r6, #0]	@ zero_extendqisi2
 8273 6f04 0030D4E5 		ldrb	r3, [r4, #0]	@ zero_extendqisi2
 8274 6f08 033080E0 		add	r3, r0, r3
 8275 6f0c 0030C4E5 		strb	r3, [r4, #0]
 8276 6f10 0030D5E5 		ldrb	r3, [r5, #0]	@ zero_extendqisi2
 8277 6f14 0020D4E5 		ldrb	r2, [r4, #0]	@ zero_extendqisi2
 8278 6f18 023083E0 		add	r3, r3, r2
 8279 6f1c 0030C5E5 		strb	r3, [r5, #0]
 8280 6f20 FEFFFFEB 		bl	uart1_transmit
 8281 6f24 0100D6E5 		ldrb	r0, [r6, #1]	@ zero_extendqisi2
 8282 6f28 0030D4E5 		ldrb	r3, [r4, #0]	@ zero_extendqisi2
 8283 6f2c 033080E0 		add	r3, r0, r3
 8284 6f30 0030C4E5 		strb	r3, [r4, #0]
 8285 6f34 0030D5E5 		ldrb	r3, [r5, #0]	@ zero_extendqisi2
 8286 6f38 0020D4E5 		ldrb	r2, [r4, #0]	@ zero_extendqisi2
 8287 6f3c 023083E0 		add	r3, r3, r2
 8288 6f40 0030C5E5 		strb	r3, [r5, #0]
 8289 6f44 FEFFFFEB 		bl	uart1_transmit
 8290 6f48 04341FE5 		ldr	r3, .L367+160
 8291 6f4c 0000D3E5 		ldrb	r0, [r3, #0]	@ zero_extendqisi2
 8292 6f50 0030D4E5 		ldrb	r3, [r4, #0]	@ zero_extendqisi2
 8293 6f54 033080E0 		add	r3, r0, r3
 8294 6f58 0030C4E5 		strb	r3, [r4, #0]
 8295 6f5c 0030D5E5 		ldrb	r3, [r5, #0]	@ zero_extendqisi2
 8296 6f60 0020D4E5 		ldrb	r2, [r4, #0]	@ zero_extendqisi2
 8297 6f64 023083E0 		add	r3, r3, r2
 8298 6f68 0030C5E5 		strb	r3, [r5, #0]
 8299 6f6c FEFFFFEB 		bl	uart1_transmit
 8300 6f70 40005BE5 		ldrb	r0, [fp, #-64]	@ zero_extendqisi2
 8301 6f74 0030D4E5 		ldrb	r3, [r4, #0]	@ zero_extendqisi2
 8302 6f78 033080E0 		add	r3, r0, r3
 8303 6f7c 0030C4E5 		strb	r3, [r4, #0]
 8304 6f80 0030D5E5 		ldrb	r3, [r5, #0]	@ zero_extendqisi2
 8305 6f84 0020D4E5 		ldrb	r2, [r4, #0]	@ zero_extendqisi2
 8306 6f88 023083E0 		add	r3, r3, r2
 8307 6f8c 0030C5E5 		strb	r3, [r5, #0]
 8308 6f90 FEFFFFEB 		bl	uart1_transmit
 8309 6f94 3F005BE5 		ldrb	r0, [fp, #-63]	@ zero_extendqisi2
 8310 6f98 0030D4E5 		ldrb	r3, [r4, #0]	@ zero_extendqisi2
 8311 6f9c 033080E0 		add	r3, r0, r3
 8312 6fa0 0030C4E5 		strb	r3, [r4, #0]
 8313 6fa4 0030D5E5 		ldrb	r3, [r5, #0]	@ zero_extendqisi2
 8314 6fa8 0020D4E5 		ldrb	r2, [r4, #0]	@ zero_extendqisi2
 8315 6fac 70641FE5 		ldr	r6, .L367+152
 8316 6fb0 023083E0 		add	r3, r3, r2
 8317 6fb4 0030C5E5 		strb	r3, [r5, #0]
 8318 6fb8 FEFFFFEB 		bl	uart1_transmit
 8319 6fbc 0000D6E5 		ldrb	r0, [r6, #0]	@ zero_extendqisi2
 8320 6fc0 0030D4E5 		ldrb	r3, [r4, #0]	@ zero_extendqisi2
 8321 6fc4 033080E0 		add	r3, r0, r3
 8322 6fc8 0030C4E5 		strb	r3, [r4, #0]
 8323 6fcc 0030D5E5 		ldrb	r3, [r5, #0]	@ zero_extendqisi2
 8324 6fd0 0020D4E5 		ldrb	r2, [r4, #0]	@ zero_extendqisi2
 8325 6fd4 023083E0 		add	r3, r3, r2
 8326 6fd8 0030C5E5 		strb	r3, [r5, #0]
 8327 6fdc FEFFFFEB 		bl	uart1_transmit
 8328 6fe0 0100D6E5 		ldrb	r0, [r6, #1]	@ zero_extendqisi2
 8329 6fe4 0030D4E5 		ldrb	r3, [r4, #0]	@ zero_extendqisi2
 8330 6fe8 033080E0 		add	r3, r0, r3
 8331 6fec 0030C4E5 		strb	r3, [r4, #0]
 8332 6ff0 0030D5E5 		ldrb	r3, [r5, #0]	@ zero_extendqisi2
 8333 6ff4 0020D4E5 		ldrb	r2, [r4, #0]	@ zero_extendqisi2
 8334 6ff8 023083E0 		add	r3, r3, r2
 8335 6ffc 0030C5E5 		strb	r3, [r5, #0]
 8336 7000 FEFFFFEB 		bl	uart1_transmit
 8337 7004 0C351FE5 		ldr	r3, .L367+84
 8338 7008 0000D3E5 		ldrb	r0, [r3, #0]	@ zero_extendqisi2
 8339 700c 0030D4E5 		ldrb	r3, [r4, #0]	@ zero_extendqisi2
 8340 7010 033080E0 		add	r3, r0, r3
 8341 7014 0030C4E5 		strb	r3, [r4, #0]
 8342 7018 0030D5E5 		ldrb	r3, [r5, #0]	@ zero_extendqisi2
 8343 701c 0020D4E5 		ldrb	r2, [r4, #0]	@ zero_extendqisi2
 8344 7020 24651FE5 		ldr	r6, .L367+88
 8345 7024 023083E0 		add	r3, r3, r2
 8346 7028 0030C5E5 		strb	r3, [r5, #0]
 8347 702c FEFFFFEB 		bl	uart1_transmit
 8348 7030 0000D6E5 		ldrb	r0, [r6, #0]	@ zero_extendqisi2
 8349 7034 0030D4E5 		ldrb	r3, [r4, #0]	@ zero_extendqisi2
 8350 7038 033080E0 		add	r3, r0, r3
 8351 703c 0030C4E5 		strb	r3, [r4, #0]
 8352 7040 0030D5E5 		ldrb	r3, [r5, #0]	@ zero_extendqisi2
 8353 7044 0020D4E5 		ldrb	r2, [r4, #0]	@ zero_extendqisi2
 8354 7048 023083E0 		add	r3, r3, r2
 8355 704c 0030C5E5 		strb	r3, [r5, #0]
 8356 7050 FEFFFFEB 		bl	uart1_transmit
 8357 7054 0100D6E5 		ldrb	r0, [r6, #1]	@ zero_extendqisi2
 8358 7058 0030D4E5 		ldrb	r3, [r4, #0]	@ zero_extendqisi2
 8359 705c 033080E0 		add	r3, r0, r3
 8360 7060 0030C4E5 		strb	r3, [r4, #0]
 8361 7064 0030D5E5 		ldrb	r3, [r5, #0]	@ zero_extendqisi2
 8362 7068 0020D4E5 		ldrb	r2, [r4, #0]	@ zero_extendqisi2
 8363 706c 6C651FE5 		ldr	r6, .L367+92
 8364 7070 023083E0 		add	r3, r3, r2
 8365 7074 0030C5E5 		strb	r3, [r5, #0]
 8366 7078 FEFFFFEB 		bl	uart1_transmit
 8367 707c 0000D6E5 		ldrb	r0, [r6, #0]	@ zero_extendqisi2
 8368 7080 0030D4E5 		ldrb	r3, [r4, #0]	@ zero_extendqisi2
 8369 7084 033080E0 		add	r3, r0, r3
 8370 7088 0030C4E5 		strb	r3, [r4, #0]
 8371 708c 0030D5E5 		ldrb	r3, [r5, #0]	@ zero_extendqisi2
 8372 7090 0020D4E5 		ldrb	r2, [r4, #0]	@ zero_extendqisi2
 8373 7094 023083E0 		add	r3, r3, r2
 8374 7098 0030C5E5 		strb	r3, [r5, #0]
 8375 709c FEFFFFEB 		bl	uart1_transmit
 8376 70a0 0100D6E5 		ldrb	r0, [r6, #1]	@ zero_extendqisi2
 8377 70a4 0030D4E5 		ldrb	r3, [r4, #0]	@ zero_extendqisi2
 8378 70a8 033080E0 		add	r3, r0, r3
 8379 70ac 0030C4E5 		strb	r3, [r4, #0]
 8380 70b0 0030D5E5 		ldrb	r3, [r5, #0]	@ zero_extendqisi2
 8381 70b4 0020D4E5 		ldrb	r2, [r4, #0]	@ zero_extendqisi2
 8382 70b8 023083E0 		add	r3, r3, r2
 8383 70bc 0030C5E5 		strb	r3, [r5, #0]
 8384 70c0 FEFFFFEB 		bl	uart1_transmit
 8385 70c4 42005BE5 		ldrb	r0, [fp, #-66]	@ zero_extendqisi2
 8386 70c8 0030D4E5 		ldrb	r3, [r4, #0]	@ zero_extendqisi2
 8387 70cc 033080E0 		add	r3, r0, r3
 8388 70d0 0030C4E5 		strb	r3, [r4, #0]
 8389 70d4 0030D5E5 		ldrb	r3, [r5, #0]	@ zero_extendqisi2
 8390 70d8 0020D4E5 		ldrb	r2, [r4, #0]	@ zero_extendqisi2
 8391 70dc 023083E0 		add	r3, r3, r2
 8392 70e0 0030C5E5 		strb	r3, [r5, #0]
 8393 70e4 FEFFFFEB 		bl	uart1_transmit
 8394 70e8 41005BE5 		ldrb	r0, [fp, #-65]	@ zero_extendqisi2
 8395 70ec 0030D4E5 		ldrb	r3, [r4, #0]	@ zero_extendqisi2
 8396 70f0 033080E0 		add	r3, r0, r3
 8397 70f4 0030C4E5 		strb	r3, [r4, #0]
 8398 70f8 0030D5E5 		ldrb	r3, [r5, #0]	@ zero_extendqisi2
 8399 70fc 0020D4E5 		ldrb	r2, [r4, #0]	@ zero_extendqisi2
 8400 7100 023083E0 		add	r3, r3, r2
 8401 7104 0030C5E5 		strb	r3, [r5, #0]
 8402 7108 FEFFFFEB 		bl	uart1_transmit
 8403 710c 0000D4E5 		ldrb	r0, [r4, #0]	@ zero_extendqisi2
 8404 7110 FEFFFFEB 		bl	uart1_transmit
 8405 7114 0000D5E5 		ldrb	r0, [r5, #0]	@ zero_extendqisi2
 8406 7118 FEFFFFEB 		bl	uart1_transmit
 8407              	.L300:
 8408 711c 18061FE5 		ldr	r0, .L367+96
 8409 7120 B030D0E1 		ldrh	r3, [r0, #0]
 8410 7124 2A0053E3 		cmp	r3, #42
 8411 7128 751D001A 		bne	.L306
 8412 712c 2200A0E3 		mov	r0, #34
 8413 7130 FEFFFFEB 		bl	uart1_check_free_space
 8414 7134 FF0010E3 		tst	r0, #255
 8415 7138 30261F05 		ldreq	r2, .L367+100
 8416 713c 0030D205 		ldreqb	r3, [r2, #0]	@ zero_extendqisi2
 8417 7140 01308302 		addeq	r3, r3, #1
 8418 7144 0030C205 		streqb	r3, [r2, #0]
 8419 7148 751D000A 		beq	.L306
 8420 714c 40161FE5 		ldr	r1, .L367+104
 8421 7150 40C61FE5 		ldr	ip, .L367+108
 8422 7154 B030D1E1 		ldrh	r3, [r1, #0]
 8423 7158 B020DCE1 		ldrh	r2, [ip, #0]
 8424 715c 223083E2 		add	r3, r3, #34
 8425 7160 012082E2 		add	r2, r2, #1
 8426 7164 B030C1E1 		strh	r3, [r1, #0]	@ movhi 
 8427 7168 B020CCE1 		strh	r2, [ip, #0]	@ movhi 
 8428 716c 9900A0E3 		mov	r0, #153
 8429 7170 5C461FE5 		ldr	r4, .L367+112
 8430 7174 FEFFFFEB 		bl	uart1_transmit
 8431 7178 2200A0E3 		mov	r0, #34
 8432 717c 64561FE5 		ldr	r5, .L367+116
 8433 7180 FEFFFFEB 		bl	uart1_transmit
 8434 7184 3430A0E3 		mov	r3, #52
 8435 7188 0030C4E5 		strb	r3, [r4, #0]
 8436 718c 223083E2 		add	r3, r3, #34
 8437 7190 1200A0E3 		mov	r0, #18
 8438 7194 0030C5E5 		strb	r3, [r5, #0]
 8439 7198 FEFFFFEB 		bl	uart1_transmit
 8440 719c 0030D4E5 		ldrb	r3, [r4, #0]	@ zero_extendqisi2
 8441 71a0 103083E2 		add	r3, r3, #16
 8442 71a4 0030C4E5 		strb	r3, [r4, #0]
 8443 71a8 0030D5E5 		ldrb	r3, [r5, #0]	@ zero_extendqisi2
 8444 71ac 0020D4E5 		ldrb	r2, [r4, #0]	@ zero_extendqisi2
 8445 71b0 94661FE5 		ldr	r6, .L367+120
 8446 71b4 023083E0 		add	r3, r3, r2
 8447 71b8 1000A0E3 		mov	r0, #16
 8448 71bc 0030C5E5 		strb	r3, [r5, #0]
 8449 71c0 FEFFFFEB 		bl	uart1_transmit
 8450 71c4 0000D6E5 		ldrb	r0, [r6, #0]	@ zero_extendqisi2
 8451 71c8 0030D4E5 		ldrb	r3, [r4, #0]	@ zero_extendqisi2
 8452 71cc 033080E0 		add	r3, r0, r3
 8453 71d0 0030C4E5 		strb	r3, [r4, #0]
 8454 71d4 0030D5E5 		ldrb	r3, [r5, #0]	@ zero_extendqisi2
 8455 71d8 0020D4E5 		ldrb	r2, [r4, #0]	@ zero_extendqisi2
 8456 71dc 023083E0 		add	r3, r3, r2
 8457 71e0 0030C5E5 		strb	r3, [r5, #0]
 8458 71e4 FEFFFFEB 		bl	uart1_transmit
 8459 71e8 0100D6E5 		ldrb	r0, [r6, #1]	@ zero_extendqisi2
 8460 71ec 0030D4E5 		ldrb	r3, [r4, #0]	@ zero_extendqisi2
 8461 71f0 033080E0 		add	r3, r0, r3
 8462 71f4 0030C4E5 		strb	r3, [r4, #0]
 8463 71f8 0030D5E5 		ldrb	r3, [r5, #0]	@ zero_extendqisi2
 8464 71fc 0020D4E5 		ldrb	r2, [r4, #0]	@ zero_extendqisi2
 8465 7200 023083E0 		add	r3, r3, r2
 8466 7204 0030C5E5 		strb	r3, [r5, #0]
 8467 7208 FEFFFFEB 		bl	uart1_transmit
 8468 720c 0200D6E5 		ldrb	r0, [r6, #2]	@ zero_extendqisi2
 8469 7210 0030D4E5 		ldrb	r3, [r4, #0]	@ zero_extendqisi2
 8470 7214 033080E0 		add	r3, r0, r3
 8471 7218 0030C4E5 		strb	r3, [r4, #0]
 8472 721c 0030D5E5 		ldrb	r3, [r5, #0]	@ zero_extendqisi2
 8473 7220 0020D4E5 		ldrb	r2, [r4, #0]	@ zero_extendqisi2
 8474 7224 023083E0 		add	r3, r3, r2
 8475 7228 0030C5E5 		strb	r3, [r5, #0]
 8476 722c FEFFFFEB 		bl	uart1_transmit
 8477 7230 0300D6E5 		ldrb	r0, [r6, #3]	@ zero_extendqisi2
 8478 7234 0030D4E5 		ldrb	r3, [r4, #0]	@ zero_extendqisi2
 8479 7238 033080E0 		add	r3, r0, r3
 8480 723c 0030C4E5 		strb	r3, [r4, #0]
 8481 7240 0030D5E5 		ldrb	r3, [r5, #0]	@ zero_extendqisi2
 8482 7244 0020D4E5 		ldrb	r2, [r4, #0]	@ zero_extendqisi2
 8483 7248 28671FE5 		ldr	r6, .L367+124
 8484 724c 023083E0 		add	r3, r3, r2
 8485 7250 0030C5E5 		strb	r3, [r5, #0]
 8486 7254 FEFFFFEB 		bl	uart1_transmit
 8487 7258 0000D6E5 		ldrb	r0, [r6, #0]	@ zero_extendqisi2
 8488 725c 0030D4E5 		ldrb	r3, [r4, #0]	@ zero_extendqisi2
 8489 7260 033080E0 		add	r3, r0, r3
 8490 7264 0030C4E5 		strb	r3, [r4, #0]
 8491 7268 0030D5E5 		ldrb	r3, [r5, #0]	@ zero_extendqisi2
 8492 726c 0020D4E5 		ldrb	r2, [r4, #0]	@ zero_extendqisi2
 8493 7270 023083E0 		add	r3, r3, r2
 8494 7274 0030C5E5 		strb	r3, [r5, #0]
 8495 7278 FEFFFFEB 		bl	uart1_transmit
 8496 727c 0100D6E5 		ldrb	r0, [r6, #1]	@ zero_extendqisi2
 8497 7280 0030D4E5 		ldrb	r3, [r4, #0]	@ zero_extendqisi2
 8498 7284 033080E0 		add	r3, r0, r3
 8499 7288 0030C4E5 		strb	r3, [r4, #0]
 8500 728c 0030D5E5 		ldrb	r3, [r5, #0]	@ zero_extendqisi2
 8501 7290 0020D4E5 		ldrb	r2, [r4, #0]	@ zero_extendqisi2
 8502 7294 023083E0 		add	r3, r3, r2
 8503 7298 0030C5E5 		strb	r3, [r5, #0]
 8504 729c FEFFFFEB 		bl	uart1_transmit
 8505 72a0 0200D6E5 		ldrb	r0, [r6, #2]	@ zero_extendqisi2
 8506 72a4 0030D4E5 		ldrb	r3, [r4, #0]	@ zero_extendqisi2
 8507 72a8 033080E0 		add	r3, r0, r3
 8508 72ac 0030C4E5 		strb	r3, [r4, #0]
 8509 72b0 0030D5E5 		ldrb	r3, [r5, #0]	@ zero_extendqisi2
 8510 72b4 0020D4E5 		ldrb	r2, [r4, #0]	@ zero_extendqisi2
 8511 72b8 023083E0 		add	r3, r3, r2
 8512 72bc 0030C5E5 		strb	r3, [r5, #0]
 8513 72c0 FEFFFFEB 		bl	uart1_transmit
 8514 72c4 0300D6E5 		ldrb	r0, [r6, #3]	@ zero_extendqisi2
 8515 72c8 0030D4E5 		ldrb	r3, [r4, #0]	@ zero_extendqisi2
 8516 72cc 033080E0 		add	r3, r0, r3
 8517 72d0 0030C4E5 		strb	r3, [r4, #0]
 8518 72d4 0030D5E5 		ldrb	r3, [r5, #0]	@ zero_extendqisi2
 8519 72d8 0020D4E5 		ldrb	r2, [r4, #0]	@ zero_extendqisi2
 8520 72dc B8671FE5 		ldr	r6, .L367+128
 8521 72e0 023083E0 		add	r3, r3, r2
 8522 72e4 0030C5E5 		strb	r3, [r5, #0]
 8523 72e8 FEFFFFEB 		bl	uart1_transmit
 8524 72ec 0000D6E5 		ldrb	r0, [r6, #0]	@ zero_extendqisi2
 8525 72f0 0030D4E5 		ldrb	r3, [r4, #0]	@ zero_extendqisi2
 8526 72f4 033080E0 		add	r3, r0, r3
 8527 72f8 0030C4E5 		strb	r3, [r4, #0]
 8528 72fc 0030D5E5 		ldrb	r3, [r5, #0]	@ zero_extendqisi2
 8529 7300 0020D4E5 		ldrb	r2, [r4, #0]	@ zero_extendqisi2
 8530 7304 023083E0 		add	r3, r3, r2
 8531 7308 0030C5E5 		strb	r3, [r5, #0]
 8532 730c FEFFFFEB 		bl	uart1_transmit
 8533 7310 0100D6E5 		ldrb	r0, [r6, #1]	@ zero_extendqisi2
 8534 7314 0030D4E5 		ldrb	r3, [r4, #0]	@ zero_extendqisi2
 8535 7318 033080E0 		add	r3, r0, r3
 8536 731c 0030C4E5 		strb	r3, [r4, #0]
 8537 7320 0030D5E5 		ldrb	r3, [r5, #0]	@ zero_extendqisi2
 8538 7324 0020D4E5 		ldrb	r2, [r4, #0]	@ zero_extendqisi2
 8539 7328 023083E0 		add	r3, r3, r2
 8540 732c 0030C5E5 		strb	r3, [r5, #0]
 8541 7330 FEFFFFEB 		bl	uart1_transmit
 8542 7334 0200D6E5 		ldrb	r0, [r6, #2]	@ zero_extendqisi2
 8543 7338 0030D4E5 		ldrb	r3, [r4, #0]	@ zero_extendqisi2
 8544 733c 033080E0 		add	r3, r0, r3
 8545 7340 0030C4E5 		strb	r3, [r4, #0]
 8546 7344 0030D5E5 		ldrb	r3, [r5, #0]	@ zero_extendqisi2
 8547 7348 0020D4E5 		ldrb	r2, [r4, #0]	@ zero_extendqisi2
 8548 734c 023083E0 		add	r3, r3, r2
 8549 7350 0030C5E5 		strb	r3, [r5, #0]
 8550 7354 FEFFFFEB 		bl	uart1_transmit
 8551 7358 0300D6E5 		ldrb	r0, [r6, #3]	@ zero_extendqisi2
 8552 735c 0030D4E5 		ldrb	r3, [r4, #0]	@ zero_extendqisi2
 8553 7360 033080E0 		add	r3, r0, r3
 8554 7364 0030C4E5 		strb	r3, [r4, #0]
 8555 7368 0030D5E5 		ldrb	r3, [r5, #0]	@ zero_extendqisi2
 8556 736c 0020D4E5 		ldrb	r2, [r4, #0]	@ zero_extendqisi2
 8557 7370 48681FE5 		ldr	r6, .L367+132
 8558 7374 023083E0 		add	r3, r3, r2
 8559 7378 0030C5E5 		strb	r3, [r5, #0]
 8560 737c FEFFFFEB 		bl	uart1_transmit
 8561 7380 0000D6E5 		ldrb	r0, [r6, #0]	@ zero_extendqisi2
 8562 7384 0030D4E5 		ldrb	r3, [r4, #0]	@ zero_extendqisi2
 8563 7388 033080E0 		add	r3, r0, r3
 8564 738c 0030C4E5 		strb	r3, [r4, #0]
 8565 7390 0030D5E5 		ldrb	r3, [r5, #0]	@ zero_extendqisi2
 8566 7394 0020D4E5 		ldrb	r2, [r4, #0]	@ zero_extendqisi2
 8567 7398 023083E0 		add	r3, r3, r2
 8568 739c 0030C5E5 		strb	r3, [r5, #0]
 8569 73a0 FEFFFFEB 		bl	uart1_transmit
 8570 73a4 0100D6E5 		ldrb	r0, [r6, #1]	@ zero_extendqisi2
 8571 73a8 0030D4E5 		ldrb	r3, [r4, #0]	@ zero_extendqisi2
 8572 73ac 033080E0 		add	r3, r0, r3
 8573 73b0 0030C4E5 		strb	r3, [r4, #0]
 8574 73b4 0030D5E5 		ldrb	r3, [r5, #0]	@ zero_extendqisi2
 8575 73b8 0020D4E5 		ldrb	r2, [r4, #0]	@ zero_extendqisi2
 8576 73bc 023083E0 		add	r3, r3, r2
 8577 73c0 0030C5E5 		strb	r3, [r5, #0]
 8578 73c4 FEFFFFEB 		bl	uart1_transmit
 8579 73c8 0200D6E5 		ldrb	r0, [r6, #2]	@ zero_extendqisi2
 8580 73cc 0030D4E5 		ldrb	r3, [r4, #0]	@ zero_extendqisi2
 8581 73d0 033080E0 		add	r3, r0, r3
 8582 73d4 0030C4E5 		strb	r3, [r4, #0]
 8583 73d8 0030D5E5 		ldrb	r3, [r5, #0]	@ zero_extendqisi2
 8584 73dc 0020D4E5 		ldrb	r2, [r4, #0]	@ zero_extendqisi2
 8585 73e0 023083E0 		add	r3, r3, r2
 8586 73e4 0030C5E5 		strb	r3, [r5, #0]
 8587 73e8 FEFFFFEB 		bl	uart1_transmit
 8588 73ec 0300D6E5 		ldrb	r0, [r6, #3]	@ zero_extendqisi2
 8589 73f0 0030D4E5 		ldrb	r3, [r4, #0]	@ zero_extendqisi2
 8590 73f4 033080E0 		add	r3, r0, r3
 8591 73f8 0030C4E5 		strb	r3, [r4, #0]
 8592 73fc 0030D5E5 		ldrb	r3, [r5, #0]	@ zero_extendqisi2
 8593 7400 0020D4E5 		ldrb	r2, [r4, #0]	@ zero_extendqisi2
 8594 7404 D8681FE5 		ldr	r6, .L367+136
 8595 7408 023083E0 		add	r3, r3, r2
 8596 740c 0030C5E5 		strb	r3, [r5, #0]
 8597 7410 FEFFFFEB 		bl	uart1_transmit
 8598 7414 0000D6E5 		ldrb	r0, [r6, #0]	@ zero_extendqisi2
 8599 7418 0030D4E5 		ldrb	r3, [r4, #0]	@ zero_extendqisi2
 8600 741c 033080E0 		add	r3, r0, r3
 8601 7420 0030C4E5 		strb	r3, [r4, #0]
 8602 7424 0030D5E5 		ldrb	r3, [r5, #0]	@ zero_extendqisi2
 8603 7428 0020D4E5 		ldrb	r2, [r4, #0]	@ zero_extendqisi2
 8604 742c 023083E0 		add	r3, r3, r2
 8605 7430 0030C5E5 		strb	r3, [r5, #0]
 8606 7434 FEFFFFEB 		bl	uart1_transmit
 8607 7438 0100D6E5 		ldrb	r0, [r6, #1]	@ zero_extendqisi2
 8608 743c 0030D4E5 		ldrb	r3, [r4, #0]	@ zero_extendqisi2
 8609 7440 033080E0 		add	r3, r0, r3
 8610 7444 0030C4E5 		strb	r3, [r4, #0]
 8611 7448 0030D5E5 		ldrb	r3, [r5, #0]	@ zero_extendqisi2
 8612 744c 0020D4E5 		ldrb	r2, [r4, #0]	@ zero_extendqisi2
 8613 7450 023083E0 		add	r3, r3, r2
 8614 7454 0030C5E5 		strb	r3, [r5, #0]
 8615 7458 FEFFFFEB 		bl	uart1_transmit
 8616 745c 0200D6E5 		ldrb	r0, [r6, #2]	@ zero_extendqisi2
 8617 7460 0030D4E5 		ldrb	r3, [r4, #0]	@ zero_extendqisi2
 8618 7464 033080E0 		add	r3, r0, r3
 8619 7468 0030C4E5 		strb	r3, [r4, #0]
 8620 746c 0030D5E5 		ldrb	r3, [r5, #0]	@ zero_extendqisi2
 8621 7470 0020D4E5 		ldrb	r2, [r4, #0]	@ zero_extendqisi2
 8622 7474 023083E0 		add	r3, r3, r2
 8623 7478 0030C5E5 		strb	r3, [r5, #0]
 8624 747c FEFFFFEB 		bl	uart1_transmit
 8625 7480 0300D6E5 		ldrb	r0, [r6, #3]	@ zero_extendqisi2
 8626 7484 0030D4E5 		ldrb	r3, [r4, #0]	@ zero_extendqisi2
 8627 7488 033080E0 		add	r3, r0, r3
 8628 748c 0030C4E5 		strb	r3, [r4, #0]
 8629 7490 0030D5E5 		ldrb	r3, [r5, #0]	@ zero_extendqisi2
 8630 7494 0020D4E5 		ldrb	r2, [r4, #0]	@ zero_extendqisi2
 8631 7498 68691FE5 		ldr	r6, .L367+140
 8632 749c 023083E0 		add	r3, r3, r2
 8633 74a0 0030C5E5 		strb	r3, [r5, #0]
 8634 74a4 FEFFFFEB 		bl	uart1_transmit
 8635 74a8 0000D6E5 		ldrb	r0, [r6, #0]	@ zero_extendqisi2
 8636 74ac 0030D4E5 		ldrb	r3, [r4, #0]	@ zero_extendqisi2
 8637 74b0 033080E0 		add	r3, r0, r3
 8638 74b4 0030C4E5 		strb	r3, [r4, #0]
 8639 74b8 0030D5E5 		ldrb	r3, [r5, #0]	@ zero_extendqisi2
 8640 74bc 0020D4E5 		ldrb	r2, [r4, #0]	@ zero_extendqisi2
 8641 74c0 023083E0 		add	r3, r3, r2
 8642 74c4 0030C5E5 		strb	r3, [r5, #0]
 8643 74c8 FEFFFFEB 		bl	uart1_transmit
 8644 74cc 0100D6E5 		ldrb	r0, [r6, #1]	@ zero_extendqisi2
 8645 74d0 0030D4E5 		ldrb	r3, [r4, #0]	@ zero_extendqisi2
 8646 74d4 033080E0 		add	r3, r0, r3
 8647 74d8 0030C4E5 		strb	r3, [r4, #0]
 8648 74dc 0030D5E5 		ldrb	r3, [r5, #0]	@ zero_extendqisi2
 8649 74e0 0020D4E5 		ldrb	r2, [r4, #0]	@ zero_extendqisi2
 8650 74e4 023083E0 		add	r3, r3, r2
 8651 74e8 0030C5E5 		strb	r3, [r5, #0]
 8652 74ec FEFFFFEB 		bl	uart1_transmit
 8653 74f0 0200D6E5 		ldrb	r0, [r6, #2]	@ zero_extendqisi2
 8654 74f4 0030D4E5 		ldrb	r3, [r4, #0]	@ zero_extendqisi2
 8655 74f8 033080E0 		add	r3, r0, r3
 8656 74fc 0030C4E5 		strb	r3, [r4, #0]
 8657 7500 0030D5E5 		ldrb	r3, [r5, #0]	@ zero_extendqisi2
 8658 7504 0020D4E5 		ldrb	r2, [r4, #0]	@ zero_extendqisi2
 8659 7508 023083E0 		add	r3, r3, r2
 8660 750c 0030C5E5 		strb	r3, [r5, #0]
 8661 7510 FEFFFFEB 		bl	uart1_transmit
 8662 7514 0300D6E5 		ldrb	r0, [r6, #3]	@ zero_extendqisi2
 8663 7518 0030D4E5 		ldrb	r3, [r4, #0]	@ zero_extendqisi2
 8664 751c 033080E0 		add	r3, r0, r3
 8665 7520 0030C4E5 		strb	r3, [r4, #0]
 8666 7524 0030D5E5 		ldrb	r3, [r5, #0]	@ zero_extendqisi2
 8667 7528 0020D4E5 		ldrb	r2, [r4, #0]	@ zero_extendqisi2
 8668 752c F8691FE5 		ldr	r6, .L367+144
 8669 7530 023083E0 		add	r3, r3, r2
 8670 7534 0030C5E5 		strb	r3, [r5, #0]
 8671 7538 FEFFFFEB 		bl	uart1_transmit
 8672 753c 0000D6E5 		ldrb	r0, [r6, #0]	@ zero_extendqisi2
 8673 7540 0030D4E5 		ldrb	r3, [r4, #0]	@ zero_extendqisi2
 8674 7544 033080E0 		add	r3, r0, r3
 8675 7548 0030C4E5 		strb	r3, [r4, #0]
 8676 754c 0030D5E5 		ldrb	r3, [r5, #0]	@ zero_extendqisi2
 8677 7550 0020D4E5 		ldrb	r2, [r4, #0]	@ zero_extendqisi2
 8678 7554 023083E0 		add	r3, r3, r2
 8679 7558 0030C5E5 		strb	r3, [r5, #0]
 8680 755c FEFFFFEB 		bl	uart1_transmit
 8681 7560 0100D6E5 		ldrb	r0, [r6, #1]	@ zero_extendqisi2
 8682 7564 0030D4E5 		ldrb	r3, [r4, #0]	@ zero_extendqisi2
 8683 7568 033080E0 		add	r3, r0, r3
 8684 756c 0030C4E5 		strb	r3, [r4, #0]
 8685 7570 0030D5E5 		ldrb	r3, [r5, #0]	@ zero_extendqisi2
 8686 7574 0020D4E5 		ldrb	r2, [r4, #0]	@ zero_extendqisi2
 8687 7578 023083E0 		add	r3, r3, r2
 8688 757c 0030C5E5 		strb	r3, [r5, #0]
 8689 7580 FEFFFFEB 		bl	uart1_transmit
 8690 7584 0200D6E5 		ldrb	r0, [r6, #2]	@ zero_extendqisi2
 8691 7588 0030D4E5 		ldrb	r3, [r4, #0]	@ zero_extendqisi2
 8692 758c 033080E0 		add	r3, r0, r3
 8693 7590 0030C4E5 		strb	r3, [r4, #0]
 8694 7594 0030D5E5 		ldrb	r3, [r5, #0]	@ zero_extendqisi2
 8695 7598 0020D4E5 		ldrb	r2, [r4, #0]	@ zero_extendqisi2
 8696 759c 023083E0 		add	r3, r3, r2
 8697 75a0 0030C5E5 		strb	r3, [r5, #0]
 8698 75a4 FEFFFFEB 		bl	uart1_transmit
 8699 75a8 0300D6E5 		ldrb	r0, [r6, #3]	@ zero_extendqisi2
 8700 75ac 0030D4E5 		ldrb	r3, [r4, #0]	@ zero_extendqisi2
 8701 75b0 033080E0 		add	r3, r0, r3
 8702 75b4 0030C4E5 		strb	r3, [r4, #0]
 8703 75b8 0030D5E5 		ldrb	r3, [r5, #0]	@ zero_extendqisi2
 8704 75bc 0020D4E5 		ldrb	r2, [r4, #0]	@ zero_extendqisi2
 8705 75c0 023083E0 		add	r3, r3, r2
 8706 75c4 0030C5E5 		strb	r3, [r5, #0]
 8707 75c8 FEFFFFEB 		bl	uart1_transmit
 8708 75cc 0000D4E5 		ldrb	r0, [r4, #0]	@ zero_extendqisi2
 8709 75d0 FEFFFFEB 		bl	uart1_transmit
 8710 75d4 0000D5E5 		ldrb	r0, [r5, #0]	@ zero_extendqisi2
 8711 75d8 FEFFFFEB 		bl	uart1_transmit
 8712              	.L306:
 8713 75dc A42A1FE5 		ldr	r2, .L367+148
 8714 75e0 0040D2E5 		ldrb	r4, [r2, #0]	@ zero_extendqisi2
 8715 75e4 000054E3 		cmp	r4, #0
 8716 75e8 A51D001A 		bne	.L307
 8717 75ec B02A1FE5 		ldr	r2, .L367+152
 8718 75f0 B030D2E1 		ldrh	r3, [r2, #0]
 8719 75f4 000053E3 		cmp	r3, #0
 8720 75f8 01308312 		addne	r3, r3, #1
 8721 75fc B030C211 		strneh	r3, [r2, #0]	@ movhi 
 8722 7600 C03A1FE5 		ldr	r3, .L367+156
 8723 7604 B020D3E1 		ldrh	r2, [r3, #0]
 8724 7608 C41A1FE5 		ldr	r1, .L367+160
 8725 760c 012082E2 		add	r2, r2, #1
 8726 7610 B020C3E1 		strh	r2, [r3, #0]	@ movhi 
 8727 7614 0000D1E5 		ldrb	r0, [r1, #0]	@ zero_extendqisi2
 8728 7618 FEFFFFEB 		bl	__floatsidf
 8729 761c 872F8FE2 		adr	r2, .L370
 8730 7620 0C0092E8 		ldmia	r2, {r2-r3}
 8731 7624 FEFFFFEB 		bl	__ltdf2
 8732 7628 18229FE5 		ldr	r2, .L370+8
 8733 762c 000050E3 		cmp	r0, #0
 8734 7630 0030D2B5 		ldrltb	r3, [r2, #0]	@ zero_extendqisi2
 8735 7634 013083B2 		addlt	r3, r3, #1
 8736 7638 0030C2B5 		strltb	r3, [r2, #0]
 8737 763c 08329FE5 		ldr	r3, .L370+12
 8738 7640 0040C2A5 		strgeb	r4, [r2, #0]
 8739 7644 04029FE5 		ldr	r0, .L370+16
 8740 7648 0010D3E5 		ldrb	r1, [r3, #0]	@ zero_extendqisi2
 8741 764c F4319FE5 		ldr	r3, .L370+8
 8742 7650 0020D3E5 		ldrb	r2, [r3, #0]	@ zero_extendqisi2
 8743 7654 0030D0E5 		ldrb	r3, [r0, #0]	@ zero_extendqisi2
 8744 7658 F0619FE5 		ldr	r6, .L370+16
 8745 765c 040052E3 		cmp	r2, #4
 8746 7660 01308383 		orrhi	r3, r3, #1
 8747 7664 000051E3 		cmp	r1, #0
 8748 7668 0030C0E5 		strb	r3, [r0, #0]
 8749 766c 0650A0E1 		mov	r5, r6
 8750 7670 0040A0E3 		mov	r4, #0
 8751 7674 A21D000A 		beq	.L312
 8752 7678 D4319FE5 		ldr	r3, .L370+20
 8753 767c D4119FE5 		ldr	r1, .L370+24
 8754 7680 000093E5 		ldr	r0, [r3, #0]	@ float
 8755 7684 FEFFFFEB 		bl	__gtsf2
 8756 7688 000050E3 		cmp	r0, #0
 8757 768c 0140A0C3 		movgt	r4, #1
 8758              	.L312:
 8759 7690 0030D5E5 		ldrb	r3, [r5, #0]	@ zero_extendqisi2
 8760 7694 043083E1 		orr	r3, r3, r4
 8761 7698 0030C6E5 		strb	r3, [r6, #0]
 8762              	.L307:
 8763 769c B8319FE5 		ldr	r3, .L370+28
 8764 76a0 0040D3E5 		ldrb	r4, [r3, #0]	@ zero_extendqisi2
 8765 76a4 000054E3 		cmp	r4, #0
 8766 76a8 AC1D000A 		beq	.L315
 8767 76ac 010054E3 		cmp	r4, #1
 8768 76b0 AF1D000A 		beq	.L316
 8769 76b4 F81D00EA 		b	.L314
 8770              	.L315:
 8771 76b8 FEFFFFEB 		bl	estimator_propagate_state
 8772 76bc FEFFFFEB 		bl	navigation_task
 8773 76c0 F81D00EA 		b	.L314
 8774              	.L316:
 8775 76c4 94519FE5 		ldr	r5, .L370+32
 8776 76c8 B030D5E1 		ldrh	r3, [r5, #0]
 8777 76cc 000053E3 		cmp	r3, #0
 8778 76d0 F81D001A 		bne	.L314
 8779 76d4 88319FE5 		ldr	r3, .L370+36
 8780 76d8 88119FE5 		ldr	r1, .L370+40
 8781 76dc 000093E5 		ldr	r0, [r3, #0]	@ float
 8782 76e0 FEFFFFEB 		bl	__gtsf2
 8783 76e4 000050E3 		cmp	r0, #0
 8784 76e8 F81D00DA 		ble	.L314
 8785 76ec 58319FE5 		ldr	r3, .L370+12
 8786 76f0 0800A0E3 		mov	r0, #8
 8787 76f4 0040C3E5 		strb	r4, [r3, #0]
 8788 76f8 B040C5E1 		strh	r4, [r5, #0]	@ movhi 
 8789 76fc FEFFFFEB 		bl	uart1_check_free_space
 8790 7700 FF0010E3 		tst	r0, #255
 8791 7704 60219F05 		ldreq	r2, .L370+44
 8792 7708 0030D205 		ldreqb	r3, [r2, #0]	@ zero_extendqisi2
 8793 770c 01308302 		addeq	r3, r3, #1
 8794 7710 0030C205 		streqb	r3, [r2, #0]
 8795 7714 F81D000A 		beq	.L314
 8796 7718 50119FE5 		ldr	r1, .L370+48
 8797 771c 50C19FE5 		ldr	ip, .L370+52
 8798 7720 B030D1E1 		ldrh	r3, [r1, #0]
 8799 7724 B020DCE1 		ldrh	r2, [ip, #0]
 8800 7728 083083E2 		add	r3, r3, #8
 8801 772c 012082E2 		add	r2, r2, #1
 8802 7730 B030C1E1 		strh	r3, [r1, #0]	@ movhi 
 8803 7734 B020CCE1 		strh	r2, [ip, #0]	@ movhi 
 8804 7738 9900A0E3 		mov	r0, #153
 8805 773c 34419FE5 		ldr	r4, .L370+56
 8806 7740 FEFFFFEB 		bl	uart1_transmit
 8807 7744 0800A0E3 		mov	r0, #8
 8808 7748 2C519FE5 		ldr	r5, .L370+60
 8809 774c FEFFFFEB 		bl	uart1_transmit
 8810 7750 1A30A0E3 		mov	r3, #26
 8811 7754 0030C4E5 		strb	r3, [r4, #0]
 8812 7758 083083E2 		add	r3, r3, #8
 8813 775c 1200A0E3 		mov	r0, #18
 8814 7760 0030C5E5 		strb	r3, [r5, #0]
 8815 7764 FEFFFFEB 		bl	uart1_transmit
 8816 7768 0030D4E5 		ldrb	r3, [r4, #0]	@ zero_extendqisi2
 8817 776c 043083E2 		add	r3, r3, #4
 8818 7770 0030C4E5 		strb	r3, [r4, #0]
 8819 7774 0030D5E5 		ldrb	r3, [r5, #0]	@ zero_extendqisi2
 8820 7778 0020D4E5 		ldrb	r2, [r4, #0]	@ zero_extendqisi2
 8821 777c FC609FE5 		ldr	r6, .L370+64
 8822 7780 023083E0 		add	r3, r3, r2
 8823 7784 0400A0E3 		mov	r0, #4
 8824 7788 0030C5E5 		strb	r3, [r5, #0]
 8825 778c FEFFFFEB 		bl	uart1_transmit
 8826 7790 0000D6E5 		ldrb	r0, [r6, #0]	@ zero_extendqisi2
 8827 7794 0030D4E5 		ldrb	r3, [r4, #0]	@ zero_extendqisi2
 8828 7798 033080E0 		add	r3, r0, r3
 8829 779c 0030C4E5 		strb	r3, [r4, #0]
 8830 77a0 0030D5E5 		ldrb	r3, [r5, #0]	@ zero_extendqisi2
 8831 77a4 0020D4E5 		ldrb	r2, [r4, #0]	@ zero_extendqisi2
 8832 77a8 023083E0 		add	r3, r3, r2
 8833 77ac 0030C5E5 		strb	r3, [r5, #0]
 8834 77b0 FEFFFFEB 		bl	uart1_transmit
 8835 77b4 0100D6E5 		ldrb	r0, [r6, #1]	@ zero_extendqisi2
 8836 77b8 0030D4E5 		ldrb	r3, [r4, #0]	@ zero_extendqisi2
 8837 77bc 033080E0 		add	r3, r0, r3
 8838 77c0 0030C4E5 		strb	r3, [r4, #0]
 8839 77c4 0030D5E5 		ldrb	r3, [r5, #0]	@ zero_extendqisi2
 8840 77c8 0020D4E5 		ldrb	r2, [r4, #0]	@ zero_extendqisi2
 8841 77cc 023083E0 		add	r3, r3, r2
 8842 77d0 0030C5E5 		strb	r3, [r5, #0]
 8843 77d4 FEFFFFEB 		bl	uart1_transmit
 8844 77d8 0000D4E5 		ldrb	r0, [r4, #0]	@ zero_extendqisi2
 8845 77dc FEFFFFEB 		bl	uart1_transmit
 8846 77e0 0000D5E5 		ldrb	r0, [r5, #0]	@ zero_extendqisi2
 8847 77e4 FEFFFFEB 		bl	uart1_transmit
 8848              	.L314:
 8849 77e8 FEFFFFEB 		bl	gyro_update
 8850 77ec FEFFFFEB 		bl	infrared_update
 8851 77f0 FEFFFFEB 		bl	estimator_update_state_infrared
 8852 77f4 FEFFFFEB 		bl	h_ctl_attitude_loop
 8853 77f8 FEFFFFEB 		bl	v_ctl_throttle_slew
 8854 77fc 80309FE5 		ldr	r3, .L370+68
 8855 7800 002093E5 		ldr	r2, [r3, #0]
 8856 7804 7C309FE5 		ldr	r3, .L370+72
 8857 7808 B030D3E1 		ldrh	r3, [r3, #0]
 8858 780c B030C2E1 		strh	r3, [r2, #0]	@ movhi 
 8859 7810 74309FE5 		ldr	r3, .L370+76
 8860 7814 B030D3E1 		ldrh	r3, [r3, #0]
 8861 7818 B230C2E1 		strh	r3, [r2, #2]	@ movhi 
 8862 781c 6C309FE5 		ldr	r3, .L370+80
 8863 7820 B030D3E1 		ldrh	r3, [r3, #0]
 8864 7824 B430C2E1 		strh	r3, [r2, #4]	@ movhi 
 8865 7828 64309FE5 		ldr	r3, .L370+84
 8866 782c 0120A0E3 		mov	r2, #1
 8867 7830 0020C3E5 		strb	r2, [r3, #0]
 8868              	.L39:
 8869 7834 28D04BE2 		sub	sp, fp, #40
 8870 7838 F06F9DE8 		ldmfd	sp, {r4, r5, r6, r7, r8, r9, sl, fp, sp, lr}
 8871 783c 1EFF2FE1 		bx	lr
 8872              	.L371:
 8873              		.align	2
 8874              	.L370:
 8875 7840 00405740 		.word	1079459840
 8876 7844 00000000 		.word	0
 8877 7848 00000000 		.word	t.9
 8878 784c 00000000 		.word	launch
 8879 7850 00000000 		.word	kill_throttle
 8880 7854 00000000 		.word	dist2_to_home
 8881 7858 A1CE2D4C 		.word	1278070433
 8882 785c 00000000 		.word	_4Hz.7
 8883 7860 00000000 		.word	estimator_flight_time
 8884 7864 00000000 		.word	estimator_hspeed_mod
 8885 7868 0000A040 		.word	1084227584
 8886 786c 00000000 		.word	downlink_nb_ovrn
 8887 7870 00000000 		.word	downlink_nb_bytes
 8888 7874 00000000 		.word	downlink_nb_msgs
 8889 7878 00000000 		.word	ck_a
 8890 787c 00000000 		.word	ck_b
 8891 7880 00000000 		.word	cpu_time_sec
 8892 7884 00000000 		.word	ap_state
 8893 7888 00000000 		.word	v_ctl_throttle_slewed
 8894 788c 00000000 		.word	h_ctl_aileron_setpoint
 8895 7890 00000000 		.word	h_ctl_elevator_setpoint
 8896 7894 00000000 		.word	inter_mcu_received_ap
 8898              		.global	__adddf3
 8899              		.section	.text.init_ap,"ax",%progbits
 8900              		.align	2
 8901              		.global	init_ap
 8903              	init_ap:
 8904              		@ Function supports interworking.
 8905              		@ args = 0, pretend = 0, frame = 0
 8906              		@ frame_needed = 1, uses_anonymous_args = 0
 8907 0000 0DC0A0E1 		mov	ip, sp
 8908 0004 00D82DE9 		stmfd	sp!, {fp, ip, lr, pc}
 8909 0008 04B04CE2 		sub	fp, ip, #4
 8910 000c FEFFFFEB 		bl	infrared_init
 8911 0010 FEFFFFEB 		bl	gyro_init
 8912 0014 FEFFFFEB 		bl	gps_init
 8913 0018 FEFFFFEB 		bl	h_ctl_init
 8914 001c FEFFFFEB 		bl	v_ctl_init
 8915 0020 FEFFFFEB 		bl	estimator_init
 8916 0024 FEFFFFEB 		bl	alt_kalman_init
 8917 0028 FEFFFFEB 		bl	nav_init
 8918 002c FEFFFFEB 		bl	settings_init
 8919 0030 FEFFFFEB 		bl	enableIRQ
 8920 0034 30309FE5 		ldr	r3, .L379
 8921 0038 30109FE5 		ldr	r1, .L379+4
 8922 003c 082093E5 		ldr	r2, [r3, #8]
 8923              	.L375:
 8924 0040 24309FE5 		ldr	r3, .L379
 8925 0044 083093E5 		ldr	r3, [r3, #8]
 8926 0048 033062E0 		rsb	r3, r2, r3
 8927 004c 010053E1 		cmp	r3, r1
 8928 0050 0E00003A 		bcc	.L375
 8929 0054 18309FE5 		ldr	r3, .L379+8
 8930 0058 0020A0E3 		mov	r2, #0
 8931 005c 0020C3E5 		strb	r2, [r3, #0]
 8932 0060 FEFFFFEB 		bl	traffic_info_init
 8933 0064 00689DE8 		ldmfd	sp, {fp, sp, lr}
 8934 0068 1EFF2FE1 		bx	lr
 8935              	.L380:
 8936              		.align	2
 8937              	.L379:
 8938 006c 004000E0 		.word	-536854528
 8939 0070 E0707200 		.word	7500000
 8940 0074 00000000 		.word	power_switch
 8942              		.section	.data.pprz_status.0,"aw",%progbits
 8945              	pprz_status.0:
 8946 0000 00       		.byte	0
 8947              		.section	.bss._ck_a.1,"aw",%nobits
 8950              	_ck_a.1:
 8951 0000 00       		.space	1
 8952              		.section	.bss._ck_b.2,"aw",%nobits
 8955              	_ck_b.2:
 8956 0000 00       		.space	1
 8957              		.section	.bss.payload_idx.3,"aw",%nobits
 8960              	payload_idx.3:
 8961 0000 00       		.space	1
 8962              		.global	__truncdfsf2
 8963              		.section	.text.event_task_ap,"ax",%progbits
 8964              		.align	2
 8965              		.global	event_task_ap
 8967              	event_task_ap:
 8968              		@ Function supports interworking.
 8969              		@ args = 0, pretend = 0, frame = 0
 8970              		@ frame_needed = 1, uses_anonymous_args = 0
 8971 0000 0DC0A0E1 		mov	ip, sp
 8972 0004 F0D82DE9 		stmfd	sp!, {r4, r5, r6, r7, fp, ip, lr, pc}
 8973 0008 04B04CE2 		sub	fp, ip, #4
 8974 000c FEFFFFEB 		bl	infrared_event
 8975 0010 A8569FE5 		ldr	r5, .L453+24
 8976 0014 A8C69FE5 		ldr	ip, .L453+28
 8977 0018 B020D5E1 		ldrh	r2, [r5, #0]
 8978 001c B030DCE1 		ldrh	r3, [ip, #0]
 8979 0020 030052E1 		cmp	r2, r3
 8980 0024 1800000A 		beq	.L382
 8981 0028 98469FE5 		ldr	r4, .L453+32
 8982              	.L447:
 8983 002c 0030D4E5 		ldrb	r3, [r4, #0]	@ zero_extendqisi2
 8984 0030 000053E3 		cmp	r3, #0
 8985 0034 1800001A 		bne	.L382
 8986 0038 B010DCE1 		ldrh	r1, [ip, #0]
 8987 003c 88269FE5 		ldr	r2, .L453+36
 8988 0040 013081E2 		add	r3, r1, #1
 8989 0044 7F3003E2 		and	r3, r3, #127
 8990 0048 B030CCE1 		strh	r3, [ip, #0]	@ movhi 
 8991 004c 0100D2E7 		ldrb	r0, [r2, r1]	@ zero_extendqisi2
 8992 0050 FEFFFFEB 		bl	parse_ubx
 8993 0054 68C69FE5 		ldr	ip, .L453+28
 8994 0058 B020D5E1 		ldrh	r2, [r5, #0]
 8995 005c B030DCE1 		ldrh	r3, [ip, #0]
 8996 0060 030052E1 		cmp	r2, r3
 8997 0064 0900001A 		bne	.L447
 8998              	.L382:
 8999 0068 58469FE5 		ldr	r4, .L453+32
 9000 006c 0030D4E5 		ldrb	r3, [r4, #0]	@ zero_extendqisi2
 9001 0070 000053E3 		cmp	r3, #0
 9002 0074 3C00000A 		beq	.L386
 9003 0078 50569FE5 		ldr	r5, .L453+40
 9004 007c FEFFFFEB 		bl	parse_gps_msg
 9005 0080 0030D5E5 		ldrb	r3, [r5, #0]	@ zero_extendqisi2
 9006 0084 000053E3 		cmp	r3, #0
 9007 0088 0030A0E3 		mov	r3, #0
 9008 008c 0030C4E5 		strb	r3, [r4, #0]
 9009 0090 3C00000A 		beq	.L386
 9010 0094 38369FE5 		ldr	r3, .L453+44
 9011 0098 0020D3E5 		ldrb	r2, [r3, #0]	@ zero_extendqisi2
 9012 009c 34369FE5 		ldr	r3, .L453+48
 9013 00a0 0030D3E5 		ldrb	r3, [r3, #0]	@ zero_extendqisi2
 9014 00a4 012072E2 		rsbs	r2, r2, #1
 9015 00a8 0020A033 		movcc	r2, #0
 9016 00ac 030053E3 		cmp	r3, #3
 9017 00b0 24369FE5 		ldr	r3, .L453+52
 9018 00b4 0020C3E5 		strb	r2, [r3, #0]
 9019 00b8 3900001A 		bne	.L388
 9020 00bc 1C369FE5 		ldr	r3, .L453+56
 9021 00c0 1C269FE5 		ldr	r2, .L453+60
 9022 00c4 B030D3E1 		ldrh	r3, [r3, #0]
 9023 00c8 B030C2E1 		strh	r3, [r2, #0]	@ movhi 
 9024 00cc FEFFFFEB 		bl	estimator_update_state_gps
 9025 00d0 10269FE5 		ldr	r2, .L453+64
 9026 00d4 103092E5 		ldr	r3, [r2, #16]
 9027 00d8 010813E3 		tst	r3, #65536
 9028 00dc 0138A013 		movne	r3, #65536
 9029 00e0 0138A003 		moveq	r3, #65536
 9030 00e4 1C308215 		strne	r3, [r2, #28]
 9031 00e8 14308205 		streq	r3, [r2, #20]
 9032              	.L388:
 9033 00ec FEFFFFEB 		bl	gps_downlink
 9034 00f0 0030A0E3 		mov	r3, #0
 9035 00f4 0030C5E5 		strb	r3, [r5, #0]
 9036              	.L386:
 9037 00f8 EC759FE5 		ldr	r7, .L453+68
 9038 00fc EC059FE5 		ldr	r0, .L453+72
 9039 0100 B030D7E1 		ldrh	r3, [r7, #0]
 9040 0104 B010D0E1 		ldrh	r1, [r0, #0]
 9041 0108 010053E1 		cmp	r3, r1
 9042 010c B300000A 		beq	.L391
 9043              	.L448:
 9044 0110 DC359FE5 		ldr	r3, .L453+76
 9045 0114 0030D3E5 		ldrb	r3, [r3, #0]	@ zero_extendqisi2
 9046 0118 000053E3 		cmp	r3, #0
 9047 011c 9C00001A 		bne	.L393
 9048 0120 D0659FE5 		ldr	r6, .L453+80
 9049 0124 013081E2 		add	r3, r1, #1
 9050 0128 7F3003E2 		and	r3, r3, #127
 9051 012c B030C0E1 		strh	r3, [r0, #0]	@ movhi 
 9052 0130 0020D6E5 		ldrb	r2, [r6, #0]	@ zero_extendqisi2
 9053 0134 C0359FE5 		ldr	r3, .L453+84
 9054 0138 0150D3E7 		ldrb	r5, [r3, r1]	@ zero_extendqisi2
 9055 013c 040052E3 		cmp	r2, #4
 9056 0140 02F19F97 		ldrls	pc, [pc, r2, asl #2]
 9057 0144 900000EA 		b	.L399
 9058              		.p2align 2
 9059              	.L408:
 9060 0148 5C010000 		.word	.L395
 9061 014c 64010000 		.word	.L397
 9062 0150 BC010000 		.word	.L400
 9063 0154 10020000 		.word	.L402
 9064 0158 2C020000 		.word	.L404
 9065              	.L395:
 9066 015c 990055E3 		cmp	r5, #153
 9067 0160 800000EA 		b	.L452
 9068              	.L397:
 9069 0164 88359FE5 		ldr	r3, .L453+76
 9070 0168 0030D3E5 		ldrb	r3, [r3, #0]	@ zero_extendqisi2
 9071 016c FF0003E2 		and	r0, r3, #255
 9072 0170 000050E3 		cmp	r0, #0
 9073 0174 84259F15 		ldrne	r2, .L453+88
 9074 0178 0030D215 		ldrneb	r3, [r2, #0]	@ zero_extendqisi2
 9075 017c 01308312 		addne	r3, r3, #1
 9076 0180 0030C215 		strneb	r3, [r2, #0]
 9077 0184 9000001A 		bne	.L399
 9078 0188 74359FE5 		ldr	r3, .L453+92
 9079 018c 041045E2 		sub	r1, r5, #4
 9080 0190 0010C3E5 		strb	r1, [r3, #0]
 9081 0194 6C359FE5 		ldr	r3, .L453+96
 9082 0198 0050C3E5 		strb	r5, [r3, #0]
 9083 019c 68359FE5 		ldr	r3, .L453+100
 9084 01a0 0020D6E5 		ldrb	r2, [r6, #0]	@ zero_extendqisi2
 9085 01a4 0000C3E5 		strb	r0, [r3, #0]
 9086 01a8 60359FE5 		ldr	r3, .L453+104
 9087 01ac 012082E2 		add	r2, r2, #1
 9088 01b0 0020C6E5 		strb	r2, [r6, #0]
 9089 01b4 0050C3E5 		strb	r5, [r3, #0]
 9090 01b8 960000EA 		b	.L392
 9091              	.L400:
 9092 01bc 44259FE5 		ldr	r2, .L453+96
 9093 01c0 44059FE5 		ldr	r0, .L453+100
 9094 01c4 0030D2E5 		ldrb	r3, [r2, #0]	@ zero_extendqisi2
 9095 01c8 0040D0E5 		ldrb	r4, [r0, #0]	@ zero_extendqisi2
 9096 01cc 033085E0 		add	r3, r5, r3
 9097 01d0 0030C2E5 		strb	r3, [r2, #0]
 9098 01d4 34C59FE5 		ldr	ip, .L453+104
 9099 01d8 24359FE5 		ldr	r3, .L453+92
 9100 01dc 011084E2 		add	r1, r4, #1
 9101 01e0 0010C0E5 		strb	r1, [r0, #0]
 9102 01e4 00E0D2E5 		ldrb	lr, [r2, #0]	@ zero_extendqisi2
 9103 01e8 0010D3E5 		ldrb	r1, [r3, #0]	@ zero_extendqisi2
 9104 01ec 0030DCE5 		ldrb	r3, [ip, #0]	@ zero_extendqisi2
 9105 01f0 0E3083E0 		add	r3, r3, lr
 9106 01f4 0030CCE5 		strb	r3, [ip, #0]
 9107 01f8 14359FE5 		ldr	r3, .L453+108
 9108 01fc 0020D0E5 		ldrb	r2, [r0, #0]	@ zero_extendqisi2
 9109 0200 0450C3E7 		strb	r5, [r3, r4]
 9110 0204 010052E1 		cmp	r2, r1
 9111              	.L452:
 9112 0208 9600001A 		bne	.L392
 9113 020c 860000EA 		b	.L451
 9114              	.L402:
 9115 0210 F0349FE5 		ldr	r3, .L453+96
 9116 0214 0030D3E5 		ldrb	r3, [r3, #0]	@ zero_extendqisi2
 9117 0218 050053E1 		cmp	r3, r5
 9118 021c 9000001A 		bne	.L399
 9119              	.L451:
 9120 0220 0030D6E5 		ldrb	r3, [r6, #0]	@ zero_extendqisi2
 9121 0224 013083E2 		add	r3, r3, #1
 9122 0228 950000EA 		b	.L449
 9123              	.L404:
 9124 022c DC349FE5 		ldr	r3, .L453+104
 9125 0230 0030D3E5 		ldrb	r3, [r3, #0]	@ zero_extendqisi2
 9126 0234 050053E1 		cmp	r3, r5
 9127 0238 B4349F05 		ldreq	r3, .L453+76
 9128 023c 0120A003 		moveq	r2, #1
 9129 0240 0020C305 		streqb	r2, [r3, #0]
 9130 0244 9400000A 		beq	.L406
 9131              	.L399:
 9132 0248 C8249FE5 		ldr	r2, .L453+112
 9133 024c 0030D2E5 		ldrb	r3, [r2, #0]	@ zero_extendqisi2
 9134 0250 013083E2 		add	r3, r3, #1
 9135 0254 0030C2E5 		strb	r3, [r2, #0]
 9136              	.L406:
 9137 0258 0030A0E3 		mov	r3, #0
 9138              	.L449:
 9139 025c 0030C6E5 		strb	r3, [r6, #0]
 9140              	.L392:
 9141 0260 88349FE5 		ldr	r3, .L453+72
 9142 0264 B010D3E1 		ldrh	r1, [r3, #0]
 9143 0268 B030D7E1 		ldrh	r3, [r7, #0]
 9144 026c 010053E1 		cmp	r3, r1
 9145 0270 78049FE5 		ldr	r0, .L453+72
 9146 0274 4200001A 		bne	.L448
 9147              	.L393:
 9148 0278 74449FE5 		ldr	r4, .L453+76
 9149 027c 0030D4E5 		ldrb	r3, [r4, #0]	@ zero_extendqisi2
 9150 0280 000053E3 		cmp	r3, #0
 9151 0284 B300000A 		beq	.L391
 9152 0288 74E49FE5 		ldr	lr, .L453+92
 9153 028c 0030DEE5 		ldrb	r3, [lr, #0]	@ zero_extendqisi2
 9154 0290 000053E3 		cmp	r3, #0
 9155 0294 00C0A0E3 		mov	ip, #0
 9156 0298 AE00000A 		beq	.L446
 9157              	.L415:
 9158 029c 70349FE5 		ldr	r3, .L453+108
 9159 02a0 0C20D3E7 		ldrb	r2, [r3, ip]	@ zero_extendqisi2
 9160 02a4 70349FE5 		ldr	r3, .L453+116
 9161 02a8 01108CE2 		add	r1, ip, #1
 9162 02ac 0000DEE5 		ldrb	r0, [lr, #0]	@ zero_extendqisi2
 9163 02b0 0C20C3E7 		strb	r2, [r3, ip]
 9164 02b4 FFC001E2 		and	ip, r1, #255
 9165 02b8 0C0050E1 		cmp	r0, ip
 9166 02bc A500008A 		bhi	.L415
 9167              	.L446:
 9168 02c0 58249FE5 		ldr	r2, .L453+120
 9169 02c4 0130A0E3 		mov	r3, #1
 9170 02c8 0030C2E5 		strb	r3, [r2, #0]
 9171 02cc 013043E2 		sub	r3, r3, #1
 9172 02d0 0030C4E5 		strb	r3, [r4, #0]
 9173              	.L391:
 9174 02d4 44449FE5 		ldr	r4, .L453+120
 9175 02d8 0030D4E5 		ldrb	r3, [r4, #0]	@ zero_extendqisi2
 9176 02dc 000053E3 		cmp	r3, #0
 9177 02e0 BA00000A 		beq	.L417
 9178 02e4 FEFFFFEB 		bl	dl_parse_msg
 9179 02e8 0030A0E3 		mov	r3, #0
 9180 02ec 0030C4E5 		strb	r3, [r4, #0]
 9181              	.L417:
 9182 02f0 2C249FE5 		ldr	r2, .L453+124
 9183 02f4 0030D2E5 		ldrb	r3, [r2, #0]	@ zero_extendqisi2
 9184 02f8 000053E3 		cmp	r3, #0
 9185 02fc A601000A 		beq	.L381
 9186 0300 20749FE5 		ldr	r7, .L453+128
 9187 0304 0030A0E3 		mov	r3, #0
 9188 0308 0030C2E5 		strb	r3, [r2, #0]
 9189 030c 002097E5 		ldr	r2, [r7, #0]
 9190 0310 0F20D2E5 		ldrb	r2, [r2, #15]	@ zero_extendqisi2
 9191 0314 020012E3 		tst	r2, #2
 9192 0318 0300A0E1 		mov	r0, r3
 9193 031c 0320A0E1 		mov	r2, r3
 9194 0320 CC00000A 		beq	.L420
 9195 0324 00349FE5 		ldr	r3, .L453+132
 9196 0328 0030D3E5 		ldrb	r3, [r3, #0]	@ zero_extendqisi2
 9197 032c 010053E3 		cmp	r3, #1
 9198 0330 0020A083 		movhi	r2, #0
 9199 0334 0120A093 		movls	r2, #1
 9200              	.L420:
 9201 0338 EC139FE5 		ldr	r1, .L453+132
 9202 033c 0030D1E5 		ldrb	r3, [r1, #0]	@ zero_extendqisi2
 9203 0340 033043E2 		sub	r3, r3, #3
 9204 0344 010053E3 		cmp	r3, #1
 9205 0348 DF00009A 		bls	.L421
 9206 034c 80339FE5 		ldr	r3, .L453+44
 9207 0350 0030D3E5 		ldrb	r3, [r3, #0]	@ zero_extendqisi2
 9208 0354 000053E3 		cmp	r3, #0
 9209 0358 DF00000A 		beq	.L421
 9210 035c CC339FE5 		ldr	r3, .L453+136
 9211 0360 0030D3E5 		ldrb	r3, [r3, #0]	@ zero_extendqisi2
 9212 0364 000053E3 		cmp	r3, #0
 9213 0368 0330A013 		movne	r3, #3
 9214 036c 0030C115 		strneb	r3, [r1, #0]
 9215 0370 0100A013 		movne	r0, #1
 9216 0374 000052E3 		cmp	r2, #0
 9217 0378 0330A013 		movne	r3, #3
 9218 037c 0030C115 		strneb	r3, [r1, #0]
 9219 0380 0100A013 		movne	r0, #1
 9220              	.L421:
 9221 0384 002097E5 		ldr	r2, [r7, #0]
 9222 0388 0F30D2E5 		ldrb	r3, [r2, #15]	@ zero_extendqisi2
 9223 038c 100013E3 		tst	r3, #16
 9224 0390 F600000A 		beq	.L424
 9225 0394 0030D1E5 		ldrb	r3, [r1, #0]	@ zero_extendqisi2
 9226 0398 033043E2 		sub	r3, r3, #3
 9227 039c 010053E3 		cmp	r3, #1
 9228 03a0 0030A093 		movls	r3, #0
 9229 03a4 F500009A 		bls	.L430
 9230 03a8 FA30D2E1 		ldrsh	r3, [r2, #10]
 9231 03ac 4B0D53E3 		cmp	r3, #4800
 9232 03b0 0220A0C3 		movgt	r2, #2
 9233 03b4 EF0000CA 		bgt	.L427
 9234 03b8 4B0D73E3 		cmn	r3, #4800
 9235 03bc 0020A0D3 		movle	r2, #0
 9236 03c0 0120A0C3 		movgt	r2, #1
 9237              	.L427:
 9238 03c4 0030D1E5 		ldrb	r3, [r1, #0]	@ zero_extendqisi2
 9239 03c8 020053E1 		cmp	r3, r2
 9240 03cc 0130A013 		movne	r3, #1
 9241 03d0 0030A003 		moveq	r3, #0
 9242 03d4 0020C115 		strneb	r2, [r1, #0]
 9243 03d8 FF3003E2 		and	r3, r3, #255
 9244              	.L430:
 9245 03dc 030080E1 		orr	r0, r0, r3
 9246              	.L424:
 9247 03e0 003097E5 		ldr	r3, [r7, #0]
 9248 03e4 48639FE5 		ldr	r6, .L453+140
 9249 03e8 0F30D3E5 		ldrb	r3, [r3, #15]	@ zero_extendqisi2
 9250 03ec 0020D6E5 		ldrb	r2, [r6, #0]	@ zero_extendqisi2
 9251 03f0 FF1003E2 		and	r1, r3, #255
 9252 03f4 010052E1 		cmp	r2, r1
 9253 03f8 0020A003 		moveq	r2, #0
 9254 03fc 0301000A 		beq	.L433
 9255 0400 0F2002E2 		and	r2, r2, #15
 9256 0404 0F3003E2 		and	r3, r3, #15
 9257 0408 0010C6E5 		strb	r1, [r6, #0]
 9258 040c 032052E0 		subs	r2, r2, r3
 9259 0410 0120A013 		movne	r2, #1
 9260              	.L433:
 9261 0414 020090E1 		orrs	r0, r0, r2
 9262 0418 6901000A 		beq	.L434
 9263 041c 0C00A0E3 		mov	r0, #12
 9264 0420 FEFFFFEB 		bl	uart1_check_free_space
 9265 0424 FF0010E3 		tst	r0, #255
 9266 0428 08239F05 		ldreq	r2, .L453+144
 9267 042c 0030D205 		ldreqb	r3, [r2, #0]	@ zero_extendqisi2
 9268 0430 01308302 		addeq	r3, r3, #1
 9269 0434 0030C205 		streqb	r3, [r2, #0]
 9270 0438 6901000A 		beq	.L434
 9271 043c F8129FE5 		ldr	r1, .L453+148
 9272 0440 F8C29FE5 		ldr	ip, .L453+152
 9273 0444 B030D1E1 		ldrh	r3, [r1, #0]
 9274 0448 B020DCE1 		ldrh	r2, [ip, #0]
 9275 044c 0C3083E2 		add	r3, r3, #12
 9276 0450 012082E2 		add	r2, r2, #1
 9277 0454 B030C1E1 		strh	r3, [r1, #0]	@ movhi 
 9278 0458 B020CCE1 		strh	r2, [ip, #0]	@ movhi 
 9279 045c 9900A0E3 		mov	r0, #153
 9280 0460 DC429FE5 		ldr	r4, .L453+156
 9281 0464 FEFFFFEB 		bl	uart1_transmit
 9282 0468 0C00A0E3 		mov	r0, #12
 9283 046c D4529FE5 		ldr	r5, .L453+160
 9284 0470 FEFFFFEB 		bl	uart1_transmit
 9285 0474 1E30A0E3 		mov	r3, #30
 9286 0478 0030C4E5 		strb	r3, [r4, #0]
 9287 047c 0C3083E2 		add	r3, r3, #12
 9288 0480 1200A0E3 		mov	r0, #18
 9289 0484 0030C5E5 		strb	r3, [r5, #0]
 9290 0488 FEFFFFEB 		bl	uart1_transmit
 9291 048c 0030D4E5 		ldrb	r3, [r4, #0]	@ zero_extendqisi2
 9292 0490 0B3083E2 		add	r3, r3, #11
 9293 0494 0030C4E5 		strb	r3, [r4, #0]
 9294 0498 0030D5E5 		ldrb	r3, [r5, #0]	@ zero_extendqisi2
 9295 049c 0020D4E5 		ldrb	r2, [r4, #0]	@ zero_extendqisi2
 9296 04a0 023083E0 		add	r3, r3, r2
 9297 04a4 0B00A0E3 		mov	r0, #11
 9298 04a8 0030C5E5 		strb	r3, [r5, #0]
 9299 04ac FEFFFFEB 		bl	uart1_transmit
 9300 04b0 74329FE5 		ldr	r3, .L453+132
 9301 04b4 0000D3E5 		ldrb	r0, [r3, #0]	@ zero_extendqisi2
 9302 04b8 0030D4E5 		ldrb	r3, [r4, #0]	@ zero_extendqisi2
 9303 04bc 033080E0 		add	r3, r0, r3
 9304 04c0 0030C4E5 		strb	r3, [r4, #0]
 9305 04c4 0030D5E5 		ldrb	r3, [r5, #0]	@ zero_extendqisi2
 9306 04c8 0020D4E5 		ldrb	r2, [r4, #0]	@ zero_extendqisi2
 9307 04cc 023083E0 		add	r3, r3, r2
 9308 04d0 0030C5E5 		strb	r3, [r5, #0]
 9309 04d4 FEFFFFEB 		bl	uart1_transmit
 9310 04d8 6C329FE5 		ldr	r3, .L453+164
 9311 04dc 0000D3E5 		ldrb	r0, [r3, #0]	@ zero_extendqisi2
 9312 04e0 0030D4E5 		ldrb	r3, [r4, #0]	@ zero_extendqisi2
 9313 04e4 033080E0 		add	r3, r0, r3
 9314 04e8 0030C4E5 		strb	r3, [r4, #0]
 9315 04ec 0030D5E5 		ldrb	r3, [r5, #0]	@ zero_extendqisi2
 9316 04f0 0020D4E5 		ldrb	r2, [r4, #0]	@ zero_extendqisi2
 9317 04f4 023083E0 		add	r3, r3, r2
 9318 04f8 0030C5E5 		strb	r3, [r5, #0]
 9319 04fc FEFFFFEB 		bl	uart1_transmit
 9320 0500 48329FE5 		ldr	r3, .L453+168
 9321 0504 0000D3E5 		ldrb	r0, [r3, #0]	@ zero_extendqisi2
 9322 0508 0030D4E5 		ldrb	r3, [r4, #0]	@ zero_extendqisi2
 9323 050c 033080E0 		add	r3, r0, r3
 9324 0510 0030C4E5 		strb	r3, [r4, #0]
 9325 0514 0030D5E5 		ldrb	r3, [r5, #0]	@ zero_extendqisi2
 9326 0518 0020D4E5 		ldrb	r2, [r4, #0]	@ zero_extendqisi2
 9327 051c 023083E0 		add	r3, r3, r2
 9328 0520 0030C5E5 		strb	r3, [r5, #0]
 9329 0524 FEFFFFEB 		bl	uart1_transmit
 9330 0528 24329FE5 		ldr	r3, .L453+172
 9331 052c 0000D3E5 		ldrb	r0, [r3, #0]	@ zero_extendqisi2
 9332 0530 0030D4E5 		ldrb	r3, [r4, #0]	@ zero_extendqisi2
 9333 0534 033080E0 		add	r3, r0, r3
 9334 0538 0030C4E5 		strb	r3, [r4, #0]
 9335 053c 0030D5E5 		ldrb	r3, [r5, #0]	@ zero_extendqisi2
 9336 0540 0020D4E5 		ldrb	r2, [r4, #0]	@ zero_extendqisi2
 9337 0544 023083E0 		add	r3, r3, r2
 9338 0548 0030C5E5 		strb	r3, [r5, #0]
 9339 054c FEFFFFEB 		bl	uart1_transmit
 9340 0550 00329FE5 		ldr	r3, .L453+176
 9341 0554 0000D3E5 		ldrb	r0, [r3, #0]	@ zero_extendqisi2
 9342 0558 0030D4E5 		ldrb	r3, [r4, #0]	@ zero_extendqisi2
 9343 055c 033080E0 		add	r3, r0, r3
 9344 0560 0030C4E5 		strb	r3, [r4, #0]
 9345 0564 0030D5E5 		ldrb	r3, [r5, #0]	@ zero_extendqisi2
 9346 0568 0020D4E5 		ldrb	r2, [r4, #0]	@ zero_extendqisi2
 9347 056c 023083E0 		add	r3, r3, r2
 9348 0570 0030C5E5 		strb	r3, [r5, #0]
 9349 0574 FEFFFFEB 		bl	uart1_transmit
 9350 0578 0000D6E5 		ldrb	r0, [r6, #0]	@ zero_extendqisi2
 9351 057c 0030D4E5 		ldrb	r3, [r4, #0]	@ zero_extendqisi2
 9352 0580 033080E0 		add	r3, r0, r3
 9353 0584 0030C4E5 		strb	r3, [r4, #0]
 9354 0588 0030D5E5 		ldrb	r3, [r5, #0]	@ zero_extendqisi2
 9355 058c 0020D4E5 		ldrb	r2, [r4, #0]	@ zero_extendqisi2
 9356 0590 023083E0 		add	r3, r3, r2
 9357 0594 0030C5E5 		strb	r3, [r5, #0]
 9358 0598 FEFFFFEB 		bl	uart1_transmit
 9359 059c 0000D4E5 		ldrb	r0, [r4, #0]	@ zero_extendqisi2
 9360 05a0 FEFFFFEB 		bl	uart1_transmit
 9361 05a4 0000D5E5 		ldrb	r0, [r5, #0]	@ zero_extendqisi2
 9362 05a8 FEFFFFEB 		bl	uart1_transmit
 9363              	.L434:
 9364 05ac 78319FE5 		ldr	r3, .L453+132
 9365 05b0 0050D3E5 		ldrb	r5, [r3, #0]	@ zero_extendqisi2
 9366 05b4 010055E3 		cmp	r5, #1
 9367 05b8 8A01001A 		bne	.L437
 9368 05bc 004097E5 		ldr	r4, [r7, #0]
 9369 05c0 F000D4E1 		ldrsh	r0, [r4, #0]
 9370 05c4 FEFFFFEB 		bl	__floatsisf
 9371 05c8 8C119FE5 		ldr	r1, .L453+180
 9372 05cc FEFFFFEB 		bl	__divsf3
 9373 05d0 FEFFFFEB 		bl	__extendsfdf2
 9374 05d4 CC208FE2 		adr	r2, .L453
 9375 05d8 0C0092E8 		ldmia	r2, {r2-r3}
 9376 05dc FEFFFFEB 		bl	__muldf3
 9377 05e0 C8208FE2 		adr	r2, .L453+8
 9378 05e4 0C0092E8 		ldmia	r2, {r2-r3}
 9379 05e8 FEFFFFEB 		bl	__adddf3
 9380 05ec FEFFFFEB 		bl	__truncdfsf2
 9381 05f0 68319FE5 		ldr	r3, .L453+184
 9382 05f4 000083E5 		str	r0, [r3, #0]	@ float
 9383 05f8 F200D4E1 		ldrsh	r0, [r4, #2]
 9384 05fc FEFFFFEB 		bl	__floatsisf
 9385 0600 54119FE5 		ldr	r1, .L453+180
 9386 0604 FEFFFFEB 		bl	__divsf3
 9387 0608 FEFFFFEB 		bl	__extendsfdf2
 9388 060c A4208FE2 		adr	r2, .L453+16
 9389 0610 0C0092E8 		ldmia	r2, {r2-r3}
 9390 0614 FEFFFFEB 		bl	__muldf3
 9391 0618 90208FE2 		adr	r2, .L453+8
 9392 061c 0C0092E8 		ldmia	r2, {r2-r3}
 9393 0620 FEFFFFEB 		bl	__adddf3
 9394 0624 FEFFFFEB 		bl	__truncdfsf2
 9395 0628 34319FE5 		ldr	r3, .L453+188
 9396 062c 000083E5 		str	r0, [r3, #0]	@ float
 9397              	.L437:
 9398 0630 010055E3 		cmp	r5, #1
 9399 0634 EC309F95 		ldrls	r3, .L453+128
 9400 0638 00209395 		ldrls	r2, [r3, #0]
 9401 063c 24319F95 		ldrls	r3, .L453+192
 9402 0640 B620D291 		ldrlsh	r2, [r2, #6]
 9403 0644 B020C391 		strlsh	r2, [r3, #0]	@ movhi 
 9404 0648 D8309FE5 		ldr	r3, .L453+128
 9405 064c 001093E5 		ldr	r1, [r3, #0]
 9406 0650 14319FE5 		ldr	r3, .L453+196
 9407 0654 0E20D1E5 		ldrb	r2, [r1, #14]	@ zero_extendqisi2
 9408 0658 0020C3E5 		strb	r2, [r3, #0]
 9409 065c 0C319FE5 		ldr	r3, .L453+200
 9410 0660 1120D1E5 		ldrb	r2, [r1, #17]	@ zero_extendqisi2
 9411 0664 0020C3E5 		strb	r2, [r3, #0]
 9412 0668 04319FE5 		ldr	r3, .L453+204
 9413 066c B030D3E1 		ldrh	r3, [r3, #0]
 9414 0670 142091E5 		ldr	r2, [r1, #20]
 9415 0674 000053E3 		cmp	r3, #0
 9416 0678 F8309FE5 		ldr	r3, .L453+208
 9417 067c 002083E5 		str	r2, [r3, #0]
 9418 0680 A601001A 		bne	.L381
 9419 0684 020055E3 		cmp	r5, #2
 9420 0688 A601001A 		bne	.L381
 9421 068c F630D1E1 		ldrsh	r3, [r1, #6]
 9422 0690 870D53E3 		cmp	r3, #8640
 9423 0694 38309FC5 		ldrgt	r3, .L453+44
 9424 0698 0120A0C3 		movgt	r2, #1
 9425 069c 0020C3C5 		strgtb	r2, [r3, #0]
 9426              	.L381:
 9427 06a0 F0689DE8 		ldmfd	sp, {r4, r5, r6, r7, fp, sp, lr}
 9428 06a4 1EFF2FE1 		bx	lr
 9429              	.L454:
 9430              		.align	2
 9431              	.L453:
 9432 06a8 6666E6BF 		.word	-1075419546
 9433 06ac 66666666 		.word	1717986918
 9434 06b0 00000000 		.word	0
 9435 06b4 00000000 		.word	0
 9436 06b8 3333E33F 		.word	1071854387
 9437 06bc 33333333 		.word	858993459
 9438 06c0 00000000 		.word	uart0_rx_insert_idx
 9439 06c4 00000000 		.word	uart0_rx_extract_idx
 9440 06c8 00000000 		.word	gps_msg_received
 9441 06cc 00000000 		.word	uart0_rx_buffer
 9442 06d0 00000000 		.word	gps_pos_available
 9443 06d4 00000000 		.word	launch
 9444 06d8 00000000 		.word	gps_mode
 9445 06dc 00000000 		.word	gps_verbose_downlink
 9446 06e0 00000000 		.word	cpu_time_sec
 9447 06e4 00000000 		.word	last_gps_msg_t
 9448 06e8 008002E0 		.word	-536707072
 9449 06ec 00000000 		.word	uart1_rx_insert_idx
 9450 06f0 00000000 		.word	uart1_rx_extract_idx
 9451 06f4 00000000 		.word	pprz_msg_received
 9452 06f8 00000000 		.word	pprz_status.0
 9453 06fc 00000000 		.word	uart1_rx_buffer
 9454 0700 00000000 		.word	pprz_ovrn
 9455 0704 00000000 		.word	pprz_payload_len
 9456 0708 00000000 		.word	_ck_a.1
 9457 070c 00000000 		.word	payload_idx.3
 9458 0710 00000000 		.word	_ck_b.2
 9459 0714 00000000 		.word	pprz_payload
 9460 0718 00000000 		.word	pprz_error
 9461 071c 00000000 		.word	dl_buffer
 9462 0720 00000000 		.word	dl_msg_available
 9463 0724 00000000 		.word	inter_mcu_received_fbw
 9464 0728 00000000 		.word	fbw_state
 9465 072c 00000000 		.word	pprz_mode
 9466 0730 00000000 		.word	too_far_from_home
 9467 0734 00000000 		.word	mcu1_status
 9468 0738 00000000 		.word	downlink_nb_ovrn
 9469 073c 00000000 		.word	downlink_nb_bytes
 9470 0740 00000000 		.word	downlink_nb_msgs
 9471 0744 00000000 		.word	ck_a
 9472 0748 00000000 		.word	ck_b
 9473 074c 00000000 		.word	v_ctl_mode
 9474 0750 00000000 		.word	lateral_mode
 9475 0754 00000000 		.word	horizontal_mode
 9476 0758 00000000 		.word	rc_settings_mode
 9477 075c 00001646 		.word	1175846912
 9478 0760 00000000 		.word	h_ctl_roll_setpoint
 9479 0764 00000000 		.word	h_ctl_pitch_setpoint
 9480 0768 00000000 		.word	v_ctl_throttle_setpoint
 9481 076c 00000000 		.word	mcu1_ppm_cpt
 9482 0770 00000000 		.word	vsupply
 9483 0774 00000000 		.word	estimator_flight_time
 9484 0778 00000000 		.word	current
 9486              		.global	vsupply
 9487              		.section	.bss.vsupply,"aw",%nobits
 9490              	vsupply:
 9491 0000 00       		.space	1
 9492              		.global	slider_1_val
 9493              		.section	.bss.slider_1_val,"aw",%nobits
 9494              		.align	2
 9497              	slider_1_val:
 9498 0000 00000000 		.space	4
 9499              		.global	slider_2_val
 9500              		.section	.bss.slider_2_val,"aw",%nobits
 9501              		.align	2
 9504              	slider_2_val:
 9505 0000 00000000 		.space	4
 9506              		.global	power_switch
 9507              		.section	.bss.power_switch,"aw",%nobits
 9510              	power_switch:
 9511 0000 00       		.space	1
 9512              		.section	.bss.mcu1_status,"aw",%nobits
 9515              	mcu1_status:
 9516 0000 00       		.space	1
 9517              		.section	.bss.mcu1_ppm_cpt,"aw",%nobits
 9520              	mcu1_ppm_cpt:
 9521 0000 00       		.space	1
 9522              		.section	.bss.current,"aw",%nobits
 9523              		.align	2
 9526              	current:
 9527 0000 00000000 		.space	4
 9528              		.global	energy
 9529              		.section	.bss.energy,"aw",%nobits
 9530              		.align	2
 9533              	energy:
 9534 0000 00000000 		.space	4
 9535              		.ident	"GCC: (GNU) 3.4.4"
DEFINED SYMBOLS
                            *ABS*:00000000 main_ap.c
     /tmp/ccVGYZ0n.s:6      .data.ac_ident:00000000 ac_ident
     /tmp/ccVGYZ0n.s:12     .data.gps_lost:00000000 gps_lost
     /tmp/ccVGYZ0n.s:18     .data.launch:00000000 launch
     /tmp/ccVGYZ0n.s:24     .data.kill_throttle:00000000 kill_throttle
     /tmp/ccVGYZ0n.s:30     .data.lateral_mode:00000000 lateral_mode
     /tmp/ccVGYZ0n.s:36     .data.pprz_mode:00000000 pprz_mode
     /tmp/ccVGYZ0n.s:42     .data.fatal_error_nb:00000000 fatal_error_nb
     /tmp/ccVGYZ0n.s:48     .data.rc_settings_mode:00000000 rc_settings_mode
     /tmp/ccVGYZ0n.s:54     .rodata.version:00000000 version
     /tmp/ccVGYZ0n.s:59     .bss.last_pprz_mode.55:00000000 last_pprz_mode.55
     /tmp/ccVGYZ0n.s:77     .text.navigation_task:00000000 navigation_task
     /tmp/ccVGYZ0n.s:81     .text.navigation_task:00000000 $a
     /tmp/ccVGYZ0n.s:337    .text.navigation_task:000003e4 $d
     /tmp/ccVGYZ0n.s:9515   .bss.mcu1_status:00000000 mcu1_status
     /tmp/ccVGYZ0n.s:9490   .bss.vsupply:00000000 vsupply
     /tmp/ccVGYZ0n.s:367    .text.navigation_task:00000458 $a
     /tmp/ccVGYZ0n.s:729    .text.navigation_task:000009c4 $d
     /tmp/ccVGYZ0n.s:9526   .bss.current:00000000 current
     /tmp/ccVGYZ0n.s:9533   .bss.energy:00000000 energy
     /tmp/ccVGYZ0n.s:746    .data._60Hz.4:00000000 _60Hz.4
     /tmp/ccVGYZ0n.s:751    .data._20Hz.5:00000000 _20Hz.5
     /tmp/ccVGYZ0n.s:756    .data._10Hz.6:00000000 _10Hz.6
     /tmp/ccVGYZ0n.s:761    .data._4Hz.7:00000000 _4Hz.7
     /tmp/ccVGYZ0n.s:766    .data._1Hz.8:00000000 _1Hz.8
     /tmp/ccVGYZ0n.s:771    .data.boot.10:00000000 boot.10
     /tmp/ccVGYZ0n.s:776    .data.i15.11:00000000 i15.11
     /tmp/ccVGYZ0n.s:781    .data.i30.12:00000000 i30.12
     /tmp/ccVGYZ0n.s:786    .data.i60.13:00000000 i60.13
     /tmp/ccVGYZ0n.s:791    .data.i63.14:00000000 i63.14
     /tmp/ccVGYZ0n.s:796    .data.i66.15:00000000 i66.15
     /tmp/ccVGYZ0n.s:801    .data.i72.16:00000000 i72.16
     /tmp/ccVGYZ0n.s:806    .data.i90.17:00000000 i90.17
     /tmp/ccVGYZ0n.s:811    .data.i120.18:00000000 i120.18
     /tmp/ccVGYZ0n.s:816    .data.i126.19:00000000 i126.19
     /tmp/ccVGYZ0n.s:821    .data.i150.20:00000000 i150.20
     /tmp/ccVGYZ0n.s:827    .data.i300.21:00000000 i300.21
     /tmp/ccVGYZ0n.s:833    .data.i306.22:00000000 i306.22
     /tmp/ccVGYZ0n.s:839    .data.i540.23:00000000 i540.23
     /tmp/ccVGYZ0n.s:844    .bss.i.24:00000000 i.24
     /tmp/ccVGYZ0n.s:850    .bss.i.25:00000000 i.25
     /tmp/ccVGYZ0n.s:856    .bss.last.26:00000000 last.26
     /tmp/ccVGYZ0n.s:861    .data.i63.27:00000000 i63.27
     /tmp/ccVGYZ0n.s:866    .data.i66.28:00000000 i66.28
     /tmp/ccVGYZ0n.s:871    .data.i78.29:00000000 i78.29
     /tmp/ccVGYZ0n.s:876    .data.i84.30:00000000 i84.30
     /tmp/ccVGYZ0n.s:881    .data.i90.31:00000000 i90.31
     /tmp/ccVGYZ0n.s:886    .data.i126.32:00000000 i126.32
     /tmp/ccVGYZ0n.s:891    .data.i180.33:00000000 i180.33
     /tmp/ccVGYZ0n.s:896    .data.i183.34:00000000 i183.34
     /tmp/ccVGYZ0n.s:901    .data.i192.35:00000000 i192.35
     /tmp/ccVGYZ0n.s:906    .data.i240.36:00000000 i240.36
     /tmp/ccVGYZ0n.s:911    .data.i243.37:00000000 i243.37
     /tmp/ccVGYZ0n.s:917    .data.i300.38:00000000 i300.38
     /tmp/ccVGYZ0n.s:923    .data.i306.39:00000000 i306.39
     /tmp/ccVGYZ0n.s:929    .data.i312.40:00000000 i312.40
     /tmp/ccVGYZ0n.s:935    .data.i540.41:00000000 i540.41
     /tmp/ccVGYZ0n.s:941    .data.i606.42:00000000 i606.42
     /tmp/ccVGYZ0n.s:946    .bss.i.43:00000000 i.43
     /tmp/ccVGYZ0n.s:951    .bss.i.44:00000000 i.44
     /tmp/ccVGYZ0n.s:957    .bss.last.45:00000000 last.45
     /tmp/ccVGYZ0n.s:963    .data.i300.46:00000000 i300.46
     /tmp/ccVGYZ0n.s:969    .data.i306.47:00000000 i306.47
     /tmp/ccVGYZ0n.s:975    .data.i318.48:00000000 i318.48
     /tmp/ccVGYZ0n.s:981    .data.i324.49:00000000 i324.49
     /tmp/ccVGYZ0n.s:987    .data.i330.50:00000000 i330.50
     /tmp/ccVGYZ0n.s:993    .data.i342.51:00000000 i342.51
     /tmp/ccVGYZ0n.s:999    .data.i606.52:00000000 i606.52
     /tmp/ccVGYZ0n.s:1005   .data.i612.53:00000000 i612.53
     /tmp/ccVGYZ0n.s:1011   .bss.last.54:00000000 last.54
     /tmp/ccVGYZ0n.s:1016   .data.t.9:00000000 t.9
     /tmp/ccVGYZ0n.s:1028   .text.periodic_task_ap:00000000 periodic_task_ap
     /tmp/ccVGYZ0n.s:1032   .text.periodic_task_ap:00000000 $a
     /tmp/ccVGYZ0n.s:1670   .text.periodic_task_ap:000009d0 $d
     /tmp/ccVGYZ0n.s:1742   .text.periodic_task_ap:00000aec $a
     /tmp/ccVGYZ0n.s:3057   .text.periodic_task_ap:00001f38 $d
     /tmp/ccVGYZ0n.s:3070   .text.periodic_task_ap:00001f68 $a
     /tmp/ccVGYZ0n.s:3648   .text.periodic_task_ap:00002804 $d
     /tmp/ccVGYZ0n.s:3700   .text.periodic_task_ap:000028d0 $a
     /tmp/ccVGYZ0n.s:4348   .text.periodic_task_ap:000032bc $d
     /tmp/ccVGYZ0n.s:4408   .text.periodic_task_ap:000033a8 $a
     /tmp/ccVGYZ0n.s:5039   .text.periodic_task_ap:00003d6c $d
     /tmp/ccVGYZ0n.s:5052   .text.periodic_task_ap:00003d9c $a
     /tmp/ccVGYZ0n.s:5672   .text.periodic_task_ap:000046e0 $d
     /tmp/ccVGYZ0n.s:5720   .text.periodic_task_ap:0000479c $a
     /tmp/ccVGYZ0n.s:6913   .text.periodic_task_ap:00005a08 $d
     /tmp/ccVGYZ0n.s:6955   .text.periodic_task_ap:00005aac $a
     /tmp/ccVGYZ0n.s:7992   .text.periodic_task_ap:00006aac $d
     /tmp/ccVGYZ0n.s:8036   .text.periodic_task_ap:00006b58 $a
     /tmp/ccVGYZ0n.s:8875   .text.periodic_task_ap:00007840 $d
     /tmp/ccVGYZ0n.s:8903   .text.init_ap:00000000 init_ap
     /tmp/ccVGYZ0n.s:8907   .text.init_ap:00000000 $a
     /tmp/ccVGYZ0n.s:8938   .text.init_ap:0000006c $d
     /tmp/ccVGYZ0n.s:9510   .bss.power_switch:00000000 power_switch
     /tmp/ccVGYZ0n.s:8945   .data.pprz_status.0:00000000 pprz_status.0
     /tmp/ccVGYZ0n.s:8950   .bss._ck_a.1:00000000 _ck_a.1
     /tmp/ccVGYZ0n.s:8955   .bss._ck_b.2:00000000 _ck_b.2
     /tmp/ccVGYZ0n.s:8960   .bss.payload_idx.3:00000000 payload_idx.3
     /tmp/ccVGYZ0n.s:8967   .text.event_task_ap:00000000 event_task_ap
     /tmp/ccVGYZ0n.s:8971   .text.event_task_ap:00000000 $a
     /tmp/ccVGYZ0n.s:9060   .text.event_task_ap:00000148 $d
     /tmp/ccVGYZ0n.s:9066   .text.event_task_ap:0000015c $a
     /tmp/ccVGYZ0n.s:9432   .text.event_task_ap:000006a8 $d
     /tmp/ccVGYZ0n.s:9520   .bss.mcu1_ppm_cpt:00000000 mcu1_ppm_cpt
     /tmp/ccVGYZ0n.s:9497   .bss.slider_1_val:00000000 slider_1_val
     /tmp/ccVGYZ0n.s:9504   .bss.slider_2_val:00000000 slider_2_val

UNDEFINED SYMBOLS
__extendsfdf2
__divdf3
__fixunsdfsi
__floatsidf
__gtdf2
__floatsisf
__addsf3
__muldf3
__fixdfsi
__gtsf2
__ltsf2
__divsf3
__mulsf3
uart1_check_free_space
uart1_transmit
common_nav_periodic_task_4Hz
nav_home
nav_without_gps
cpu_time_sec
last_gps_msg_t
horizontal_mode
nav_circle_radians
downlink_nb_ovrn
downlink_nb_bytes
downlink_nb_msgs
ck_a
ck_b
nav_block
nav_stage
estimator_x
estimator_y
dist2_to_wp
dist2_to_home
nav_oval_count
v_ctl_mode
nav_throttle_setpoint
v_ctl_throttle_setpoint
nav_periodic_task
v_ctl_altitude_loop
h_ctl_course_loop
v_ctl_climb_loop
nav_pitch
h_ctl_pitch_setpoint
estimator_flight_time
__fixsfsi
__ltdf2
gps_send
telemetry_mode_Ap_DefaultChannel
estimator_phi
estimator_psi
estimator_theta
estimator_z
estimator_z_dot
nb_waypoint
nav_utm_east0
waypoints
nav_utm_north0
nav_utm_zone0
nav_in_circle
nav_circle_x
nav_circle_y
nav_circle_radius
h_ctl_roll_setpoint
h_ctl_pitch_loop_setpoint
h_ctl_course_setpoint
desired_x
desired_y
v_ctl_altitude_setpoint
v_ctl_climb_setpoint
v_ctl_throttle_slewed
block_time
stage_time
roll_rate_adc
estimator_p
temp_comp
nav_in_segment
nav_segment_x_1
nav_segment_y_1
nav_segment_x_2
nav_segment_y_2
infrared
flight_altitude
nav_course
nav_shift
nav_radius
gps_reset
gps_Pacc
gps_Sacc
gps_PDOP
gps_numSV
v_ctl_auto_throttle_sum_err
v_ctl_auto_throttle_submode
nav_survey_active
nav_survey_east
nav_survey_north
nav_survey_west
nav_survey_south
datalink_time
estimator_propagate_state
gyro_update
infrared_update
estimator_update_state_infrared
h_ctl_attitude_loop
v_ctl_throttle_slew
estimator_hspeed_mod
ap_state
h_ctl_aileron_setpoint
h_ctl_elevator_setpoint
inter_mcu_received_ap
__adddf3
infrared_init
gyro_init
gps_init
h_ctl_init
v_ctl_init
estimator_init
alt_kalman_init
nav_init
settings_init
enableIRQ
traffic_info_init
__truncdfsf2
infrared_event
parse_ubx
parse_gps_msg
estimator_update_state_gps
gps_downlink
dl_parse_msg
uart0_rx_insert_idx
uart0_rx_extract_idx
gps_msg_received
uart0_rx_buffer
gps_pos_available
gps_mode
gps_verbose_downlink
uart1_rx_insert_idx
uart1_rx_extract_idx
pprz_msg_received
uart1_rx_buffer
pprz_ovrn
pprz_payload_len
pprz_payload
pprz_error
dl_buffer
dl_msg_available
inter_mcu_received_fbw
fbw_state
too_far_from_home
