Archive member included because of file (symbol)

/usr/lib/gcc/arm-elf/3.4.4/../../../../arm-elf/lib/thumb/interwork/libm.a(s_atan.o)
                              /home/excelobs/paparazzi/var/KMUAV_XB_AS_IMU/ap/./latlong.o (atan)
/usr/lib/gcc/arm-elf/3.4.4/../../../../arm-elf/lib/thumb/interwork/libm.a(s_cos.o)
                              /home/excelobs/paparazzi/var/KMUAV_XB_AS_IMU/ap/./latlong.o (cos)
/usr/lib/gcc/arm-elf/3.4.4/../../../../arm-elf/lib/thumb/interwork/libm.a(s_fabs.o)
                              /usr/lib/gcc/arm-elf/3.4.4/../../../../arm-elf/lib/thumb/interwork/libm.a(s_atan.o) (fabs)
/usr/lib/gcc/arm-elf/3.4.4/../../../../arm-elf/lib/thumb/interwork/libm.a(s_sin.o)
                              /home/excelobs/paparazzi/var/KMUAV_XB_AS_IMU/ap/./latlong.o (sin)
/usr/lib/gcc/arm-elf/3.4.4/../../../../arm-elf/lib/thumb/interwork/libm.a(s_tan.o)
                              /home/excelobs/paparazzi/var/KMUAV_XB_AS_IMU/ap/./latlong.o (tan)
/usr/lib/gcc/arm-elf/3.4.4/../../../../arm-elf/lib/thumb/interwork/libm.a(sf_cos.o)
                              /home/excelobs/paparazzi/var/KMUAV_XB_AS_IMU/ap/./estimator.o (cosf)
/usr/lib/gcc/arm-elf/3.4.4/../../../../arm-elf/lib/thumb/interwork/libm.a(sf_sin.o)
                              /home/excelobs/paparazzi/var/KMUAV_XB_AS_IMU/ap/./estimator.o (sinf)
/usr/lib/gcc/arm-elf/3.4.4/../../../../arm-elf/lib/thumb/interwork/libm.a(w_asin.o)
                              /home/excelobs/paparazzi/var/KMUAV_XB_AS_IMU/ap/./latlong.o (asin)
/usr/lib/gcc/arm-elf/3.4.4/../../../../arm-elf/lib/thumb/interwork/libm.a(w_atan2.o)
                              /home/excelobs/paparazzi/var/KMUAV_XB_AS_IMU/ap/./estimator.o (atan2)
/usr/lib/gcc/arm-elf/3.4.4/../../../../arm-elf/lib/thumb/interwork/libm.a(w_cosh.o)
                              /home/excelobs/paparazzi/var/KMUAV_XB_AS_IMU/ap/./latlong.o (cosh)
/usr/lib/gcc/arm-elf/3.4.4/../../../../arm-elf/lib/thumb/interwork/libm.a(w_exp.o)
                              /home/excelobs/paparazzi/var/KMUAV_XB_AS_IMU/ap/./latlong.o (exp)
/usr/lib/gcc/arm-elf/3.4.4/../../../../arm-elf/lib/thumb/interwork/libm.a(w_log.o)
                              /home/excelobs/paparazzi/var/KMUAV_XB_AS_IMU/ap/./latlong.o (log)
/usr/lib/gcc/arm-elf/3.4.4/../../../../arm-elf/lib/thumb/interwork/libm.a(w_pow.o)
                              /home/excelobs/paparazzi/var/KMUAV_XB_AS_IMU/ap/subsystems/electrical.o (pow)
/usr/lib/gcc/arm-elf/3.4.4/../../../../arm-elf/lib/thumb/interwork/libm.a(w_sinh.o)
                              /home/excelobs/paparazzi/var/KMUAV_XB_AS_IMU/ap/./latlong.o (sinh)
/usr/lib/gcc/arm-elf/3.4.4/../../../../arm-elf/lib/thumb/interwork/libm.a(w_sqrt.o)
                              /home/excelobs/paparazzi/var/KMUAV_XB_AS_IMU/ap/subsystems/nav.o (sqrt)
/usr/lib/gcc/arm-elf/3.4.4/../../../../arm-elf/lib/thumb/interwork/libm.a(wf_atan2.o)
                              /home/excelobs/paparazzi/var/KMUAV_XB_AS_IMU/ap/./estimator.o (atan2f)
/usr/lib/gcc/arm-elf/3.4.4/../../../../arm-elf/lib/thumb/interwork/libm.a(wf_sqrt.o)
                              /home/excelobs/paparazzi/var/KMUAV_XB_AS_IMU/ap/modules/sensors/airspeed_ets.o (sqrtf)
/usr/lib/gcc/arm-elf/3.4.4/../../../../arm-elf/lib/thumb/interwork/libm.a(e_asin.o)
                              /usr/lib/gcc/arm-elf/3.4.4/../../../../arm-elf/lib/thumb/interwork/libm.a(w_asin.o) (__ieee754_asin)
/usr/lib/gcc/arm-elf/3.4.4/../../../../arm-elf/lib/thumb/interwork/libm.a(e_atan2.o)
                              /usr/lib/gcc/arm-elf/3.4.4/../../../../arm-elf/lib/thumb/interwork/libm.a(w_atan2.o) (__ieee754_atan2)
/usr/lib/gcc/arm-elf/3.4.4/../../../../arm-elf/lib/thumb/interwork/libm.a(e_cosh.o)
                              /usr/lib/gcc/arm-elf/3.4.4/../../../../arm-elf/lib/thumb/interwork/libm.a(w_cosh.o) (__ieee754_cosh)
/usr/lib/gcc/arm-elf/3.4.4/../../../../arm-elf/lib/thumb/interwork/libm.a(e_exp.o)
                              /usr/lib/gcc/arm-elf/3.4.4/../../../../arm-elf/lib/thumb/interwork/libm.a(w_exp.o) (__ieee754_exp)
/usr/lib/gcc/arm-elf/3.4.4/../../../../arm-elf/lib/thumb/interwork/libm.a(e_log.o)
                              /usr/lib/gcc/arm-elf/3.4.4/../../../../arm-elf/lib/thumb/interwork/libm.a(w_log.o) (__ieee754_log)
/usr/lib/gcc/arm-elf/3.4.4/../../../../arm-elf/lib/thumb/interwork/libm.a(e_pow.o)
                              /usr/lib/gcc/arm-elf/3.4.4/../../../../arm-elf/lib/thumb/interwork/libm.a(w_pow.o) (__ieee754_pow)
/usr/lib/gcc/arm-elf/3.4.4/../../../../arm-elf/lib/thumb/interwork/libm.a(e_rem_pio2.o)
                              /usr/lib/gcc/arm-elf/3.4.4/../../../../arm-elf/lib/thumb/interwork/libm.a(s_cos.o) (__ieee754_rem_pio2)
/usr/lib/gcc/arm-elf/3.4.4/../../../../arm-elf/lib/thumb/interwork/libm.a(e_sinh.o)
                              /usr/lib/gcc/arm-elf/3.4.4/../../../../arm-elf/lib/thumb/interwork/libm.a(w_sinh.o) (__ieee754_sinh)
/usr/lib/gcc/arm-elf/3.4.4/../../../../arm-elf/lib/thumb/interwork/libm.a(e_sqrt.o)
                              /usr/lib/gcc/arm-elf/3.4.4/../../../../arm-elf/lib/thumb/interwork/libm.a(w_sqrt.o) (__ieee754_sqrt)
/usr/lib/gcc/arm-elf/3.4.4/../../../../arm-elf/lib/thumb/interwork/libm.a(ef_atan2.o)
                              /usr/lib/gcc/arm-elf/3.4.4/../../../../arm-elf/lib/thumb/interwork/libm.a(wf_atan2.o) (__ieee754_atan2f)
/usr/lib/gcc/arm-elf/3.4.4/../../../../arm-elf/lib/thumb/interwork/libm.a(ef_rem_pio2.o)
                              /usr/lib/gcc/arm-elf/3.4.4/../../../../arm-elf/lib/thumb/interwork/libm.a(sf_cos.o) (__ieee754_rem_pio2f)
/usr/lib/gcc/arm-elf/3.4.4/../../../../arm-elf/lib/thumb/interwork/libm.a(ef_sqrt.o)
                              /usr/lib/gcc/arm-elf/3.4.4/../../../../arm-elf/lib/thumb/interwork/libm.a(wf_sqrt.o) (__ieee754_sqrtf)
/usr/lib/gcc/arm-elf/3.4.4/../../../../arm-elf/lib/thumb/interwork/libm.a(k_cos.o)
                              /usr/lib/gcc/arm-elf/3.4.4/../../../../arm-elf/lib/thumb/interwork/libm.a(s_cos.o) (__kernel_cos)
/usr/lib/gcc/arm-elf/3.4.4/../../../../arm-elf/lib/thumb/interwork/libm.a(k_rem_pio2.o)
                              /usr/lib/gcc/arm-elf/3.4.4/../../../../arm-elf/lib/thumb/interwork/libm.a(e_rem_pio2.o) (__kernel_rem_pio2)
/usr/lib/gcc/arm-elf/3.4.4/../../../../arm-elf/lib/thumb/interwork/libm.a(k_sin.o)
                              /usr/lib/gcc/arm-elf/3.4.4/../../../../arm-elf/lib/thumb/interwork/libm.a(s_cos.o) (__kernel_sin)
/usr/lib/gcc/arm-elf/3.4.4/../../../../arm-elf/lib/thumb/interwork/libm.a(k_tan.o)
                              /usr/lib/gcc/arm-elf/3.4.4/../../../../arm-elf/lib/thumb/interwork/libm.a(s_tan.o) (__kernel_tan)
/usr/lib/gcc/arm-elf/3.4.4/../../../../arm-elf/lib/thumb/interwork/libm.a(kf_cos.o)
                              /usr/lib/gcc/arm-elf/3.4.4/../../../../arm-elf/lib/thumb/interwork/libm.a(sf_cos.o) (__kernel_cosf)
/usr/lib/gcc/arm-elf/3.4.4/../../../../arm-elf/lib/thumb/interwork/libm.a(kf_rem_pio2.o)
                              /usr/lib/gcc/arm-elf/3.4.4/../../../../arm-elf/lib/thumb/interwork/libm.a(ef_rem_pio2.o) (__kernel_rem_pio2f)
/usr/lib/gcc/arm-elf/3.4.4/../../../../arm-elf/lib/thumb/interwork/libm.a(kf_sin.o)
                              /usr/lib/gcc/arm-elf/3.4.4/../../../../arm-elf/lib/thumb/interwork/libm.a(sf_cos.o) (__kernel_sinf)
/usr/lib/gcc/arm-elf/3.4.4/../../../../arm-elf/lib/thumb/interwork/libm.a(s_expm1.o)
                              /usr/lib/gcc/arm-elf/3.4.4/../../../../arm-elf/lib/thumb/interwork/libm.a(e_cosh.o) (expm1)
/usr/lib/gcc/arm-elf/3.4.4/../../../../arm-elf/lib/thumb/interwork/libm.a(s_finite.o)
                              /usr/lib/gcc/arm-elf/3.4.4/../../../../arm-elf/lib/thumb/interwork/libm.a(w_exp.o) (finite)
/usr/lib/gcc/arm-elf/3.4.4/../../../../arm-elf/lib/thumb/interwork/libm.a(s_floor.o)
                              /usr/lib/gcc/arm-elf/3.4.4/../../../../arm-elf/lib/thumb/interwork/libm.a(k_rem_pio2.o) (floor)
/usr/lib/gcc/arm-elf/3.4.4/../../../../arm-elf/lib/thumb/interwork/libm.a(s_infconst.o)
                              /usr/lib/gcc/arm-elf/3.4.4/../../../../arm-elf/lib/thumb/interwork/libm.a(w_cosh.o) (__infinity)
/usr/lib/gcc/arm-elf/3.4.4/../../../../arm-elf/lib/thumb/interwork/libm.a(s_isnan.o)
                              /usr/lib/gcc/arm-elf/3.4.4/../../../../arm-elf/lib/thumb/interwork/libm.a(w_asin.o) (isnan)
/usr/lib/gcc/arm-elf/3.4.4/../../../../arm-elf/lib/thumb/interwork/libm.a(s_lib_ver.o)
                              /usr/lib/gcc/arm-elf/3.4.4/../../../../arm-elf/lib/thumb/interwork/libm.a(w_asin.o) (__fdlib_version)
/usr/lib/gcc/arm-elf/3.4.4/../../../../arm-elf/lib/thumb/interwork/libm.a(s_matherr.o)
                              /usr/lib/gcc/arm-elf/3.4.4/../../../../arm-elf/lib/thumb/interwork/libm.a(w_asin.o) (matherr)
/usr/lib/gcc/arm-elf/3.4.4/../../../../arm-elf/lib/thumb/interwork/libm.a(s_rint.o)
                              /usr/lib/gcc/arm-elf/3.4.4/../../../../arm-elf/lib/thumb/interwork/libm.a(w_pow.o) (rint)
/usr/lib/gcc/arm-elf/3.4.4/../../../../arm-elf/lib/thumb/interwork/libm.a(s_scalbn.o)
                              /usr/lib/gcc/arm-elf/3.4.4/../../../../arm-elf/lib/thumb/interwork/libm.a(e_pow.o) (scalbn)
/usr/lib/gcc/arm-elf/3.4.4/../../../../arm-elf/lib/thumb/interwork/libm.a(sf_atan.o)
                              /usr/lib/gcc/arm-elf/3.4.4/../../../../arm-elf/lib/thumb/interwork/libm.a(ef_atan2.o) (atanf)
/usr/lib/gcc/arm-elf/3.4.4/../../../../arm-elf/lib/thumb/interwork/libm.a(sf_fabs.o)
                              /usr/lib/gcc/arm-elf/3.4.4/../../../../arm-elf/lib/thumb/interwork/libm.a(ef_atan2.o) (fabsf)
/usr/lib/gcc/arm-elf/3.4.4/../../../../arm-elf/lib/thumb/interwork/libm.a(sf_floor.o)
                              /usr/lib/gcc/arm-elf/3.4.4/../../../../arm-elf/lib/thumb/interwork/libm.a(kf_rem_pio2.o) (floorf)
/usr/lib/gcc/arm-elf/3.4.4/../../../../arm-elf/lib/thumb/interwork/libm.a(sf_isnan.o)
                              /usr/lib/gcc/arm-elf/3.4.4/../../../../arm-elf/lib/thumb/interwork/libm.a(wf_atan2.o) (isnanf)
/usr/lib/gcc/arm-elf/3.4.4/../../../../arm-elf/lib/thumb/interwork/libm.a(sf_scalbn.o)
                              /usr/lib/gcc/arm-elf/3.4.4/../../../../arm-elf/lib/thumb/interwork/libm.a(kf_rem_pio2.o) (scalbnf)
/usr/lib/gcc/arm-elf/3.4.4/../../../../arm-elf/lib/thumb/interwork/libm.a(s_copysign.o)
                              /usr/lib/gcc/arm-elf/3.4.4/../../../../arm-elf/lib/thumb/interwork/libm.a(s_scalbn.o) (copysign)
/usr/lib/gcc/arm-elf/3.4.4/../../../../arm-elf/lib/thumb/interwork/libm.a(sf_copysign.o)
                              /usr/lib/gcc/arm-elf/3.4.4/../../../../arm-elf/lib/thumb/interwork/libm.a(sf_scalbn.o) (copysignf)
/usr/lib/gcc/arm-elf/3.4.4/../../../../arm-elf/lib/thumb/interwork/libc.a(errno.o)
                              /usr/lib/gcc/arm-elf/3.4.4/../../../../arm-elf/lib/thumb/interwork/libm.a(w_asin.o) (__errno)
/usr/lib/gcc/arm-elf/3.4.4/../../../../arm-elf/lib/thumb/interwork/libc.a(impure.o)
                              /usr/lib/gcc/arm-elf/3.4.4/../../../../arm-elf/lib/thumb/interwork/libc.a(errno.o) (_impure_ptr)
/usr/lib/gcc/arm-elf/3.4.4/thumb/interwork/libgcc.a(_udivsi3.o)
                              /home/excelobs/paparazzi/var/KMUAV_XB_AS_IMU/ap/subsystems/electrical.o (__udivsi3)
/usr/lib/gcc/arm-elf/3.4.4/thumb/interwork/libgcc.a(_divsi3.o)
                              /home/excelobs/paparazzi/var/KMUAV_XB_AS_IMU/ap/firmwares/fixedwing/main_fbw.o (__divsi3)
/usr/lib/gcc/arm-elf/3.4.4/thumb/interwork/libgcc.a(_dvmd_tls.o)
                              /usr/lib/gcc/arm-elf/3.4.4/thumb/interwork/libgcc.a(_udivsi3.o) (__div0)
/usr/lib/gcc/arm-elf/3.4.4/thumb/interwork/libgcc.a(_addsubdf3.o)
                              /home/excelobs/paparazzi/var/KMUAV_XB_AS_IMU/ap/subsystems/electrical.o (__subdf3)
/usr/lib/gcc/arm-elf/3.4.4/thumb/interwork/libgcc.a(_muldivdf3.o)
                              /home/excelobs/paparazzi/var/KMUAV_XB_AS_IMU/ap/firmwares/fixedwing/main_fbw.o (__muldf3)
/usr/lib/gcc/arm-elf/3.4.4/thumb/interwork/libgcc.a(_cmpdf2.o)
                              /home/excelobs/paparazzi/var/KMUAV_XB_AS_IMU/ap/firmwares/fixedwing/main_ap.o (__gtdf2)
/usr/lib/gcc/arm-elf/3.4.4/thumb/interwork/libgcc.a(_fixdfsi.o)
                              /home/excelobs/paparazzi/var/KMUAV_XB_AS_IMU/ap/subsystems/electrical.o (__fixdfsi)
/usr/lib/gcc/arm-elf/3.4.4/thumb/interwork/libgcc.a(_fixunsdfsi.o)
                              /home/excelobs/paparazzi/var/KMUAV_XB_AS_IMU/ap/firmwares/fixedwing/main_fbw.o (__fixunsdfsi)
/usr/lib/gcc/arm-elf/3.4.4/thumb/interwork/libgcc.a(_truncdfsf2.o)
                              /home/excelobs/paparazzi/var/KMUAV_XB_AS_IMU/ap/firmwares/fixedwing/main_fbw.o (__truncdfsf2)
/usr/lib/gcc/arm-elf/3.4.4/thumb/interwork/libgcc.a(_addsubsf3.o)
                              /home/excelobs/paparazzi/var/KMUAV_XB_AS_IMU/ap/./estimator.o (__subsf3)
/usr/lib/gcc/arm-elf/3.4.4/thumb/interwork/libgcc.a(_muldivsf3.o)
                              /home/excelobs/paparazzi/var/KMUAV_XB_AS_IMU/ap/subsystems/electrical.o (__mulsf3)
/usr/lib/gcc/arm-elf/3.4.4/thumb/interwork/libgcc.a(_cmpsf2.o)
                              /home/excelobs/paparazzi/var/KMUAV_XB_AS_IMU/ap/firmwares/fixedwing/main_fbw.o (__gtsf2)
/usr/lib/gcc/arm-elf/3.4.4/thumb/interwork/libgcc.a(_fixsfsi.o)
                              /home/excelobs/paparazzi/var/KMUAV_XB_AS_IMU/ap/firmwares/fixedwing/main_fbw.o (__fixsfsi)
/usr/lib/gcc/arm-elf/3.4.4/thumb/interwork/libgcc.a(_fixunssfsi.o)
                              /home/excelobs/paparazzi/var/KMUAV_XB_AS_IMU/ap/firmwares/fixedwing/datalink.o (__fixunssfsi)

Memory Configuration

Name             Origin             Length             Attributes
ROM              0x00004000         0x00078000         xr
RAM              0x40000000         0x00007fe0         rw
*default*        0x00000000         0xffffffff

Linker script and memory map

LOAD /home/excelobs/paparazzi/var/KMUAV_XB_AS_IMU/ap/crt0.o
LOAD /home/excelobs/paparazzi/var/KMUAV_XB_AS_IMU/ap/mcu.o
LOAD /home/excelobs/paparazzi/var/KMUAV_XB_AS_IMU/ap/arch/lpc21/mcu_arch.o
LOAD /home/excelobs/paparazzi/var/KMUAV_XB_AS_IMU/ap/sys_time.o
LOAD /home/excelobs/paparazzi/var/KMUAV_XB_AS_IMU/ap/./inter_mcu.o
LOAD /home/excelobs/paparazzi/var/KMUAV_XB_AS_IMU/ap/firmwares/fixedwing/main_fbw.o
LOAD /home/excelobs/paparazzi/var/KMUAV_XB_AS_IMU/ap/subsystems/electrical.o
LOAD /home/excelobs/paparazzi/var/KMUAV_XB_AS_IMU/ap/./commands.o
LOAD /home/excelobs/paparazzi/var/KMUAV_XB_AS_IMU/ap/firmwares/fixedwing/main_ap.o
LOAD /home/excelobs/paparazzi/var/KMUAV_XB_AS_IMU/ap/./estimator.o
LOAD /home/excelobs/paparazzi/var/KMUAV_XB_AS_IMU/ap/arch/lpc21/armVIC.o
LOAD /home/excelobs/paparazzi/var/KMUAV_XB_AS_IMU/ap/firmwares/fixedwing/main.o
LOAD /home/excelobs/paparazzi/var/KMUAV_XB_AS_IMU/ap/arch/lpc21/sys_time_hw.o
LOAD /home/excelobs/paparazzi/var/KMUAV_XB_AS_IMU/ap/arch/lpc21/mcu_periph/uart_arch.o
LOAD /home/excelobs/paparazzi/var/KMUAV_XB_AS_IMU/ap/subsystems/settings.o
LOAD /home/excelobs/paparazzi/var/KMUAV_XB_AS_IMU/ap/arch/lpc21/subsystems/settings_arch.o
LOAD /home/excelobs/paparazzi/var/KMUAV_XB_AS_IMU/ap/arch/lpc21/mcu_periph/adc_arch.o
LOAD /home/excelobs/paparazzi/var/KMUAV_XB_AS_IMU/ap/arch/lpc21/servos_4017_hw.o
LOAD /home/excelobs/paparazzi/var/KMUAV_XB_AS_IMU/ap/actuators.o
LOAD /home/excelobs/paparazzi/var/KMUAV_XB_AS_IMU/ap/subsystems/radio_control.o
LOAD /home/excelobs/paparazzi/var/KMUAV_XB_AS_IMU/ap/subsystems/radio_control/ppm.o
LOAD /home/excelobs/paparazzi/var/KMUAV_XB_AS_IMU/ap/arch/lpc21/subsystems/radio_control/ppm_arch.o
LOAD /home/excelobs/paparazzi/var/KMUAV_XB_AS_IMU/ap/./downlink.o
LOAD /home/excelobs/paparazzi/var/KMUAV_XB_AS_IMU/ap/firmwares/fixedwing/datalink.o
LOAD /home/excelobs/paparazzi/var/KMUAV_XB_AS_IMU/ap/./pprz_transport.o
LOAD /home/excelobs/paparazzi/var/KMUAV_XB_AS_IMU/ap/firmwares/fixedwing/stabilization/stabilization_attitude.o
LOAD /home/excelobs/paparazzi/var/KMUAV_XB_AS_IMU/ap/firmwares/fixedwing/guidance/guidance_v.o
LOAD /home/excelobs/paparazzi/var/KMUAV_XB_AS_IMU/ap/./gps_ubx.o
LOAD /home/excelobs/paparazzi/var/KMUAV_XB_AS_IMU/ap/./gps.o
LOAD /home/excelobs/paparazzi/var/KMUAV_XB_AS_IMU/ap/./latlong.o
LOAD /home/excelobs/paparazzi/var/KMUAV_XB_AS_IMU/ap/mcu_periph/i2c.o
LOAD /home/excelobs/paparazzi/var/KMUAV_XB_AS_IMU/ap/arch/lpc21/mcu_periph/i2c_arch.o
LOAD /home/excelobs/paparazzi/var/KMUAV_XB_AS_IMU/ap/subsystems/nav.o
LOAD /home/excelobs/paparazzi/var/KMUAV_XB_AS_IMU/ap/subsystems/navigation/traffic_info.o
LOAD /home/excelobs/paparazzi/var/KMUAV_XB_AS_IMU/ap/subsystems/navigation/nav_survey_rectangle.o
LOAD /home/excelobs/paparazzi/var/KMUAV_XB_AS_IMU/ap/subsystems/navigation/nav_line.o
LOAD /home/excelobs/paparazzi/var/KMUAV_XB_AS_IMU/ap/modules/sensors/airspeed_ets.o
LOAD /home/excelobs/paparazzi/var/KMUAV_XB_AS_IMU/ap/modules/ins/ins_arduimu_basic.o
LOAD /usr/lib/gcc/arm-elf/3.4.4/../../../../arm-elf/lib/thumb/interwork/libc.a
LOAD /usr/lib/gcc/arm-elf/3.4.4/../../../../arm-elf/lib/thumb/interwork/libm.a
LOAD /usr/lib/gcc/arm-elf/3.4.4/../../../../arm-elf/lib/thumb/interwork/libc.a
LOAD /usr/lib/gcc/arm-elf/3.4.4/thumb/interwork/libgcc.a
LOAD /usr/lib/gcc/arm-elf/3.4.4/thumb/interwork/libgcc.a
LOAD /usr/lib/gcc/arm-elf/3.4.4/../../../../arm-elf/lib/thumb/interwork/libc.a
LOAD /usr/lib/gcc/arm-elf/3.4.4/thumb/interwork/libgcc.a
                0x00001000                STACK_SIZE = 0x1000

.text           0x00004000    0x1b992
 *(.init)
 .init          0x00004000      0x13c /home/excelobs/paparazzi/var/KMUAV_XB_AS_IMU/ap/crt0.o
                0x00004114                reset
                0x00004000                _boot
                0x00004050                _mainCRTStartup
                0x00004114                abort
                0x00004050                _start
                0x00004114                _reset
                0x00004114                exit
                0x00004050                start
 *(.text .text.*)
 .text.mcu_init
                0x0000413c       0x98 /home/excelobs/paparazzi/var/KMUAV_XB_AS_IMU/ap/mcu.o
                0x0000413c                mcu_init
 .text.mcu_arch_init
                0x000041d4       0x94 /home/excelobs/paparazzi/var/KMUAV_XB_AS_IMU/ap/arch/lpc21/mcu_arch.o
                0x000041d4                mcu_arch_init
 .text.init_fbw
                0x00004268      0x134 /home/excelobs/paparazzi/var/KMUAV_XB_AS_IMU/ap/firmwares/fixedwing/main_fbw.o
                0x00004268                init_fbw
 .text.event_task_fbw
                0x0000439c      0x8d0 /home/excelobs/paparazzi/var/KMUAV_XB_AS_IMU/ap/firmwares/fixedwing/main_fbw.o
                0x0000439c                event_task_fbw
 .text.periodic_task_fbw
                0x00004c6c      0xd1c /home/excelobs/paparazzi/var/KMUAV_XB_AS_IMU/ap/firmwares/fixedwing/main_fbw.o
                0x00004c6c                periodic_task_fbw
 .text.electrical_init
                0x00005988       0x4c /home/excelobs/paparazzi/var/KMUAV_XB_AS_IMU/ap/subsystems/electrical.o
                0x00005988                electrical_init
 .text.electrical_periodic
                0x000059d4      0x184 /home/excelobs/paparazzi/var/KMUAV_XB_AS_IMU/ap/subsystems/electrical.o
                0x000059d4                electrical_periodic
 .text.navigation_task
                0x00005b58      0x9f8 /home/excelobs/paparazzi/var/KMUAV_XB_AS_IMU/ap/firmwares/fixedwing/main_ap.o
 .text.periodic_task_ap
                0x00006550     0x7920 /home/excelobs/paparazzi/var/KMUAV_XB_AS_IMU/ap/firmwares/fixedwing/main_ap.o
                0x00006550                periodic_task_ap
 .text.init_ap  0x0000de70       0x78 /home/excelobs/paparazzi/var/KMUAV_XB_AS_IMU/ap/firmwares/fixedwing/main_ap.o
                0x0000de70                init_ap
 .text.event_task_ap
                0x0000dee8      0x790 /home/excelobs/paparazzi/var/KMUAV_XB_AS_IMU/ap/firmwares/fixedwing/main_ap.o
                0x0000dee8                event_task_ap
 .text.alt_kalman
                0x0000e678      0x240 /home/excelobs/paparazzi/var/KMUAV_XB_AS_IMU/ap/./estimator.o
                0x0000e678                alt_kalman
 .text.estimator_init
                0x0000e8b8       0xe4 /home/excelobs/paparazzi/var/KMUAV_XB_AS_IMU/ap/./estimator.o
                0x0000e8b8                estimator_init
 .text.estimator_propagate_state
                0x0000e99c        0x4 /home/excelobs/paparazzi/var/KMUAV_XB_AS_IMU/ap/./estimator.o
                0x0000e99c                estimator_propagate_state
 .text.alt_kalman_reset
                0x0000e9a0       0x24 /home/excelobs/paparazzi/var/KMUAV_XB_AS_IMU/ap/./estimator.o
                0x0000e9a0                alt_kalman_reset
 .text.alt_kalman_init
                0x0000e9c4       0x14 /home/excelobs/paparazzi/var/KMUAV_XB_AS_IMU/ap/./estimator.o
                0x0000e9c4                alt_kalman_init
 .text.estimator_update_state_gps
                0x0000e9d8      0x240 /home/excelobs/paparazzi/var/KMUAV_XB_AS_IMU/ap/./estimator.o
                0x0000e9d8                estimator_update_state_gps
 .text.disableIRQ
                0x0000ec18       0x10 /home/excelobs/paparazzi/var/KMUAV_XB_AS_IMU/ap/arch/lpc21/armVIC.o
                0x0000ec18                disableIRQ
 .text.restoreIRQ
                0x0000ec28       0x1c /home/excelobs/paparazzi/var/KMUAV_XB_AS_IMU/ap/arch/lpc21/armVIC.o
                0x0000ec28                restoreIRQ
 .text.enableIRQ
                0x0000ec44       0x10 /home/excelobs/paparazzi/var/KMUAV_XB_AS_IMU/ap/arch/lpc21/armVIC.o
                0x0000ec44                enableIRQ
 .text.main     0x0000ec54       0xe8 /home/excelobs/paparazzi/var/KMUAV_XB_AS_IMU/ap/firmwares/fixedwing/main.o
                0x0000ec54                main
 .text.TIMER0_ISR
                0x0000ed3c      0x1c0 /home/excelobs/paparazzi/var/KMUAV_XB_AS_IMU/ap/arch/lpc21/sys_time_hw.o
                0x0000ed3c                TIMER0_ISR
 .text.uart0_init_param
                0x0000eefc       0xe0 /home/excelobs/paparazzi/var/KMUAV_XB_AS_IMU/ap/arch/lpc21/mcu_periph/uart_arch.o
                0x0000eefc                uart0_init_param
 .text.uart0_init
                0x0000efdc       0x10 /home/excelobs/paparazzi/var/KMUAV_XB_AS_IMU/ap/arch/lpc21/mcu_periph/uart_arch.o
                0x0000efdc                uart0_init
 .text.uart0_ISR
                0x0000efec      0x168 /home/excelobs/paparazzi/var/KMUAV_XB_AS_IMU/ap/arch/lpc21/mcu_periph/uart_arch.o
                0x0000efec                uart0_ISR
 .text.uart1_init_param
                0x0000f154       0xe0 /home/excelobs/paparazzi/var/KMUAV_XB_AS_IMU/ap/arch/lpc21/mcu_periph/uart_arch.o
                0x0000f154                uart1_init_param
 .text.uart1_init
                0x0000f234       0x10 /home/excelobs/paparazzi/var/KMUAV_XB_AS_IMU/ap/arch/lpc21/mcu_periph/uart_arch.o
                0x0000f234                uart1_init
 .text.uart1_check_free_space
                0x0000f244       0x50 /home/excelobs/paparazzi/var/KMUAV_XB_AS_IMU/ap/arch/lpc21/mcu_periph/uart_arch.o
                0x0000f244                uart1_check_free_space
 .text.uart1_transmit
                0x0000f294       0xa4 /home/excelobs/paparazzi/var/KMUAV_XB_AS_IMU/ap/arch/lpc21/mcu_periph/uart_arch.o
                0x0000f294                uart1_transmit
 .text.uart1_ISR
                0x0000f338      0x178 /home/excelobs/paparazzi/var/KMUAV_XB_AS_IMU/ap/arch/lpc21/mcu_periph/uart_arch.o
                0x0000f338                uart1_ISR
 .text.settings_init
                0x0000f4b0        0x4 /home/excelobs/paparazzi/var/KMUAV_XB_AS_IMU/ap/subsystems/settings.o
                0x0000f4b0                settings_init
 .text.adc_buf_channel
                0x0000f4b4       0x18 /home/excelobs/paparazzi/var/KMUAV_XB_AS_IMU/ap/arch/lpc21/mcu_periph/adc_arch.o
                0x0000f4b4                adc_buf_channel
 .text.adc_init
                0x0000f4cc       0x64 /home/excelobs/paparazzi/var/KMUAV_XB_AS_IMU/ap/arch/lpc21/mcu_periph/adc_arch.o
                0x0000f4cc                adc_init
 .text.adcISR1  0x0000f530       0xa8 /home/excelobs/paparazzi/var/KMUAV_XB_AS_IMU/ap/arch/lpc21/mcu_periph/adc_arch.o
                0x0000f530                adcISR1
 .text.actuators_init
                0x0000f5d8       0xc8 /home/excelobs/paparazzi/var/KMUAV_XB_AS_IMU/ap/arch/lpc21/servos_4017_hw.o
                0x0000f5d8                actuators_init
 .text.radio_control_impl_init
                0x0000f6a0       0x28 /home/excelobs/paparazzi/var/KMUAV_XB_AS_IMU/ap/subsystems/radio_control/ppm.o
                0x0000f6a0                radio_control_impl_init
 .text.ppm_arch_init
                0x0000f6c8       0x60 /home/excelobs/paparazzi/var/KMUAV_XB_AS_IMU/ap/arch/lpc21/subsystems/radio_control/ppm_arch.o
                0x0000f6c8                ppm_arch_init
 .text.dl_parse_msg
                0x0000f728     0x15c0 /home/excelobs/paparazzi/var/KMUAV_XB_AS_IMU/ap/firmwares/fixedwing/datalink.o
                0x0000f728                dl_parse_msg
 .text.h_ctl_init
                0x00010ce8      0x13c /home/excelobs/paparazzi/var/KMUAV_XB_AS_IMU/ap/firmwares/fixedwing/stabilization/stabilization_attitude.o
                0x00010ce8                h_ctl_init
 .text.h_ctl_course_loop
                0x00010e24      0x2d8 /home/excelobs/paparazzi/var/KMUAV_XB_AS_IMU/ap/firmwares/fixedwing/stabilization/stabilization_attitude.o
                0x00010e24                h_ctl_course_loop
 .text.h_ctl_attitude_loop
                0x000110fc      0x3ec /home/excelobs/paparazzi/var/KMUAV_XB_AS_IMU/ap/firmwares/fixedwing/stabilization/stabilization_attitude.o
                0x000110fc                h_ctl_attitude_loop
 .text.v_ctl_init
                0x000114e8      0x1d8 /home/excelobs/paparazzi/var/KMUAV_XB_AS_IMU/ap/firmwares/fixedwing/guidance/guidance_v.o
                0x000114e8                v_ctl_init
 .text.v_ctl_altitude_loop
                0x000116c0      0x19c /home/excelobs/paparazzi/var/KMUAV_XB_AS_IMU/ap/firmwares/fixedwing/guidance/guidance_v.o
                0x000116c0                v_ctl_altitude_loop
 .text.v_ctl_climb_loop
                0x0001185c      0x484 /home/excelobs/paparazzi/var/KMUAV_XB_AS_IMU/ap/firmwares/fixedwing/guidance/guidance_v.o
                0x0001185c                v_ctl_climb_loop
 .text.v_ctl_throttle_slew
                0x00011ce0       0xa0 /home/excelobs/paparazzi/var/KMUAV_XB_AS_IMU/ap/firmwares/fixedwing/guidance/guidance_v.o
                0x00011ce0                v_ctl_throttle_slew
 .text.gps_init
                0x00011d80       0x14 /home/excelobs/paparazzi/var/KMUAV_XB_AS_IMU/ap/./gps_ubx.o
                0x00011d80                gps_init
 .text.parse_gps_msg
                0x00011d94      0x4a0 /home/excelobs/paparazzi/var/KMUAV_XB_AS_IMU/ap/./gps_ubx.o
                0x00011d94                parse_gps_msg
 .text.parse_ubx
                0x00012234      0x1cc /home/excelobs/paparazzi/var/KMUAV_XB_AS_IMU/ap/./gps_ubx.o
                0x00012234                parse_ubx
 .text.gps_send
                0x00012400      0x9fc /home/excelobs/paparazzi/var/KMUAV_XB_AS_IMU/ap/./gps.o
                0x00012400                gps_send
 .text.gps_downlink
                0x00012dfc        0x4 /home/excelobs/paparazzi/var/KMUAV_XB_AS_IMU/ap/./gps.o
                0x00012dfc                gps_downlink
 .text.latlong_utm_of
                0x00012e00      0x420 /home/excelobs/paparazzi/var/KMUAV_XB_AS_IMU/ap/./latlong.o
                0x00012e00                latlong_utm_of
 .text.i2c_init
                0x00013220       0x14 /home/excelobs/paparazzi/var/KMUAV_XB_AS_IMU/ap/mcu_periph/i2c.o
                0x00013220                i2c_init
 .text.i2c0_init
                0x00013234       0x24 /home/excelobs/paparazzi/var/KMUAV_XB_AS_IMU/ap/mcu_periph/i2c.o
                0x00013234                i2c0_init
 .text.i2c1_init
                0x00013258       0x24 /home/excelobs/paparazzi/var/KMUAV_XB_AS_IMU/ap/mcu_periph/i2c.o
                0x00013258                i2c1_init
 .text.i2c0_ISR
                0x0001327c      0x2d8 /home/excelobs/paparazzi/var/KMUAV_XB_AS_IMU/ap/arch/lpc21/mcu_periph/i2c_arch.o
                0x0001327c                i2c0_ISR
 .text.i2c0_hw_init
                0x00013554       0x78 /home/excelobs/paparazzi/var/KMUAV_XB_AS_IMU/ap/arch/lpc21/mcu_periph/i2c_arch.o
                0x00013554                i2c0_hw_init
 .text.i2c1_ISR
                0x000135cc      0x2d8 /home/excelobs/paparazzi/var/KMUAV_XB_AS_IMU/ap/arch/lpc21/mcu_periph/i2c_arch.o
                0x000135cc                i2c1_ISR
 .text.i2c1_hw_init
                0x000138a4       0x78 /home/excelobs/paparazzi/var/KMUAV_XB_AS_IMU/ap/arch/lpc21/mcu_periph/i2c_arch.o
                0x000138a4                i2c1_hw_init
 .text.i2c_submit
                0x0001391c       0x84 /home/excelobs/paparazzi/var/KMUAV_XB_AS_IMU/ap/arch/lpc21/mcu_periph/i2c_arch.o
                0x0001391c                i2c_submit
 .text.nav_init_stage
                0x000139a0       0x8c /home/excelobs/paparazzi/var/KMUAV_XB_AS_IMU/ap/subsystems/nav.o
                0x000139a0                nav_init_stage
 .text.fly_to_xy
                0x00013a2c      0x2f0 /home/excelobs/paparazzi/var/KMUAV_XB_AS_IMU/ap/subsystems/nav.o
                0x00013a2c                fly_to_xy
 .text.nav_circle_XY
                0x00013d1c      0x488 /home/excelobs/paparazzi/var/KMUAV_XB_AS_IMU/ap/subsystems/nav.o
                0x00013d1c                nav_circle_XY
 .text.nav_init_block
                0x000141a4       0x38 /home/excelobs/paparazzi/var/KMUAV_XB_AS_IMU/ap/subsystems/nav.o
                0x000141a4                nav_init_block
 .text.nav_update_waypoints_alt
                0x000141dc       0x68 /home/excelobs/paparazzi/var/KMUAV_XB_AS_IMU/ap/subsystems/nav.o
                0x000141dc                nav_update_waypoints_alt
 .text.nav_approaching_xy
                0x00014244      0x104 /home/excelobs/paparazzi/var/KMUAV_XB_AS_IMU/ap/subsystems/nav.o
                0x00014244                nav_approaching_xy
 .text.nav_route_xy
                0x00014348      0x26c /home/excelobs/paparazzi/var/KMUAV_XB_AS_IMU/ap/subsystems/nav.o
                0x00014348                nav_route_xy
 .text.compute_dist2_to_home
                0x000145b4       0xa8 /home/excelobs/paparazzi/var/KMUAV_XB_AS_IMU/ap/subsystems/nav.o
                0x000145b4                compute_dist2_to_home
 .text.nav_reset_reference
                0x0001465c      0x140 /home/excelobs/paparazzi/var/KMUAV_XB_AS_IMU/ap/subsystems/nav.o
                0x0001465c                nav_reset_reference
 .text.nav_goto_block
                0x0001479c       0x44 /home/excelobs/paparazzi/var/KMUAV_XB_AS_IMU/ap/subsystems/nav.o
                0x0001479c                nav_goto_block
 .text.common_nav_periodic_task_4Hz
                0x000147e0       0x54 /home/excelobs/paparazzi/var/KMUAV_XB_AS_IMU/ap/subsystems/nav.o
                0x000147e0                common_nav_periodic_task_4Hz
 .text.nav_move_waypoint
                0x00014834      0x130 /home/excelobs/paparazzi/var/KMUAV_XB_AS_IMU/ap/subsystems/nav.o
                0x00014834                nav_move_waypoint
 .text.nav_set_altitude
                0x00014964       0x68 /home/excelobs/paparazzi/var/KMUAV_XB_AS_IMU/ap/subsystems/nav.o
 .text.nav_home
                0x000149cc       0x90 /home/excelobs/paparazzi/var/KMUAV_XB_AS_IMU/ap/subsystems/nav.o
                0x000149cc                nav_home
 .text.nav_periodic_task
                0x00014a5c      0x7f8 /home/excelobs/paparazzi/var/KMUAV_XB_AS_IMU/ap/subsystems/nav.o
                0x00014a5c                nav_periodic_task
 .text.nav_init
                0x00015254       0x7c /home/excelobs/paparazzi/var/KMUAV_XB_AS_IMU/ap/subsystems/nav.o
                0x00015254                nav_init
 .text.nav_without_gps
                0x000152d0       0x58 /home/excelobs/paparazzi/var/KMUAV_XB_AS_IMU/ap/subsystems/nav.o
                0x000152d0                nav_without_gps
 .text.traffic_info_init
                0x00015328       0x3c /home/excelobs/paparazzi/var/KMUAV_XB_AS_IMU/ap/subsystems/navigation/traffic_info.o
                0x00015328                traffic_info_init
 .text.nav_survey_rectangle_init
                0x00015364      0x5b4 /home/excelobs/paparazzi/var/KMUAV_XB_AS_IMU/ap/subsystems/navigation/nav_survey_rectangle.o
                0x00015364                nav_survey_rectangle_init
 .text.nav_survey_rectangle
                0x00015918      0xa40 /home/excelobs/paparazzi/var/KMUAV_XB_AS_IMU/ap/subsystems/navigation/nav_survey_rectangle.o
                0x00015918                nav_survey_rectangle
 .text.nav_line_init
                0x00016358       0x14 /home/excelobs/paparazzi/var/KMUAV_XB_AS_IMU/ap/subsystems/navigation/nav_line.o
                0x00016358                nav_line_init
 .text.nav_line
                0x0001636c      0xfc8 /home/excelobs/paparazzi/var/KMUAV_XB_AS_IMU/ap/subsystems/navigation/nav_line.o
                0x0001636c                nav_line
 .text.airspeed_ets_init
                0x00017334       0xac /home/excelobs/paparazzi/var/KMUAV_XB_AS_IMU/ap/modules/sensors/airspeed_ets.o
                0x00017334                airspeed_ets_init
 .text.airspeed_ets_read_periodic
                0x000173e0       0x58 /home/excelobs/paparazzi/var/KMUAV_XB_AS_IMU/ap/modules/sensors/airspeed_ets.o
                0x000173e0                airspeed_ets_read_periodic
 .text.airspeed_ets_read_event
                0x00017438      0x1f4 /home/excelobs/paparazzi/var/KMUAV_XB_AS_IMU/ap/modules/sensors/airspeed_ets.o
                0x00017438                airspeed_ets_read_event
 .text.ArduIMU_init
                0x0001762c       0x90 /home/excelobs/paparazzi/var/KMUAV_XB_AS_IMU/ap/modules/ins/ins_arduimu_basic.o
                0x0001762c                ArduIMU_init
 .text.ArduIMU_periodicGPS
                0x000176bc      0x18c /home/excelobs/paparazzi/var/KMUAV_XB_AS_IMU/ap/modules/ins/ins_arduimu_basic.o
                0x000176bc                ArduIMU_periodicGPS
 .text.ArduIMU_periodic
                0x00017848       0x58 /home/excelobs/paparazzi/var/KMUAV_XB_AS_IMU/ap/modules/ins/ins_arduimu_basic.o
                0x00017848                ArduIMU_periodic
 .text.ArduIMU_event
                0x000178a0      0x7a8 /home/excelobs/paparazzi/var/KMUAV_XB_AS_IMU/ap/modules/ins/ins_arduimu_basic.o
                0x000178a0                ArduIMU_event
 .text          0x00018048      0x358 /usr/lib/gcc/arm-elf/3.4.4/../../../../arm-elf/lib/thumb/interwork/libm.a(s_atan.o)
                0x00018048                atan
 .text          0x000183a0       0xb4 /usr/lib/gcc/arm-elf/3.4.4/../../../../arm-elf/lib/thumb/interwork/libm.a(s_cos.o)
                0x000183a0                cos
 .text          0x00018454       0x20 /usr/lib/gcc/arm-elf/3.4.4/../../../../arm-elf/lib/thumb/interwork/libm.a(s_fabs.o)
                0x00018454                fabs
 .text          0x00018474       0xbc /usr/lib/gcc/arm-elf/3.4.4/../../../../arm-elf/lib/thumb/interwork/libm.a(s_sin.o)
                0x00018474                sin
 .text          0x00018530       0x68 /usr/lib/gcc/arm-elf/3.4.4/../../../../arm-elf/lib/thumb/interwork/libm.a(s_tan.o)
                0x00018530                tan
 .text          0x00018598       0x88 /usr/lib/gcc/arm-elf/3.4.4/../../../../arm-elf/lib/thumb/interwork/libm.a(sf_cos.o)
                0x00018598                cosf
 .text          0x00018620       0x8c /usr/lib/gcc/arm-elf/3.4.4/../../../../arm-elf/lib/thumb/interwork/libm.a(sf_sin.o)
                0x00018620                sinf
 .text          0x000186ac       0xb8 /usr/lib/gcc/arm-elf/3.4.4/../../../../arm-elf/lib/thumb/interwork/libm.a(w_asin.o)
                0x000186ac                asin
 .text          0x00018764       0xcc /usr/lib/gcc/arm-elf/3.4.4/../../../../arm-elf/lib/thumb/interwork/libm.a(w_atan2.o)
                0x00018764                atan2
 .text          0x00018830       0xcc /usr/lib/gcc/arm-elf/3.4.4/../../../../arm-elf/lib/thumb/interwork/libm.a(w_cosh.o)
                0x00018830                cosh
 .text          0x000188fc       0xfc /usr/lib/gcc/arm-elf/3.4.4/../../../../arm-elf/lib/thumb/interwork/libm.a(w_exp.o)
                0x000188fc                exp
 .text          0x000189f8       0xf0 /usr/lib/gcc/arm-elf/3.4.4/../../../../arm-elf/lib/thumb/interwork/libm.a(w_log.o)
                0x000189f8                log
 .text          0x00018ae8      0x324 /usr/lib/gcc/arm-elf/3.4.4/../../../../arm-elf/lib/thumb/interwork/libm.a(w_pow.o)
                0x00018ae8                pow
 .text          0x00018e0c      0x118 /usr/lib/gcc/arm-elf/3.4.4/../../../../arm-elf/lib/thumb/interwork/libm.a(w_sinh.o)
                0x00018e0c                sinh
 .text          0x00018f24       0xc8 /usr/lib/gcc/arm-elf/3.4.4/../../../../arm-elf/lib/thumb/interwork/libm.a(w_sqrt.o)
                0x00018f24                sqrt
 .text          0x00018fec       0xc4 /usr/lib/gcc/arm-elf/3.4.4/../../../../arm-elf/lib/thumb/interwork/libm.a(wf_atan2.o)
                0x00018fec                atan2f
 .text          0x000190b0       0xb4 /usr/lib/gcc/arm-elf/3.4.4/../../../../arm-elf/lib/thumb/interwork/libm.a(wf_sqrt.o)
                0x000190b0                sqrtf
 .text          0x00019164      0x418 /usr/lib/gcc/arm-elf/3.4.4/../../../../arm-elf/lib/thumb/interwork/libm.a(e_asin.o)
                0x00019164                __ieee754_asin
 .text          0x0001957c      0x21c /usr/lib/gcc/arm-elf/3.4.4/../../../../arm-elf/lib/thumb/interwork/libm.a(e_atan2.o)
                0x0001957c                __ieee754_atan2
 .text          0x00019798      0x140 /usr/lib/gcc/arm-elf/3.4.4/../../../../arm-elf/lib/thumb/interwork/libm.a(e_cosh.o)
                0x00019798                __ieee754_cosh
 .text          0x000198d8      0x32c /usr/lib/gcc/arm-elf/3.4.4/../../../../arm-elf/lib/thumb/interwork/libm.a(e_exp.o)
                0x000198d8                __ieee754_exp
 .text          0x00019c04      0x44c /usr/lib/gcc/arm-elf/3.4.4/../../../../arm-elf/lib/thumb/interwork/libm.a(e_log.o)
                0x00019c04                __ieee754_log
 .text          0x0001a050      0xb9c /usr/lib/gcc/arm-elf/3.4.4/../../../../arm-elf/lib/thumb/interwork/libm.a(e_pow.o)
                0x0001a050                __ieee754_pow
 .text          0x0001abec      0x4a0 /usr/lib/gcc/arm-elf/3.4.4/../../../../arm-elf/lib/thumb/interwork/libm.a(e_rem_pio2.o)
                0x0001abec                __ieee754_rem_pio2
 .text          0x0001b08c      0x18c /usr/lib/gcc/arm-elf/3.4.4/../../../../arm-elf/lib/thumb/interwork/libm.a(e_sinh.o)
                0x0001b08c                __ieee754_sinh
 .text          0x0001b218      0x1e4 /usr/lib/gcc/arm-elf/3.4.4/../../../../arm-elf/lib/thumb/interwork/libm.a(e_sqrt.o)
                0x0001b218                __ieee754_sqrt
 .text          0x0001b3fc      0x180 /usr/lib/gcc/arm-elf/3.4.4/../../../../arm-elf/lib/thumb/interwork/libm.a(ef_atan2.o)
                0x0001b3fc                __ieee754_atan2f
 .text          0x0001b57c      0x2f8 /usr/lib/gcc/arm-elf/3.4.4/../../../../arm-elf/lib/thumb/interwork/libm.a(ef_rem_pio2.o)
                0x0001b57c                __ieee754_rem_pio2f
 .text          0x0001b874       0xac /usr/lib/gcc/arm-elf/3.4.4/../../../../arm-elf/lib/thumb/interwork/libm.a(ef_sqrt.o)
                0x0001b874                __ieee754_sqrtf
 .text          0x0001b920      0x1e8 /usr/lib/gcc/arm-elf/3.4.4/../../../../arm-elf/lib/thumb/interwork/libm.a(k_cos.o)
                0x0001b920                __kernel_cos
 .text          0x0001bb08      0x7ec /usr/lib/gcc/arm-elf/3.4.4/../../../../arm-elf/lib/thumb/interwork/libm.a(k_rem_pio2.o)
                0x0001bb08                __kernel_rem_pio2
 .text          0x0001c2f4      0x15c /usr/lib/gcc/arm-elf/3.4.4/../../../../arm-elf/lib/thumb/interwork/libm.a(k_sin.o)
                0x0001c2f4                __kernel_sin
 .text          0x0001c450      0x3e4 /usr/lib/gcc/arm-elf/3.4.4/../../../../arm-elf/lib/thumb/interwork/libm.a(k_tan.o)
                0x0001c450                __kernel_tan
 .text          0x0001c834      0x140 /usr/lib/gcc/arm-elf/3.4.4/../../../../arm-elf/lib/thumb/interwork/libm.a(kf_cos.o)
                0x0001c834                __kernel_cosf
 .text          0x0001c974      0x654 /usr/lib/gcc/arm-elf/3.4.4/../../../../arm-elf/lib/thumb/interwork/libm.a(kf_rem_pio2.o)
                0x0001c974                __kernel_rem_pio2f
 .text          0x0001cfc8       0xfc /usr/lib/gcc/arm-elf/3.4.4/../../../../arm-elf/lib/thumb/interwork/libm.a(kf_sin.o)
                0x0001cfc8                __kernel_sinf
 .text          0x0001d0c4      0x4bc /usr/lib/gcc/arm-elf/3.4.4/../../../../arm-elf/lib/thumb/interwork/libm.a(s_expm1.o)
                0x0001d0c4                expm1
 .text          0x0001d580       0x14 /usr/lib/gcc/arm-elf/3.4.4/../../../../arm-elf/lib/thumb/interwork/libm.a(s_finite.o)
                0x0001d580                finite
 .text          0x0001d594      0x144 /usr/lib/gcc/arm-elf/3.4.4/../../../../arm-elf/lib/thumb/interwork/libm.a(s_floor.o)
                0x0001d594                floor
 .text          0x0001d6d8       0x28 /usr/lib/gcc/arm-elf/3.4.4/../../../../arm-elf/lib/thumb/interwork/libm.a(s_isnan.o)
                0x0001d6d8                isnan
 .text          0x0001d700        0x4 /usr/lib/gcc/arm-elf/3.4.4/../../../../arm-elf/lib/thumb/interwork/libm.a(s_matherr.o)
                0x0001d700                matherr
 .text          0x0001d704      0x168 /usr/lib/gcc/arm-elf/3.4.4/../../../../arm-elf/lib/thumb/interwork/libm.a(s_rint.o)
                0x0001d704                rint
 .text          0x0001d86c      0x120 /usr/lib/gcc/arm-elf/3.4.4/../../../../arm-elf/lib/thumb/interwork/libm.a(s_scalbn.o)
                0x0001d86c                scalbn
 .text          0x0001d98c      0x238 /usr/lib/gcc/arm-elf/3.4.4/../../../../arm-elf/lib/thumb/interwork/libm.a(sf_atan.o)
                0x0001d98c                atanf
 .text          0x0001dbc4        0xc /usr/lib/gcc/arm-elf/3.4.4/../../../../arm-elf/lib/thumb/interwork/libm.a(sf_fabs.o)
                0x0001dbc4                fabsf
 .text          0x0001dbd0       0x98 /usr/lib/gcc/arm-elf/3.4.4/../../../../arm-elf/lib/thumb/interwork/libm.a(sf_floor.o)
                0x0001dbd0                floorf
 .text          0x0001dc68       0x1c /usr/lib/gcc/arm-elf/3.4.4/../../../../arm-elf/lib/thumb/interwork/libm.a(sf_isnan.o)
                0x0001dc68                isnanf
 .text          0x0001dc84       0xd0 /usr/lib/gcc/arm-elf/3.4.4/../../../../arm-elf/lib/thumb/interwork/libm.a(sf_scalbn.o)
                0x0001dc84                scalbnf
 .text          0x0001dd54       0x1c /usr/lib/gcc/arm-elf/3.4.4/../../../../arm-elf/lib/thumb/interwork/libm.a(s_copysign.o)
                0x0001dd54                copysign
 .text          0x0001dd70       0x14 /usr/lib/gcc/arm-elf/3.4.4/../../../../arm-elf/lib/thumb/interwork/libm.a(sf_copysign.o)
                0x0001dd70                copysignf
 .text          0x0001dd84        0xc /usr/lib/gcc/arm-elf/3.4.4/../../../../arm-elf/lib/thumb/interwork/libc.a(errno.o)
                0x0001dd84                __errno
 .text          0x0001dd90       0x7c /usr/lib/gcc/arm-elf/3.4.4/thumb/interwork/libgcc.a(_udivsi3.o)
                0x0001dd90                __udivsi3
 .text          0x0001de0c       0x94 /usr/lib/gcc/arm-elf/3.4.4/thumb/interwork/libgcc.a(_divsi3.o)
                0x0001de0c                __divsi3
 .text          0x0001dea0        0x4 /usr/lib/gcc/arm-elf/3.4.4/thumb/interwork/libgcc.a(_dvmd_tls.o)
                0x0001dea0                __div0
 .text          0x0001dea4      0x3a8 /usr/lib/gcc/arm-elf/3.4.4/thumb/interwork/libgcc.a(_addsubdf3.o)
                0x0001e1d4                __floatsidf
                0x0001e200                __extendsfdf2
                0x0001dea8                __adddf3
                0x0001e1ac                __floatunsidf
                0x0001dea4                __subdf3
 .text          0x0001e24c      0x4ec /usr/lib/gcc/arm-elf/3.4.4/thumb/interwork/libgcc.a(_muldivdf3.o)
                0x0001e4c4                __divdf3
                0x0001e24c                __muldf3
 .text          0x0001e738       0xb4 /usr/lib/gcc/arm-elf/3.4.4/thumb/interwork/libgcc.a(_cmpdf2.o)
                0x0001e748                __cmpdf2
                0x0001e748                __eqdf2
                0x0001e738                __gtdf2
                0x0001e740                __ltdf2
                0x0001e740                __ledf2
                0x0001e748                __nedf2
                0x0001e738                __gedf2
 .text          0x0001e7ec       0x80 /usr/lib/gcc/arm-elf/3.4.4/thumb/interwork/libgcc.a(_fixdfsi.o)
                0x0001e7ec                __fixdfsi
 .text          0x0001e86c       0x74 /usr/lib/gcc/arm-elf/3.4.4/thumb/interwork/libgcc.a(_fixunsdfsi.o)
                0x0001e86c                __fixunsdfsi
 .text          0x0001e8e0       0xf8 /usr/lib/gcc/arm-elf/3.4.4/thumb/interwork/libgcc.a(_truncdfsf2.o)
                0x0001e8e0                __truncdfsf2
 .text          0x0001e9d8      0x218 /usr/lib/gcc/arm-elf/3.4.4/thumb/interwork/libgcc.a(_addsubsf3.o)
                0x0001e9d8                __subsf3
                0x0001eba4                __floatsisf
                0x0001eb9c                __floatunsisf
                0x0001e9dc                __addsf3
 .text          0x0001ebf0      0x330 /usr/lib/gcc/arm-elf/3.4.4/thumb/interwork/libgcc.a(_muldivsf3.o)
                0x0001ed80                __divsf3
                0x0001ebf0                __mulsf3
 .text          0x0001ef20       0x9c /usr/lib/gcc/arm-elf/3.4.4/thumb/interwork/libgcc.a(_cmpsf2.o)
                0x0001ef28                __lesf2
                0x0001ef30                __nesf2
                0x0001ef20                __gtsf2
                0x0001ef30                __eqsf2
                0x0001ef30                __cmpsf2
                0x0001ef28                __ltsf2
                0x0001ef20                __gesf2
 .text          0x0001efbc       0x68 /usr/lib/gcc/arm-elf/3.4.4/thumb/interwork/libgcc.a(_fixsfsi.o)
                0x0001efbc                __fixsfsi
 .text          0x0001f024       0x5c /usr/lib/gcc/arm-elf/3.4.4/thumb/interwork/libgcc.a(_fixunssfsi.o)
                0x0001f024                __fixunssfsi
 *(.gnu.linkonce.t.*)
 *(.glue_7)
 .glue_7        0x0001f080       0xd8 /usr/lib/gcc/arm-elf/3.4.4/../../../../arm-elf/lib/thumb/interwork/libc.a(impure.o)
                0x0001f0e0                __log_from_arm
                0x0001f0d4                __tan_from_arm
                0x0001f0c8                __atan2_from_arm
                0x0001f0f8                __cosh_from_arm
                0x0001f11c                __cos_from_arm
                0x0001f14c                __sqrtf_from_arm
                0x0001f134                __exp_from_arm
                0x0001f0a4                __cosf_from_arm
                0x0001f128                __atan_from_arm
                0x0001f08c                ____udivsi3_from_arm
                0x0001f080                ____divsi3_from_arm
                0x0001f0ec                __sin_from_arm
                0x0001f0b0                __sinf_from_arm
                0x0001f110                __sinh_from_arm
                0x0001f140                __sqrt_from_arm
                0x0001f098                __pow_from_arm
                0x0001f0bc                __atan2f_from_arm
                0x0001f104                __asin_from_arm
 *(.glue_7t)
 .glue_7t       0x0001f158       0xb8 /usr/lib/gcc/arm-elf/3.4.4/../../../../arm-elf/lib/thumb/interwork/libc.a(impure.o)
                0x0001f170                ____gtdf2_from_thumb
                0x0001f1e0                ____divsf3_from_thumb
                0x0001f204                ____gesf2_change_to_arm
                0x0001f168                ____subdf3_from_thumb
                0x0001f194                ____ltdf2_change_to_arm
                0x0001f1f4                ____fixsfsi_change_to_arm
                0x0001f1a4                ____eqsf2_change_to_arm
                0x0001f1dc                ____addsf3_change_to_arm
                0x0001f16c                ____subdf3_change_to_arm
                0x0001f1f0                ____fixsfsi_from_thumb
                0x0001f1f8                ____floatsisf_from_thumb
                0x0001f1a8                ____extendsfdf2_from_thumb
                0x0001f1d4                ____gedf2_change_to_arm
                0x0001f188                ____eqdf2_from_thumb
                0x0001f200                ____gesf2_from_thumb
                0x0001f1b8                ____ltsf2_from_thumb
                0x0001f1c0                ____fixdfsi_from_thumb
                0x0001f17c                ____divdf3_change_to_arm
                0x0001f1d0                ____gedf2_from_thumb
                0x0001f1b0                ____truncdfsf2_from_thumb
                0x0001f164                ____muldf3_change_to_arm
                0x0001f1e4                ____divsf3_change_to_arm
                0x0001f1c4                ____fixdfsi_change_to_arm
                0x0001f178                ____divdf3_from_thumb
                0x0001f208                ____gtsf2_from_thumb
                0x0001f1ec                ____mulsf3_change_to_arm
                0x0001f15c                ____adddf3_change_to_arm
                0x0001f174                ____gtdf2_change_to_arm
                0x0001f1b4                ____truncdfsf2_change_to_arm
                0x0001f1ac                ____extendsfdf2_change_to_arm
                0x0001f1c8                ____floatsidf_from_thumb
                0x0001f190                ____ltdf2_from_thumb
                0x0001f1fc                ____floatsisf_change_to_arm
                0x0001f19c                ____nedf2_change_to_arm
                0x0001f180                ____subsf3_from_thumb
                0x0001f158                ____adddf3_from_thumb
                0x0001f20c                ____gtsf2_change_to_arm
                0x0001f18c                ____eqdf2_change_to_arm
                0x0001f1bc                ____ltsf2_change_to_arm
                0x0001f1e8                ____mulsf3_from_thumb
                0x0001f1d8                ____addsf3_from_thumb
                0x0001f160                ____muldf3_from_thumb
                0x0001f1a0                ____eqsf2_from_thumb
                0x0001f184                ____subsf3_change_to_arm
                0x0001f198                ____nedf2_from_thumb
                0x0001f1cc                ____floatsidf_change_to_arm
 *(.gcc_except_table)
 *(.rodata)
 .rodata        0x0001f210       0x98 /usr/lib/gcc/arm-elf/3.4.4/../../../../arm-elf/lib/thumb/interwork/libm.a(s_atan.o)
 .rodata        0x0001f2a8       0x30 /usr/lib/gcc/arm-elf/3.4.4/../../../../arm-elf/lib/thumb/interwork/libm.a(e_exp.o)
 .rodata        0x0001f2d8       0x30 /usr/lib/gcc/arm-elf/3.4.4/../../../../arm-elf/lib/thumb/interwork/libm.a(e_pow.o)
 .rodata        0x0001f308      0x188 /usr/lib/gcc/arm-elf/3.4.4/../../../../arm-elf/lib/thumb/interwork/libm.a(e_rem_pio2.o)
 .rodata        0x0001f490      0x398 /usr/lib/gcc/arm-elf/3.4.4/../../../../arm-elf/lib/thumb/interwork/libm.a(ef_rem_pio2.o)
 .rodata        0x0001f828       0x50 /usr/lib/gcc/arm-elf/3.4.4/../../../../arm-elf/lib/thumb/interwork/libm.a(k_rem_pio2.o)
 .rodata        0x0001f878       0x38 /usr/lib/gcc/arm-elf/3.4.4/../../../../arm-elf/lib/thumb/interwork/libm.a(kf_rem_pio2.o)
 .rodata        0x0001f8b0        0x8 /usr/lib/gcc/arm-elf/3.4.4/../../../../arm-elf/lib/thumb/interwork/libm.a(s_infconst.o)
                0x0001f8b0                __infinity
 .rodata        0x0001f8b8        0x4 /usr/lib/gcc/arm-elf/3.4.4/../../../../arm-elf/lib/thumb/interwork/libm.a(s_lib_ver.o)
                0x0001f8b8                __fdlib_version
 .rodata        0x0001f8bc       0x10 /usr/lib/gcc/arm-elf/3.4.4/../../../../arm-elf/lib/thumb/interwork/libm.a(s_rint.o)
 .rodata        0x0001f8cc       0x4c /usr/lib/gcc/arm-elf/3.4.4/../../../../arm-elf/lib/thumb/interwork/libm.a(sf_atan.o)
 *(.rodata*)
 .rodata.commands_failsafe
                0x0001f918        0x6 /home/excelobs/paparazzi/var/KMUAV_XB_AS_IMU/ap/./commands.o
                0x0001f918                commands_failsafe
 .rodata.version
                0x0001f91e        0x2 /home/excelobs/paparazzi/var/KMUAV_XB_AS_IMU/ap/firmwares/fixedwing/main_ap.o
 .rodata.str1.4
                0x0001f920       0x11 /home/excelobs/paparazzi/var/KMUAV_XB_AS_IMU/ap/firmwares/fixedwing/main_ap.o
                                 0x14 (size before relaxing)
 *fill*         0x0001f931        0x3 00
 .rodata.serie_coeff_proj_mercator
                0x0001f934       0x14 /home/excelobs/paparazzi/var/KMUAV_XB_AS_IMU/ap/./latlong.o
 .rodata.nb_waypoint
                0x0001f948        0x1 /home/excelobs/paparazzi/var/KMUAV_XB_AS_IMU/ap/subsystems/nav.o
                0x0001f948                nb_waypoint
 *fill*         0x0001f949        0x3 00
 .rodata.str1.4
                0x0001f94c        0x5 /usr/lib/gcc/arm-elf/3.4.4/../../../../arm-elf/lib/thumb/interwork/libm.a(w_asin.o)
                                  0x8 (size before relaxing)
 *fill*         0x0001f951        0x3 00
 .rodata.str1.4
                0x0001f954        0x6 /usr/lib/gcc/arm-elf/3.4.4/../../../../arm-elf/lib/thumb/interwork/libm.a(w_atan2.o)
                                  0x8 (size before relaxing)
 *fill*         0x0001f95a        0x2 00
 .rodata.str1.4
                0x0001f95c        0x5 /usr/lib/gcc/arm-elf/3.4.4/../../../../arm-elf/lib/thumb/interwork/libm.a(w_cosh.o)
                                  0x8 (size before relaxing)
 *fill*         0x0001f961        0x3 00
 .rodata.str1.4
                0x0001f964        0x4 /usr/lib/gcc/arm-elf/3.4.4/../../../../arm-elf/lib/thumb/interwork/libm.a(w_exp.o)
 .rodata.str1.4
                0x0001f968        0x4 /usr/lib/gcc/arm-elf/3.4.4/../../../../arm-elf/lib/thumb/interwork/libm.a(w_log.o)
 .rodata.str1.4
                0x0001f96c        0x4 /usr/lib/gcc/arm-elf/3.4.4/../../../../arm-elf/lib/thumb/interwork/libm.a(w_pow.o)
 .rodata.str1.4
                0x0001f970        0x5 /usr/lib/gcc/arm-elf/3.4.4/../../../../arm-elf/lib/thumb/interwork/libm.a(w_sinh.o)
                                  0x8 (size before relaxing)
 *fill*         0x0001f975        0x3 00
 .rodata.str1.4
                0x0001f978        0x5 /usr/lib/gcc/arm-elf/3.4.4/../../../../arm-elf/lib/thumb/interwork/libm.a(w_sqrt.o)
                                  0x8 (size before relaxing)
 *fill*         0x0001f97d        0x3 00
 .rodata.str1.4
                0x0001f980        0x7 /usr/lib/gcc/arm-elf/3.4.4/../../../../arm-elf/lib/thumb/interwork/libm.a(wf_atan2.o)
                                  0x8 (size before relaxing)
 *fill*         0x0001f987        0x1 00
 .rodata.str1.4
                0x0001f988        0x6 /usr/lib/gcc/arm-elf/3.4.4/../../../../arm-elf/lib/thumb/interwork/libm.a(wf_sqrt.o)
                                  0x8 (size before relaxing)
 *fill*         0x0001f98e        0x2 00
 .rodata.str1.4
                0x0001f990        0x2 /usr/lib/gcc/arm-elf/3.4.4/../../../../arm-elf/lib/thumb/interwork/libc.a(impure.o)
                                  0x4 (size before relaxing)
 *(.gnu.linkonce.r.*)
                0x0001f994                . = ALIGN (0x4)

.ARM.exidx      0x0001f992        0x0
                0x0001f992                __exidx_start = .
 *(.ARM.exidx* .gnu.linkonce.armexidx.*)
                0x0001f992                __exidx_end = .
                0x0001f994                . = ALIGN (0x4)

.ctors          0x0001f992        0x0
                0x0001f992                PROVIDE (__ctors_start__, .)
 *(SORT(.ctors.*))
 *(.ctors)
                0x0001f992                PROVIDE (__ctors_end__, .)

.dtors          0x0001f992        0x0
                0x0001f992                PROVIDE (__dtors_start__, .)
 *(SORT(.dtors.*))
 *(.dtors)
                0x0001f992                PROVIDE (__dtors_end__, .)
                0x0001f994                . = ALIGN (0x4)
                0x0001f994                _etext = .
                0x0001f994                PROVIDE (etext, .)

.data           0x40000000      0x520 load address 0x0001f994
                0x40000000                _data = .
 *(.data)
 .data          0x40000000      0x404 /usr/lib/gcc/arm-elf/3.4.4/../../../../arm-elf/lib/thumb/interwork/libc.a(impure.o)
                0x40000400                _impure_ptr
 *(.data.*)
 .data.inter_mcu_received_ap
                0x40000404        0x1 /home/excelobs/paparazzi/var/KMUAV_XB_AS_IMU/ap/./inter_mcu.o
                0x40000404                inter_mcu_received_ap
 .data.inter_mcu_received_fbw
                0x40000405        0x1 /home/excelobs/paparazzi/var/KMUAV_XB_AS_IMU/ap/./inter_mcu.o
                0x40000405                inter_mcu_received_fbw
 *fill*         0x40000406        0x2 00
 .data.ap_state
                0x40000408        0x4 /home/excelobs/paparazzi/var/KMUAV_XB_AS_IMU/ap/./inter_mcu.o
                0x40000408                ap_state
 .data.fbw_state
                0x4000040c        0x4 /home/excelobs/paparazzi/var/KMUAV_XB_AS_IMU/ap/./inter_mcu.o
                0x4000040c                fbw_state
 .data.fbw_new_actuators
                0x40000410        0x1 /home/excelobs/paparazzi/var/KMUAV_XB_AS_IMU/ap/firmwares/fixedwing/main_fbw.o
                0x40000410                fbw_new_actuators
 .data.i120.2   0x40000411        0x1 /home/excelobs/paparazzi/var/KMUAV_XB_AS_IMU/ap/firmwares/fixedwing/main_fbw.o
 .data.i300.3   0x40000412        0x2 /home/excelobs/paparazzi/var/KMUAV_XB_AS_IMU/ap/firmwares/fixedwing/main_fbw.o
 .data.i30.4    0x40000414        0x1 /home/excelobs/paparazzi/var/KMUAV_XB_AS_IMU/ap/firmwares/fixedwing/main_fbw.o
 .data.i60.5    0x40000415        0x1 /home/excelobs/paparazzi/var/KMUAV_XB_AS_IMU/ap/firmwares/fixedwing/main_fbw.o
 .data.i300.6   0x40000416        0x2 /home/excelobs/paparazzi/var/KMUAV_XB_AS_IMU/ap/firmwares/fixedwing/main_fbw.o
 .data.gps_lost
                0x40000418        0x1 /home/excelobs/paparazzi/var/KMUAV_XB_AS_IMU/ap/firmwares/fixedwing/main_ap.o
                0x40000418                gps_lost
 .data.launch   0x40000419        0x1 /home/excelobs/paparazzi/var/KMUAV_XB_AS_IMU/ap/firmwares/fixedwing/main_ap.o
                0x40000419                launch
 .data.kill_throttle
                0x4000041a        0x1 /home/excelobs/paparazzi/var/KMUAV_XB_AS_IMU/ap/firmwares/fixedwing/main_ap.o
                0x4000041a                kill_throttle
 .data.lateral_mode
                0x4000041b        0x1 /home/excelobs/paparazzi/var/KMUAV_XB_AS_IMU/ap/firmwares/fixedwing/main_ap.o
                0x4000041b                lateral_mode
 .data.pprz_mode
                0x4000041c        0x1 /home/excelobs/paparazzi/var/KMUAV_XB_AS_IMU/ap/firmwares/fixedwing/main_ap.o
                0x4000041c                pprz_mode
 .data.rc_settings_mode
                0x4000041d        0x1 /home/excelobs/paparazzi/var/KMUAV_XB_AS_IMU/ap/firmwares/fixedwing/main_ap.o
                0x4000041d                rc_settings_mode
 .data._60Hz.4  0x4000041e        0x1 /home/excelobs/paparazzi/var/KMUAV_XB_AS_IMU/ap/firmwares/fixedwing/main_ap.o
 .data._20Hz.5  0x4000041f        0x1 /home/excelobs/paparazzi/var/KMUAV_XB_AS_IMU/ap/firmwares/fixedwing/main_ap.o
 .data._10Hz.6  0x40000420        0x1 /home/excelobs/paparazzi/var/KMUAV_XB_AS_IMU/ap/firmwares/fixedwing/main_ap.o
 .data._4Hz.7   0x40000421        0x1 /home/excelobs/paparazzi/var/KMUAV_XB_AS_IMU/ap/firmwares/fixedwing/main_ap.o
 .data._1Hz.8   0x40000422        0x1 /home/excelobs/paparazzi/var/KMUAV_XB_AS_IMU/ap/firmwares/fixedwing/main_ap.o
 .data.boot.10  0x40000423        0x1 /home/excelobs/paparazzi/var/KMUAV_XB_AS_IMU/ap/firmwares/fixedwing/main_ap.o
 .data.i6.11    0x40000424        0x1 /home/excelobs/paparazzi/var/KMUAV_XB_AS_IMU/ap/firmwares/fixedwing/main_ap.o
 .data.i15.12   0x40000425        0x1 /home/excelobs/paparazzi/var/KMUAV_XB_AS_IMU/ap/firmwares/fixedwing/main_ap.o
 .data.i30.13   0x40000426        0x1 /home/excelobs/paparazzi/var/KMUAV_XB_AS_IMU/ap/firmwares/fixedwing/main_ap.o
 .data.i36.14   0x40000427        0x1 /home/excelobs/paparazzi/var/KMUAV_XB_AS_IMU/ap/firmwares/fixedwing/main_ap.o
 .data.i48.15   0x40000428        0x1 /home/excelobs/paparazzi/var/KMUAV_XB_AS_IMU/ap/firmwares/fixedwing/main_ap.o
 .data.i60.16   0x40000429        0x1 /home/excelobs/paparazzi/var/KMUAV_XB_AS_IMU/ap/firmwares/fixedwing/main_ap.o
 .data.i63.17   0x4000042a        0x1 /home/excelobs/paparazzi/var/KMUAV_XB_AS_IMU/ap/firmwares/fixedwing/main_ap.o
 .data.i66.18   0x4000042b        0x1 /home/excelobs/paparazzi/var/KMUAV_XB_AS_IMU/ap/firmwares/fixedwing/main_ap.o
 .data.i72.19   0x4000042c        0x1 /home/excelobs/paparazzi/var/KMUAV_XB_AS_IMU/ap/firmwares/fixedwing/main_ap.o
 .data.i90.20   0x4000042d        0x1 /home/excelobs/paparazzi/var/KMUAV_XB_AS_IMU/ap/firmwares/fixedwing/main_ap.o
 .data.i120.21  0x4000042e        0x1 /home/excelobs/paparazzi/var/KMUAV_XB_AS_IMU/ap/firmwares/fixedwing/main_ap.o
 .data.i126.22  0x4000042f        0x1 /home/excelobs/paparazzi/var/KMUAV_XB_AS_IMU/ap/firmwares/fixedwing/main_ap.o
 .data.i150.23  0x40000430        0x1 /home/excelobs/paparazzi/var/KMUAV_XB_AS_IMU/ap/firmwares/fixedwing/main_ap.o
 *fill*         0x40000431        0x1 00
 .data.i300.24  0x40000432        0x2 /home/excelobs/paparazzi/var/KMUAV_XB_AS_IMU/ap/firmwares/fixedwing/main_ap.o
 .data.i306.25  0x40000434        0x2 /home/excelobs/paparazzi/var/KMUAV_XB_AS_IMU/ap/firmwares/fixedwing/main_ap.o
 .data.i540.26  0x40000436        0x2 /home/excelobs/paparazzi/var/KMUAV_XB_AS_IMU/ap/firmwares/fixedwing/main_ap.o
 .data.i63.30   0x40000438        0x1 /home/excelobs/paparazzi/var/KMUAV_XB_AS_IMU/ap/firmwares/fixedwing/main_ap.o
 .data.i66.31   0x40000439        0x1 /home/excelobs/paparazzi/var/KMUAV_XB_AS_IMU/ap/firmwares/fixedwing/main_ap.o
 .data.i78.32   0x4000043a        0x1 /home/excelobs/paparazzi/var/KMUAV_XB_AS_IMU/ap/firmwares/fixedwing/main_ap.o
 .data.i84.33   0x4000043b        0x1 /home/excelobs/paparazzi/var/KMUAV_XB_AS_IMU/ap/firmwares/fixedwing/main_ap.o
 .data.i90.34   0x4000043c        0x1 /home/excelobs/paparazzi/var/KMUAV_XB_AS_IMU/ap/firmwares/fixedwing/main_ap.o
 .data.i126.35  0x4000043d        0x1 /home/excelobs/paparazzi/var/KMUAV_XB_AS_IMU/ap/firmwares/fixedwing/main_ap.o
 .data.i180.36  0x4000043e        0x1 /home/excelobs/paparazzi/var/KMUAV_XB_AS_IMU/ap/firmwares/fixedwing/main_ap.o
 .data.i183.37  0x4000043f        0x1 /home/excelobs/paparazzi/var/KMUAV_XB_AS_IMU/ap/firmwares/fixedwing/main_ap.o
 .data.i192.38  0x40000440        0x1 /home/excelobs/paparazzi/var/KMUAV_XB_AS_IMU/ap/firmwares/fixedwing/main_ap.o
 .data.i240.39  0x40000441        0x1 /home/excelobs/paparazzi/var/KMUAV_XB_AS_IMU/ap/firmwares/fixedwing/main_ap.o
 .data.i243.40  0x40000442        0x1 /home/excelobs/paparazzi/var/KMUAV_XB_AS_IMU/ap/firmwares/fixedwing/main_ap.o
 *fill*         0x40000443        0x1 00
 .data.i300.41  0x40000444        0x2 /home/excelobs/paparazzi/var/KMUAV_XB_AS_IMU/ap/firmwares/fixedwing/main_ap.o
 .data.i306.42  0x40000446        0x2 /home/excelobs/paparazzi/var/KMUAV_XB_AS_IMU/ap/firmwares/fixedwing/main_ap.o
 .data.i312.43  0x40000448        0x2 /home/excelobs/paparazzi/var/KMUAV_XB_AS_IMU/ap/firmwares/fixedwing/main_ap.o
 .data.i540.44  0x4000044a        0x2 /home/excelobs/paparazzi/var/KMUAV_XB_AS_IMU/ap/firmwares/fixedwing/main_ap.o
 .data.i606.45  0x4000044c        0x2 /home/excelobs/paparazzi/var/KMUAV_XB_AS_IMU/ap/firmwares/fixedwing/main_ap.o
 .data.i300.49  0x4000044e        0x2 /home/excelobs/paparazzi/var/KMUAV_XB_AS_IMU/ap/firmwares/fixedwing/main_ap.o
 .data.i306.50  0x40000450        0x2 /home/excelobs/paparazzi/var/KMUAV_XB_AS_IMU/ap/firmwares/fixedwing/main_ap.o
 .data.i318.51  0x40000452        0x2 /home/excelobs/paparazzi/var/KMUAV_XB_AS_IMU/ap/firmwares/fixedwing/main_ap.o
 .data.i324.52  0x40000454        0x2 /home/excelobs/paparazzi/var/KMUAV_XB_AS_IMU/ap/firmwares/fixedwing/main_ap.o
 .data.i330.53  0x40000456        0x2 /home/excelobs/paparazzi/var/KMUAV_XB_AS_IMU/ap/firmwares/fixedwing/main_ap.o
 .data.i342.54  0x40000458        0x2 /home/excelobs/paparazzi/var/KMUAV_XB_AS_IMU/ap/firmwares/fixedwing/main_ap.o
 .data.i606.55  0x4000045a        0x2 /home/excelobs/paparazzi/var/KMUAV_XB_AS_IMU/ap/firmwares/fixedwing/main_ap.o
 .data.i612.56  0x4000045c        0x2 /home/excelobs/paparazzi/var/KMUAV_XB_AS_IMU/ap/firmwares/fixedwing/main_ap.o
 .data.t.9      0x4000045e        0x1 /home/excelobs/paparazzi/var/KMUAV_XB_AS_IMU/ap/firmwares/fixedwing/main_ap.o
 .data.pprz_status.0
                0x4000045f        0x1 /home/excelobs/paparazzi/var/KMUAV_XB_AS_IMU/ap/firmwares/fixedwing/main_ap.o
 .data.adc1_val
                0x40000460       0x10 /home/excelobs/paparazzi/var/KMUAV_XB_AS_IMU/ap/arch/lpc21/mcu_periph/adc_arch.o
                0x40000460                adc1_val
 .data.telemetry_mode_Ap_DefaultChannel
                0x40000470        0x1 /home/excelobs/paparazzi/var/KMUAV_XB_AS_IMU/ap/./downlink.o
                0x40000470                telemetry_mode_Ap_DefaultChannel
 .data.telemetry_mode_Fbw_DefaultChannel
                0x40000471        0x1 /home/excelobs/paparazzi/var/KMUAV_XB_AS_IMU/ap/./downlink.o
                0x40000471                telemetry_mode_Fbw_DefaultChannel
 .data.pprz_msg_received
                0x40000472        0x1 /home/excelobs/paparazzi/var/KMUAV_XB_AS_IMU/ap/./pprz_transport.o
                0x40000472                pprz_msg_received
 *fill*         0x40000473        0x1 00
 .data.v_ctl_auto_throttle_dash_trim
                0x40000474        0x4 /home/excelobs/paparazzi/var/KMUAV_XB_AS_IMU/ap/firmwares/fixedwing/stabilization/stabilization_attitude.o
                0x40000474                v_ctl_auto_throttle_dash_trim
 .data.v_ctl_auto_throttle_loiter_trim
                0x40000478        0x4 /home/excelobs/paparazzi/var/KMUAV_XB_AS_IMU/ap/firmwares/fixedwing/stabilization/stabilization_attitude.o
                0x40000478                v_ctl_auto_throttle_loiter_trim
 .data.v_ctl_climb_setpoint_last.0
                0x4000047c        0x4 /home/excelobs/paparazzi/var/KMUAV_XB_AS_IMU/ap/firmwares/fixedwing/guidance/guidance_v.o
 .data.max_dist_from_home
                0x40000480        0x4 /home/excelobs/paparazzi/var/KMUAV_XB_AS_IMU/ap/subsystems/nav.o
                0x40000480                max_dist_from_home
 .data.nav_utm_zone0
                0x40000484        0x1 /home/excelobs/paparazzi/var/KMUAV_XB_AS_IMU/ap/subsystems/nav.o
                0x40000484                nav_utm_zone0
 *fill*         0x40000485        0x3 00
 .data.nav_utm_north0
                0x40000488        0x4 /home/excelobs/paparazzi/var/KMUAV_XB_AS_IMU/ap/subsystems/nav.o
                0x40000488                nav_utm_north0
 .data.nav_utm_east0
                0x4000048c        0x4 /home/excelobs/paparazzi/var/KMUAV_XB_AS_IMU/ap/subsystems/nav.o
                0x4000048c                nav_utm_east0
 .data.waypoints
                0x40000490       0x78 /home/excelobs/paparazzi/var/KMUAV_XB_AS_IMU/ap/subsystems/nav.o
                0x40000490                waypoints
 .data.nav_altitude
                0x40000508        0x4 /home/excelobs/paparazzi/var/KMUAV_XB_AS_IMU/ap/subsystems/nav.o
                0x40000508                nav_altitude
 .data.circle_bank
                0x4000050c        0x4 /home/excelobs/paparazzi/var/KMUAV_XB_AS_IMU/ap/subsystems/nav.o
                0x4000050c                circle_bank
 .data.nav_in_segment
                0x40000510        0x1 /home/excelobs/paparazzi/var/KMUAV_XB_AS_IMU/ap/subsystems/nav.o
                0x40000510                nav_in_segment
 .data.nav_in_circle
                0x40000511        0x1 /home/excelobs/paparazzi/var/KMUAV_XB_AS_IMU/ap/subsystems/nav.o
                0x40000511                nav_in_circle
 .data.prescaler.1
                0x40000512        0x2 /home/excelobs/paparazzi/var/KMUAV_XB_AS_IMU/ap/subsystems/nav.o
 .data.survey_uturn
                0x40000514        0x1 /home/excelobs/paparazzi/var/KMUAV_XB_AS_IMU/ap/subsystems/navigation/nav_survey_rectangle.o
 *fill*         0x40000515        0x3 00
 .data.survey_orientation
                0x40000518        0x4 /home/excelobs/paparazzi/var/KMUAV_XB_AS_IMU/ap/subsystems/navigation/nav_survey_rectangle.o
 .data.prescaler.0
                0x4000051c        0x2 /home/excelobs/paparazzi/var/KMUAV_XB_AS_IMU/ap/modules/ins/ins_arduimu_basic.o
 .data.prescaler.1
                0x4000051e        0x2 /home/excelobs/paparazzi/var/KMUAV_XB_AS_IMU/ap/modules/ins/ins_arduimu_basic.o
 *(.gnu.linkonce.d*)
                0x40000520                . = ALIGN (0x4)
 *(.fastrun)
                0x40000520                . = ALIGN (0x4)
                0x40000520                _edata = .
                0x40000520                PROVIDE (edata, .)

.bss            0x40000520      0xe4c
                0x40000520                __bss_start = .
                0x40000520                __bss_start__ = .
 *(.bss)
 *(.bss.*)
 .bss.cpu_time_sec
                0x40000520        0x2 /home/excelobs/paparazzi/var/KMUAV_XB_AS_IMU/ap/sys_time.o
                0x40000520                cpu_time_sec
 .bss.time_since_last_ap
                0x40000522        0x1 /home/excelobs/paparazzi/var/KMUAV_XB_AS_IMU/ap/./inter_mcu.o
                0x40000522                time_since_last_ap
 .bss.ap_ok     0x40000523        0x1 /home/excelobs/paparazzi/var/KMUAV_XB_AS_IMU/ap/./inter_mcu.o
                0x40000523                ap_ok
 .bss._fbw_state
                0x40000524       0x18 /home/excelobs/paparazzi/var/KMUAV_XB_AS_IMU/ap/./inter_mcu.o
 .bss._ap_state
                0x4000053c        0x8 /home/excelobs/paparazzi/var/KMUAV_XB_AS_IMU/ap/./inter_mcu.o
 .bss._10Hz.0   0x40000544        0x1 /home/excelobs/paparazzi/var/KMUAV_XB_AS_IMU/ap/firmwares/fixedwing/main_fbw.o
 .bss._1Hz.1    0x40000545        0x1 /home/excelobs/paparazzi/var/KMUAV_XB_AS_IMU/ap/firmwares/fixedwing/main_fbw.o
 .bss.fbw_mode  0x40000546        0x1 /home/excelobs/paparazzi/var/KMUAV_XB_AS_IMU/ap/firmwares/fixedwing/main_fbw.o
                0x40000546                fbw_mode
 *fill*         0x40000547        0x1 00
 .bss.electrical
                0x40000548        0x8 /home/excelobs/paparazzi/var/KMUAV_XB_AS_IMU/ap/subsystems/electrical.o
                0x40000548                electrical
 .bss.electrical_priv
                0x40000550       0x4c /home/excelobs/paparazzi/var/KMUAV_XB_AS_IMU/ap/subsystems/electrical.o
 .bss.commands  0x4000059c        0x6 /home/excelobs/paparazzi/var/KMUAV_XB_AS_IMU/ap/./commands.o
                0x4000059c                commands
 .bss.last_pprz_mode.58
                0x400005a2        0x1 /home/excelobs/paparazzi/var/KMUAV_XB_AS_IMU/ap/firmwares/fixedwing/main_ap.o
 .bss.i.27      0x400005a3        0x1 /home/excelobs/paparazzi/var/KMUAV_XB_AS_IMU/ap/firmwares/fixedwing/main_ap.o
 .bss.i.28      0x400005a4        0x1 /home/excelobs/paparazzi/var/KMUAV_XB_AS_IMU/ap/firmwares/fixedwing/main_ap.o
 *fill*         0x400005a5        0x1 00
 .bss.last.29   0x400005a6        0x2 /home/excelobs/paparazzi/var/KMUAV_XB_AS_IMU/ap/firmwares/fixedwing/main_ap.o
 .bss.i.46      0x400005a8        0x1 /home/excelobs/paparazzi/var/KMUAV_XB_AS_IMU/ap/firmwares/fixedwing/main_ap.o
 .bss.i.47      0x400005a9        0x1 /home/excelobs/paparazzi/var/KMUAV_XB_AS_IMU/ap/firmwares/fixedwing/main_ap.o
 .bss.last.48   0x400005aa        0x2 /home/excelobs/paparazzi/var/KMUAV_XB_AS_IMU/ap/firmwares/fixedwing/main_ap.o
 .bss.last.57   0x400005ac        0x2 /home/excelobs/paparazzi/var/KMUAV_XB_AS_IMU/ap/firmwares/fixedwing/main_ap.o
 .bss.i1.59     0x400005ae        0x1 /home/excelobs/paparazzi/var/KMUAV_XB_AS_IMU/ap/firmwares/fixedwing/main_ap.o
 .bss.i6.60     0x400005af        0x1 /home/excelobs/paparazzi/var/KMUAV_XB_AS_IMU/ap/firmwares/fixedwing/main_ap.o
 .bss.i15.61    0x400005b0        0x1 /home/excelobs/paparazzi/var/KMUAV_XB_AS_IMU/ap/firmwares/fixedwing/main_ap.o
 .bss._ck_a.1   0x400005b1        0x1 /home/excelobs/paparazzi/var/KMUAV_XB_AS_IMU/ap/firmwares/fixedwing/main_ap.o
 .bss._ck_b.2   0x400005b2        0x1 /home/excelobs/paparazzi/var/KMUAV_XB_AS_IMU/ap/firmwares/fixedwing/main_ap.o
 .bss.payload_idx.3
                0x400005b3        0x1 /home/excelobs/paparazzi/var/KMUAV_XB_AS_IMU/ap/firmwares/fixedwing/main_ap.o
 .bss.vsupply   0x400005b4        0x1 /home/excelobs/paparazzi/var/KMUAV_XB_AS_IMU/ap/firmwares/fixedwing/main_ap.o
                0x400005b4                vsupply
 .bss.power_switch
                0x400005b5        0x1 /home/excelobs/paparazzi/var/KMUAV_XB_AS_IMU/ap/firmwares/fixedwing/main_ap.o
                0x400005b5                power_switch
 .bss.mcu1_status
                0x400005b6        0x1 /home/excelobs/paparazzi/var/KMUAV_XB_AS_IMU/ap/firmwares/fixedwing/main_ap.o
 .bss.mcu1_ppm_cpt
                0x400005b7        0x1 /home/excelobs/paparazzi/var/KMUAV_XB_AS_IMU/ap/firmwares/fixedwing/main_ap.o
 .bss.current   0x400005b8        0x4 /home/excelobs/paparazzi/var/KMUAV_XB_AS_IMU/ap/firmwares/fixedwing/main_ap.o
 .bss.energy    0x400005bc        0x4 /home/excelobs/paparazzi/var/KMUAV_XB_AS_IMU/ap/firmwares/fixedwing/main_ap.o
                0x400005bc                energy
 .bss.estimator_x
                0x400005c0        0x4 /home/excelobs/paparazzi/var/KMUAV_XB_AS_IMU/ap/./estimator.o
                0x400005c0                estimator_x
 .bss.estimator_y
                0x400005c4        0x4 /home/excelobs/paparazzi/var/KMUAV_XB_AS_IMU/ap/./estimator.o
                0x400005c4                estimator_y
 .bss.estimator_z
                0x400005c8        0x4 /home/excelobs/paparazzi/var/KMUAV_XB_AS_IMU/ap/./estimator.o
                0x400005c8                estimator_z
 .bss.estimator_phi
                0x400005cc        0x4 /home/excelobs/paparazzi/var/KMUAV_XB_AS_IMU/ap/./estimator.o
                0x400005cc                estimator_phi
 .bss.estimator_psi
                0x400005d0        0x4 /home/excelobs/paparazzi/var/KMUAV_XB_AS_IMU/ap/./estimator.o
                0x400005d0                estimator_psi
 .bss.estimator_theta
                0x400005d4        0x4 /home/excelobs/paparazzi/var/KMUAV_XB_AS_IMU/ap/./estimator.o
                0x400005d4                estimator_theta
 .bss.estimator_z_dot
                0x400005d8        0x4 /home/excelobs/paparazzi/var/KMUAV_XB_AS_IMU/ap/./estimator.o
                0x400005d8                estimator_z_dot
 .bss.estimator_p
                0x400005dc        0x4 /home/excelobs/paparazzi/var/KMUAV_XB_AS_IMU/ap/./estimator.o
                0x400005dc                estimator_p
 .bss.estimator_q
                0x400005e0        0x4 /home/excelobs/paparazzi/var/KMUAV_XB_AS_IMU/ap/./estimator.o
                0x400005e0                estimator_q
 .bss.estimator_flight_time
                0x400005e4        0x2 /home/excelobs/paparazzi/var/KMUAV_XB_AS_IMU/ap/./estimator.o
                0x400005e4                estimator_flight_time
 *fill*         0x400005e6        0x2 00
 .bss.estimator_hspeed_mod
                0x400005e8        0x4 /home/excelobs/paparazzi/var/KMUAV_XB_AS_IMU/ap/./estimator.o
                0x400005e8                estimator_hspeed_mod
 .bss.estimator_hspeed_dir
                0x400005ec        0x4 /home/excelobs/paparazzi/var/KMUAV_XB_AS_IMU/ap/./estimator.o
                0x400005ec                estimator_hspeed_dir
 .bss.wind_east
                0x400005f0        0x4 /home/excelobs/paparazzi/var/KMUAV_XB_AS_IMU/ap/./estimator.o
                0x400005f0                wind_east
 .bss.wind_north
                0x400005f4        0x4 /home/excelobs/paparazzi/var/KMUAV_XB_AS_IMU/ap/./estimator.o
                0x400005f4                wind_north
 .bss.estimator_airspeed
                0x400005f8        0x4 /home/excelobs/paparazzi/var/KMUAV_XB_AS_IMU/ap/./estimator.o
                0x400005f8                estimator_airspeed
 .bss.alt_kalman_enabled
                0x400005fc        0x1 /home/excelobs/paparazzi/var/KMUAV_XB_AS_IMU/ap/./estimator.o
                0x400005fc                alt_kalman_enabled
 *fill*         0x400005fd        0x3 00
 .bss.p         0x40000600       0x10 /home/excelobs/paparazzi/var/KMUAV_XB_AS_IMU/ap/./estimator.o
 .bss.cpu_time_ticks
                0x40000610        0x4 /home/excelobs/paparazzi/var/KMUAV_XB_AS_IMU/ap/arch/lpc21/sys_time_hw.o
                0x40000610                cpu_time_ticks
 .bss.last_periodic_event
                0x40000614        0x4 /home/excelobs/paparazzi/var/KMUAV_XB_AS_IMU/ap/arch/lpc21/sys_time_hw.o
                0x40000614                last_periodic_event
 .bss.uart0_rx_insert_idx
                0x40000618        0x2 /home/excelobs/paparazzi/var/KMUAV_XB_AS_IMU/ap/arch/lpc21/mcu_periph/uart_arch.o
                0x40000618                uart0_rx_insert_idx
 .bss.uart0_rx_extract_idx
                0x4000061a        0x2 /home/excelobs/paparazzi/var/KMUAV_XB_AS_IMU/ap/arch/lpc21/mcu_periph/uart_arch.o
                0x4000061a                uart0_rx_extract_idx
 .bss.uart0_rx_buffer
                0x4000061c       0x80 /home/excelobs/paparazzi/var/KMUAV_XB_AS_IMU/ap/arch/lpc21/mcu_periph/uart_arch.o
                0x4000061c                uart0_rx_buffer
 .bss.uart1_rx_insert_idx
                0x4000069c        0x2 /home/excelobs/paparazzi/var/KMUAV_XB_AS_IMU/ap/arch/lpc21/mcu_periph/uart_arch.o
                0x4000069c                uart1_rx_insert_idx
 .bss.uart1_rx_extract_idx
                0x4000069e        0x2 /home/excelobs/paparazzi/var/KMUAV_XB_AS_IMU/ap/arch/lpc21/mcu_periph/uart_arch.o
                0x4000069e                uart1_rx_extract_idx
 .bss.uart1_rx_buffer
                0x400006a0       0x80 /home/excelobs/paparazzi/var/KMUAV_XB_AS_IMU/ap/arch/lpc21/mcu_periph/uart_arch.o
                0x400006a0                uart1_rx_buffer
 .bss.uart0_tx_running
                0x40000720        0x1 /home/excelobs/paparazzi/var/KMUAV_XB_AS_IMU/ap/arch/lpc21/mcu_periph/uart_arch.o
                0x40000720                uart0_tx_running
 .bss.uart1_tx_running
                0x40000721        0x1 /home/excelobs/paparazzi/var/KMUAV_XB_AS_IMU/ap/arch/lpc21/mcu_periph/uart_arch.o
                0x40000721                uart1_tx_running
 .bss.uart0_tx_buffer
                0x40000722       0x80 /home/excelobs/paparazzi/var/KMUAV_XB_AS_IMU/ap/arch/lpc21/mcu_periph/uart_arch.o
                0x40000722                uart0_tx_buffer
 .bss.uart0_tx_insert_idx
                0x400007a2        0x2 /home/excelobs/paparazzi/var/KMUAV_XB_AS_IMU/ap/arch/lpc21/mcu_periph/uart_arch.o
                0x400007a2                uart0_tx_insert_idx
 .bss.uart0_tx_extract_idx
                0x400007a4        0x2 /home/excelobs/paparazzi/var/KMUAV_XB_AS_IMU/ap/arch/lpc21/mcu_periph/uart_arch.o
                0x400007a4                uart0_tx_extract_idx
 .bss.uart1_tx_buffer
                0x400007a6       0x80 /home/excelobs/paparazzi/var/KMUAV_XB_AS_IMU/ap/arch/lpc21/mcu_periph/uart_arch.o
                0x400007a6                uart1_tx_buffer
 .bss.uart1_tx_insert_idx
                0x40000826        0x2 /home/excelobs/paparazzi/var/KMUAV_XB_AS_IMU/ap/arch/lpc21/mcu_periph/uart_arch.o
                0x40000826                uart1_tx_insert_idx
 .bss.uart1_tx_extract_idx
                0x40000828        0x2 /home/excelobs/paparazzi/var/KMUAV_XB_AS_IMU/ap/arch/lpc21/mcu_periph/uart_arch.o
                0x40000828                uart1_tx_extract_idx
 *fill*         0x4000082a        0x2 00
 .bss.buffers   0x4000082c       0x40 /home/excelobs/paparazzi/var/KMUAV_XB_AS_IMU/ap/arch/lpc21/mcu_periph/adc_arch.o
 .bss.servos_values
                0x4000086c       0x14 /home/excelobs/paparazzi/var/KMUAV_XB_AS_IMU/ap/arch/lpc21/servos_4017_hw.o
                0x4000086c                servos_values
 .bss.servos_4017_idx
                0x40000880        0x1 /home/excelobs/paparazzi/var/KMUAV_XB_AS_IMU/ap/arch/lpc21/servos_4017_hw.o
                0x40000880                servos_4017_idx
 *fill*         0x40000881        0x1 00
 .bss.actuators
                0x40000882        0x8 /home/excelobs/paparazzi/var/KMUAV_XB_AS_IMU/ap/actuators.o
                0x40000882                actuators
 *fill*         0x4000088a        0x2 00
 .bss.radio_control
                0x4000088c       0x14 /home/excelobs/paparazzi/var/KMUAV_XB_AS_IMU/ap/subsystems/radio_control.o
                0x4000088c                radio_control
 .bss.ppm_pulses
                0x400008a0        0xe /home/excelobs/paparazzi/var/KMUAV_XB_AS_IMU/ap/subsystems/radio_control/ppm.o
                0x400008a0                ppm_pulses
 .bss.ppm_frame_available
                0x400008ae        0x1 /home/excelobs/paparazzi/var/KMUAV_XB_AS_IMU/ap/subsystems/radio_control/ppm.o
                0x400008ae                ppm_frame_available
 .bss.ppm_cur_pulse
                0x400008af        0x1 /home/excelobs/paparazzi/var/KMUAV_XB_AS_IMU/ap/arch/lpc21/subsystems/radio_control/ppm_arch.o
                0x400008af                ppm_cur_pulse
 .bss.ppm_last_pulse_time
                0x400008b0        0x4 /home/excelobs/paparazzi/var/KMUAV_XB_AS_IMU/ap/arch/lpc21/subsystems/radio_control/ppm_arch.o
                0x400008b0                ppm_last_pulse_time
 .bss.ppm_data_valid
                0x400008b4        0x1 /home/excelobs/paparazzi/var/KMUAV_XB_AS_IMU/ap/arch/lpc21/subsystems/radio_control/ppm_arch.o
                0x400008b4                ppm_data_valid
 .bss.downlink_nb_ovrn
                0x400008b5        0x1 /home/excelobs/paparazzi/var/KMUAV_XB_AS_IMU/ap/./downlink.o
                0x400008b5                downlink_nb_ovrn
 .bss.downlink_nb_bytes
                0x400008b6        0x2 /home/excelobs/paparazzi/var/KMUAV_XB_AS_IMU/ap/./downlink.o
                0x400008b6                downlink_nb_bytes
 .bss.downlink_nb_msgs
                0x400008b8        0x2 /home/excelobs/paparazzi/var/KMUAV_XB_AS_IMU/ap/./downlink.o
                0x400008b8                downlink_nb_msgs
 .bss.dl_msg_available
                0x400008ba        0x1 /home/excelobs/paparazzi/var/KMUAV_XB_AS_IMU/ap/firmwares/fixedwing/datalink.o
                0x400008ba                dl_msg_available
 *fill*         0x400008bb        0x1 00
 .bss.datalink_time
                0x400008bc        0x2 /home/excelobs/paparazzi/var/KMUAV_XB_AS_IMU/ap/firmwares/fixedwing/datalink.o
                0x400008bc                datalink_time
 *fill*         0x400008be        0x2 00
 .bss.dl_buffer
                0x400008c0       0x80 /home/excelobs/paparazzi/var/KMUAV_XB_AS_IMU/ap/firmwares/fixedwing/datalink.o
                0x400008c0                dl_buffer
 .bss.ck_a      0x40000940        0x1 /home/excelobs/paparazzi/var/KMUAV_XB_AS_IMU/ap/./pprz_transport.o
                0x40000940                ck_a
 .bss.ck_b      0x40000941        0x1 /home/excelobs/paparazzi/var/KMUAV_XB_AS_IMU/ap/./pprz_transport.o
                0x40000941                ck_b
 .bss.pprz_payload
                0x40000942      0x100 /home/excelobs/paparazzi/var/KMUAV_XB_AS_IMU/ap/./pprz_transport.o
                0x40000942                pprz_payload
 .bss.pprz_ovrn
                0x40000a42        0x1 /home/excelobs/paparazzi/var/KMUAV_XB_AS_IMU/ap/./pprz_transport.o
                0x40000a42                pprz_ovrn
 .bss.pprz_error
                0x40000a43        0x1 /home/excelobs/paparazzi/var/KMUAV_XB_AS_IMU/ap/./pprz_transport.o
                0x40000a43                pprz_error
 .bss.pprz_payload_len
                0x40000a44        0x1 /home/excelobs/paparazzi/var/KMUAV_XB_AS_IMU/ap/./pprz_transport.o
                0x40000a44                pprz_payload_len
 *fill*         0x40000a45        0x3 00
 .bss.last_err.2
                0x40000a48        0x4 /home/excelobs/paparazzi/var/KMUAV_XB_AS_IMU/ap/firmwares/fixedwing/stabilization/stabilization_attitude.o
 .bss.last_err.0
                0x40000a4c        0x4 /home/excelobs/paparazzi/var/KMUAV_XB_AS_IMU/ap/firmwares/fixedwing/stabilization/stabilization_attitude.o
 .bss.last_elevator_trim.1
                0x40000a50        0x4 /home/excelobs/paparazzi/var/KMUAV_XB_AS_IMU/ap/firmwares/fixedwing/stabilization/stabilization_attitude.o
 .bss.h_ctl_course_setpoint
                0x40000a54        0x4 /home/excelobs/paparazzi/var/KMUAV_XB_AS_IMU/ap/firmwares/fixedwing/stabilization/stabilization_attitude.o
                0x40000a54                h_ctl_course_setpoint
 .bss.h_ctl_course_pre_bank
                0x40000a58        0x4 /home/excelobs/paparazzi/var/KMUAV_XB_AS_IMU/ap/firmwares/fixedwing/stabilization/stabilization_attitude.o
                0x40000a58                h_ctl_course_pre_bank
 .bss.h_ctl_course_pre_bank_correction
                0x40000a5c        0x4 /home/excelobs/paparazzi/var/KMUAV_XB_AS_IMU/ap/firmwares/fixedwing/stabilization/stabilization_attitude.o
                0x40000a5c                h_ctl_course_pre_bank_correction
 .bss.h_ctl_course_pgain
                0x40000a60        0x4 /home/excelobs/paparazzi/var/KMUAV_XB_AS_IMU/ap/firmwares/fixedwing/stabilization/stabilization_attitude.o
                0x40000a60                h_ctl_course_pgain
 .bss.h_ctl_course_dgain
                0x40000a64        0x4 /home/excelobs/paparazzi/var/KMUAV_XB_AS_IMU/ap/firmwares/fixedwing/stabilization/stabilization_attitude.o
                0x40000a64                h_ctl_course_dgain
 .bss.h_ctl_roll_max_setpoint
                0x40000a68        0x4 /home/excelobs/paparazzi/var/KMUAV_XB_AS_IMU/ap/firmwares/fixedwing/stabilization/stabilization_attitude.o
                0x40000a68                h_ctl_roll_max_setpoint
 .bss.h_ctl_disabled
                0x40000a6c        0x1 /home/excelobs/paparazzi/var/KMUAV_XB_AS_IMU/ap/firmwares/fixedwing/stabilization/stabilization_attitude.o
                0x40000a6c                h_ctl_disabled
 *fill*         0x40000a6d        0x3 00
 .bss.h_ctl_roll_setpoint
                0x40000a70        0x4 /home/excelobs/paparazzi/var/KMUAV_XB_AS_IMU/ap/firmwares/fixedwing/stabilization/stabilization_attitude.o
                0x40000a70                h_ctl_roll_setpoint
 .bss.h_ctl_roll_pgain
                0x40000a74        0x4 /home/excelobs/paparazzi/var/KMUAV_XB_AS_IMU/ap/firmwares/fixedwing/stabilization/stabilization_attitude.o
                0x40000a74                h_ctl_roll_pgain
 .bss.h_ctl_aileron_setpoint
                0x40000a78        0x2 /home/excelobs/paparazzi/var/KMUAV_XB_AS_IMU/ap/firmwares/fixedwing/stabilization/stabilization_attitude.o
                0x40000a78                h_ctl_aileron_setpoint
 *fill*         0x40000a7a        0x2 00
 .bss.h_ctl_roll_slew
                0x40000a7c        0x4 /home/excelobs/paparazzi/var/KMUAV_XB_AS_IMU/ap/firmwares/fixedwing/stabilization/stabilization_attitude.o
                0x40000a7c                h_ctl_roll_slew
 .bss.h_ctl_pitch_setpoint
                0x40000a80        0x4 /home/excelobs/paparazzi/var/KMUAV_XB_AS_IMU/ap/firmwares/fixedwing/stabilization/stabilization_attitude.o
                0x40000a80                h_ctl_pitch_setpoint
 .bss.h_ctl_pitch_loop_setpoint
                0x40000a84        0x4 /home/excelobs/paparazzi/var/KMUAV_XB_AS_IMU/ap/firmwares/fixedwing/stabilization/stabilization_attitude.o
                0x40000a84                h_ctl_pitch_loop_setpoint
 .bss.h_ctl_pitch_pgain
                0x40000a88        0x4 /home/excelobs/paparazzi/var/KMUAV_XB_AS_IMU/ap/firmwares/fixedwing/stabilization/stabilization_attitude.o
                0x40000a88                h_ctl_pitch_pgain
 .bss.h_ctl_pitch_dgain
                0x40000a8c        0x4 /home/excelobs/paparazzi/var/KMUAV_XB_AS_IMU/ap/firmwares/fixedwing/stabilization/stabilization_attitude.o
                0x40000a8c                h_ctl_pitch_dgain
 .bss.h_ctl_elevator_setpoint
                0x40000a90        0x2 /home/excelobs/paparazzi/var/KMUAV_XB_AS_IMU/ap/firmwares/fixedwing/stabilization/stabilization_attitude.o
                0x40000a90                h_ctl_elevator_setpoint
 *fill*         0x40000a92        0x2 00
 .bss.h_ctl_aileron_of_throttle
                0x40000a94        0x4 /home/excelobs/paparazzi/var/KMUAV_XB_AS_IMU/ap/firmwares/fixedwing/stabilization/stabilization_attitude.o
                0x40000a94                h_ctl_aileron_of_throttle
 .bss.h_ctl_elevator_of_roll
                0x40000a98        0x4 /home/excelobs/paparazzi/var/KMUAV_XB_AS_IMU/ap/firmwares/fixedwing/stabilization/stabilization_attitude.o
                0x40000a98                h_ctl_elevator_of_roll
 .bss.h_ctl_roll_attitude_gain
                0x40000a9c        0x4 /home/excelobs/paparazzi/var/KMUAV_XB_AS_IMU/ap/firmwares/fixedwing/stabilization/stabilization_attitude.o
                0x40000a9c                h_ctl_roll_attitude_gain
 .bss.h_ctl_roll_rate_gain
                0x40000aa0        0x4 /home/excelobs/paparazzi/var/KMUAV_XB_AS_IMU/ap/firmwares/fixedwing/stabilization/stabilization_attitude.o
                0x40000aa0                h_ctl_roll_rate_gain
 .bss.nav_ratio
                0x40000aa4        0x4 /home/excelobs/paparazzi/var/KMUAV_XB_AS_IMU/ap/firmwares/fixedwing/stabilization/stabilization_attitude.o
 .bss.v_ctl_mode
                0x40000aa8        0x1 /home/excelobs/paparazzi/var/KMUAV_XB_AS_IMU/ap/firmwares/fixedwing/guidance/guidance_v.o
                0x40000aa8                v_ctl_mode
 *fill*         0x40000aa9        0x3 00
 .bss.v_ctl_altitude_error
                0x40000aac        0x4 /home/excelobs/paparazzi/var/KMUAV_XB_AS_IMU/ap/firmwares/fixedwing/guidance/guidance_v.o
                0x40000aac                v_ctl_altitude_error
 .bss.v_ctl_altitude_setpoint
                0x40000ab0        0x4 /home/excelobs/paparazzi/var/KMUAV_XB_AS_IMU/ap/firmwares/fixedwing/guidance/guidance_v.o
                0x40000ab0                v_ctl_altitude_setpoint
 .bss.v_ctl_altitude_pre_climb
                0x40000ab4        0x4 /home/excelobs/paparazzi/var/KMUAV_XB_AS_IMU/ap/firmwares/fixedwing/guidance/guidance_v.o
                0x40000ab4                v_ctl_altitude_pre_climb
 .bss.v_ctl_altitude_pgain
                0x40000ab8        0x4 /home/excelobs/paparazzi/var/KMUAV_XB_AS_IMU/ap/firmwares/fixedwing/guidance/guidance_v.o
                0x40000ab8                v_ctl_altitude_pgain
 .bss.v_ctl_climb_setpoint
                0x40000abc        0x4 /home/excelobs/paparazzi/var/KMUAV_XB_AS_IMU/ap/firmwares/fixedwing/guidance/guidance_v.o
                0x40000abc                v_ctl_climb_setpoint
 .bss.v_ctl_climb_mode
                0x40000ac0        0x1 /home/excelobs/paparazzi/var/KMUAV_XB_AS_IMU/ap/firmwares/fixedwing/guidance/guidance_v.o
                0x40000ac0                v_ctl_climb_mode
 .bss.v_ctl_auto_throttle_submode
                0x40000ac1        0x1 /home/excelobs/paparazzi/var/KMUAV_XB_AS_IMU/ap/firmwares/fixedwing/guidance/guidance_v.o
                0x40000ac1                v_ctl_auto_throttle_submode
 *fill*         0x40000ac2        0x2 00
 .bss.v_ctl_auto_throttle_nominal_cruise_throttle
                0x40000ac4        0x4 /home/excelobs/paparazzi/var/KMUAV_XB_AS_IMU/ap/firmwares/fixedwing/guidance/guidance_v.o
                0x40000ac4                v_ctl_auto_throttle_nominal_cruise_throttle
 .bss.v_ctl_auto_throttle_cruise_throttle
                0x40000ac8        0x4 /home/excelobs/paparazzi/var/KMUAV_XB_AS_IMU/ap/firmwares/fixedwing/guidance/guidance_v.o
                0x40000ac8                v_ctl_auto_throttle_cruise_throttle
 .bss.v_ctl_auto_throttle_climb_throttle_increment
                0x40000acc        0x4 /home/excelobs/paparazzi/var/KMUAV_XB_AS_IMU/ap/firmwares/fixedwing/guidance/guidance_v.o
                0x40000acc                v_ctl_auto_throttle_climb_throttle_increment
 .bss.v_ctl_auto_throttle_pgain
                0x40000ad0        0x4 /home/excelobs/paparazzi/var/KMUAV_XB_AS_IMU/ap/firmwares/fixedwing/guidance/guidance_v.o
                0x40000ad0                v_ctl_auto_throttle_pgain
 .bss.v_ctl_auto_throttle_igain
                0x40000ad4        0x4 /home/excelobs/paparazzi/var/KMUAV_XB_AS_IMU/ap/firmwares/fixedwing/guidance/guidance_v.o
                0x40000ad4                v_ctl_auto_throttle_igain
 .bss.v_ctl_auto_throttle_dgain
                0x40000ad8        0x4 /home/excelobs/paparazzi/var/KMUAV_XB_AS_IMU/ap/firmwares/fixedwing/guidance/guidance_v.o
                0x40000ad8                v_ctl_auto_throttle_dgain
 .bss.v_ctl_auto_throttle_sum_err
                0x40000adc        0x4 /home/excelobs/paparazzi/var/KMUAV_XB_AS_IMU/ap/firmwares/fixedwing/guidance/guidance_v.o
                0x40000adc                v_ctl_auto_throttle_sum_err
 .bss.v_ctl_auto_throttle_pitch_of_vz_pgain
                0x40000ae0        0x4 /home/excelobs/paparazzi/var/KMUAV_XB_AS_IMU/ap/firmwares/fixedwing/guidance/guidance_v.o
                0x40000ae0                v_ctl_auto_throttle_pitch_of_vz_pgain
 .bss.v_ctl_auto_throttle_pitch_of_vz_dgain
                0x40000ae4        0x4 /home/excelobs/paparazzi/var/KMUAV_XB_AS_IMU/ap/firmwares/fixedwing/guidance/guidance_v.o
                0x40000ae4                v_ctl_auto_throttle_pitch_of_vz_dgain
 .bss.v_ctl_auto_pitch_pgain
                0x40000ae8        0x4 /home/excelobs/paparazzi/var/KMUAV_XB_AS_IMU/ap/firmwares/fixedwing/guidance/guidance_v.o
                0x40000ae8                v_ctl_auto_pitch_pgain
 .bss.v_ctl_auto_pitch_igain
                0x40000aec        0x4 /home/excelobs/paparazzi/var/KMUAV_XB_AS_IMU/ap/firmwares/fixedwing/guidance/guidance_v.o
                0x40000aec                v_ctl_auto_pitch_igain
 .bss.v_ctl_auto_pitch_sum_err
                0x40000af0        0x4 /home/excelobs/paparazzi/var/KMUAV_XB_AS_IMU/ap/firmwares/fixedwing/guidance/guidance_v.o
                0x40000af0                v_ctl_auto_pitch_sum_err
 .bss.v_ctl_throttle_setpoint
                0x40000af4        0x2 /home/excelobs/paparazzi/var/KMUAV_XB_AS_IMU/ap/firmwares/fixedwing/guidance/guidance_v.o
                0x40000af4                v_ctl_throttle_setpoint
 .bss.v_ctl_throttle_slewed
                0x40000af6        0x2 /home/excelobs/paparazzi/var/KMUAV_XB_AS_IMU/ap/firmwares/fixedwing/guidance/guidance_v.o
                0x40000af6                v_ctl_throttle_slewed
 .bss.v_ctl_auto_airspeed_setpoint
                0x40000af8        0x4 /home/excelobs/paparazzi/var/KMUAV_XB_AS_IMU/ap/firmwares/fixedwing/guidance/guidance_v.o
                0x40000af8                v_ctl_auto_airspeed_setpoint
 .bss.v_ctl_auto_airspeed_controlled
                0x40000afc        0x4 /home/excelobs/paparazzi/var/KMUAV_XB_AS_IMU/ap/firmwares/fixedwing/guidance/guidance_v.o
                0x40000afc                v_ctl_auto_airspeed_controlled
 .bss.v_ctl_auto_airspeed_pgain
                0x40000b00        0x4 /home/excelobs/paparazzi/var/KMUAV_XB_AS_IMU/ap/firmwares/fixedwing/guidance/guidance_v.o
                0x40000b00                v_ctl_auto_airspeed_pgain
 .bss.v_ctl_auto_airspeed_igain
                0x40000b04        0x4 /home/excelobs/paparazzi/var/KMUAV_XB_AS_IMU/ap/firmwares/fixedwing/guidance/guidance_v.o
                0x40000b04                v_ctl_auto_airspeed_igain
 .bss.v_ctl_auto_airspeed_sum_err
                0x40000b08        0x4 /home/excelobs/paparazzi/var/KMUAV_XB_AS_IMU/ap/firmwares/fixedwing/guidance/guidance_v.o
                0x40000b08                v_ctl_auto_airspeed_sum_err
 .bss.v_ctl_auto_groundspeed_setpoint
                0x40000b0c        0x4 /home/excelobs/paparazzi/var/KMUAV_XB_AS_IMU/ap/firmwares/fixedwing/guidance/guidance_v.o
                0x40000b0c                v_ctl_auto_groundspeed_setpoint
 .bss.v_ctl_auto_groundspeed_pgain
                0x40000b10        0x4 /home/excelobs/paparazzi/var/KMUAV_XB_AS_IMU/ap/firmwares/fixedwing/guidance/guidance_v.o
                0x40000b10                v_ctl_auto_groundspeed_pgain
 .bss.v_ctl_auto_groundspeed_igain
                0x40000b14        0x4 /home/excelobs/paparazzi/var/KMUAV_XB_AS_IMU/ap/firmwares/fixedwing/guidance/guidance_v.o
                0x40000b14                v_ctl_auto_groundspeed_igain
 .bss.v_ctl_auto_groundspeed_sum_err
                0x40000b18        0x4 /home/excelobs/paparazzi/var/KMUAV_XB_AS_IMU/ap/firmwares/fixedwing/guidance/guidance_v.o
                0x40000b18                v_ctl_auto_groundspeed_sum_err
 .bss.gps_reset
                0x40000b1c        0x2 /home/excelobs/paparazzi/var/KMUAV_XB_AS_IMU/ap/./gps_ubx.o
                0x40000b1c                gps_reset
 .bss.ubx_id    0x40000b1e        0x1 /home/excelobs/paparazzi/var/KMUAV_XB_AS_IMU/ap/./gps_ubx.o
                0x40000b1e                ubx_id
 .bss.ubx_class
                0x40000b1f        0x1 /home/excelobs/paparazzi/var/KMUAV_XB_AS_IMU/ap/./gps_ubx.o
                0x40000b1f                ubx_class
 .bss.ubx_len   0x40000b20        0x2 /home/excelobs/paparazzi/var/KMUAV_XB_AS_IMU/ap/./gps_ubx.o
                0x40000b20                ubx_len
 *fill*         0x40000b22        0x2 00
 .bss.ubx_msg_buf
                0x40000b24      0x100 /home/excelobs/paparazzi/var/KMUAV_XB_AS_IMU/ap/./gps_ubx.o
                0x40000b24                ubx_msg_buf
 .bss.gps_mode  0x40000c24        0x1 /home/excelobs/paparazzi/var/KMUAV_XB_AS_IMU/ap/./gps_ubx.o
                0x40000c24                gps_mode
 .bss.gps_status_flags
                0x40000c25        0x1 /home/excelobs/paparazzi/var/KMUAV_XB_AS_IMU/ap/./gps_ubx.o
                0x40000c25                gps_status_flags
 .bss.gps_sol_flags
                0x40000c26        0x1 /home/excelobs/paparazzi/var/KMUAV_XB_AS_IMU/ap/./gps_ubx.o
                0x40000c26                gps_sol_flags
 *fill*         0x40000c27        0x1 00
 .bss.gps_week  0x40000c28        0x2 /home/excelobs/paparazzi/var/KMUAV_XB_AS_IMU/ap/./gps_ubx.o
                0x40000c28                gps_week
 *fill*         0x40000c2a        0x2 00
 .bss.gps_itow  0x40000c2c        0x4 /home/excelobs/paparazzi/var/KMUAV_XB_AS_IMU/ap/./gps_ubx.o
                0x40000c2c                gps_itow
 .bss.gps_alt   0x40000c30        0x4 /home/excelobs/paparazzi/var/KMUAV_XB_AS_IMU/ap/./gps_ubx.o
                0x40000c30                gps_alt
 .bss.gps_speed_3d
                0x40000c34        0x2 /home/excelobs/paparazzi/var/KMUAV_XB_AS_IMU/ap/./gps_ubx.o
                0x40000c34                gps_speed_3d
 .bss.gps_gspeed
                0x40000c36        0x2 /home/excelobs/paparazzi/var/KMUAV_XB_AS_IMU/ap/./gps_ubx.o
                0x40000c36                gps_gspeed
 .bss.gps_climb
                0x40000c38        0x2 /home/excelobs/paparazzi/var/KMUAV_XB_AS_IMU/ap/./gps_ubx.o
                0x40000c38                gps_climb
 .bss.gps_course
                0x40000c3a        0x2 /home/excelobs/paparazzi/var/KMUAV_XB_AS_IMU/ap/./gps_ubx.o
                0x40000c3a                gps_course
 .bss.gps_utm_east
                0x40000c3c        0x4 /home/excelobs/paparazzi/var/KMUAV_XB_AS_IMU/ap/./gps_ubx.o
                0x40000c3c                gps_utm_east
 .bss.gps_utm_north
                0x40000c40        0x4 /home/excelobs/paparazzi/var/KMUAV_XB_AS_IMU/ap/./gps_ubx.o
                0x40000c40                gps_utm_north
 .bss.gps_utm_zone
                0x40000c44        0x1 /home/excelobs/paparazzi/var/KMUAV_XB_AS_IMU/ap/./gps_ubx.o
                0x40000c44                gps_utm_zone
 *fill*         0x40000c45        0x3 00
 .bss.gps_lat   0x40000c48        0x4 /home/excelobs/paparazzi/var/KMUAV_XB_AS_IMU/ap/./gps_ubx.o
                0x40000c48                gps_lat
 .bss.gps_lon   0x40000c4c        0x4 /home/excelobs/paparazzi/var/KMUAV_XB_AS_IMU/ap/./gps_ubx.o
                0x40000c4c                gps_lon
 .bss.gps_hmsl  0x40000c50        0x4 /home/excelobs/paparazzi/var/KMUAV_XB_AS_IMU/ap/./gps_ubx.o
                0x40000c50                gps_hmsl
 .bss.gps_PDOP  0x40000c54        0x2 /home/excelobs/paparazzi/var/KMUAV_XB_AS_IMU/ap/./gps_ubx.o
                0x40000c54                gps_PDOP
 *fill*         0x40000c56        0x2 00
 .bss.gps_Pacc  0x40000c58        0x4 /home/excelobs/paparazzi/var/KMUAV_XB_AS_IMU/ap/./gps_ubx.o
                0x40000c58                gps_Pacc
 .bss.gps_Sacc  0x40000c5c        0x4 /home/excelobs/paparazzi/var/KMUAV_XB_AS_IMU/ap/./gps_ubx.o
                0x40000c5c                gps_Sacc
 .bss.gps_ecefVZ
                0x40000c60        0x4 /home/excelobs/paparazzi/var/KMUAV_XB_AS_IMU/ap/./gps_ubx.o
                0x40000c60                gps_ecefVZ
 .bss.gps_numSV
                0x40000c64        0x1 /home/excelobs/paparazzi/var/KMUAV_XB_AS_IMU/ap/./gps_ubx.o
                0x40000c64                gps_numSV
 .bss.gps_msg_received
                0x40000c65        0x1 /home/excelobs/paparazzi/var/KMUAV_XB_AS_IMU/ap/./gps_ubx.o
                0x40000c65                gps_msg_received
 .bss.gps_pos_available
                0x40000c66        0x1 /home/excelobs/paparazzi/var/KMUAV_XB_AS_IMU/ap/./gps_ubx.o
                0x40000c66                gps_pos_available
 .bss.gps_nb_ovrn
                0x40000c67        0x1 /home/excelobs/paparazzi/var/KMUAV_XB_AS_IMU/ap/./gps_ubx.o
                0x40000c67                gps_nb_ovrn
 .bss.gps_nb_channels
                0x40000c68        0x1 /home/excelobs/paparazzi/var/KMUAV_XB_AS_IMU/ap/./gps_ubx.o
                0x40000c68                gps_nb_channels
 *fill*         0x40000c69        0x3 00
 .bss.gps_svinfos
                0x40000c6c       0x80 /home/excelobs/paparazzi/var/KMUAV_XB_AS_IMU/ap/./gps_ubx.o
                0x40000c6c                gps_svinfos
 .bss.ubx_status
                0x40000cec        0x1 /home/excelobs/paparazzi/var/KMUAV_XB_AS_IMU/ap/./gps_ubx.o
 .bss.ubx_msg_idx
                0x40000ced        0x1 /home/excelobs/paparazzi/var/KMUAV_XB_AS_IMU/ap/./gps_ubx.o
 .bss.ck_a      0x40000cee        0x1 /home/excelobs/paparazzi/var/KMUAV_XB_AS_IMU/ap/./gps_ubx.o
 .bss.ck_b      0x40000cef        0x1 /home/excelobs/paparazzi/var/KMUAV_XB_AS_IMU/ap/./gps_ubx.o
 .bss.i.0       0x40000cf0        0x1 /home/excelobs/paparazzi/var/KMUAV_XB_AS_IMU/ap/./gps.o
 .bss.last_cnos.1
                0x40000cf1       0x10 /home/excelobs/paparazzi/var/KMUAV_XB_AS_IMU/ap/./gps.o
 *fill*         0x40000d01        0x1 00
 .bss.last_gps_msg_t
                0x40000d02        0x2 /home/excelobs/paparazzi/var/KMUAV_XB_AS_IMU/ap/./gps.o
                0x40000d02                last_gps_msg_t
 .bss.gps_verbose_downlink
                0x40000d04        0x1 /home/excelobs/paparazzi/var/KMUAV_XB_AS_IMU/ap/./gps.o
                0x40000d04                gps_verbose_downlink
 *fill*         0x40000d05        0x3 00
 .bss.latlong_utm_x
                0x40000d08        0x4 /home/excelobs/paparazzi/var/KMUAV_XB_AS_IMU/ap/./latlong.o
                0x40000d08                latlong_utm_x
 .bss.latlong_utm_y
                0x40000d0c        0x4 /home/excelobs/paparazzi/var/KMUAV_XB_AS_IMU/ap/./latlong.o
                0x40000d0c                latlong_utm_y
 .bss.i2c0      0x40000d10       0x3c /home/excelobs/paparazzi/var/KMUAV_XB_AS_IMU/ap/mcu_periph/i2c.o
                0x40000d10                i2c0
 .bss.i2c1      0x40000d4c       0x3c /home/excelobs/paparazzi/var/KMUAV_XB_AS_IMU/ap/mcu_periph/i2c.o
                0x40000d4c                i2c1
 .bss.last_nav_altitude.0
                0x40000d88        0x4 /home/excelobs/paparazzi/var/KMUAV_XB_AS_IMU/ap/subsystems/nav.o
 .bss.dist2_to_home
                0x40000d8c        0x4 /home/excelobs/paparazzi/var/KMUAV_XB_AS_IMU/ap/subsystems/nav.o
                0x40000d8c                dist2_to_home
 .bss.dist2_to_wp
                0x40000d90        0x4 /home/excelobs/paparazzi/var/KMUAV_XB_AS_IMU/ap/subsystems/nav.o
                0x40000d90                dist2_to_wp
 .bss.too_far_from_home
                0x40000d94        0x1 /home/excelobs/paparazzi/var/KMUAV_XB_AS_IMU/ap/subsystems/nav.o
                0x40000d94                too_far_from_home
 *fill*         0x40000d95        0x1 00
 .bss.stage_time
                0x40000d96        0x2 /home/excelobs/paparazzi/var/KMUAV_XB_AS_IMU/ap/subsystems/nav.o
                0x40000d96                stage_time
 .bss.block_time
                0x40000d98        0x2 /home/excelobs/paparazzi/var/KMUAV_XB_AS_IMU/ap/subsystems/nav.o
                0x40000d98                block_time
 .bss.nav_stage
                0x40000d9a        0x1 /home/excelobs/paparazzi/var/KMUAV_XB_AS_IMU/ap/subsystems/nav.o
                0x40000d9a                nav_stage
 .bss.nav_block
                0x40000d9b        0x1 /home/excelobs/paparazzi/var/KMUAV_XB_AS_IMU/ap/subsystems/nav.o
                0x40000d9b                nav_block
 .bss.last_block
                0x40000d9c        0x1 /home/excelobs/paparazzi/var/KMUAV_XB_AS_IMU/ap/subsystems/nav.o
                0x40000d9c                last_block
 .bss.last_stage
                0x40000d9d        0x1 /home/excelobs/paparazzi/var/KMUAV_XB_AS_IMU/ap/subsystems/nav.o
                0x40000d9d                last_stage
 *fill*         0x40000d9e        0x2 00
 .bss.ground_alt
                0x40000da0        0x4 /home/excelobs/paparazzi/var/KMUAV_XB_AS_IMU/ap/subsystems/nav.o
                0x40000da0                ground_alt
 .bss.last_x    0x40000da4        0x4 /home/excelobs/paparazzi/var/KMUAV_XB_AS_IMU/ap/subsystems/nav.o
                0x40000da4                last_x
 .bss.last_y    0x40000da8        0x4 /home/excelobs/paparazzi/var/KMUAV_XB_AS_IMU/ap/subsystems/nav.o
                0x40000da8                last_y
 .bss.desired_x
                0x40000dac        0x4 /home/excelobs/paparazzi/var/KMUAV_XB_AS_IMU/ap/subsystems/nav.o
                0x40000dac                desired_x
 .bss.desired_y
                0x40000db0        0x4 /home/excelobs/paparazzi/var/KMUAV_XB_AS_IMU/ap/subsystems/nav.o
                0x40000db0                desired_y
 .bss.flight_altitude
                0x40000db4        0x4 /home/excelobs/paparazzi/var/KMUAV_XB_AS_IMU/ap/subsystems/nav.o
                0x40000db4                flight_altitude
 .bss.nav_glide_pitch_trim
                0x40000db8        0x4 /home/excelobs/paparazzi/var/KMUAV_XB_AS_IMU/ap/subsystems/nav.o
                0x40000db8                nav_glide_pitch_trim
 .bss.nav_throttle_setpoint
                0x40000dbc        0x2 /home/excelobs/paparazzi/var/KMUAV_XB_AS_IMU/ap/subsystems/nav.o
                0x40000dbc                nav_throttle_setpoint
 *fill*         0x40000dbe        0x2 00
 .bss.nav_pitch
                0x40000dc0        0x4 /home/excelobs/paparazzi/var/KMUAV_XB_AS_IMU/ap/subsystems/nav.o
                0x40000dc0                nav_pitch
 .bss.fp_pitch  0x40000dc4        0x4 /home/excelobs/paparazzi/var/KMUAV_XB_AS_IMU/ap/subsystems/nav.o
                0x40000dc4                fp_pitch
 .bss.nav_circle_radians
                0x40000dc8        0x4 /home/excelobs/paparazzi/var/KMUAV_XB_AS_IMU/ap/subsystems/nav.o
                0x40000dc8                nav_circle_radians
 .bss.nav_circle_x
                0x40000dcc        0x4 /home/excelobs/paparazzi/var/KMUAV_XB_AS_IMU/ap/subsystems/nav.o
                0x40000dcc                nav_circle_x
 .bss.nav_circle_y
                0x40000dd0        0x4 /home/excelobs/paparazzi/var/KMUAV_XB_AS_IMU/ap/subsystems/nav.o
                0x40000dd0                nav_circle_y
 .bss.nav_circle_radius
                0x40000dd4        0x4 /home/excelobs/paparazzi/var/KMUAV_XB_AS_IMU/ap/subsystems/nav.o
                0x40000dd4                nav_circle_radius
 .bss.nav_segment_x_1
                0x40000dd8        0x4 /home/excelobs/paparazzi/var/KMUAV_XB_AS_IMU/ap/subsystems/nav.o
                0x40000dd8                nav_segment_x_1
 .bss.nav_segment_y_1
                0x40000ddc        0x4 /home/excelobs/paparazzi/var/KMUAV_XB_AS_IMU/ap/subsystems/nav.o
                0x40000ddc                nav_segment_y_1
 .bss.nav_segment_x_2
                0x40000de0        0x4 /home/excelobs/paparazzi/var/KMUAV_XB_AS_IMU/ap/subsystems/nav.o
                0x40000de0                nav_segment_x_2
 .bss.nav_segment_y_2
                0x40000de4        0x4 /home/excelobs/paparazzi/var/KMUAV_XB_AS_IMU/ap/subsystems/nav.o
                0x40000de4                nav_segment_y_2
 .bss.nav_mode  0x40000de8        0x4 /home/excelobs/paparazzi/var/KMUAV_XB_AS_IMU/ap/subsystems/nav.o
                0x40000de8                nav_mode
 .bss.horizontal_mode
                0x40000dec        0x1 /home/excelobs/paparazzi/var/KMUAV_XB_AS_IMU/ap/subsystems/nav.o
                0x40000dec                horizontal_mode
 .bss.nav_oval_count
                0x40000ded        0x1 /home/excelobs/paparazzi/var/KMUAV_XB_AS_IMU/ap/subsystems/nav.o
                0x40000ded                nav_oval_count
 *fill*         0x40000dee        0x2 00
 .bss.nav_radius
                0x40000df0        0x4 /home/excelobs/paparazzi/var/KMUAV_XB_AS_IMU/ap/subsystems/nav.o
                0x40000df0                nav_radius
 .bss.nav_course
                0x40000df4        0x4 /home/excelobs/paparazzi/var/KMUAV_XB_AS_IMU/ap/subsystems/nav.o
                0x40000df4                nav_course
 .bss.nav_climb
                0x40000df8        0x4 /home/excelobs/paparazzi/var/KMUAV_XB_AS_IMU/ap/subsystems/nav.o
                0x40000df8                nav_climb
 .bss.nav_shift
                0x40000dfc        0x4 /home/excelobs/paparazzi/var/KMUAV_XB_AS_IMU/ap/subsystems/nav.o
                0x40000dfc                nav_shift
 .bss.nav_ground_speed_pgain
                0x40000e00        0x4 /home/excelobs/paparazzi/var/KMUAV_XB_AS_IMU/ap/subsystems/nav.o
                0x40000e00                nav_ground_speed_pgain
 .bss.nav_ground_speed_setpoint
                0x40000e04        0x4 /home/excelobs/paparazzi/var/KMUAV_XB_AS_IMU/ap/subsystems/nav.o
                0x40000e04                nav_ground_speed_setpoint
 .bss.nav_survey_shift
                0x40000e08        0x4 /home/excelobs/paparazzi/var/KMUAV_XB_AS_IMU/ap/subsystems/nav.o
                0x40000e08                nav_survey_shift
 .bss.nav_survey_west
                0x40000e0c        0x4 /home/excelobs/paparazzi/var/KMUAV_XB_AS_IMU/ap/subsystems/nav.o
                0x40000e0c                nav_survey_west
 .bss.nav_survey_east
                0x40000e10        0x4 /home/excelobs/paparazzi/var/KMUAV_XB_AS_IMU/ap/subsystems/nav.o
                0x40000e10                nav_survey_east
 .bss.nav_survey_north
                0x40000e14        0x4 /home/excelobs/paparazzi/var/KMUAV_XB_AS_IMU/ap/subsystems/nav.o
                0x40000e14                nav_survey_north
 .bss.nav_survey_south
                0x40000e18        0x4 /home/excelobs/paparazzi/var/KMUAV_XB_AS_IMU/ap/subsystems/nav.o
                0x40000e18                nav_survey_south
 .bss.nav_survey_active
                0x40000e1c        0x1 /home/excelobs/paparazzi/var/KMUAV_XB_AS_IMU/ap/subsystems/nav.o
                0x40000e1c                nav_survey_active
 *fill*         0x40000e1d        0x3 00
 .bss.nav_circle_trigo_qdr
                0x40000e20        0x4 /home/excelobs/paparazzi/var/KMUAV_XB_AS_IMU/ap/subsystems/nav.o
                0x40000e20                nav_circle_trigo_qdr
 .bss.last_wp   0x40000e24        0x1 /home/excelobs/paparazzi/var/KMUAV_XB_AS_IMU/ap/subsystems/nav.o
 *fill*         0x40000e25        0x3 00
 .bss.nav_leg_progress
                0x40000e28        0x4 /home/excelobs/paparazzi/var/KMUAV_XB_AS_IMU/ap/subsystems/nav.o
 .bss.nav_leg_length
                0x40000e2c        0x4 /home/excelobs/paparazzi/var/KMUAV_XB_AS_IMU/ap/subsystems/nav.o
 .bss.previous_ground_alt
                0x40000e30        0x4 /home/excelobs/paparazzi/var/KMUAV_XB_AS_IMU/ap/subsystems/nav.o
 .bss.acs_idx   0x40000e34        0x1 /home/excelobs/paparazzi/var/KMUAV_XB_AS_IMU/ap/subsystems/navigation/traffic_info.o
                0x40000e34                acs_idx
 .bss.the_acs_id
                0x40000e35      0x100 /home/excelobs/paparazzi/var/KMUAV_XB_AS_IMU/ap/subsystems/navigation/traffic_info.o
                0x40000e35                the_acs_id
 *fill*         0x40000f35        0x3 00
 .bss.the_acs   0x40000f38      0x300 /home/excelobs/paparazzi/var/KMUAV_XB_AS_IMU/ap/subsystems/navigation/traffic_info.o
                0x40000f38                the_acs
 .bss.survey_radius.0
                0x40001238        0x4 /home/excelobs/paparazzi/var/KMUAV_XB_AS_IMU/ap/subsystems/navigation/nav_survey_rectangle.o
 .bss.survey_from
                0x4000123c        0xc /home/excelobs/paparazzi/var/KMUAV_XB_AS_IMU/ap/subsystems/navigation/nav_survey_rectangle.o
 .bss.survey_to
                0x40001248        0xc /home/excelobs/paparazzi/var/KMUAV_XB_AS_IMU/ap/subsystems/navigation/nav_survey_rectangle.o
 .bss.line_status
                0x40001254        0x4 /home/excelobs/paparazzi/var/KMUAV_XB_AS_IMU/ap/subsystems/navigation/nav_line.o
 .bss.airspeed_ets_raw
                0x40001258        0x2 /home/excelobs/paparazzi/var/KMUAV_XB_AS_IMU/ap/modules/sensors/airspeed_ets.o
                0x40001258                airspeed_ets_raw
 .bss.airspeed_ets_offset
                0x4000125a        0x2 /home/excelobs/paparazzi/var/KMUAV_XB_AS_IMU/ap/modules/sensors/airspeed_ets.o
                0x4000125a                airspeed_ets_offset
 .bss.airspeed_ets_valid
                0x4000125c        0x1 /home/excelobs/paparazzi/var/KMUAV_XB_AS_IMU/ap/modules/sensors/airspeed_ets.o
                0x4000125c                airspeed_ets_valid
 *fill*         0x4000125d        0x3 00
 .bss.airspeed_ets
                0x40001260        0x4 /home/excelobs/paparazzi/var/KMUAV_XB_AS_IMU/ap/modules/sensors/airspeed_ets.o
                0x40001260                airspeed_ets
 .bss.airspeed_ets_i2c_trans
                0x40001264       0x30 /home/excelobs/paparazzi/var/KMUAV_XB_AS_IMU/ap/modules/sensors/airspeed_ets.o
                0x40001264                airspeed_ets_i2c_trans
 .bss.airspeed_ets_buffer_idx
                0x40001294        0x4 /home/excelobs/paparazzi/var/KMUAV_XB_AS_IMU/ap/modules/sensors/airspeed_ets.o
                0x40001294                airspeed_ets_buffer_idx
 .bss.airspeed_ets_buffer
                0x40001298       0x28 /home/excelobs/paparazzi/var/KMUAV_XB_AS_IMU/ap/modules/sensors/airspeed_ets.o
                0x40001298                airspeed_ets_buffer
 .bss.airspeed_ets_i2c_done
                0x400012c0        0x1 /home/excelobs/paparazzi/var/KMUAV_XB_AS_IMU/ap/modules/sensors/airspeed_ets.o
                0x400012c0                airspeed_ets_i2c_done
 .bss.airspeed_ets_offset_init
                0x400012c1        0x1 /home/excelobs/paparazzi/var/KMUAV_XB_AS_IMU/ap/modules/sensors/airspeed_ets.o
                0x400012c1                airspeed_ets_offset_init
 *fill*         0x400012c2        0x2 00
 .bss.airspeed_ets_offset_tmp
                0x400012c4        0x4 /home/excelobs/paparazzi/var/KMUAV_XB_AS_IMU/ap/modules/sensors/airspeed_ets.o
                0x400012c4                airspeed_ets_offset_tmp
 .bss.airspeed_ets_cnt
                0x400012c8        0x2 /home/excelobs/paparazzi/var/KMUAV_XB_AS_IMU/ap/modules/sensors/airspeed_ets.o
                0x400012c8                airspeed_ets_cnt
 *fill*         0x400012ca        0x2 00
 .bss.arduimu_eulers
                0x400012cc        0xc /home/excelobs/paparazzi/var/KMUAV_XB_AS_IMU/ap/modules/ins/ins_arduimu_basic.o
                0x400012cc                arduimu_eulers
 .bss.arduimu_rates
                0x400012d8        0xc /home/excelobs/paparazzi/var/KMUAV_XB_AS_IMU/ap/modules/ins/ins_arduimu_basic.o
                0x400012d8                arduimu_rates
 .bss.arduimu_accel
                0x400012e4        0xc /home/excelobs/paparazzi/var/KMUAV_XB_AS_IMU/ap/modules/ins/ins_arduimu_basic.o
                0x400012e4                arduimu_accel
 .bss.ins_roll_neutral
                0x400012f0        0x4 /home/excelobs/paparazzi/var/KMUAV_XB_AS_IMU/ap/modules/ins/ins_arduimu_basic.o
                0x400012f0                ins_roll_neutral
 .bss.ins_pitch_neutral
                0x400012f4        0x4 /home/excelobs/paparazzi/var/KMUAV_XB_AS_IMU/ap/modules/ins/ins_arduimu_basic.o
                0x400012f4                ins_pitch_neutral
 .bss.ardu_gps_trans
                0x400012f8       0x30 /home/excelobs/paparazzi/var/KMUAV_XB_AS_IMU/ap/modules/ins/ins_arduimu_basic.o
                0x400012f8                ardu_gps_trans
 .bss.ardu_ins_trans
                0x40001328       0x30 /home/excelobs/paparazzi/var/KMUAV_XB_AS_IMU/ap/modules/ins/ins_arduimu_basic.o
                0x40001328                ardu_ins_trans
 .bss.recievedData
                0x40001358       0x12 /home/excelobs/paparazzi/var/KMUAV_XB_AS_IMU/ap/modules/ins/ins_arduimu_basic.o
 .bss.high_accel_flag
                0x4000136a        0x1 /home/excelobs/paparazzi/var/KMUAV_XB_AS_IMU/ap/modules/ins/ins_arduimu_basic.o
                0x4000136a                high_accel_flag
 *(.gnu.linkonce.b*)
 *(COMMON)
                0x4000136c                . = ALIGN (0x4)
 *fill*         0x4000136b        0x1 00
                0x4000136c                . = ALIGN (0x4)
                0x4000136c                __bss_end__ = .
                0x4000136c                PROVIDE (__bss_end, .)

.stack          0x40001400     0x1000
                0x40002400                . = (. + STACK_SIZE)
 *fill*         0x40001400     0x1000 00
                0x40002400                PROVIDE (_stack, .)
                0x40002400                _end = .
                0x40002400                PROVIDE (end, .)

.stab
 *(.stab)

.stabstr
 *(.stabstr)

.stab.excl
 *(.stab.excl)

.stab.exclstr
 *(.stab.exclstr)

.stab.index
 *(.stab.index)

.stab.indexstr
 *(.stab.indexstr)

.comment        0x00000000      0x666
 *(.comment)
 .comment       0x00000000       0x12 /home/excelobs/paparazzi/var/KMUAV_XB_AS_IMU/ap/mcu.o
 .comment       0x00000012       0x12 /home/excelobs/paparazzi/var/KMUAV_XB_AS_IMU/ap/arch/lpc21/mcu_arch.o
 .comment       0x00000024       0x12 /home/excelobs/paparazzi/var/KMUAV_XB_AS_IMU/ap/sys_time.o
 .comment       0x00000036       0x12 /home/excelobs/paparazzi/var/KMUAV_XB_AS_IMU/ap/./inter_mcu.o
 .comment       0x00000048       0x12 /home/excelobs/paparazzi/var/KMUAV_XB_AS_IMU/ap/firmwares/fixedwing/main_fbw.o
 .comment       0x0000005a       0x12 /home/excelobs/paparazzi/var/KMUAV_XB_AS_IMU/ap/subsystems/electrical.o
 .comment       0x0000006c       0x12 /home/excelobs/paparazzi/var/KMUAV_XB_AS_IMU/ap/./commands.o
 .comment       0x0000007e       0x12 /home/excelobs/paparazzi/var/KMUAV_XB_AS_IMU/ap/firmwares/fixedwing/main_ap.o
 .comment       0x00000090       0x12 /home/excelobs/paparazzi/var/KMUAV_XB_AS_IMU/ap/./estimator.o
 .comment       0x000000a2       0x12 /home/excelobs/paparazzi/var/KMUAV_XB_AS_IMU/ap/arch/lpc21/armVIC.o
 .comment       0x000000b4       0x12 /home/excelobs/paparazzi/var/KMUAV_XB_AS_IMU/ap/firmwares/fixedwing/main.o
 .comment       0x000000c6       0x12 /home/excelobs/paparazzi/var/KMUAV_XB_AS_IMU/ap/arch/lpc21/sys_time_hw.o
 .comment       0x000000d8       0x12 /home/excelobs/paparazzi/var/KMUAV_XB_AS_IMU/ap/arch/lpc21/mcu_periph/uart_arch.o
 .comment       0x000000ea       0x12 /home/excelobs/paparazzi/var/KMUAV_XB_AS_IMU/ap/subsystems/settings.o
 .comment       0x000000fc       0x12 /home/excelobs/paparazzi/var/KMUAV_XB_AS_IMU/ap/arch/lpc21/subsystems/settings_arch.o
 .comment       0x0000010e       0x12 /home/excelobs/paparazzi/var/KMUAV_XB_AS_IMU/ap/arch/lpc21/mcu_periph/adc_arch.o
 .comment       0x00000120       0x12 /home/excelobs/paparazzi/var/KMUAV_XB_AS_IMU/ap/arch/lpc21/servos_4017_hw.o
 .comment       0x00000132       0x12 /home/excelobs/paparazzi/var/KMUAV_XB_AS_IMU/ap/actuators.o
 .comment       0x00000144       0x12 /home/excelobs/paparazzi/var/KMUAV_XB_AS_IMU/ap/subsystems/radio_control.o
 .comment       0x00000156       0x12 /home/excelobs/paparazzi/var/KMUAV_XB_AS_IMU/ap/subsystems/radio_control/ppm.o
 .comment       0x00000168       0x12 /home/excelobs/paparazzi/var/KMUAV_XB_AS_IMU/ap/arch/lpc21/subsystems/radio_control/ppm_arch.o
 .comment       0x0000017a       0x12 /home/excelobs/paparazzi/var/KMUAV_XB_AS_IMU/ap/./downlink.o
 .comment       0x0000018c       0x12 /home/excelobs/paparazzi/var/KMUAV_XB_AS_IMU/ap/firmwares/fixedwing/datalink.o
 .comment       0x0000019e       0x12 /home/excelobs/paparazzi/var/KMUAV_XB_AS_IMU/ap/./pprz_transport.o
 .comment       0x000001b0       0x12 /home/excelobs/paparazzi/var/KMUAV_XB_AS_IMU/ap/firmwares/fixedwing/stabilization/stabilization_attitude.o
 .comment       0x000001c2       0x12 /home/excelobs/paparazzi/var/KMUAV_XB_AS_IMU/ap/firmwares/fixedwing/guidance/guidance_v.o
 .comment       0x000001d4       0x12 /home/excelobs/paparazzi/var/KMUAV_XB_AS_IMU/ap/./gps_ubx.o
 .comment       0x000001e6       0x12 /home/excelobs/paparazzi/var/KMUAV_XB_AS_IMU/ap/./gps.o
 .comment       0x000001f8       0x12 /home/excelobs/paparazzi/var/KMUAV_XB_AS_IMU/ap/./latlong.o
 .comment       0x0000020a       0x12 /home/excelobs/paparazzi/var/KMUAV_XB_AS_IMU/ap/mcu_periph/i2c.o
 .comment       0x0000021c       0x12 /home/excelobs/paparazzi/var/KMUAV_XB_AS_IMU/ap/arch/lpc21/mcu_periph/i2c_arch.o
 .comment       0x0000022e       0x12 /home/excelobs/paparazzi/var/KMUAV_XB_AS_IMU/ap/subsystems/nav.o
 .comment       0x00000240       0x12 /home/excelobs/paparazzi/var/KMUAV_XB_AS_IMU/ap/subsystems/navigation/traffic_info.o
 .comment       0x00000252       0x12 /home/excelobs/paparazzi/var/KMUAV_XB_AS_IMU/ap/subsystems/navigation/nav_survey_rectangle.o
 .comment       0x00000264       0x12 /home/excelobs/paparazzi/var/KMUAV_XB_AS_IMU/ap/subsystems/navigation/nav_line.o
 .comment       0x00000276       0x12 /home/excelobs/paparazzi/var/KMUAV_XB_AS_IMU/ap/modules/sensors/airspeed_ets.o
 .comment       0x00000288       0x12 /home/excelobs/paparazzi/var/KMUAV_XB_AS_IMU/ap/modules/ins/ins_arduimu_basic.o
 .comment       0x0000029a       0x12 /usr/lib/gcc/arm-elf/3.4.4/../../../../arm-elf/lib/thumb/interwork/libm.a(s_atan.o)
 .comment       0x000002ac       0x12 /usr/lib/gcc/arm-elf/3.4.4/../../../../arm-elf/lib/thumb/interwork/libm.a(s_cos.o)
 .comment       0x000002be       0x12 /usr/lib/gcc/arm-elf/3.4.4/../../../../arm-elf/lib/thumb/interwork/libm.a(s_fabs.o)
 .comment       0x000002d0       0x12 /usr/lib/gcc/arm-elf/3.4.4/../../../../arm-elf/lib/thumb/interwork/libm.a(s_sin.o)
 .comment       0x000002e2       0x12 /usr/lib/gcc/arm-elf/3.4.4/../../../../arm-elf/lib/thumb/interwork/libm.a(s_tan.o)
 .comment       0x000002f4       0x12 /usr/lib/gcc/arm-elf/3.4.4/../../../../arm-elf/lib/thumb/interwork/libm.a(sf_cos.o)
 .comment       0x00000306       0x12 /usr/lib/gcc/arm-elf/3.4.4/../../../../arm-elf/lib/thumb/interwork/libm.a(sf_sin.o)
 .comment       0x00000318       0x12 /usr/lib/gcc/arm-elf/3.4.4/../../../../arm-elf/lib/thumb/interwork/libm.a(w_asin.o)
 .comment       0x0000032a       0x12 /usr/lib/gcc/arm-elf/3.4.4/../../../../arm-elf/lib/thumb/interwork/libm.a(w_atan2.o)
 .comment       0x0000033c       0x12 /usr/lib/gcc/arm-elf/3.4.4/../../../../arm-elf/lib/thumb/interwork/libm.a(w_cosh.o)
 .comment       0x0000034e       0x12 /usr/lib/gcc/arm-elf/3.4.4/../../../../arm-elf/lib/thumb/interwork/libm.a(w_exp.o)
 .comment       0x00000360       0x12 /usr/lib/gcc/arm-elf/3.4.4/../../../../arm-elf/lib/thumb/interwork/libm.a(w_log.o)
 .comment       0x00000372       0x12 /usr/lib/gcc/arm-elf/3.4.4/../../../../arm-elf/lib/thumb/interwork/libm.a(w_pow.o)
 .comment       0x00000384       0x12 /usr/lib/gcc/arm-elf/3.4.4/../../../../arm-elf/lib/thumb/interwork/libm.a(w_sinh.o)
 .comment       0x00000396       0x12 /usr/lib/gcc/arm-elf/3.4.4/../../../../arm-elf/lib/thumb/interwork/libm.a(w_sqrt.o)
 .comment       0x000003a8       0x12 /usr/lib/gcc/arm-elf/3.4.4/../../../../arm-elf/lib/thumb/interwork/libm.a(wf_atan2.o)
 .comment       0x000003ba       0x12 /usr/lib/gcc/arm-elf/3.4.4/../../../../arm-elf/lib/thumb/interwork/libm.a(wf_sqrt.o)
 .comment       0x000003cc       0x12 /usr/lib/gcc/arm-elf/3.4.4/../../../../arm-elf/lib/thumb/interwork/libm.a(e_asin.o)
 .comment       0x000003de       0x12 /usr/lib/gcc/arm-elf/3.4.4/../../../../arm-elf/lib/thumb/interwork/libm.a(e_atan2.o)
 .comment       0x000003f0       0x12 /usr/lib/gcc/arm-elf/3.4.4/../../../../arm-elf/lib/thumb/interwork/libm.a(e_cosh.o)
 .comment       0x00000402       0x12 /usr/lib/gcc/arm-elf/3.4.4/../../../../arm-elf/lib/thumb/interwork/libm.a(e_exp.o)
 .comment       0x00000414       0x12 /usr/lib/gcc/arm-elf/3.4.4/../../../../arm-elf/lib/thumb/interwork/libm.a(e_log.o)
 .comment       0x00000426       0x12 /usr/lib/gcc/arm-elf/3.4.4/../../../../arm-elf/lib/thumb/interwork/libm.a(e_pow.o)
 .comment       0x00000438       0x12 /usr/lib/gcc/arm-elf/3.4.4/../../../../arm-elf/lib/thumb/interwork/libm.a(e_rem_pio2.o)
 .comment       0x0000044a       0x12 /usr/lib/gcc/arm-elf/3.4.4/../../../../arm-elf/lib/thumb/interwork/libm.a(e_sinh.o)
 .comment       0x0000045c       0x12 /usr/lib/gcc/arm-elf/3.4.4/../../../../arm-elf/lib/thumb/interwork/libm.a(e_sqrt.o)
 .comment       0x0000046e       0x12 /usr/lib/gcc/arm-elf/3.4.4/../../../../arm-elf/lib/thumb/interwork/libm.a(ef_atan2.o)
 .comment       0x00000480       0x12 /usr/lib/gcc/arm-elf/3.4.4/../../../../arm-elf/lib/thumb/interwork/libm.a(ef_rem_pio2.o)
 .comment       0x00000492       0x12 /usr/lib/gcc/arm-elf/3.4.4/../../../../arm-elf/lib/thumb/interwork/libm.a(ef_sqrt.o)
 .comment       0x000004a4       0x12 /usr/lib/gcc/arm-elf/3.4.4/../../../../arm-elf/lib/thumb/interwork/libm.a(k_cos.o)
 .comment       0x000004b6       0x12 /usr/lib/gcc/arm-elf/3.4.4/../../../../arm-elf/lib/thumb/interwork/libm.a(k_rem_pio2.o)
 .comment       0x000004c8       0x12 /usr/lib/gcc/arm-elf/3.4.4/../../../../arm-elf/lib/thumb/interwork/libm.a(k_sin.o)
 .comment       0x000004da       0x12 /usr/lib/gcc/arm-elf/3.4.4/../../../../arm-elf/lib/thumb/interwork/libm.a(k_tan.o)
 .comment       0x000004ec       0x12 /usr/lib/gcc/arm-elf/3.4.4/../../../../arm-elf/lib/thumb/interwork/libm.a(kf_cos.o)
 .comment       0x000004fe       0x12 /usr/lib/gcc/arm-elf/3.4.4/../../../../arm-elf/lib/thumb/interwork/libm.a(kf_rem_pio2.o)
 .comment       0x00000510       0x12 /usr/lib/gcc/arm-elf/3.4.4/../../../../arm-elf/lib/thumb/interwork/libm.a(kf_sin.o)
 .comment       0x00000522       0x12 /usr/lib/gcc/arm-elf/3.4.4/../../../../arm-elf/lib/thumb/interwork/libm.a(s_expm1.o)
 .comment       0x00000534       0x12 /usr/lib/gcc/arm-elf/3.4.4/../../../../arm-elf/lib/thumb/interwork/libm.a(s_finite.o)
 .comment       0x00000546       0x12 /usr/lib/gcc/arm-elf/3.4.4/../../../../arm-elf/lib/thumb/interwork/libm.a(s_floor.o)
 .comment       0x00000558       0x12 /usr/lib/gcc/arm-elf/3.4.4/../../../../arm-elf/lib/thumb/interwork/libm.a(s_infconst.o)
 .comment       0x0000056a       0x12 /usr/lib/gcc/arm-elf/3.4.4/../../../../arm-elf/lib/thumb/interwork/libm.a(s_isnan.o)
 .comment       0x0000057c       0x12 /usr/lib/gcc/arm-elf/3.4.4/../../../../arm-elf/lib/thumb/interwork/libm.a(s_lib_ver.o)
 .comment       0x0000058e       0x12 /usr/lib/gcc/arm-elf/3.4.4/../../../../arm-elf/lib/thumb/interwork/libm.a(s_matherr.o)
 .comment       0x000005a0       0x12 /usr/lib/gcc/arm-elf/3.4.4/../../../../arm-elf/lib/thumb/interwork/libm.a(s_rint.o)
 .comment       0x000005b2       0x12 /usr/lib/gcc/arm-elf/3.4.4/../../../../arm-elf/lib/thumb/interwork/libm.a(s_scalbn.o)
 .comment       0x000005c4       0x12 /usr/lib/gcc/arm-elf/3.4.4/../../../../arm-elf/lib/thumb/interwork/libm.a(sf_atan.o)
 .comment       0x000005d6       0x12 /usr/lib/gcc/arm-elf/3.4.4/../../../../arm-elf/lib/thumb/interwork/libm.a(sf_fabs.o)
 .comment       0x000005e8       0x12 /usr/lib/gcc/arm-elf/3.4.4/../../../../arm-elf/lib/thumb/interwork/libm.a(sf_floor.o)
 .comment       0x000005fa       0x12 /usr/lib/gcc/arm-elf/3.4.4/../../../../arm-elf/lib/thumb/interwork/libm.a(sf_isnan.o)
 .comment       0x0000060c       0x12 /usr/lib/gcc/arm-elf/3.4.4/../../../../arm-elf/lib/thumb/interwork/libm.a(sf_scalbn.o)
 .comment       0x0000061e       0x12 /usr/lib/gcc/arm-elf/3.4.4/../../../../arm-elf/lib/thumb/interwork/libm.a(s_copysign.o)
 .comment       0x00000630       0x12 /usr/lib/gcc/arm-elf/3.4.4/../../../../arm-elf/lib/thumb/interwork/libm.a(sf_copysign.o)
 .comment       0x00000642       0x12 /usr/lib/gcc/arm-elf/3.4.4/../../../../arm-elf/lib/thumb/interwork/libc.a(errno.o)
 .comment       0x00000654       0x12 /usr/lib/gcc/arm-elf/3.4.4/../../../../arm-elf/lib/thumb/interwork/libc.a(impure.o)

.debug
 *(.debug)

.line
 *(.line)

.debug_srcinfo
 *(.debug_srcinfo)

.debug_sfnames
 *(.debug_sfnames)

.debug_aranges  0x00000000      0x660
 *(.debug_aranges)
 .debug_aranges
                0x00000000       0x20 /usr/lib/gcc/arm-elf/3.4.4/../../../../arm-elf/lib/thumb/interwork/libm.a(s_atan.o)
 .debug_aranges
                0x00000020       0x20 /usr/lib/gcc/arm-elf/3.4.4/../../../../arm-elf/lib/thumb/interwork/libm.a(s_cos.o)
 .debug_aranges
                0x00000040       0x20 /usr/lib/gcc/arm-elf/3.4.4/../../../../arm-elf/lib/thumb/interwork/libm.a(s_fabs.o)
 .debug_aranges
                0x00000060       0x20 /usr/lib/gcc/arm-elf/3.4.4/../../../../arm-elf/lib/thumb/interwork/libm.a(s_sin.o)
 .debug_aranges
                0x00000080       0x20 /usr/lib/gcc/arm-elf/3.4.4/../../../../arm-elf/lib/thumb/interwork/libm.a(s_tan.o)
 .debug_aranges
                0x000000a0       0x20 /usr/lib/gcc/arm-elf/3.4.4/../../../../arm-elf/lib/thumb/interwork/libm.a(sf_cos.o)
 .debug_aranges
                0x000000c0       0x20 /usr/lib/gcc/arm-elf/3.4.4/../../../../arm-elf/lib/thumb/interwork/libm.a(sf_sin.o)
 .debug_aranges
                0x000000e0       0x20 /usr/lib/gcc/arm-elf/3.4.4/../../../../arm-elf/lib/thumb/interwork/libm.a(w_asin.o)
 .debug_aranges
                0x00000100       0x20 /usr/lib/gcc/arm-elf/3.4.4/../../../../arm-elf/lib/thumb/interwork/libm.a(w_atan2.o)
 .debug_aranges
                0x00000120       0x20 /usr/lib/gcc/arm-elf/3.4.4/../../../../arm-elf/lib/thumb/interwork/libm.a(w_cosh.o)
 .debug_aranges
                0x00000140       0x20 /usr/lib/gcc/arm-elf/3.4.4/../../../../arm-elf/lib/thumb/interwork/libm.a(w_exp.o)
 .debug_aranges
                0x00000160       0x20 /usr/lib/gcc/arm-elf/3.4.4/../../../../arm-elf/lib/thumb/interwork/libm.a(w_log.o)
 .debug_aranges
                0x00000180       0x20 /usr/lib/gcc/arm-elf/3.4.4/../../../../arm-elf/lib/thumb/interwork/libm.a(w_pow.o)
 .debug_aranges
                0x000001a0       0x20 /usr/lib/gcc/arm-elf/3.4.4/../../../../arm-elf/lib/thumb/interwork/libm.a(w_sinh.o)
 .debug_aranges
                0x000001c0       0x20 /usr/lib/gcc/arm-elf/3.4.4/../../../../arm-elf/lib/thumb/interwork/libm.a(w_sqrt.o)
 .debug_aranges
                0x000001e0       0x20 /usr/lib/gcc/arm-elf/3.4.4/../../../../arm-elf/lib/thumb/interwork/libm.a(wf_atan2.o)
 .debug_aranges
                0x00000200       0x20 /usr/lib/gcc/arm-elf/3.4.4/../../../../arm-elf/lib/thumb/interwork/libm.a(wf_sqrt.o)
 .debug_aranges
                0x00000220       0x20 /usr/lib/gcc/arm-elf/3.4.4/../../../../arm-elf/lib/thumb/interwork/libm.a(e_asin.o)
 .debug_aranges
                0x00000240       0x20 /usr/lib/gcc/arm-elf/3.4.4/../../../../arm-elf/lib/thumb/interwork/libm.a(e_atan2.o)
 .debug_aranges
                0x00000260       0x20 /usr/lib/gcc/arm-elf/3.4.4/../../../../arm-elf/lib/thumb/interwork/libm.a(e_cosh.o)
 .debug_aranges
                0x00000280       0x20 /usr/lib/gcc/arm-elf/3.4.4/../../../../arm-elf/lib/thumb/interwork/libm.a(e_exp.o)
 .debug_aranges
                0x000002a0       0x20 /usr/lib/gcc/arm-elf/3.4.4/../../../../arm-elf/lib/thumb/interwork/libm.a(e_log.o)
 .debug_aranges
                0x000002c0       0x20 /usr/lib/gcc/arm-elf/3.4.4/../../../../arm-elf/lib/thumb/interwork/libm.a(e_pow.o)
 .debug_aranges
                0x000002e0       0x20 /usr/lib/gcc/arm-elf/3.4.4/../../../../arm-elf/lib/thumb/interwork/libm.a(e_rem_pio2.o)
 .debug_aranges
                0x00000300       0x20 /usr/lib/gcc/arm-elf/3.4.4/../../../../arm-elf/lib/thumb/interwork/libm.a(e_sinh.o)
 .debug_aranges
                0x00000320       0x20 /usr/lib/gcc/arm-elf/3.4.4/../../../../arm-elf/lib/thumb/interwork/libm.a(e_sqrt.o)
 .debug_aranges
                0x00000340       0x20 /usr/lib/gcc/arm-elf/3.4.4/../../../../arm-elf/lib/thumb/interwork/libm.a(ef_atan2.o)
 .debug_aranges
                0x00000360       0x20 /usr/lib/gcc/arm-elf/3.4.4/../../../../arm-elf/lib/thumb/interwork/libm.a(ef_rem_pio2.o)
 .debug_aranges
                0x00000380       0x20 /usr/lib/gcc/arm-elf/3.4.4/../../../../arm-elf/lib/thumb/interwork/libm.a(ef_sqrt.o)
 .debug_aranges
                0x000003a0       0x20 /usr/lib/gcc/arm-elf/3.4.4/../../../../arm-elf/lib/thumb/interwork/libm.a(k_cos.o)
 .debug_aranges
                0x000003c0       0x20 /usr/lib/gcc/arm-elf/3.4.4/../../../../arm-elf/lib/thumb/interwork/libm.a(k_rem_pio2.o)
 .debug_aranges
                0x000003e0       0x20 /usr/lib/gcc/arm-elf/3.4.4/../../../../arm-elf/lib/thumb/interwork/libm.a(k_sin.o)
 .debug_aranges
                0x00000400       0x20 /usr/lib/gcc/arm-elf/3.4.4/../../../../arm-elf/lib/thumb/interwork/libm.a(k_tan.o)
 .debug_aranges
                0x00000420       0x20 /usr/lib/gcc/arm-elf/3.4.4/../../../../arm-elf/lib/thumb/interwork/libm.a(kf_cos.o)
 .debug_aranges
                0x00000440       0x20 /usr/lib/gcc/arm-elf/3.4.4/../../../../arm-elf/lib/thumb/interwork/libm.a(kf_rem_pio2.o)
 .debug_aranges
                0x00000460       0x20 /usr/lib/gcc/arm-elf/3.4.4/../../../../arm-elf/lib/thumb/interwork/libm.a(kf_sin.o)
 .debug_aranges
                0x00000480       0x20 /usr/lib/gcc/arm-elf/3.4.4/../../../../arm-elf/lib/thumb/interwork/libm.a(s_expm1.o)
 .debug_aranges
                0x000004a0       0x20 /usr/lib/gcc/arm-elf/3.4.4/../../../../arm-elf/lib/thumb/interwork/libm.a(s_finite.o)
 .debug_aranges
                0x000004c0       0x20 /usr/lib/gcc/arm-elf/3.4.4/../../../../arm-elf/lib/thumb/interwork/libm.a(s_floor.o)
 .debug_aranges
                0x000004e0       0x20 /usr/lib/gcc/arm-elf/3.4.4/../../../../arm-elf/lib/thumb/interwork/libm.a(s_isnan.o)
 .debug_aranges
                0x00000500       0x20 /usr/lib/gcc/arm-elf/3.4.4/../../../../arm-elf/lib/thumb/interwork/libm.a(s_matherr.o)
 .debug_aranges
                0x00000520       0x20 /usr/lib/gcc/arm-elf/3.4.4/../../../../arm-elf/lib/thumb/interwork/libm.a(s_rint.o)
 .debug_aranges
                0x00000540       0x20 /usr/lib/gcc/arm-elf/3.4.4/../../../../arm-elf/lib/thumb/interwork/libm.a(s_scalbn.o)
 .debug_aranges
                0x00000560       0x20 /usr/lib/gcc/arm-elf/3.4.4/../../../../arm-elf/lib/thumb/interwork/libm.a(sf_atan.o)
 .debug_aranges
                0x00000580       0x20 /usr/lib/gcc/arm-elf/3.4.4/../../../../arm-elf/lib/thumb/interwork/libm.a(sf_fabs.o)
 .debug_aranges
                0x000005a0       0x20 /usr/lib/gcc/arm-elf/3.4.4/../../../../arm-elf/lib/thumb/interwork/libm.a(sf_floor.o)
 .debug_aranges
                0x000005c0       0x20 /usr/lib/gcc/arm-elf/3.4.4/../../../../arm-elf/lib/thumb/interwork/libm.a(sf_isnan.o)
 .debug_aranges
                0x000005e0       0x20 /usr/lib/gcc/arm-elf/3.4.4/../../../../arm-elf/lib/thumb/interwork/libm.a(sf_scalbn.o)
 .debug_aranges
                0x00000600       0x20 /usr/lib/gcc/arm-elf/3.4.4/../../../../arm-elf/lib/thumb/interwork/libm.a(s_copysign.o)
 .debug_aranges
                0x00000620       0x20 /usr/lib/gcc/arm-elf/3.4.4/../../../../arm-elf/lib/thumb/interwork/libm.a(sf_copysign.o)
 .debug_aranges
                0x00000640       0x20 /usr/lib/gcc/arm-elf/3.4.4/../../../../arm-elf/lib/thumb/interwork/libc.a(errno.o)

.debug_pubnames
                0x00000000      0x6c5
 *(.debug_pubnames)
 .debug_pubnames
                0x00000000       0x1b /usr/lib/gcc/arm-elf/3.4.4/../../../../arm-elf/lib/thumb/interwork/libm.a(s_atan.o)
 .debug_pubnames
                0x0000001b       0x1a /usr/lib/gcc/arm-elf/3.4.4/../../../../arm-elf/lib/thumb/interwork/libm.a(s_cos.o)
 .debug_pubnames
                0x00000035       0x1b /usr/lib/gcc/arm-elf/3.4.4/../../../../arm-elf/lib/thumb/interwork/libm.a(s_fabs.o)
 .debug_pubnames
                0x00000050       0x1a /usr/lib/gcc/arm-elf/3.4.4/../../../../arm-elf/lib/thumb/interwork/libm.a(s_sin.o)
 .debug_pubnames
                0x0000006a       0x1a /usr/lib/gcc/arm-elf/3.4.4/../../../../arm-elf/lib/thumb/interwork/libm.a(s_tan.o)
 .debug_pubnames
                0x00000084       0x1b /usr/lib/gcc/arm-elf/3.4.4/../../../../arm-elf/lib/thumb/interwork/libm.a(sf_cos.o)
 .debug_pubnames
                0x0000009f       0x1b /usr/lib/gcc/arm-elf/3.4.4/../../../../arm-elf/lib/thumb/interwork/libm.a(sf_sin.o)
 .debug_pubnames
                0x000000ba       0x1b /usr/lib/gcc/arm-elf/3.4.4/../../../../arm-elf/lib/thumb/interwork/libm.a(w_asin.o)
 .debug_pubnames
                0x000000d5       0x1c /usr/lib/gcc/arm-elf/3.4.4/../../../../arm-elf/lib/thumb/interwork/libm.a(w_atan2.o)
 .debug_pubnames
                0x000000f1       0x1b /usr/lib/gcc/arm-elf/3.4.4/../../../../arm-elf/lib/thumb/interwork/libm.a(w_cosh.o)
 .debug_pubnames
                0x0000010c       0x1a /usr/lib/gcc/arm-elf/3.4.4/../../../../arm-elf/lib/thumb/interwork/libm.a(w_exp.o)
 .debug_pubnames
                0x00000126       0x1a /usr/lib/gcc/arm-elf/3.4.4/../../../../arm-elf/lib/thumb/interwork/libm.a(w_log.o)
 .debug_pubnames
                0x00000140       0x1a /usr/lib/gcc/arm-elf/3.4.4/../../../../arm-elf/lib/thumb/interwork/libm.a(w_pow.o)
 .debug_pubnames
                0x0000015a       0x1b /usr/lib/gcc/arm-elf/3.4.4/../../../../arm-elf/lib/thumb/interwork/libm.a(w_sinh.o)
 .debug_pubnames
                0x00000175       0x1b /usr/lib/gcc/arm-elf/3.4.4/../../../../arm-elf/lib/thumb/interwork/libm.a(w_sqrt.o)
 .debug_pubnames
                0x00000190       0x1d /usr/lib/gcc/arm-elf/3.4.4/../../../../arm-elf/lib/thumb/interwork/libm.a(wf_atan2.o)
 .debug_pubnames
                0x000001ad       0x1c /usr/lib/gcc/arm-elf/3.4.4/../../../../arm-elf/lib/thumb/interwork/libm.a(wf_sqrt.o)
 .debug_pubnames
                0x000001c9       0x25 /usr/lib/gcc/arm-elf/3.4.4/../../../../arm-elf/lib/thumb/interwork/libm.a(e_asin.o)
 .debug_pubnames
                0x000001ee       0x26 /usr/lib/gcc/arm-elf/3.4.4/../../../../arm-elf/lib/thumb/interwork/libm.a(e_atan2.o)
 .debug_pubnames
                0x00000214       0x25 /usr/lib/gcc/arm-elf/3.4.4/../../../../arm-elf/lib/thumb/interwork/libm.a(e_cosh.o)
 .debug_pubnames
                0x00000239       0x24 /usr/lib/gcc/arm-elf/3.4.4/../../../../arm-elf/lib/thumb/interwork/libm.a(e_exp.o)
 .debug_pubnames
                0x0000025d       0x24 /usr/lib/gcc/arm-elf/3.4.4/../../../../arm-elf/lib/thumb/interwork/libm.a(e_log.o)
 .debug_pubnames
                0x00000281       0x24 /usr/lib/gcc/arm-elf/3.4.4/../../../../arm-elf/lib/thumb/interwork/libm.a(e_pow.o)
 .debug_pubnames
                0x000002a5       0x29 /usr/lib/gcc/arm-elf/3.4.4/../../../../arm-elf/lib/thumb/interwork/libm.a(e_rem_pio2.o)
 .debug_pubnames
                0x000002ce       0x25 /usr/lib/gcc/arm-elf/3.4.4/../../../../arm-elf/lib/thumb/interwork/libm.a(e_sinh.o)
 .debug_pubnames
                0x000002f3       0x25 /usr/lib/gcc/arm-elf/3.4.4/../../../../arm-elf/lib/thumb/interwork/libm.a(e_sqrt.o)
 .debug_pubnames
                0x00000318       0x27 /usr/lib/gcc/arm-elf/3.4.4/../../../../arm-elf/lib/thumb/interwork/libm.a(ef_atan2.o)
 .debug_pubnames
                0x0000033f       0x2a /usr/lib/gcc/arm-elf/3.4.4/../../../../arm-elf/lib/thumb/interwork/libm.a(ef_rem_pio2.o)
 .debug_pubnames
                0x00000369       0x26 /usr/lib/gcc/arm-elf/3.4.4/../../../../arm-elf/lib/thumb/interwork/libm.a(ef_sqrt.o)
 .debug_pubnames
                0x0000038f       0x23 /usr/lib/gcc/arm-elf/3.4.4/../../../../arm-elf/lib/thumb/interwork/libm.a(k_cos.o)
 .debug_pubnames
                0x000003b2       0x28 /usr/lib/gcc/arm-elf/3.4.4/../../../../arm-elf/lib/thumb/interwork/libm.a(k_rem_pio2.o)
 .debug_pubnames
                0x000003da       0x23 /usr/lib/gcc/arm-elf/3.4.4/../../../../arm-elf/lib/thumb/interwork/libm.a(k_sin.o)
 .debug_pubnames
                0x000003fd       0x23 /usr/lib/gcc/arm-elf/3.4.4/../../../../arm-elf/lib/thumb/interwork/libm.a(k_tan.o)
 .debug_pubnames
                0x00000420       0x24 /usr/lib/gcc/arm-elf/3.4.4/../../../../arm-elf/lib/thumb/interwork/libm.a(kf_cos.o)
 .debug_pubnames
                0x00000444       0x29 /usr/lib/gcc/arm-elf/3.4.4/../../../../arm-elf/lib/thumb/interwork/libm.a(kf_rem_pio2.o)
 .debug_pubnames
                0x0000046d       0x24 /usr/lib/gcc/arm-elf/3.4.4/../../../../arm-elf/lib/thumb/interwork/libm.a(kf_sin.o)
 .debug_pubnames
                0x00000491       0x1c /usr/lib/gcc/arm-elf/3.4.4/../../../../arm-elf/lib/thumb/interwork/libm.a(s_expm1.o)
 .debug_pubnames
                0x000004ad       0x1d /usr/lib/gcc/arm-elf/3.4.4/../../../../arm-elf/lib/thumb/interwork/libm.a(s_finite.o)
 .debug_pubnames
                0x000004ca       0x1c /usr/lib/gcc/arm-elf/3.4.4/../../../../arm-elf/lib/thumb/interwork/libm.a(s_floor.o)
 .debug_pubnames
                0x000004e6       0x21 /usr/lib/gcc/arm-elf/3.4.4/../../../../arm-elf/lib/thumb/interwork/libm.a(s_infconst.o)
 .debug_pubnames
                0x00000507       0x1c /usr/lib/gcc/arm-elf/3.4.4/../../../../arm-elf/lib/thumb/interwork/libm.a(s_isnan.o)
 .debug_pubnames
                0x00000523       0x26 /usr/lib/gcc/arm-elf/3.4.4/../../../../arm-elf/lib/thumb/interwork/libm.a(s_lib_ver.o)
 .debug_pubnames
                0x00000549       0x1e /usr/lib/gcc/arm-elf/3.4.4/../../../../arm-elf/lib/thumb/interwork/libm.a(s_matherr.o)
 .debug_pubnames
                0x00000567       0x1b /usr/lib/gcc/arm-elf/3.4.4/../../../../arm-elf/lib/thumb/interwork/libm.a(s_rint.o)
 .debug_pubnames
                0x00000582       0x1d /usr/lib/gcc/arm-elf/3.4.4/../../../../arm-elf/lib/thumb/interwork/libm.a(s_scalbn.o)
 .debug_pubnames
                0x0000059f       0x1c /usr/lib/gcc/arm-elf/3.4.4/../../../../arm-elf/lib/thumb/interwork/libm.a(sf_atan.o)
 .debug_pubnames
                0x000005bb       0x1c /usr/lib/gcc/arm-elf/3.4.4/../../../../arm-elf/lib/thumb/interwork/libm.a(sf_fabs.o)
 .debug_pubnames
                0x000005d7       0x1d /usr/lib/gcc/arm-elf/3.4.4/../../../../arm-elf/lib/thumb/interwork/libm.a(sf_floor.o)
 .debug_pubnames
                0x000005f4       0x1d /usr/lib/gcc/arm-elf/3.4.4/../../../../arm-elf/lib/thumb/interwork/libm.a(sf_isnan.o)
 .debug_pubnames
                0x00000611       0x1e /usr/lib/gcc/arm-elf/3.4.4/../../../../arm-elf/lib/thumb/interwork/libm.a(sf_scalbn.o)
 .debug_pubnames
                0x0000062f       0x1f /usr/lib/gcc/arm-elf/3.4.4/../../../../arm-elf/lib/thumb/interwork/libm.a(s_copysign.o)
 .debug_pubnames
                0x0000064e       0x20 /usr/lib/gcc/arm-elf/3.4.4/../../../../arm-elf/lib/thumb/interwork/libm.a(sf_copysign.o)
 .debug_pubnames
                0x0000066e       0x1e /usr/lib/gcc/arm-elf/3.4.4/../../../../arm-elf/lib/thumb/interwork/libc.a(errno.o)
 .debug_pubnames
                0x0000068c       0x39 /usr/lib/gcc/arm-elf/3.4.4/../../../../arm-elf/lib/thumb/interwork/libc.a(impure.o)

.debug_info     0x00000000     0x7405
 *(.debug_info .gnu.linkonce.wi.*)
 .debug_info    0x00000000      0x25d /usr/lib/gcc/arm-elf/3.4.4/../../../../arm-elf/lib/thumb/interwork/libm.a(s_atan.o)
 .debug_info    0x0000025d       0xee /usr/lib/gcc/arm-elf/3.4.4/../../../../arm-elf/lib/thumb/interwork/libm.a(s_cos.o)
 .debug_info    0x0000034b      0x151 /usr/lib/gcc/arm-elf/3.4.4/../../../../arm-elf/lib/thumb/interwork/libm.a(s_fabs.o)
 .debug_info    0x0000049c       0xee /usr/lib/gcc/arm-elf/3.4.4/../../../../arm-elf/lib/thumb/interwork/libm.a(s_sin.o)
 .debug_info    0x0000058a       0xee /usr/lib/gcc/arm-elf/3.4.4/../../../../arm-elf/lib/thumb/interwork/libm.a(s_tan.o)
 .debug_info    0x00000678      0x102 /usr/lib/gcc/arm-elf/3.4.4/../../../../arm-elf/lib/thumb/interwork/libm.a(sf_cos.o)
 .debug_info    0x0000077a       0xe9 /usr/lib/gcc/arm-elf/3.4.4/../../../../arm-elf/lib/thumb/interwork/libm.a(sf_sin.o)
 .debug_info    0x00000863      0x172 /usr/lib/gcc/arm-elf/3.4.4/../../../../arm-elf/lib/thumb/interwork/libm.a(w_asin.o)
 .debug_info    0x000009d5      0x17e /usr/lib/gcc/arm-elf/3.4.4/../../../../arm-elf/lib/thumb/interwork/libm.a(w_atan2.o)
 .debug_info    0x00000b53      0x1ce /usr/lib/gcc/arm-elf/3.4.4/../../../../arm-elf/lib/thumb/interwork/libm.a(w_cosh.o)
 .debug_info    0x00000d21      0x1fb /usr/lib/gcc/arm-elf/3.4.4/../../../../arm-elf/lib/thumb/interwork/libm.a(w_exp.o)
 .debug_info    0x00000f1c      0x1ca /usr/lib/gcc/arm-elf/3.4.4/../../../../arm-elf/lib/thumb/interwork/libm.a(w_log.o)
 .debug_info    0x000010e6      0x1da /usr/lib/gcc/arm-elf/3.4.4/../../../../arm-elf/lib/thumb/interwork/libm.a(w_pow.o)
 .debug_info    0x000012c0      0x1ce /usr/lib/gcc/arm-elf/3.4.4/../../../../arm-elf/lib/thumb/interwork/libm.a(w_sinh.o)
 .debug_info    0x0000148e      0x172 /usr/lib/gcc/arm-elf/3.4.4/../../../../arm-elf/lib/thumb/interwork/libm.a(w_sqrt.o)
 .debug_info    0x00001600      0x173 /usr/lib/gcc/arm-elf/3.4.4/../../../../arm-elf/lib/thumb/interwork/libm.a(wf_atan2.o)
 .debug_info    0x00001773      0x168 /usr/lib/gcc/arm-elf/3.4.4/../../../../arm-elf/lib/thumb/interwork/libm.a(wf_sqrt.o)
 .debug_info    0x000018db      0x31c /usr/lib/gcc/arm-elf/3.4.4/../../../../arm-elf/lib/thumb/interwork/libm.a(e_asin.o)
 .debug_info    0x00001bf7      0x29b /usr/lib/gcc/arm-elf/3.4.4/../../../../arm-elf/lib/thumb/interwork/libm.a(e_atan2.o)
 .debug_info    0x00001e92      0x1a6 /usr/lib/gcc/arm-elf/3.4.4/../../../../arm-elf/lib/thumb/interwork/libm.a(e_cosh.o)
 .debug_info    0x00002038      0x3a1 /usr/lib/gcc/arm-elf/3.4.4/../../../../arm-elf/lib/thumb/interwork/libm.a(e_exp.o)
 .debug_info    0x000023d9      0x2f2 /usr/lib/gcc/arm-elf/3.4.4/../../../../arm-elf/lib/thumb/interwork/libm.a(e_log.o)
 .debug_info    0x000026cb      0x708 /usr/lib/gcc/arm-elf/3.4.4/../../../../arm-elf/lib/thumb/interwork/libm.a(e_pow.o)
 .debug_info    0x00002dd3      0x390 /usr/lib/gcc/arm-elf/3.4.4/../../../../arm-elf/lib/thumb/interwork/libm.a(e_rem_pio2.o)
 .debug_info    0x00003163      0x1ae /usr/lib/gcc/arm-elf/3.4.4/../../../../arm-elf/lib/thumb/interwork/libm.a(e_sinh.o)
 .debug_info    0x00003311      0x211 /usr/lib/gcc/arm-elf/3.4.4/../../../../arm-elf/lib/thumb/interwork/libm.a(e_sqrt.o)
 .debug_info    0x00003522      0x207 /usr/lib/gcc/arm-elf/3.4.4/../../../../arm-elf/lib/thumb/interwork/libm.a(ef_atan2.o)
 .debug_info    0x00003729      0x2e2 /usr/lib/gcc/arm-elf/3.4.4/../../../../arm-elf/lib/thumb/interwork/libm.a(ef_rem_pio2.o)
 .debug_info    0x00003a0b      0x1af /usr/lib/gcc/arm-elf/3.4.4/../../../../arm-elf/lib/thumb/interwork/libm.a(ef_sqrt.o)
 .debug_info    0x00003bba      0x20c /usr/lib/gcc/arm-elf/3.4.4/../../../../arm-elf/lib/thumb/interwork/libm.a(k_cos.o)
 .debug_info    0x00003dc6      0x2c0 /usr/lib/gcc/arm-elf/3.4.4/../../../../arm-elf/lib/thumb/interwork/libm.a(k_rem_pio2.o)
 .debug_info    0x00004086      0x18b /usr/lib/gcc/arm-elf/3.4.4/../../../../arm-elf/lib/thumb/interwork/libm.a(k_sin.o)
 .debug_info    0x00004211      0x2a0 /usr/lib/gcc/arm-elf/3.4.4/../../../../arm-elf/lib/thumb/interwork/libm.a(k_tan.o)
 .debug_info    0x000044b1      0x1bc /usr/lib/gcc/arm-elf/3.4.4/../../../../arm-elf/lib/thumb/interwork/libm.a(kf_cos.o)
 .debug_info    0x0000466d      0x2af /usr/lib/gcc/arm-elf/3.4.4/../../../../arm-elf/lib/thumb/interwork/libm.a(kf_rem_pio2.o)
 .debug_info    0x0000491c      0x166 /usr/lib/gcc/arm-elf/3.4.4/../../../../arm-elf/lib/thumb/interwork/libm.a(kf_sin.o)
 .debug_info    0x00004a82      0x3b2 /usr/lib/gcc/arm-elf/3.4.4/../../../../arm-elf/lib/thumb/interwork/libm.a(s_expm1.o)
 .debug_info    0x00004e34       0xbe /usr/lib/gcc/arm-elf/3.4.4/../../../../arm-elf/lib/thumb/interwork/libm.a(s_finite.o)
 .debug_info    0x00004ef2      0x1a0 /usr/lib/gcc/arm-elf/3.4.4/../../../../arm-elf/lib/thumb/interwork/libm.a(s_floor.o)
 .debug_info    0x00005092       0xe7 /usr/lib/gcc/arm-elf/3.4.4/../../../../arm-elf/lib/thumb/interwork/libm.a(s_infconst.o)
 .debug_info    0x00005179      0x147 /usr/lib/gcc/arm-elf/3.4.4/../../../../arm-elf/lib/thumb/interwork/libm.a(s_isnan.o)
 .debug_info    0x000052c0       0xbe /usr/lib/gcc/arm-elf/3.4.4/../../../../arm-elf/lib/thumb/interwork/libm.a(s_lib_ver.o)
 .debug_info    0x0000537e      0x125 /usr/lib/gcc/arm-elf/3.4.4/../../../../arm-elf/lib/thumb/interwork/libm.a(s_matherr.o)
 .debug_info    0x000054a3      0x225 /usr/lib/gcc/arm-elf/3.4.4/../../../../arm-elf/lib/thumb/interwork/libm.a(s_rint.o)
 .debug_info    0x000056c8      0x1f4 /usr/lib/gcc/arm-elf/3.4.4/../../../../arm-elf/lib/thumb/interwork/libm.a(s_scalbn.o)
 .debug_info    0x000058bc      0x1e7 /usr/lib/gcc/arm-elf/3.4.4/../../../../arm-elf/lib/thumb/interwork/libm.a(sf_atan.o)
 .debug_info    0x00005aa3       0xfc /usr/lib/gcc/arm-elf/3.4.4/../../../../arm-elf/lib/thumb/interwork/libm.a(sf_fabs.o)
 .debug_info    0x00005b9f      0x15c /usr/lib/gcc/arm-elf/3.4.4/../../../../arm-elf/lib/thumb/interwork/libm.a(sf_floor.o)
 .debug_info    0x00005cfb       0xbb /usr/lib/gcc/arm-elf/3.4.4/../../../../arm-elf/lib/thumb/interwork/libm.a(sf_isnan.o)
 .debug_info    0x00005db6      0x1bf /usr/lib/gcc/arm-elf/3.4.4/../../../../arm-elf/lib/thumb/interwork/libm.a(sf_scalbn.o)
 .debug_info    0x00005f75      0x14a /usr/lib/gcc/arm-elf/3.4.4/../../../../arm-elf/lib/thumb/interwork/libm.a(s_copysign.o)
 .debug_info    0x000060bf      0x111 /usr/lib/gcc/arm-elf/3.4.4/../../../../arm-elf/lib/thumb/interwork/libm.a(sf_copysign.o)
 .debug_info    0x000061d0      0x913 /usr/lib/gcc/arm-elf/3.4.4/../../../../arm-elf/lib/thumb/interwork/libc.a(errno.o)
 .debug_info    0x00006ae3      0x922 /usr/lib/gcc/arm-elf/3.4.4/../../../../arm-elf/lib/thumb/interwork/libc.a(impure.o)

.debug_abbrev   0x00000000     0x2efc
 *(.debug_abbrev)
 .debug_abbrev  0x00000000      0x11f /usr/lib/gcc/arm-elf/3.4.4/../../../../arm-elf/lib/thumb/interwork/libm.a(s_atan.o)
 .debug_abbrev  0x0000011f       0x8b /usr/lib/gcc/arm-elf/3.4.4/../../../../arm-elf/lib/thumb/interwork/libm.a(s_cos.o)
 .debug_abbrev  0x000001aa       0xd0 /usr/lib/gcc/arm-elf/3.4.4/../../../../arm-elf/lib/thumb/interwork/libm.a(s_fabs.o)
 .debug_abbrev  0x0000027a       0x8b /usr/lib/gcc/arm-elf/3.4.4/../../../../arm-elf/lib/thumb/interwork/libm.a(s_sin.o)
 .debug_abbrev  0x00000305       0x8b /usr/lib/gcc/arm-elf/3.4.4/../../../../arm-elf/lib/thumb/interwork/libm.a(s_tan.o)
 .debug_abbrev  0x00000390       0xa3 /usr/lib/gcc/arm-elf/3.4.4/../../../../arm-elf/lib/thumb/interwork/libm.a(sf_cos.o)
 .debug_abbrev  0x00000433       0x8b /usr/lib/gcc/arm-elf/3.4.4/../../../../arm-elf/lib/thumb/interwork/libm.a(sf_sin.o)
 .debug_abbrev  0x000004be       0xc7 /usr/lib/gcc/arm-elf/3.4.4/../../../../arm-elf/lib/thumb/interwork/libm.a(w_asin.o)
 .debug_abbrev  0x00000585       0xc7 /usr/lib/gcc/arm-elf/3.4.4/../../../../arm-elf/lib/thumb/interwork/libm.a(w_atan2.o)
 .debug_abbrev  0x0000064c      0x118 /usr/lib/gcc/arm-elf/3.4.4/../../../../arm-elf/lib/thumb/interwork/libm.a(w_cosh.o)
 .debug_abbrev  0x00000764      0x127 /usr/lib/gcc/arm-elf/3.4.4/../../../../arm-elf/lib/thumb/interwork/libm.a(w_exp.o)
 .debug_abbrev  0x0000088b      0x118 /usr/lib/gcc/arm-elf/3.4.4/../../../../arm-elf/lib/thumb/interwork/libm.a(w_log.o)
 .debug_abbrev  0x000009a3      0x118 /usr/lib/gcc/arm-elf/3.4.4/../../../../arm-elf/lib/thumb/interwork/libm.a(w_pow.o)
 .debug_abbrev  0x00000abb      0x118 /usr/lib/gcc/arm-elf/3.4.4/../../../../arm-elf/lib/thumb/interwork/libm.a(w_sinh.o)
 .debug_abbrev  0x00000bd3       0xc7 /usr/lib/gcc/arm-elf/3.4.4/../../../../arm-elf/lib/thumb/interwork/libm.a(w_sqrt.o)
 .debug_abbrev  0x00000c9a       0xc7 /usr/lib/gcc/arm-elf/3.4.4/../../../../arm-elf/lib/thumb/interwork/libm.a(wf_atan2.o)
 .debug_abbrev  0x00000d61       0xc7 /usr/lib/gcc/arm-elf/3.4.4/../../../../arm-elf/lib/thumb/interwork/libm.a(wf_sqrt.o)
 .debug_abbrev  0x00000e28      0x10f /usr/lib/gcc/arm-elf/3.4.4/../../../../arm-elf/lib/thumb/interwork/libm.a(e_asin.o)
 .debug_abbrev  0x00000f37      0x10f /usr/lib/gcc/arm-elf/3.4.4/../../../../arm-elf/lib/thumb/interwork/libm.a(e_atan2.o)
 .debug_abbrev  0x00001046       0xee /usr/lib/gcc/arm-elf/3.4.4/../../../../arm-elf/lib/thumb/interwork/libm.a(e_cosh.o)
 .debug_abbrev  0x00001134      0x121 /usr/lib/gcc/arm-elf/3.4.4/../../../../arm-elf/lib/thumb/interwork/libm.a(e_exp.o)
 .debug_abbrev  0x00001255      0x10d /usr/lib/gcc/arm-elf/3.4.4/../../../../arm-elf/lib/thumb/interwork/libm.a(e_log.o)
 .debug_abbrev  0x00001362      0x130 /usr/lib/gcc/arm-elf/3.4.4/../../../../arm-elf/lib/thumb/interwork/libm.a(e_pow.o)
 .debug_abbrev  0x00001492      0x128 /usr/lib/gcc/arm-elf/3.4.4/../../../../arm-elf/lib/thumb/interwork/libm.a(e_rem_pio2.o)
 .debug_abbrev  0x000015ba       0xee /usr/lib/gcc/arm-elf/3.4.4/../../../../arm-elf/lib/thumb/interwork/libm.a(e_sinh.o)
 .debug_abbrev  0x000016a8      0x104 /usr/lib/gcc/arm-elf/3.4.4/../../../../arm-elf/lib/thumb/interwork/libm.a(e_sqrt.o)
 .debug_abbrev  0x000017ac       0xf7 /usr/lib/gcc/arm-elf/3.4.4/../../../../arm-elf/lib/thumb/interwork/libm.a(ef_atan2.o)
 .debug_abbrev  0x000018a3      0x103 /usr/lib/gcc/arm-elf/3.4.4/../../../../arm-elf/lib/thumb/interwork/libm.a(ef_rem_pio2.o)
 .debug_abbrev  0x000019a6       0xf7 /usr/lib/gcc/arm-elf/3.4.4/../../../../arm-elf/lib/thumb/interwork/libm.a(ef_sqrt.o)
 .debug_abbrev  0x00001a9d       0xea /usr/lib/gcc/arm-elf/3.4.4/../../../../arm-elf/lib/thumb/interwork/libm.a(k_cos.o)
 .debug_abbrev  0x00001b87       0xe6 /usr/lib/gcc/arm-elf/3.4.4/../../../../arm-elf/lib/thumb/interwork/libm.a(k_rem_pio2.o)
 .debug_abbrev  0x00001c6d       0x93 /usr/lib/gcc/arm-elf/3.4.4/../../../../arm-elf/lib/thumb/interwork/libm.a(k_sin.o)
 .debug_abbrev  0x00001d00      0x121 /usr/lib/gcc/arm-elf/3.4.4/../../../../arm-elf/lib/thumb/interwork/libm.a(k_tan.o)
 .debug_abbrev  0x00001e21       0xce /usr/lib/gcc/arm-elf/3.4.4/../../../../arm-elf/lib/thumb/interwork/libm.a(kf_cos.o)
 .debug_abbrev  0x00001eef       0xe6 /usr/lib/gcc/arm-elf/3.4.4/../../../../arm-elf/lib/thumb/interwork/libm.a(kf_rem_pio2.o)
 .debug_abbrev  0x00001fd5       0x93 /usr/lib/gcc/arm-elf/3.4.4/../../../../arm-elf/lib/thumb/interwork/libm.a(kf_sin.o)
 .debug_abbrev  0x00002068      0x138 /usr/lib/gcc/arm-elf/3.4.4/../../../../arm-elf/lib/thumb/interwork/libm.a(s_expm1.o)
 .debug_abbrev  0x000021a0       0x6a /usr/lib/gcc/arm-elf/3.4.4/../../../../arm-elf/lib/thumb/interwork/libm.a(s_finite.o)
 .debug_abbrev  0x0000220a       0xe8 /usr/lib/gcc/arm-elf/3.4.4/../../../../arm-elf/lib/thumb/interwork/libm.a(s_floor.o)
 .debug_abbrev  0x000022f2       0x7d /usr/lib/gcc/arm-elf/3.4.4/../../../../arm-elf/lib/thumb/interwork/libm.a(s_infconst.o)
 .debug_abbrev  0x0000236f       0xd4 /usr/lib/gcc/arm-elf/3.4.4/../../../../arm-elf/lib/thumb/interwork/libm.a(s_isnan.o)
 .debug_abbrev  0x00002443       0x5a /usr/lib/gcc/arm-elf/3.4.4/../../../../arm-elf/lib/thumb/interwork/libm.a(s_lib_ver.o)
 .debug_abbrev  0x0000249d       0x95 /usr/lib/gcc/arm-elf/3.4.4/../../../../arm-elf/lib/thumb/interwork/libm.a(s_matherr.o)
 .debug_abbrev  0x00002532      0x10a /usr/lib/gcc/arm-elf/3.4.4/../../../../arm-elf/lib/thumb/interwork/libm.a(s_rint.o)
 .debug_abbrev  0x0000263c       0xe8 /usr/lib/gcc/arm-elf/3.4.4/../../../../arm-elf/lib/thumb/interwork/libm.a(s_scalbn.o)
 .debug_abbrev  0x00002724       0xf1 /usr/lib/gcc/arm-elf/3.4.4/../../../../arm-elf/lib/thumb/interwork/libm.a(sf_atan.o)
 .debug_abbrev  0x00002815       0xa7 /usr/lib/gcc/arm-elf/3.4.4/../../../../arm-elf/lib/thumb/interwork/libm.a(sf_fabs.o)
 .debug_abbrev  0x000028bc       0xd9 /usr/lib/gcc/arm-elf/3.4.4/../../../../arm-elf/lib/thumb/interwork/libm.a(sf_floor.o)
 .debug_abbrev  0x00002995       0x6c /usr/lib/gcc/arm-elf/3.4.4/../../../../arm-elf/lib/thumb/interwork/libm.a(sf_isnan.o)
 .debug_abbrev  0x00002a01       0xd9 /usr/lib/gcc/arm-elf/3.4.4/../../../../arm-elf/lib/thumb/interwork/libm.a(sf_scalbn.o)
 .debug_abbrev  0x00002ada       0xc5 /usr/lib/gcc/arm-elf/3.4.4/../../../../arm-elf/lib/thumb/interwork/libm.a(s_copysign.o)
 .debug_abbrev  0x00002b9f       0xa7 /usr/lib/gcc/arm-elf/3.4.4/../../../../arm-elf/lib/thumb/interwork/libm.a(sf_copysign.o)
 .debug_abbrev  0x00002c46      0x15f /usr/lib/gcc/arm-elf/3.4.4/../../../../arm-elf/lib/thumb/interwork/libc.a(errno.o)
 .debug_abbrev  0x00002da5      0x157 /usr/lib/gcc/arm-elf/3.4.4/../../../../arm-elf/lib/thumb/interwork/libc.a(impure.o)

.debug_line     0x00000000     0x3895
 *(.debug_line)
 .debug_line    0x00000000      0x137 /usr/lib/gcc/arm-elf/3.4.4/../../../../arm-elf/lib/thumb/interwork/libm.a(s_atan.o)
 .debug_line    0x00000137       0xcc /usr/lib/gcc/arm-elf/3.4.4/../../../../arm-elf/lib/thumb/interwork/libm.a(s_cos.o)
 .debug_line    0x00000203       0xf3 /usr/lib/gcc/arm-elf/3.4.4/../../../../arm-elf/lib/thumb/interwork/libm.a(s_fabs.o)
 .debug_line    0x000002f6       0xcc /usr/lib/gcc/arm-elf/3.4.4/../../../../arm-elf/lib/thumb/interwork/libm.a(s_sin.o)
 .debug_line    0x000003c2       0xc1 /usr/lib/gcc/arm-elf/3.4.4/../../../../arm-elf/lib/thumb/interwork/libm.a(s_tan.o)
 .debug_line    0x00000483       0xcd /usr/lib/gcc/arm-elf/3.4.4/../../../../arm-elf/lib/thumb/interwork/libm.a(sf_cos.o)
 .debug_line    0x00000550       0xcc /usr/lib/gcc/arm-elf/3.4.4/../../../../arm-elf/lib/thumb/interwork/libm.a(sf_sin.o)
 .debug_line    0x0000061c       0xc1 /usr/lib/gcc/arm-elf/3.4.4/../../../../arm-elf/lib/thumb/interwork/libm.a(w_asin.o)
 .debug_line    0x000006dd       0xca /usr/lib/gcc/arm-elf/3.4.4/../../../../arm-elf/lib/thumb/interwork/libm.a(w_atan2.o)
 .debug_line    0x000007a7      0x118 /usr/lib/gcc/arm-elf/3.4.4/../../../../arm-elf/lib/thumb/interwork/libm.a(w_cosh.o)
 .debug_line    0x000008bf      0x126 /usr/lib/gcc/arm-elf/3.4.4/../../../../arm-elf/lib/thumb/interwork/libm.a(w_exp.o)
 .debug_line    0x000009e5      0x123 /usr/lib/gcc/arm-elf/3.4.4/../../../../arm-elf/lib/thumb/interwork/libm.a(w_log.o)
 .debug_line    0x00000b08      0x173 /usr/lib/gcc/arm-elf/3.4.4/../../../../arm-elf/lib/thumb/interwork/libm.a(w_pow.o)
 .debug_line    0x00000c7b      0x120 /usr/lib/gcc/arm-elf/3.4.4/../../../../arm-elf/lib/thumb/interwork/libm.a(w_sinh.o)
 .debug_line    0x00000d9b       0xc9 /usr/lib/gcc/arm-elf/3.4.4/../../../../arm-elf/lib/thumb/interwork/libm.a(w_sqrt.o)
 .debug_line    0x00000e64       0xc7 /usr/lib/gcc/arm-elf/3.4.4/../../../../arm-elf/lib/thumb/interwork/libm.a(wf_atan2.o)
 .debug_line    0x00000f2b       0xc8 /usr/lib/gcc/arm-elf/3.4.4/../../../../arm-elf/lib/thumb/interwork/libm.a(wf_sqrt.o)
 .debug_line    0x00000ff3      0x137 /usr/lib/gcc/arm-elf/3.4.4/../../../../arm-elf/lib/thumb/interwork/libm.a(e_asin.o)
 .debug_line    0x0000112a      0x14c /usr/lib/gcc/arm-elf/3.4.4/../../../../arm-elf/lib/thumb/interwork/libm.a(e_atan2.o)
 .debug_line    0x00001276      0x11d /usr/lib/gcc/arm-elf/3.4.4/../../../../arm-elf/lib/thumb/interwork/libm.a(e_cosh.o)
 .debug_line    0x00001393      0x13e /usr/lib/gcc/arm-elf/3.4.4/../../../../arm-elf/lib/thumb/interwork/libm.a(e_exp.o)
 .debug_line    0x000014d1      0x15d /usr/lib/gcc/arm-elf/3.4.4/../../../../arm-elf/lib/thumb/interwork/libm.a(e_log.o)
 .debug_line    0x0000162e      0x235 /usr/lib/gcc/arm-elf/3.4.4/../../../../arm-elf/lib/thumb/interwork/libm.a(e_pow.o)
 .debug_line    0x00001863      0x17c /usr/lib/gcc/arm-elf/3.4.4/../../../../arm-elf/lib/thumb/interwork/libm.a(e_rem_pio2.o)
 .debug_line    0x000019df      0x11e /usr/lib/gcc/arm-elf/3.4.4/../../../../arm-elf/lib/thumb/interwork/libm.a(e_sinh.o)
 .debug_line    0x00001afd      0x163 /usr/lib/gcc/arm-elf/3.4.4/../../../../arm-elf/lib/thumb/interwork/libm.a(e_sqrt.o)
 .debug_line    0x00001c60      0x14b /usr/lib/gcc/arm-elf/3.4.4/../../../../arm-elf/lib/thumb/interwork/libm.a(ef_atan2.o)
 .debug_line    0x00001dab      0x174 /usr/lib/gcc/arm-elf/3.4.4/../../../../arm-elf/lib/thumb/interwork/libm.a(ef_rem_pio2.o)
 .debug_line    0x00001f1f      0x11f /usr/lib/gcc/arm-elf/3.4.4/../../../../arm-elf/lib/thumb/interwork/libm.a(ef_sqrt.o)
 .debug_line    0x0000203e      0x115 /usr/lib/gcc/arm-elf/3.4.4/../../../../arm-elf/lib/thumb/interwork/libm.a(k_cos.o)
 .debug_line    0x00002153      0x187 /usr/lib/gcc/arm-elf/3.4.4/../../../../arm-elf/lib/thumb/interwork/libm.a(k_rem_pio2.o)
 .debug_line    0x000022da       0xc6 /usr/lib/gcc/arm-elf/3.4.4/../../../../arm-elf/lib/thumb/interwork/libm.a(k_sin.o)
 .debug_line    0x000023a0      0x13c /usr/lib/gcc/arm-elf/3.4.4/../../../../arm-elf/lib/thumb/interwork/libm.a(k_tan.o)
 .debug_line    0x000024dc      0x110 /usr/lib/gcc/arm-elf/3.4.4/../../../../arm-elf/lib/thumb/interwork/libm.a(kf_cos.o)
 .debug_line    0x000025ec      0x17f /usr/lib/gcc/arm-elf/3.4.4/../../../../arm-elf/lib/thumb/interwork/libm.a(kf_rem_pio2.o)
 .debug_line    0x0000276b       0xc3 /usr/lib/gcc/arm-elf/3.4.4/../../../../arm-elf/lib/thumb/interwork/libm.a(kf_sin.o)
 .debug_line    0x0000282e      0x137 /usr/lib/gcc/arm-elf/3.4.4/../../../../arm-elf/lib/thumb/interwork/libm.a(s_expm1.o)
 .debug_line    0x00002965       0xb4 /usr/lib/gcc/arm-elf/3.4.4/../../../../arm-elf/lib/thumb/interwork/libm.a(s_finite.o)
 .debug_line    0x00002a19      0x12a /usr/lib/gcc/arm-elf/3.4.4/../../../../arm-elf/lib/thumb/interwork/libm.a(s_floor.o)
 .debug_line    0x00002b43       0xef /usr/lib/gcc/arm-elf/3.4.4/../../../../arm-elf/lib/thumb/interwork/libm.a(s_infconst.o)
 .debug_line    0x00002c32       0xfb /usr/lib/gcc/arm-elf/3.4.4/../../../../arm-elf/lib/thumb/interwork/libm.a(s_isnan.o)
 .debug_line    0x00002d2d       0xa0 /usr/lib/gcc/arm-elf/3.4.4/../../../../arm-elf/lib/thumb/interwork/libm.a(s_lib_ver.o)
 .debug_line    0x00002dcd       0xb0 /usr/lib/gcc/arm-elf/3.4.4/../../../../arm-elf/lib/thumb/interwork/libm.a(s_matherr.o)
 .debug_line    0x00002e7d       0xf6 /usr/lib/gcc/arm-elf/3.4.4/../../../../arm-elf/lib/thumb/interwork/libm.a(s_rint.o)
 .debug_line    0x00002f73       0xeb /usr/lib/gcc/arm-elf/3.4.4/../../../../arm-elf/lib/thumb/interwork/libm.a(s_scalbn.o)
 .debug_line    0x0000305e      0x12a /usr/lib/gcc/arm-elf/3.4.4/../../../../arm-elf/lib/thumb/interwork/libm.a(sf_atan.o)
 .debug_line    0x00003188       0xf1 /usr/lib/gcc/arm-elf/3.4.4/../../../../arm-elf/lib/thumb/interwork/libm.a(sf_fabs.o)
 .debug_line    0x00003279      0x114 /usr/lib/gcc/arm-elf/3.4.4/../../../../arm-elf/lib/thumb/interwork/libm.a(sf_floor.o)
 .debug_line    0x0000338d       0xb6 /usr/lib/gcc/arm-elf/3.4.4/../../../../arm-elf/lib/thumb/interwork/libm.a(sf_isnan.o)
 .debug_line    0x00003443       0xf1 /usr/lib/gcc/arm-elf/3.4.4/../../../../arm-elf/lib/thumb/interwork/libm.a(sf_scalbn.o)
 .debug_line    0x00003534       0xc4 /usr/lib/gcc/arm-elf/3.4.4/../../../../arm-elf/lib/thumb/interwork/libm.a(s_copysign.o)
 .debug_line    0x000035f8       0xc3 /usr/lib/gcc/arm-elf/3.4.4/../../../../arm-elf/lib/thumb/interwork/libm.a(sf_copysign.o)
 .debug_line    0x000036bb       0xf4 /usr/lib/gcc/arm-elf/3.4.4/../../../../arm-elf/lib/thumb/interwork/libc.a(errno.o)
 .debug_line    0x000037af       0xe6 /usr/lib/gcc/arm-elf/3.4.4/../../../../arm-elf/lib/thumb/interwork/libc.a(impure.o)

.debug_frame    0x00000000      0x9fc
 *(.debug_frame)
 .debug_frame   0x00000000       0x38 /usr/lib/gcc/arm-elf/3.4.4/../../../../arm-elf/lib/thumb/interwork/libm.a(s_atan.o)
 .debug_frame   0x00000038       0x30 /usr/lib/gcc/arm-elf/3.4.4/../../../../arm-elf/lib/thumb/interwork/libm.a(s_cos.o)
 .debug_frame   0x00000068       0x28 /usr/lib/gcc/arm-elf/3.4.4/../../../../arm-elf/lib/thumb/interwork/libm.a(s_fabs.o)
 .debug_frame   0x00000090       0x30 /usr/lib/gcc/arm-elf/3.4.4/../../../../arm-elf/lib/thumb/interwork/libm.a(s_sin.o)
 .debug_frame   0x000000c0       0x30 /usr/lib/gcc/arm-elf/3.4.4/../../../../arm-elf/lib/thumb/interwork/libm.a(s_tan.o)
 .debug_frame   0x000000f0       0x2c /usr/lib/gcc/arm-elf/3.4.4/../../../../arm-elf/lib/thumb/interwork/libm.a(sf_cos.o)
 .debug_frame   0x0000011c       0x2c /usr/lib/gcc/arm-elf/3.4.4/../../../../arm-elf/lib/thumb/interwork/libm.a(sf_sin.o)
 .debug_frame   0x00000148       0x38 /usr/lib/gcc/arm-elf/3.4.4/../../../../arm-elf/lib/thumb/interwork/libm.a(w_asin.o)
 .debug_frame   0x00000180       0x38 /usr/lib/gcc/arm-elf/3.4.4/../../../../arm-elf/lib/thumb/interwork/libm.a(w_atan2.o)
 .debug_frame   0x000001b8       0x38 /usr/lib/gcc/arm-elf/3.4.4/../../../../arm-elf/lib/thumb/interwork/libm.a(w_cosh.o)
 .debug_frame   0x000001f0       0x30 /usr/lib/gcc/arm-elf/3.4.4/../../../../arm-elf/lib/thumb/interwork/libm.a(w_exp.o)
 .debug_frame   0x00000220       0x30 /usr/lib/gcc/arm-elf/3.4.4/../../../../arm-elf/lib/thumb/interwork/libm.a(w_log.o)
 .debug_frame   0x00000250       0x38 /usr/lib/gcc/arm-elf/3.4.4/../../../../arm-elf/lib/thumb/interwork/libm.a(w_pow.o)
 .debug_frame   0x00000288       0x38 /usr/lib/gcc/arm-elf/3.4.4/../../../../arm-elf/lib/thumb/interwork/libm.a(w_sinh.o)
 .debug_frame   0x000002c0       0x38 /usr/lib/gcc/arm-elf/3.4.4/../../../../arm-elf/lib/thumb/interwork/libm.a(w_sqrt.o)
 .debug_frame   0x000002f8       0x38 /usr/lib/gcc/arm-elf/3.4.4/../../../../arm-elf/lib/thumb/interwork/libm.a(wf_atan2.o)
 .debug_frame   0x00000330       0x30 /usr/lib/gcc/arm-elf/3.4.4/../../../../arm-elf/lib/thumb/interwork/libm.a(wf_sqrt.o)
 .debug_frame   0x00000360       0x38 /usr/lib/gcc/arm-elf/3.4.4/../../../../arm-elf/lib/thumb/interwork/libm.a(e_asin.o)
 .debug_frame   0x00000398       0x38 /usr/lib/gcc/arm-elf/3.4.4/../../../../arm-elf/lib/thumb/interwork/libm.a(e_atan2.o)
 .debug_frame   0x000003d0       0x30 /usr/lib/gcc/arm-elf/3.4.4/../../../../arm-elf/lib/thumb/interwork/libm.a(e_cosh.o)
 .debug_frame   0x00000400       0x38 /usr/lib/gcc/arm-elf/3.4.4/../../../../arm-elf/lib/thumb/interwork/libm.a(e_exp.o)
 .debug_frame   0x00000438       0x3c /usr/lib/gcc/arm-elf/3.4.4/../../../../arm-elf/lib/thumb/interwork/libm.a(e_log.o)
 .debug_frame   0x00000474       0x3c /usr/lib/gcc/arm-elf/3.4.4/../../../../arm-elf/lib/thumb/interwork/libm.a(e_pow.o)
 .debug_frame   0x000004b0       0x3c /usr/lib/gcc/arm-elf/3.4.4/../../../../arm-elf/lib/thumb/interwork/libm.a(e_rem_pio2.o)
 .debug_frame   0x000004ec       0x30 /usr/lib/gcc/arm-elf/3.4.4/../../../../arm-elf/lib/thumb/interwork/libm.a(e_sinh.o)
 .debug_frame   0x0000051c       0x3c /usr/lib/gcc/arm-elf/3.4.4/../../../../arm-elf/lib/thumb/interwork/libm.a(e_sqrt.o)
 .debug_frame   0x00000558       0x34 /usr/lib/gcc/arm-elf/3.4.4/../../../../arm-elf/lib/thumb/interwork/libm.a(ef_atan2.o)
 .debug_frame   0x0000058c       0x3c /usr/lib/gcc/arm-elf/3.4.4/../../../../arm-elf/lib/thumb/interwork/libm.a(ef_rem_pio2.o)
 .debug_frame   0x000005c8       0x2c /usr/lib/gcc/arm-elf/3.4.4/../../../../arm-elf/lib/thumb/interwork/libm.a(ef_sqrt.o)
 .debug_frame   0x000005f4       0x38 /usr/lib/gcc/arm-elf/3.4.4/../../../../arm-elf/lib/thumb/interwork/libm.a(k_cos.o)
 .debug_frame   0x0000062c       0x40 /usr/lib/gcc/arm-elf/3.4.4/../../../../arm-elf/lib/thumb/interwork/libm.a(k_rem_pio2.o)
 .debug_frame   0x0000066c       0x30 /usr/lib/gcc/arm-elf/3.4.4/../../../../arm-elf/lib/thumb/interwork/libm.a(k_sin.o)
 .debug_frame   0x0000069c       0x38 /usr/lib/gcc/arm-elf/3.4.4/../../../../arm-elf/lib/thumb/interwork/libm.a(k_tan.o)
 .debug_frame   0x000006d4       0x34 /usr/lib/gcc/arm-elf/3.4.4/../../../../arm-elf/lib/thumb/interwork/libm.a(kf_cos.o)
 .debug_frame   0x00000708       0x3c /usr/lib/gcc/arm-elf/3.4.4/../../../../arm-elf/lib/thumb/interwork/libm.a(kf_rem_pio2.o)
 .debug_frame   0x00000744       0x34 /usr/lib/gcc/arm-elf/3.4.4/../../../../arm-elf/lib/thumb/interwork/libm.a(kf_sin.o)
 .debug_frame   0x00000778       0x38 /usr/lib/gcc/arm-elf/3.4.4/../../../../arm-elf/lib/thumb/interwork/libm.a(s_expm1.o)
 .debug_frame   0x000007b0       0x20 /usr/lib/gcc/arm-elf/3.4.4/../../../../arm-elf/lib/thumb/interwork/libm.a(s_finite.o)
 .debug_frame   0x000007d0       0x38 /usr/lib/gcc/arm-elf/3.4.4/../../../../arm-elf/lib/thumb/interwork/libm.a(s_floor.o)
 .debug_frame   0x00000808       0x28 /usr/lib/gcc/arm-elf/3.4.4/../../../../arm-elf/lib/thumb/interwork/libm.a(s_isnan.o)
 .debug_frame   0x00000830       0x20 /usr/lib/gcc/arm-elf/3.4.4/../../../../arm-elf/lib/thumb/interwork/libm.a(s_matherr.o)
 .debug_frame   0x00000850       0x38 /usr/lib/gcc/arm-elf/3.4.4/../../../../arm-elf/lib/thumb/interwork/libm.a(s_rint.o)
 .debug_frame   0x00000888       0x34 /usr/lib/gcc/arm-elf/3.4.4/../../../../arm-elf/lib/thumb/interwork/libm.a(s_scalbn.o)
 .debug_frame   0x000008bc       0x34 /usr/lib/gcc/arm-elf/3.4.4/../../../../arm-elf/lib/thumb/interwork/libm.a(sf_atan.o)
 .debug_frame   0x000008f0       0x20 /usr/lib/gcc/arm-elf/3.4.4/../../../../arm-elf/lib/thumb/interwork/libm.a(sf_fabs.o)
 .debug_frame   0x00000910       0x2c /usr/lib/gcc/arm-elf/3.4.4/../../../../arm-elf/lib/thumb/interwork/libm.a(sf_floor.o)
 .debug_frame   0x0000093c       0x28 /usr/lib/gcc/arm-elf/3.4.4/../../../../arm-elf/lib/thumb/interwork/libm.a(sf_isnan.o)
 .debug_frame   0x00000964       0x2c /usr/lib/gcc/arm-elf/3.4.4/../../../../arm-elf/lib/thumb/interwork/libm.a(sf_scalbn.o)
 .debug_frame   0x00000990       0x2c /usr/lib/gcc/arm-elf/3.4.4/../../../../arm-elf/lib/thumb/interwork/libm.a(s_copysign.o)
 .debug_frame   0x000009bc       0x20 /usr/lib/gcc/arm-elf/3.4.4/../../../../arm-elf/lib/thumb/interwork/libm.a(sf_copysign.o)
 .debug_frame   0x000009dc       0x20 /usr/lib/gcc/arm-elf/3.4.4/../../../../arm-elf/lib/thumb/interwork/libc.a(errno.o)

.debug_str      0x00000000     0x14aa
 *(.debug_str)
 .debug_str     0x00000000      0x143 /usr/lib/gcc/arm-elf/3.4.4/../../../../arm-elf/lib/thumb/interwork/libm.a(s_atan.o)
                                0x17b (size before relaxing)
 .debug_str     0x00000143       0x32 /usr/lib/gcc/arm-elf/3.4.4/../../../../arm-elf/lib/thumb/interwork/libm.a(s_cos.o)
                                0x12a (size before relaxing)
 .debug_str     0x00000175       0x42 /usr/lib/gcc/arm-elf/3.4.4/../../../../arm-elf/lib/thumb/interwork/libm.a(s_fabs.o)
                                0x163 (size before relaxing)
 .debug_str     0x000001b7       0x32 /usr/lib/gcc/arm-elf/3.4.4/../../../../arm-elf/lib/thumb/interwork/libm.a(s_sin.o)
                                0x12a (size before relaxing)
 .debug_str     0x000001e9       0x32 /usr/lib/gcc/arm-elf/3.4.4/../../../../arm-elf/lib/thumb/interwork/libm.a(s_tan.o)
                                0x12a (size before relaxing)
 .debug_str     0x0000021b       0x33 /usr/lib/gcc/arm-elf/3.4.4/../../../../arm-elf/lib/thumb/interwork/libm.a(sf_cos.o)
                                0x130 (size before relaxing)
 .debug_str     0x0000024e       0x33 /usr/lib/gcc/arm-elf/3.4.4/../../../../arm-elf/lib/thumb/interwork/libm.a(sf_sin.o)
                                0x130 (size before relaxing)
 .debug_str     0x00000281       0xae /usr/lib/gcc/arm-elf/3.4.4/../../../../arm-elf/lib/thumb/interwork/libm.a(w_asin.o)
                                0x1a6 (size before relaxing)
 .debug_str     0x0000032f       0x34 /usr/lib/gcc/arm-elf/3.4.4/../../../../arm-elf/lib/thumb/interwork/libm.a(w_atan2.o)
                                0x1a8 (size before relaxing)
 .debug_str     0x00000363       0x4e /usr/lib/gcc/arm-elf/3.4.4/../../../../arm-elf/lib/thumb/interwork/libm.a(w_cosh.o)
                                0x1c1 (size before relaxing)
 .debug_str     0x000003b1       0x4a /usr/lib/gcc/arm-elf/3.4.4/../../../../arm-elf/lib/thumb/interwork/libm.a(w_exp.o)
                                0x1d3 (size before relaxing)
 .debug_str     0x000003fb       0x32 /usr/lib/gcc/arm-elf/3.4.4/../../../../arm-elf/lib/thumb/interwork/libm.a(w_log.o)
                                0x1bb (size before relaxing)
 .debug_str     0x0000042d       0x32 /usr/lib/gcc/arm-elf/3.4.4/../../../../arm-elf/lib/thumb/interwork/libm.a(w_pow.o)
                                0x1bb (size before relaxing)
 .debug_str     0x0000045f       0x33 /usr/lib/gcc/arm-elf/3.4.4/../../../../arm-elf/lib/thumb/interwork/libm.a(w_sinh.o)
                                0x1c1 (size before relaxing)
 .debug_str     0x00000492       0x33 /usr/lib/gcc/arm-elf/3.4.4/../../../../arm-elf/lib/thumb/interwork/libm.a(w_sqrt.o)
                                0x1a6 (size before relaxing)
 .debug_str     0x000004c5       0x35 /usr/lib/gcc/arm-elf/3.4.4/../../../../arm-elf/lib/thumb/interwork/libm.a(wf_atan2.o)
                                0x1aa (size before relaxing)
 .debug_str     0x000004fa       0x34 /usr/lib/gcc/arm-elf/3.4.4/../../../../arm-elf/lib/thumb/interwork/libm.a(wf_sqrt.o)
                                0x1a8 (size before relaxing)
 .debug_str     0x0000052e       0x5f /usr/lib/gcc/arm-elf/3.4.4/../../../../arm-elf/lib/thumb/interwork/libm.a(e_asin.o)
                                0x194 (size before relaxing)
 .debug_str     0x0000058d       0x67 /usr/lib/gcc/arm-elf/3.4.4/../../../../arm-elf/lib/thumb/interwork/libm.a(e_atan2.o)
                                0x197 (size before relaxing)
 .debug_str     0x000005f4       0x47 /usr/lib/gcc/arm-elf/3.4.4/../../../../arm-elf/lib/thumb/interwork/libm.a(e_cosh.o)
                                0x177 (size before relaxing)
 .debug_str     0x0000063b       0x61 /usr/lib/gcc/arm-elf/3.4.4/../../../../arm-elf/lib/thumb/interwork/libm.a(e_exp.o)
                                0x1b3 (size before relaxing)
 .debug_str     0x0000069c       0x59 /usr/lib/gcc/arm-elf/3.4.4/../../../../arm-elf/lib/thumb/interwork/libm.a(e_log.o)
                                0x193 (size before relaxing)
 .debug_str     0x000006f5       0x83 /usr/lib/gcc/arm-elf/3.4.4/../../../../arm-elf/lib/thumb/interwork/libm.a(e_pow.o)
                                0x1cc (size before relaxing)
 .debug_str     0x00000778       0x9a /usr/lib/gcc/arm-elf/3.4.4/../../../../arm-elf/lib/thumb/interwork/libm.a(e_rem_pio2.o)
                                0x1e3 (size before relaxing)
 .debug_str     0x00000812       0x48 /usr/lib/gcc/arm-elf/3.4.4/../../../../arm-elf/lib/thumb/interwork/libm.a(e_sinh.o)
                                0x173 (size before relaxing)
 .debug_str     0x0000085a       0x47 /usr/lib/gcc/arm-elf/3.4.4/../../../../arm-elf/lib/thumb/interwork/libm.a(e_sqrt.o)
                                0x17c (size before relaxing)
 .debug_str     0x000008a1       0x6b /usr/lib/gcc/arm-elf/3.4.4/../../../../arm-elf/lib/thumb/interwork/libm.a(ef_atan2.o)
                                0x192 (size before relaxing)
 .debug_str     0x0000090c       0x51 /usr/lib/gcc/arm-elf/3.4.4/../../../../arm-elf/lib/thumb/interwork/libm.a(ef_rem_pio2.o)
                                0x1d8 (size before relaxing)
 .debug_str     0x0000095d       0x44 /usr/lib/gcc/arm-elf/3.4.4/../../../../arm-elf/lib/thumb/interwork/libm.a(ef_sqrt.o)
                                0x17c (size before relaxing)
 .debug_str     0x000009a1       0x3f /usr/lib/gcc/arm-elf/3.4.4/../../../../arm-elf/lib/thumb/interwork/libm.a(k_cos.o)
                                0x16a (size before relaxing)
 .debug_str     0x000009e0       0x78 /usr/lib/gcc/arm-elf/3.4.4/../../../../arm-elf/lib/thumb/interwork/libm.a(k_rem_pio2.o)
                                0x17b (size before relaxing)
 .debug_str     0x00000a58       0x3f /usr/lib/gcc/arm-elf/3.4.4/../../../../arm-elf/lib/thumb/interwork/libm.a(k_sin.o)
                                0x13c (size before relaxing)
 .debug_str     0x00000a97       0x4b /usr/lib/gcc/arm-elf/3.4.4/../../../../arm-elf/lib/thumb/interwork/libm.a(k_tan.o)
                                0x180 (size before relaxing)
 .debug_str     0x00000ae2       0x41 /usr/lib/gcc/arm-elf/3.4.4/../../../../arm-elf/lib/thumb/interwork/libm.a(kf_cos.o)
                                0x16a (size before relaxing)
 .debug_str     0x00000b23       0x51 /usr/lib/gcc/arm-elf/3.4.4/../../../../arm-elf/lib/thumb/interwork/libm.a(kf_rem_pio2.o)
                                0x17b (size before relaxing)
 .debug_str     0x00000b74       0x41 /usr/lib/gcc/arm-elf/3.4.4/../../../../arm-elf/lib/thumb/interwork/libm.a(kf_sin.o)
                                0x13e (size before relaxing)
 .debug_str     0x00000bb5       0x96 /usr/lib/gcc/arm-elf/3.4.4/../../../../arm-elf/lib/thumb/interwork/libm.a(s_expm1.o)
                                0x1a3 (size before relaxing)
 .debug_str     0x00000c4b       0x3e /usr/lib/gcc/arm-elf/3.4.4/../../../../arm-elf/lib/thumb/interwork/libm.a(s_finite.o)
                                0x138 (size before relaxing)
 .debug_str     0x00000c89       0x3a /usr/lib/gcc/arm-elf/3.4.4/../../../../arm-elf/lib/thumb/interwork/libm.a(s_floor.o)
                                0x16f (size before relaxing)
 .debug_str     0x00000cc3       0x37 /usr/lib/gcc/arm-elf/3.4.4/../../../../arm-elf/lib/thumb/interwork/libm.a(s_infconst.o)
                                0x140 (size before relaxing)
 .debug_str     0x00000cfa       0x3a /usr/lib/gcc/arm-elf/3.4.4/../../../../arm-elf/lib/thumb/interwork/libm.a(s_isnan.o)
                                0x165 (size before relaxing)
 .debug_str     0x00000d34       0x38 /usr/lib/gcc/arm-elf/3.4.4/../../../../arm-elf/lib/thumb/interwork/libm.a(s_lib_ver.o)
                                0x183 (size before relaxing)
 .debug_str     0x00000d6c       0x40 /usr/lib/gcc/arm-elf/3.4.4/../../../../arm-elf/lib/thumb/interwork/libm.a(s_matherr.o)
                                0x155 (size before relaxing)
 .debug_str     0x00000dac       0x40 /usr/lib/gcc/arm-elf/3.4.4/../../../../arm-elf/lib/thumb/interwork/libm.a(s_rint.o)
                                0x17c (size before relaxing)
 .debug_str     0x00000dec       0x45 /usr/lib/gcc/arm-elf/3.4.4/../../../../arm-elf/lib/thumb/interwork/libm.a(s_scalbn.o)
                                0x187 (size before relaxing)
 .debug_str     0x00000e31       0x3a /usr/lib/gcc/arm-elf/3.4.4/../../../../arm-elf/lib/thumb/interwork/libm.a(sf_atan.o)
                                0x176 (size before relaxing)
 .debug_str     0x00000e6b       0x3a /usr/lib/gcc/arm-elf/3.4.4/../../../../arm-elf/lib/thumb/interwork/libm.a(sf_fabs.o)
                                0x159 (size before relaxing)
 .debug_str     0x00000ea5       0x3c /usr/lib/gcc/arm-elf/3.4.4/../../../../arm-elf/lib/thumb/interwork/libm.a(sf_floor.o)
                                0x16f (size before relaxing)
 .debug_str     0x00000ee1       0x3c /usr/lib/gcc/arm-elf/3.4.4/../../../../arm-elf/lib/thumb/interwork/libm.a(sf_isnan.o)
                                0x134 (size before relaxing)
 .debug_str     0x00000f1d       0x4d /usr/lib/gcc/arm-elf/3.4.4/../../../../arm-elf/lib/thumb/interwork/libm.a(sf_scalbn.o)
                                0x187 (size before relaxing)
 .debug_str     0x00000f6a       0x42 /usr/lib/gcc/arm-elf/3.4.4/../../../../arm-elf/lib/thumb/interwork/libm.a(s_copysign.o)
                                0x165 (size before relaxing)
 .debug_str     0x00000fac       0x44 /usr/lib/gcc/arm-elf/3.4.4/../../../../arm-elf/lib/thumb/interwork/libm.a(sf_copysign.o)
                                0x165 (size before relaxing)
 .debug_str     0x00000ff0      0x40e /usr/lib/gcc/arm-elf/3.4.4/../../../../arm-elf/lib/thumb/interwork/libc.a(errno.o)
                                0x4be (size before relaxing)
 .debug_str     0x000013fe       0xac /usr/lib/gcc/arm-elf/3.4.4/../../../../arm-elf/lib/thumb/interwork/libc.a(impure.o)
                                0x4d6 (size before relaxing)

.debug_loc
 *(.debug_loc)

.debug_macinfo
 *(.debug_macinfo)

.debug_weaknames
 *(.debug_weaknames)

.debug_funcnames
 *(.debug_funcnames)

.debug_typenames
 *(.debug_typenames)

.debug_varnames
 *(.debug_varnames)
OUTPUT(/home/excelobs/paparazzi/var/KMUAV_XB_AS_IMU/ap/ap.elf elf32-littlearm)

.debug_ranges   0x00000000      0x2e8
 .debug_ranges  0x00000000       0x28 /usr/lib/gcc/arm-elf/3.4.4/../../../../arm-elf/lib/thumb/interwork/libm.a(s_atan.o)
 .debug_ranges  0x00000028       0x18 /usr/lib/gcc/arm-elf/3.4.4/../../../../arm-elf/lib/thumb/interwork/libm.a(e_asin.o)
 .debug_ranges  0x00000040       0x20 /usr/lib/gcc/arm-elf/3.4.4/../../../../arm-elf/lib/thumb/interwork/libm.a(e_atan2.o)
 .debug_ranges  0x00000060       0x30 /usr/lib/gcc/arm-elf/3.4.4/../../../../arm-elf/lib/thumb/interwork/libm.a(e_exp.o)
 .debug_ranges  0x00000090       0x30 /usr/lib/gcc/arm-elf/3.4.4/../../../../arm-elf/lib/thumb/interwork/libm.a(e_log.o)
 .debug_ranges  0x000000c0       0xb8 /usr/lib/gcc/arm-elf/3.4.4/../../../../arm-elf/lib/thumb/interwork/libm.a(e_pow.o)
 .debug_ranges  0x00000178       0x18 /usr/lib/gcc/arm-elf/3.4.4/../../../../arm-elf/lib/thumb/interwork/libm.a(e_rem_pio2.o)
 .debug_ranges  0x00000190       0x18 /usr/lib/gcc/arm-elf/3.4.4/../../../../arm-elf/lib/thumb/interwork/libm.a(e_sqrt.o)
 .debug_ranges  0x000001a8       0x18 /usr/lib/gcc/arm-elf/3.4.4/../../../../arm-elf/lib/thumb/interwork/libm.a(k_cos.o)
 .debug_ranges  0x000001c0       0x20 /usr/lib/gcc/arm-elf/3.4.4/../../../../arm-elf/lib/thumb/interwork/libm.a(k_tan.o)
 .debug_ranges  0x000001e0       0x48 /usr/lib/gcc/arm-elf/3.4.4/../../../../arm-elf/lib/thumb/interwork/libm.a(s_expm1.o)
 .debug_ranges  0x00000228       0x20 /usr/lib/gcc/arm-elf/3.4.4/../../../../arm-elf/lib/thumb/interwork/libm.a(s_floor.o)
 .debug_ranges  0x00000248       0x50 /usr/lib/gcc/arm-elf/3.4.4/../../../../arm-elf/lib/thumb/interwork/libm.a(s_rint.o)
 .debug_ranges  0x00000298       0x18 /usr/lib/gcc/arm-elf/3.4.4/../../../../arm-elf/lib/thumb/interwork/libm.a(s_scalbn.o)
 .debug_ranges  0x000002b0       0x20 /usr/lib/gcc/arm-elf/3.4.4/../../../../arm-elf/lib/thumb/interwork/libm.a(sf_floor.o)
 .debug_ranges  0x000002d0       0x18 /usr/lib/gcc/arm-elf/3.4.4/../../../../arm-elf/lib/thumb/interwork/libm.a(sf_scalbn.o)

Cross Reference Table

Symbol                                            File
ArduIMU_event                                     /home/excelobs/paparazzi/var/KMUAV_XB_AS_IMU/ap/modules/ins/ins_arduimu_basic.o
                                                  /home/excelobs/paparazzi/var/KMUAV_XB_AS_IMU/ap/firmwares/fixedwing/main_ap.o
ArduIMU_init                                      /home/excelobs/paparazzi/var/KMUAV_XB_AS_IMU/ap/modules/ins/ins_arduimu_basic.o
                                                  /home/excelobs/paparazzi/var/KMUAV_XB_AS_IMU/ap/firmwares/fixedwing/main_ap.o
ArduIMU_periodic                                  /home/excelobs/paparazzi/var/KMUAV_XB_AS_IMU/ap/modules/ins/ins_arduimu_basic.o
                                                  /home/excelobs/paparazzi/var/KMUAV_XB_AS_IMU/ap/firmwares/fixedwing/main_ap.o
ArduIMU_periodicGPS                               /home/excelobs/paparazzi/var/KMUAV_XB_AS_IMU/ap/modules/ins/ins_arduimu_basic.o
                                                  /home/excelobs/paparazzi/var/KMUAV_XB_AS_IMU/ap/firmwares/fixedwing/main_ap.o
TIMER0_ISR                                        /home/excelobs/paparazzi/var/KMUAV_XB_AS_IMU/ap/arch/lpc21/sys_time_hw.o
                                                  /home/excelobs/paparazzi/var/KMUAV_XB_AS_IMU/ap/firmwares/fixedwing/main_fbw.o
____adddf3_change_to_arm                          /usr/lib/gcc/arm-elf/3.4.4/../../../../arm-elf/lib/thumb/interwork/libc.a(impure.o)
____adddf3_from_thumb                             /usr/lib/gcc/arm-elf/3.4.4/../../../../arm-elf/lib/thumb/interwork/libc.a(impure.o)
____addsf3_change_to_arm                          /usr/lib/gcc/arm-elf/3.4.4/../../../../arm-elf/lib/thumb/interwork/libc.a(impure.o)
____addsf3_from_thumb                             /usr/lib/gcc/arm-elf/3.4.4/../../../../arm-elf/lib/thumb/interwork/libc.a(impure.o)
____divdf3_change_to_arm                          /usr/lib/gcc/arm-elf/3.4.4/../../../../arm-elf/lib/thumb/interwork/libc.a(impure.o)
____divdf3_from_thumb                             /usr/lib/gcc/arm-elf/3.4.4/../../../../arm-elf/lib/thumb/interwork/libc.a(impure.o)
____divsf3_change_to_arm                          /usr/lib/gcc/arm-elf/3.4.4/../../../../arm-elf/lib/thumb/interwork/libc.a(impure.o)
____divsf3_from_thumb                             /usr/lib/gcc/arm-elf/3.4.4/../../../../arm-elf/lib/thumb/interwork/libc.a(impure.o)
____divsi3_from_arm                               /usr/lib/gcc/arm-elf/3.4.4/../../../../arm-elf/lib/thumb/interwork/libc.a(impure.o)
____eqdf2_change_to_arm                           /usr/lib/gcc/arm-elf/3.4.4/../../../../arm-elf/lib/thumb/interwork/libc.a(impure.o)
____eqdf2_from_thumb                              /usr/lib/gcc/arm-elf/3.4.4/../../../../arm-elf/lib/thumb/interwork/libc.a(impure.o)
____eqsf2_change_to_arm                           /usr/lib/gcc/arm-elf/3.4.4/../../../../arm-elf/lib/thumb/interwork/libc.a(impure.o)
____eqsf2_from_thumb                              /usr/lib/gcc/arm-elf/3.4.4/../../../../arm-elf/lib/thumb/interwork/libc.a(impure.o)
____extendsfdf2_change_to_arm                     /usr/lib/gcc/arm-elf/3.4.4/../../../../arm-elf/lib/thumb/interwork/libc.a(impure.o)
____extendsfdf2_from_thumb                        /usr/lib/gcc/arm-elf/3.4.4/../../../../arm-elf/lib/thumb/interwork/libc.a(impure.o)
____fixdfsi_change_to_arm                         /usr/lib/gcc/arm-elf/3.4.4/../../../../arm-elf/lib/thumb/interwork/libc.a(impure.o)
____fixdfsi_from_thumb                            /usr/lib/gcc/arm-elf/3.4.4/../../../../arm-elf/lib/thumb/interwork/libc.a(impure.o)
____fixsfsi_change_to_arm                         /usr/lib/gcc/arm-elf/3.4.4/../../../../arm-elf/lib/thumb/interwork/libc.a(impure.o)
____fixsfsi_from_thumb                            /usr/lib/gcc/arm-elf/3.4.4/../../../../arm-elf/lib/thumb/interwork/libc.a(impure.o)
____floatsidf_change_to_arm                       /usr/lib/gcc/arm-elf/3.4.4/../../../../arm-elf/lib/thumb/interwork/libc.a(impure.o)
____floatsidf_from_thumb                          /usr/lib/gcc/arm-elf/3.4.4/../../../../arm-elf/lib/thumb/interwork/libc.a(impure.o)
____floatsisf_change_to_arm                       /usr/lib/gcc/arm-elf/3.4.4/../../../../arm-elf/lib/thumb/interwork/libc.a(impure.o)
____floatsisf_from_thumb                          /usr/lib/gcc/arm-elf/3.4.4/../../../../arm-elf/lib/thumb/interwork/libc.a(impure.o)
____gedf2_change_to_arm                           /usr/lib/gcc/arm-elf/3.4.4/../../../../arm-elf/lib/thumb/interwork/libc.a(impure.o)
____gedf2_from_thumb                              /usr/lib/gcc/arm-elf/3.4.4/../../../../arm-elf/lib/thumb/interwork/libc.a(impure.o)
____gesf2_change_to_arm                           /usr/lib/gcc/arm-elf/3.4.4/../../../../arm-elf/lib/thumb/interwork/libc.a(impure.o)
____gesf2_from_thumb                              /usr/lib/gcc/arm-elf/3.4.4/../../../../arm-elf/lib/thumb/interwork/libc.a(impure.o)
____gtdf2_change_to_arm                           /usr/lib/gcc/arm-elf/3.4.4/../../../../arm-elf/lib/thumb/interwork/libc.a(impure.o)
____gtdf2_from_thumb                              /usr/lib/gcc/arm-elf/3.4.4/../../../../arm-elf/lib/thumb/interwork/libc.a(impure.o)
____gtsf2_change_to_arm                           /usr/lib/gcc/arm-elf/3.4.4/../../../../arm-elf/lib/thumb/interwork/libc.a(impure.o)
____gtsf2_from_thumb                              /usr/lib/gcc/arm-elf/3.4.4/../../../../arm-elf/lib/thumb/interwork/libc.a(impure.o)
____ltdf2_change_to_arm                           /usr/lib/gcc/arm-elf/3.4.4/../../../../arm-elf/lib/thumb/interwork/libc.a(impure.o)
____ltdf2_from_thumb                              /usr/lib/gcc/arm-elf/3.4.4/../../../../arm-elf/lib/thumb/interwork/libc.a(impure.o)
____ltsf2_change_to_arm                           /usr/lib/gcc/arm-elf/3.4.4/../../../../arm-elf/lib/thumb/interwork/libc.a(impure.o)
____ltsf2_from_thumb                              /usr/lib/gcc/arm-elf/3.4.4/../../../../arm-elf/lib/thumb/interwork/libc.a(impure.o)
____muldf3_change_to_arm                          /usr/lib/gcc/arm-elf/3.4.4/../../../../arm-elf/lib/thumb/interwork/libc.a(impure.o)
____muldf3_from_thumb                             /usr/lib/gcc/arm-elf/3.4.4/../../../../arm-elf/lib/thumb/interwork/libc.a(impure.o)
____mulsf3_change_to_arm                          /usr/lib/gcc/arm-elf/3.4.4/../../../../arm-elf/lib/thumb/interwork/libc.a(impure.o)
____mulsf3_from_thumb                             /usr/lib/gcc/arm-elf/3.4.4/../../../../arm-elf/lib/thumb/interwork/libc.a(impure.o)
____nedf2_change_to_arm                           /usr/lib/gcc/arm-elf/3.4.4/../../../../arm-elf/lib/thumb/interwork/libc.a(impure.o)
____nedf2_from_thumb                              /usr/lib/gcc/arm-elf/3.4.4/../../../../arm-elf/lib/thumb/interwork/libc.a(impure.o)
____subdf3_change_to_arm                          /usr/lib/gcc/arm-elf/3.4.4/../../../../arm-elf/lib/thumb/interwork/libc.a(impure.o)
____subdf3_from_thumb                             /usr/lib/gcc/arm-elf/3.4.4/../../../../arm-elf/lib/thumb/interwork/libc.a(impure.o)
____subsf3_change_to_arm                          /usr/lib/gcc/arm-elf/3.4.4/../../../../arm-elf/lib/thumb/interwork/libc.a(impure.o)
____subsf3_from_thumb                             /usr/lib/gcc/arm-elf/3.4.4/../../../../arm-elf/lib/thumb/interwork/libc.a(impure.o)
____truncdfsf2_change_to_arm                      /usr/lib/gcc/arm-elf/3.4.4/../../../../arm-elf/lib/thumb/interwork/libc.a(impure.o)
____truncdfsf2_from_thumb                         /usr/lib/gcc/arm-elf/3.4.4/../../../../arm-elf/lib/thumb/interwork/libc.a(impure.o)
____udivsi3_from_arm                              /usr/lib/gcc/arm-elf/3.4.4/../../../../arm-elf/lib/thumb/interwork/libc.a(impure.o)
__adddf3                                          /usr/lib/gcc/arm-elf/3.4.4/thumb/interwork/libgcc.a(_addsubdf3.o)
                                                  /usr/lib/gcc/arm-elf/3.4.4/../../../../arm-elf/lib/thumb/interwork/libm.a(s_scalbn.o)
                                                  /usr/lib/gcc/arm-elf/3.4.4/../../../../arm-elf/lib/thumb/interwork/libm.a(s_rint.o)
                                                  /usr/lib/gcc/arm-elf/3.4.4/../../../../arm-elf/lib/thumb/interwork/libm.a(s_floor.o)
                                                  /usr/lib/gcc/arm-elf/3.4.4/../../../../arm-elf/lib/thumb/interwork/libm.a(s_expm1.o)
                                                  /usr/lib/gcc/arm-elf/3.4.4/../../../../arm-elf/lib/thumb/interwork/libm.a(k_tan.o)
                                                  /usr/lib/gcc/arm-elf/3.4.4/../../../../arm-elf/lib/thumb/interwork/libm.a(k_sin.o)
                                                  /usr/lib/gcc/arm-elf/3.4.4/../../../../arm-elf/lib/thumb/interwork/libm.a(k_rem_pio2.o)
                                                  /usr/lib/gcc/arm-elf/3.4.4/../../../../arm-elf/lib/thumb/interwork/libm.a(k_cos.o)
                                                  /usr/lib/gcc/arm-elf/3.4.4/../../../../arm-elf/lib/thumb/interwork/libm.a(e_sqrt.o)
                                                  /usr/lib/gcc/arm-elf/3.4.4/../../../../arm-elf/lib/thumb/interwork/libm.a(e_sinh.o)
                                                  /usr/lib/gcc/arm-elf/3.4.4/../../../../arm-elf/lib/thumb/interwork/libm.a(e_rem_pio2.o)
                                                  /usr/lib/gcc/arm-elf/3.4.4/../../../../arm-elf/lib/thumb/interwork/libm.a(e_pow.o)
                                                  /usr/lib/gcc/arm-elf/3.4.4/../../../../arm-elf/lib/thumb/interwork/libm.a(e_log.o)
                                                  /usr/lib/gcc/arm-elf/3.4.4/../../../../arm-elf/lib/thumb/interwork/libm.a(e_exp.o)
                                                  /usr/lib/gcc/arm-elf/3.4.4/../../../../arm-elf/lib/thumb/interwork/libm.a(e_cosh.o)
                                                  /usr/lib/gcc/arm-elf/3.4.4/../../../../arm-elf/lib/thumb/interwork/libm.a(e_atan2.o)
                                                  /usr/lib/gcc/arm-elf/3.4.4/../../../../arm-elf/lib/thumb/interwork/libm.a(e_asin.o)
                                                  /usr/lib/gcc/arm-elf/3.4.4/../../../../arm-elf/lib/thumb/interwork/libm.a(s_atan.o)
                                                  /home/excelobs/paparazzi/var/KMUAV_XB_AS_IMU/ap/subsystems/navigation/nav_line.o
                                                  /home/excelobs/paparazzi/var/KMUAV_XB_AS_IMU/ap/subsystems/navigation/nav_survey_rectangle.o
                                                  /home/excelobs/paparazzi/var/KMUAV_XB_AS_IMU/ap/subsystems/nav.o
                                                  /home/excelobs/paparazzi/var/KMUAV_XB_AS_IMU/ap/./latlong.o
                                                  /home/excelobs/paparazzi/var/KMUAV_XB_AS_IMU/ap/firmwares/fixedwing/guidance/guidance_v.o
                                                  /home/excelobs/paparazzi/var/KMUAV_XB_AS_IMU/ap/firmwares/fixedwing/stabilization/stabilization_attitude.o
                                                  /home/excelobs/paparazzi/var/KMUAV_XB_AS_IMU/ap/./estimator.o
                                                  /home/excelobs/paparazzi/var/KMUAV_XB_AS_IMU/ap/firmwares/fixedwing/main_ap.o
                                                  /home/excelobs/paparazzi/var/KMUAV_XB_AS_IMU/ap/subsystems/electrical.o
                                                  /home/excelobs/paparazzi/var/KMUAV_XB_AS_IMU/ap/firmwares/fixedwing/main_fbw.o
__addsf3                                          /usr/lib/gcc/arm-elf/3.4.4/thumb/interwork/libgcc.a(_addsubsf3.o)
                                                  /usr/lib/gcc/arm-elf/3.4.4/../../../../arm-elf/lib/thumb/interwork/libm.a(sf_scalbn.o)
                                                  /usr/lib/gcc/arm-elf/3.4.4/../../../../arm-elf/lib/thumb/interwork/libm.a(sf_floor.o)
                                                  /usr/lib/gcc/arm-elf/3.4.4/../../../../arm-elf/lib/thumb/interwork/libm.a(sf_atan.o)
                                                  /usr/lib/gcc/arm-elf/3.4.4/../../../../arm-elf/lib/thumb/interwork/libm.a(kf_sin.o)
                                                  /usr/lib/gcc/arm-elf/3.4.4/../../../../arm-elf/lib/thumb/interwork/libm.a(kf_rem_pio2.o)
                                                  /usr/lib/gcc/arm-elf/3.4.4/../../../../arm-elf/lib/thumb/interwork/libm.a(kf_cos.o)
                                                  /usr/lib/gcc/arm-elf/3.4.4/../../../../arm-elf/lib/thumb/interwork/libm.a(ef_sqrt.o)
                                                  /usr/lib/gcc/arm-elf/3.4.4/../../../../arm-elf/lib/thumb/interwork/libm.a(ef_rem_pio2.o)
                                                  /usr/lib/gcc/arm-elf/3.4.4/../../../../arm-elf/lib/thumb/interwork/libm.a(ef_atan2.o)
                                                  /home/excelobs/paparazzi/var/KMUAV_XB_AS_IMU/ap/modules/sensors/airspeed_ets.o
                                                  /home/excelobs/paparazzi/var/KMUAV_XB_AS_IMU/ap/subsystems/navigation/nav_line.o
                                                  /home/excelobs/paparazzi/var/KMUAV_XB_AS_IMU/ap/subsystems/navigation/nav_survey_rectangle.o
                                                  /home/excelobs/paparazzi/var/KMUAV_XB_AS_IMU/ap/subsystems/nav.o
                                                  /home/excelobs/paparazzi/var/KMUAV_XB_AS_IMU/ap/./latlong.o
                                                  /home/excelobs/paparazzi/var/KMUAV_XB_AS_IMU/ap/firmwares/fixedwing/guidance/guidance_v.o
                                                  /home/excelobs/paparazzi/var/KMUAV_XB_AS_IMU/ap/firmwares/fixedwing/stabilization/stabilization_attitude.o
                                                  /home/excelobs/paparazzi/var/KMUAV_XB_AS_IMU/ap/firmwares/fixedwing/datalink.o
                                                  /home/excelobs/paparazzi/var/KMUAV_XB_AS_IMU/ap/./estimator.o
                                                  /home/excelobs/paparazzi/var/KMUAV_XB_AS_IMU/ap/firmwares/fixedwing/main_ap.o
__asin_from_arm                                   /usr/lib/gcc/arm-elf/3.4.4/../../../../arm-elf/lib/thumb/interwork/libc.a(impure.o)
__atan2_from_arm                                  /usr/lib/gcc/arm-elf/3.4.4/../../../../arm-elf/lib/thumb/interwork/libc.a(impure.o)
__atan2f_from_arm                                 /usr/lib/gcc/arm-elf/3.4.4/../../../../arm-elf/lib/thumb/interwork/libc.a(impure.o)
__atan_from_arm                                   /usr/lib/gcc/arm-elf/3.4.4/../../../../arm-elf/lib/thumb/interwork/libc.a(impure.o)
__bss_end__                                       /home/excelobs/paparazzi/var/KMUAV_XB_AS_IMU/ap/crt0.o
__bss_start                                       /home/excelobs/paparazzi/var/KMUAV_XB_AS_IMU/ap/crt0.o
__cmpdf2                                          /usr/lib/gcc/arm-elf/3.4.4/thumb/interwork/libgcc.a(_cmpdf2.o)
__cmpsf2                                          /usr/lib/gcc/arm-elf/3.4.4/thumb/interwork/libgcc.a(_cmpsf2.o)
__cos_from_arm                                    /usr/lib/gcc/arm-elf/3.4.4/../../../../arm-elf/lib/thumb/interwork/libc.a(impure.o)
__cosf_from_arm                                   /usr/lib/gcc/arm-elf/3.4.4/../../../../arm-elf/lib/thumb/interwork/libc.a(impure.o)
__cosh_from_arm                                   /usr/lib/gcc/arm-elf/3.4.4/../../../../arm-elf/lib/thumb/interwork/libc.a(impure.o)
__ctors_end__                                     /home/excelobs/paparazzi/var/KMUAV_XB_AS_IMU/ap/crt0.o
__ctors_start__                                   /home/excelobs/paparazzi/var/KMUAV_XB_AS_IMU/ap/crt0.o
__div0                                            /usr/lib/gcc/arm-elf/3.4.4/thumb/interwork/libgcc.a(_dvmd_tls.o)
                                                  /usr/lib/gcc/arm-elf/3.4.4/thumb/interwork/libgcc.a(_divsi3.o)
                                                  /usr/lib/gcc/arm-elf/3.4.4/thumb/interwork/libgcc.a(_udivsi3.o)
__divdf3                                          /usr/lib/gcc/arm-elf/3.4.4/thumb/interwork/libgcc.a(_muldivdf3.o)
                                                  /usr/lib/gcc/arm-elf/3.4.4/../../../../arm-elf/lib/thumb/interwork/libm.a(s_expm1.o)
                                                  /usr/lib/gcc/arm-elf/3.4.4/../../../../arm-elf/lib/thumb/interwork/libm.a(k_tan.o)
                                                  /usr/lib/gcc/arm-elf/3.4.4/../../../../arm-elf/lib/thumb/interwork/libm.a(e_sqrt.o)
                                                  /usr/lib/gcc/arm-elf/3.4.4/../../../../arm-elf/lib/thumb/interwork/libm.a(e_sinh.o)
                                                  /usr/lib/gcc/arm-elf/3.4.4/../../../../arm-elf/lib/thumb/interwork/libm.a(e_pow.o)
                                                  /usr/lib/gcc/arm-elf/3.4.4/../../../../arm-elf/lib/thumb/interwork/libm.a(e_log.o)
                                                  /usr/lib/gcc/arm-elf/3.4.4/../../../../arm-elf/lib/thumb/interwork/libm.a(e_exp.o)
                                                  /usr/lib/gcc/arm-elf/3.4.4/../../../../arm-elf/lib/thumb/interwork/libm.a(e_cosh.o)
                                                  /usr/lib/gcc/arm-elf/3.4.4/../../../../arm-elf/lib/thumb/interwork/libm.a(e_atan2.o)
                                                  /usr/lib/gcc/arm-elf/3.4.4/../../../../arm-elf/lib/thumb/interwork/libm.a(e_asin.o)
                                                  /usr/lib/gcc/arm-elf/3.4.4/../../../../arm-elf/lib/thumb/interwork/libm.a(wf_sqrt.o)
                                                  /usr/lib/gcc/arm-elf/3.4.4/../../../../arm-elf/lib/thumb/interwork/libm.a(w_sqrt.o)
                                                  /usr/lib/gcc/arm-elf/3.4.4/../../../../arm-elf/lib/thumb/interwork/libm.a(w_pow.o)
                                                  /usr/lib/gcc/arm-elf/3.4.4/../../../../arm-elf/lib/thumb/interwork/libm.a(s_atan.o)
                                                  /home/excelobs/paparazzi/var/KMUAV_XB_AS_IMU/ap/subsystems/nav.o
                                                  /home/excelobs/paparazzi/var/KMUAV_XB_AS_IMU/ap/./latlong.o
                                                  /home/excelobs/paparazzi/var/KMUAV_XB_AS_IMU/ap/./gps_ubx.o
                                                  /home/excelobs/paparazzi/var/KMUAV_XB_AS_IMU/ap/firmwares/fixedwing/guidance/guidance_v.o
                                                  /home/excelobs/paparazzi/var/KMUAV_XB_AS_IMU/ap/firmwares/fixedwing/datalink.o
                                                  /home/excelobs/paparazzi/var/KMUAV_XB_AS_IMU/ap/./estimator.o
                                                  /home/excelobs/paparazzi/var/KMUAV_XB_AS_IMU/ap/firmwares/fixedwing/main_ap.o
                                                  /home/excelobs/paparazzi/var/KMUAV_XB_AS_IMU/ap/subsystems/electrical.o
__divsf3                                          /usr/lib/gcc/arm-elf/3.4.4/thumb/interwork/libgcc.a(_muldivsf3.o)
                                                  /usr/lib/gcc/arm-elf/3.4.4/../../../../arm-elf/lib/thumb/interwork/libm.a(sf_atan.o)
                                                  /usr/lib/gcc/arm-elf/3.4.4/../../../../arm-elf/lib/thumb/interwork/libm.a(ef_sqrt.o)
                                                  /usr/lib/gcc/arm-elf/3.4.4/../../../../arm-elf/lib/thumb/interwork/libm.a(ef_atan2.o)
                                                  /home/excelobs/paparazzi/var/KMUAV_XB_AS_IMU/ap/modules/sensors/airspeed_ets.o
                                                  /home/excelobs/paparazzi/var/KMUAV_XB_AS_IMU/ap/subsystems/navigation/nav_line.o
                                                  /home/excelobs/paparazzi/var/KMUAV_XB_AS_IMU/ap/subsystems/nav.o
                                                  /home/excelobs/paparazzi/var/KMUAV_XB_AS_IMU/ap/./latlong.o
                                                  /home/excelobs/paparazzi/var/KMUAV_XB_AS_IMU/ap/firmwares/fixedwing/guidance/guidance_v.o
                                                  /home/excelobs/paparazzi/var/KMUAV_XB_AS_IMU/ap/firmwares/fixedwing/stabilization/stabilization_attitude.o
                                                  /home/excelobs/paparazzi/var/KMUAV_XB_AS_IMU/ap/firmwares/fixedwing/datalink.o
                                                  /home/excelobs/paparazzi/var/KMUAV_XB_AS_IMU/ap/./estimator.o
                                                  /home/excelobs/paparazzi/var/KMUAV_XB_AS_IMU/ap/firmwares/fixedwing/main_ap.o
                                                  /home/excelobs/paparazzi/var/KMUAV_XB_AS_IMU/ap/subsystems/electrical.o
__divsi3                                          /usr/lib/gcc/arm-elf/3.4.4/thumb/interwork/libgcc.a(_divsi3.o)
                                                  /usr/lib/gcc/arm-elf/3.4.4/../../../../arm-elf/lib/thumb/interwork/libm.a(k_rem_pio2.o)
                                                  /home/excelobs/paparazzi/var/KMUAV_XB_AS_IMU/ap/subsystems/nav.o
                                                  /home/excelobs/paparazzi/var/KMUAV_XB_AS_IMU/ap/./gps_ubx.o
                                                  /home/excelobs/paparazzi/var/KMUAV_XB_AS_IMU/ap/firmwares/fixedwing/main_fbw.o
__eqdf2                                           /usr/lib/gcc/arm-elf/3.4.4/thumb/interwork/libgcc.a(_cmpdf2.o)
                                                  /usr/lib/gcc/arm-elf/3.4.4/../../../../arm-elf/lib/thumb/interwork/libm.a(k_rem_pio2.o)
                                                  /usr/lib/gcc/arm-elf/3.4.4/../../../../arm-elf/lib/thumb/interwork/libm.a(e_rem_pio2.o)
                                                  /usr/lib/gcc/arm-elf/3.4.4/../../../../arm-elf/lib/thumb/interwork/libm.a(e_log.o)
                                                  /usr/lib/gcc/arm-elf/3.4.4/../../../../arm-elf/lib/thumb/interwork/libm.a(w_pow.o)
                                                  /usr/lib/gcc/arm-elf/3.4.4/../../../../arm-elf/lib/thumb/interwork/libm.a(w_log.o)
                                                  /usr/lib/gcc/arm-elf/3.4.4/../../../../arm-elf/lib/thumb/interwork/libm.a(w_atan2.o)
__eqsf2                                           /usr/lib/gcc/arm-elf/3.4.4/thumb/interwork/libgcc.a(_cmpsf2.o)
                                                  /usr/lib/gcc/arm-elf/3.4.4/../../../../arm-elf/lib/thumb/interwork/libm.a(kf_rem_pio2.o)
                                                  /usr/lib/gcc/arm-elf/3.4.4/../../../../arm-elf/lib/thumb/interwork/libm.a(ef_rem_pio2.o)
                                                  /usr/lib/gcc/arm-elf/3.4.4/../../../../arm-elf/lib/thumb/interwork/libm.a(wf_atan2.o)
                                                  /home/excelobs/paparazzi/var/KMUAV_XB_AS_IMU/ap/firmwares/fixedwing/datalink.o
__errno                                           /usr/lib/gcc/arm-elf/3.4.4/../../../../arm-elf/lib/thumb/interwork/libc.a(errno.o)
                                                  /usr/lib/gcc/arm-elf/3.4.4/../../../../arm-elf/lib/thumb/interwork/libm.a(wf_sqrt.o)
                                                  /usr/lib/gcc/arm-elf/3.4.4/../../../../arm-elf/lib/thumb/interwork/libm.a(wf_atan2.o)
                                                  /usr/lib/gcc/arm-elf/3.4.4/../../../../arm-elf/lib/thumb/interwork/libm.a(w_sqrt.o)
                                                  /usr/lib/gcc/arm-elf/3.4.4/../../../../arm-elf/lib/thumb/interwork/libm.a(w_sinh.o)
                                                  /usr/lib/gcc/arm-elf/3.4.4/../../../../arm-elf/lib/thumb/interwork/libm.a(w_pow.o)
                                                  /usr/lib/gcc/arm-elf/3.4.4/../../../../arm-elf/lib/thumb/interwork/libm.a(w_log.o)
                                                  /usr/lib/gcc/arm-elf/3.4.4/../../../../arm-elf/lib/thumb/interwork/libm.a(w_exp.o)
                                                  /usr/lib/gcc/arm-elf/3.4.4/../../../../arm-elf/lib/thumb/interwork/libm.a(w_cosh.o)
                                                  /usr/lib/gcc/arm-elf/3.4.4/../../../../arm-elf/lib/thumb/interwork/libm.a(w_atan2.o)
                                                  /usr/lib/gcc/arm-elf/3.4.4/../../../../arm-elf/lib/thumb/interwork/libm.a(w_asin.o)
__exp_from_arm                                    /usr/lib/gcc/arm-elf/3.4.4/../../../../arm-elf/lib/thumb/interwork/libc.a(impure.o)
__extendsfdf2                                     /usr/lib/gcc/arm-elf/3.4.4/thumb/interwork/libgcc.a(_addsubdf3.o)
                                                  /usr/lib/gcc/arm-elf/3.4.4/../../../../arm-elf/lib/thumb/interwork/libm.a(wf_sqrt.o)
                                                  /usr/lib/gcc/arm-elf/3.4.4/../../../../arm-elf/lib/thumb/interwork/libm.a(wf_atan2.o)
                                                  /home/excelobs/paparazzi/var/KMUAV_XB_AS_IMU/ap/modules/sensors/airspeed_ets.o
                                                  /home/excelobs/paparazzi/var/KMUAV_XB_AS_IMU/ap/subsystems/navigation/nav_line.o
                                                  /home/excelobs/paparazzi/var/KMUAV_XB_AS_IMU/ap/subsystems/navigation/nav_survey_rectangle.o
                                                  /home/excelobs/paparazzi/var/KMUAV_XB_AS_IMU/ap/subsystems/nav.o
                                                  /home/excelobs/paparazzi/var/KMUAV_XB_AS_IMU/ap/./latlong.o
                                                  /home/excelobs/paparazzi/var/KMUAV_XB_AS_IMU/ap/firmwares/fixedwing/guidance/guidance_v.o
                                                  /home/excelobs/paparazzi/var/KMUAV_XB_AS_IMU/ap/firmwares/fixedwing/stabilization/stabilization_attitude.o
                                                  /home/excelobs/paparazzi/var/KMUAV_XB_AS_IMU/ap/firmwares/fixedwing/datalink.o
                                                  /home/excelobs/paparazzi/var/KMUAV_XB_AS_IMU/ap/./estimator.o
                                                  /home/excelobs/paparazzi/var/KMUAV_XB_AS_IMU/ap/firmwares/fixedwing/main_ap.o
                                                  /home/excelobs/paparazzi/var/KMUAV_XB_AS_IMU/ap/subsystems/electrical.o
                                                  /home/excelobs/paparazzi/var/KMUAV_XB_AS_IMU/ap/firmwares/fixedwing/main_fbw.o
__fdlib_version                                   /usr/lib/gcc/arm-elf/3.4.4/../../../../arm-elf/lib/thumb/interwork/libm.a(s_lib_ver.o)
                                                  /usr/lib/gcc/arm-elf/3.4.4/../../../../arm-elf/lib/thumb/interwork/libm.a(wf_sqrt.o)
                                                  /usr/lib/gcc/arm-elf/3.4.4/../../../../arm-elf/lib/thumb/interwork/libm.a(wf_atan2.o)
                                                  /usr/lib/gcc/arm-elf/3.4.4/../../../../arm-elf/lib/thumb/interwork/libm.a(w_sqrt.o)
                                                  /usr/lib/gcc/arm-elf/3.4.4/../../../../arm-elf/lib/thumb/interwork/libm.a(w_sinh.o)
                                                  /usr/lib/gcc/arm-elf/3.4.4/../../../../arm-elf/lib/thumb/interwork/libm.a(w_pow.o)
                                                  /usr/lib/gcc/arm-elf/3.4.4/../../../../arm-elf/lib/thumb/interwork/libm.a(w_log.o)
                                                  /usr/lib/gcc/arm-elf/3.4.4/../../../../arm-elf/lib/thumb/interwork/libm.a(w_exp.o)
                                                  /usr/lib/gcc/arm-elf/3.4.4/../../../../arm-elf/lib/thumb/interwork/libm.a(w_cosh.o)
                                                  /usr/lib/gcc/arm-elf/3.4.4/../../../../arm-elf/lib/thumb/interwork/libm.a(w_atan2.o)
                                                  /usr/lib/gcc/arm-elf/3.4.4/../../../../arm-elf/lib/thumb/interwork/libm.a(w_asin.o)
__fixdfsi                                         /usr/lib/gcc/arm-elf/3.4.4/thumb/interwork/libgcc.a(_fixdfsi.o)
                                                  /usr/lib/gcc/arm-elf/3.4.4/../../../../arm-elf/lib/thumb/interwork/libm.a(s_expm1.o)
                                                  /usr/lib/gcc/arm-elf/3.4.4/../../../../arm-elf/lib/thumb/interwork/libm.a(k_tan.o)
                                                  /usr/lib/gcc/arm-elf/3.4.4/../../../../arm-elf/lib/thumb/interwork/libm.a(k_sin.o)
                                                  /usr/lib/gcc/arm-elf/3.4.4/../../../../arm-elf/lib/thumb/interwork/libm.a(k_rem_pio2.o)
                                                  /usr/lib/gcc/arm-elf/3.4.4/../../../../arm-elf/lib/thumb/interwork/libm.a(k_cos.o)
                                                  /usr/lib/gcc/arm-elf/3.4.4/../../../../arm-elf/lib/thumb/interwork/libm.a(e_rem_pio2.o)
                                                  /usr/lib/gcc/arm-elf/3.4.4/../../../../arm-elf/lib/thumb/interwork/libm.a(e_exp.o)
                                                  /home/excelobs/paparazzi/var/KMUAV_XB_AS_IMU/ap/firmwares/fixedwing/main_ap.o
                                                  /home/excelobs/paparazzi/var/KMUAV_XB_AS_IMU/ap/subsystems/electrical.o
__fixsfsi                                         /usr/lib/gcc/arm-elf/3.4.4/thumb/interwork/libgcc.a(_fixsfsi.o)
                                                  /usr/lib/gcc/arm-elf/3.4.4/../../../../arm-elf/lib/thumb/interwork/libm.a(kf_sin.o)
                                                  /usr/lib/gcc/arm-elf/3.4.4/../../../../arm-elf/lib/thumb/interwork/libm.a(kf_rem_pio2.o)
                                                  /usr/lib/gcc/arm-elf/3.4.4/../../../../arm-elf/lib/thumb/interwork/libm.a(kf_cos.o)
                                                  /usr/lib/gcc/arm-elf/3.4.4/../../../../arm-elf/lib/thumb/interwork/libm.a(ef_rem_pio2.o)
                                                  /home/excelobs/paparazzi/var/KMUAV_XB_AS_IMU/ap/subsystems/nav.o
                                                  /home/excelobs/paparazzi/var/KMUAV_XB_AS_IMU/ap/./gps_ubx.o
                                                  /home/excelobs/paparazzi/var/KMUAV_XB_AS_IMU/ap/firmwares/fixedwing/guidance/guidance_v.o
                                                  /home/excelobs/paparazzi/var/KMUAV_XB_AS_IMU/ap/firmwares/fixedwing/stabilization/stabilization_attitude.o
                                                  /home/excelobs/paparazzi/var/KMUAV_XB_AS_IMU/ap/firmwares/fixedwing/datalink.o
                                                  /home/excelobs/paparazzi/var/KMUAV_XB_AS_IMU/ap/firmwares/fixedwing/main_ap.o
                                                  /home/excelobs/paparazzi/var/KMUAV_XB_AS_IMU/ap/firmwares/fixedwing/main_fbw.o
__fixunsdfsi                                      /usr/lib/gcc/arm-elf/3.4.4/thumb/interwork/libgcc.a(_fixunsdfsi.o)
                                                  /home/excelobs/paparazzi/var/KMUAV_XB_AS_IMU/ap/firmwares/fixedwing/datalink.o
                                                  /home/excelobs/paparazzi/var/KMUAV_XB_AS_IMU/ap/firmwares/fixedwing/main_ap.o
                                                  /home/excelobs/paparazzi/var/KMUAV_XB_AS_IMU/ap/subsystems/electrical.o
                                                  /home/excelobs/paparazzi/var/KMUAV_XB_AS_IMU/ap/firmwares/fixedwing/main_fbw.o
__fixunssfsi                                      /usr/lib/gcc/arm-elf/3.4.4/thumb/interwork/libgcc.a(_fixunssfsi.o)
                                                  /home/excelobs/paparazzi/var/KMUAV_XB_AS_IMU/ap/firmwares/fixedwing/datalink.o
__floatsidf                                       /usr/lib/gcc/arm-elf/3.4.4/thumb/interwork/libgcc.a(_addsubdf3.o)
                                                  /usr/lib/gcc/arm-elf/3.4.4/../../../../arm-elf/lib/thumb/interwork/libm.a(s_expm1.o)
                                                  /usr/lib/gcc/arm-elf/3.4.4/../../../../arm-elf/lib/thumb/interwork/libm.a(k_tan.o)
                                                  /usr/lib/gcc/arm-elf/3.4.4/../../../../arm-elf/lib/thumb/interwork/libm.a(k_rem_pio2.o)
                                                  /usr/lib/gcc/arm-elf/3.4.4/../../../../arm-elf/lib/thumb/interwork/libm.a(e_rem_pio2.o)
                                                  /usr/lib/gcc/arm-elf/3.4.4/../../../../arm-elf/lib/thumb/interwork/libm.a(e_pow.o)
                                                  /usr/lib/gcc/arm-elf/3.4.4/../../../../arm-elf/lib/thumb/interwork/libm.a(e_log.o)
                                                  /usr/lib/gcc/arm-elf/3.4.4/../../../../arm-elf/lib/thumb/interwork/libm.a(e_exp.o)
                                                  /home/excelobs/paparazzi/var/KMUAV_XB_AS_IMU/ap/modules/ins/ins_arduimu_basic.o
                                                  /home/excelobs/paparazzi/var/KMUAV_XB_AS_IMU/ap/subsystems/nav.o
                                                  /home/excelobs/paparazzi/var/KMUAV_XB_AS_IMU/ap/./latlong.o
                                                  /home/excelobs/paparazzi/var/KMUAV_XB_AS_IMU/ap/./gps_ubx.o
                                                  /home/excelobs/paparazzi/var/KMUAV_XB_AS_IMU/ap/firmwares/fixedwing/guidance/guidance_v.o
                                                  /home/excelobs/paparazzi/var/KMUAV_XB_AS_IMU/ap/firmwares/fixedwing/datalink.o
                                                  /home/excelobs/paparazzi/var/KMUAV_XB_AS_IMU/ap/./estimator.o
                                                  /home/excelobs/paparazzi/var/KMUAV_XB_AS_IMU/ap/firmwares/fixedwing/main_ap.o
                                                  /home/excelobs/paparazzi/var/KMUAV_XB_AS_IMU/ap/subsystems/electrical.o
                                                  /home/excelobs/paparazzi/var/KMUAV_XB_AS_IMU/ap/firmwares/fixedwing/main_fbw.o
__floatsisf                                       /usr/lib/gcc/arm-elf/3.4.4/thumb/interwork/libgcc.a(_addsubsf3.o)
                                                  /usr/lib/gcc/arm-elf/3.4.4/../../../../arm-elf/lib/thumb/interwork/libm.a(kf_rem_pio2.o)
                                                  /usr/lib/gcc/arm-elf/3.4.4/../../../../arm-elf/lib/thumb/interwork/libm.a(ef_rem_pio2.o)
                                                  /home/excelobs/paparazzi/var/KMUAV_XB_AS_IMU/ap/modules/ins/ins_arduimu_basic.o
                                                  /home/excelobs/paparazzi/var/KMUAV_XB_AS_IMU/ap/modules/sensors/airspeed_ets.o
                                                  /home/excelobs/paparazzi/var/KMUAV_XB_AS_IMU/ap/subsystems/nav.o
                                                  /home/excelobs/paparazzi/var/KMUAV_XB_AS_IMU/ap/./latlong.o
                                                  /home/excelobs/paparazzi/var/KMUAV_XB_AS_IMU/ap/firmwares/fixedwing/stabilization/stabilization_attitude.o
                                                  /home/excelobs/paparazzi/var/KMUAV_XB_AS_IMU/ap/firmwares/fixedwing/datalink.o
                                                  /home/excelobs/paparazzi/var/KMUAV_XB_AS_IMU/ap/./estimator.o
                                                  /home/excelobs/paparazzi/var/KMUAV_XB_AS_IMU/ap/firmwares/fixedwing/main_ap.o
                                                  /home/excelobs/paparazzi/var/KMUAV_XB_AS_IMU/ap/subsystems/electrical.o
                                                  /home/excelobs/paparazzi/var/KMUAV_XB_AS_IMU/ap/firmwares/fixedwing/main_fbw.o
__floatunsidf                                     /usr/lib/gcc/arm-elf/3.4.4/thumb/interwork/libgcc.a(_addsubdf3.o)
__floatunsisf                                     /usr/lib/gcc/arm-elf/3.4.4/thumb/interwork/libgcc.a(_addsubsf3.o)
__gedf2                                           /usr/lib/gcc/arm-elf/3.4.4/thumb/interwork/libgcc.a(_cmpdf2.o)
                                                  /usr/lib/gcc/arm-elf/3.4.4/../../../../arm-elf/lib/thumb/interwork/libm.a(k_rem_pio2.o)
                                                  /usr/lib/gcc/arm-elf/3.4.4/../../../../arm-elf/lib/thumb/interwork/libm.a(e_sqrt.o)
                                                  /usr/lib/gcc/arm-elf/3.4.4/../../../../arm-elf/lib/thumb/interwork/libm.a(e_pow.o)
__gesf2                                           /usr/lib/gcc/arm-elf/3.4.4/thumb/interwork/libgcc.a(_cmpsf2.o)
                                                  /usr/lib/gcc/arm-elf/3.4.4/../../../../arm-elf/lib/thumb/interwork/libm.a(kf_rem_pio2.o)
                                                  /usr/lib/gcc/arm-elf/3.4.4/../../../../arm-elf/lib/thumb/interwork/libm.a(ef_sqrt.o)
                                                  /home/excelobs/paparazzi/var/KMUAV_XB_AS_IMU/ap/subsystems/navigation/nav_line.o
                                                  /home/excelobs/paparazzi/var/KMUAV_XB_AS_IMU/ap/subsystems/navigation/nav_survey_rectangle.o
                                                  /home/excelobs/paparazzi/var/KMUAV_XB_AS_IMU/ap/subsystems/nav.o
                                                  /home/excelobs/paparazzi/var/KMUAV_XB_AS_IMU/ap/./estimator.o
__gtdf2                                           /usr/lib/gcc/arm-elf/3.4.4/thumb/interwork/libgcc.a(_cmpdf2.o)
                                                  /usr/lib/gcc/arm-elf/3.4.4/../../../../arm-elf/lib/thumb/interwork/libm.a(s_floor.o)
                                                  /usr/lib/gcc/arm-elf/3.4.4/../../../../arm-elf/lib/thumb/interwork/libm.a(s_expm1.o)
                                                  /usr/lib/gcc/arm-elf/3.4.4/../../../../arm-elf/lib/thumb/interwork/libm.a(e_sqrt.o)
                                                  /usr/lib/gcc/arm-elf/3.4.4/../../../../arm-elf/lib/thumb/interwork/libm.a(e_sinh.o)
                                                  /usr/lib/gcc/arm-elf/3.4.4/../../../../arm-elf/lib/thumb/interwork/libm.a(e_pow.o)
                                                  /usr/lib/gcc/arm-elf/3.4.4/../../../../arm-elf/lib/thumb/interwork/libm.a(e_exp.o)
                                                  /usr/lib/gcc/arm-elf/3.4.4/../../../../arm-elf/lib/thumb/interwork/libm.a(e_asin.o)
                                                  /usr/lib/gcc/arm-elf/3.4.4/../../../../arm-elf/lib/thumb/interwork/libm.a(w_sinh.o)
                                                  /usr/lib/gcc/arm-elf/3.4.4/../../../../arm-elf/lib/thumb/interwork/libm.a(w_log.o)
                                                  /usr/lib/gcc/arm-elf/3.4.4/../../../../arm-elf/lib/thumb/interwork/libm.a(w_exp.o)
                                                  /usr/lib/gcc/arm-elf/3.4.4/../../../../arm-elf/lib/thumb/interwork/libm.a(w_cosh.o)
                                                  /usr/lib/gcc/arm-elf/3.4.4/../../../../arm-elf/lib/thumb/interwork/libm.a(w_asin.o)
                                                  /usr/lib/gcc/arm-elf/3.4.4/../../../../arm-elf/lib/thumb/interwork/libm.a(s_atan.o)
                                                  /home/excelobs/paparazzi/var/KMUAV_XB_AS_IMU/ap/subsystems/navigation/nav_survey_rectangle.o
                                                  /home/excelobs/paparazzi/var/KMUAV_XB_AS_IMU/ap/subsystems/nav.o
                                                  /home/excelobs/paparazzi/var/KMUAV_XB_AS_IMU/ap/firmwares/fixedwing/guidance/guidance_v.o
                                                  /home/excelobs/paparazzi/var/KMUAV_XB_AS_IMU/ap/firmwares/fixedwing/stabilization/stabilization_attitude.o
                                                  /home/excelobs/paparazzi/var/KMUAV_XB_AS_IMU/ap/firmwares/fixedwing/datalink.o
                                                  /home/excelobs/paparazzi/var/KMUAV_XB_AS_IMU/ap/./estimator.o
                                                  /home/excelobs/paparazzi/var/KMUAV_XB_AS_IMU/ap/firmwares/fixedwing/main_ap.o
__gtsf2                                           /usr/lib/gcc/arm-elf/3.4.4/thumb/interwork/libgcc.a(_cmpsf2.o)
                                                  /usr/lib/gcc/arm-elf/3.4.4/../../../../arm-elf/lib/thumb/interwork/libm.a(sf_floor.o)
                                                  /usr/lib/gcc/arm-elf/3.4.4/../../../../arm-elf/lib/thumb/interwork/libm.a(sf_atan.o)
                                                  /usr/lib/gcc/arm-elf/3.4.4/../../../../arm-elf/lib/thumb/interwork/libm.a(ef_sqrt.o)
                                                  /home/excelobs/paparazzi/var/KMUAV_XB_AS_IMU/ap/subsystems/navigation/nav_line.o
                                                  /home/excelobs/paparazzi/var/KMUAV_XB_AS_IMU/ap/subsystems/navigation/nav_survey_rectangle.o
                                                  /home/excelobs/paparazzi/var/KMUAV_XB_AS_IMU/ap/subsystems/nav.o
                                                  /home/excelobs/paparazzi/var/KMUAV_XB_AS_IMU/ap/./latlong.o
                                                  /home/excelobs/paparazzi/var/KMUAV_XB_AS_IMU/ap/firmwares/fixedwing/guidance/guidance_v.o
                                                  /home/excelobs/paparazzi/var/KMUAV_XB_AS_IMU/ap/firmwares/fixedwing/stabilization/stabilization_attitude.o
                                                  /home/excelobs/paparazzi/var/KMUAV_XB_AS_IMU/ap/firmwares/fixedwing/main_ap.o
                                                  /home/excelobs/paparazzi/var/KMUAV_XB_AS_IMU/ap/firmwares/fixedwing/main_fbw.o
__ieee754_asin                                    /usr/lib/gcc/arm-elf/3.4.4/../../../../arm-elf/lib/thumb/interwork/libm.a(e_asin.o)
                                                  /usr/lib/gcc/arm-elf/3.4.4/../../../../arm-elf/lib/thumb/interwork/libm.a(w_asin.o)
__ieee754_atan2                                   /usr/lib/gcc/arm-elf/3.4.4/../../../../arm-elf/lib/thumb/interwork/libm.a(e_atan2.o)
                                                  /usr/lib/gcc/arm-elf/3.4.4/../../../../arm-elf/lib/thumb/interwork/libm.a(w_atan2.o)
__ieee754_atan2f                                  /usr/lib/gcc/arm-elf/3.4.4/../../../../arm-elf/lib/thumb/interwork/libm.a(ef_atan2.o)
                                                  /usr/lib/gcc/arm-elf/3.4.4/../../../../arm-elf/lib/thumb/interwork/libm.a(wf_atan2.o)
__ieee754_cosh                                    /usr/lib/gcc/arm-elf/3.4.4/../../../../arm-elf/lib/thumb/interwork/libm.a(e_cosh.o)
                                                  /usr/lib/gcc/arm-elf/3.4.4/../../../../arm-elf/lib/thumb/interwork/libm.a(w_cosh.o)
__ieee754_exp                                     /usr/lib/gcc/arm-elf/3.4.4/../../../../arm-elf/lib/thumb/interwork/libm.a(e_exp.o)
                                                  /usr/lib/gcc/arm-elf/3.4.4/../../../../arm-elf/lib/thumb/interwork/libm.a(e_sinh.o)
                                                  /usr/lib/gcc/arm-elf/3.4.4/../../../../arm-elf/lib/thumb/interwork/libm.a(e_cosh.o)
                                                  /usr/lib/gcc/arm-elf/3.4.4/../../../../arm-elf/lib/thumb/interwork/libm.a(w_exp.o)
__ieee754_log                                     /usr/lib/gcc/arm-elf/3.4.4/../../../../arm-elf/lib/thumb/interwork/libm.a(e_log.o)
                                                  /usr/lib/gcc/arm-elf/3.4.4/../../../../arm-elf/lib/thumb/interwork/libm.a(w_log.o)
__ieee754_pow                                     /usr/lib/gcc/arm-elf/3.4.4/../../../../arm-elf/lib/thumb/interwork/libm.a(e_pow.o)
                                                  /usr/lib/gcc/arm-elf/3.4.4/../../../../arm-elf/lib/thumb/interwork/libm.a(w_pow.o)
__ieee754_rem_pio2                                /usr/lib/gcc/arm-elf/3.4.4/../../../../arm-elf/lib/thumb/interwork/libm.a(e_rem_pio2.o)
                                                  /usr/lib/gcc/arm-elf/3.4.4/../../../../arm-elf/lib/thumb/interwork/libm.a(s_tan.o)
                                                  /usr/lib/gcc/arm-elf/3.4.4/../../../../arm-elf/lib/thumb/interwork/libm.a(s_sin.o)
                                                  /usr/lib/gcc/arm-elf/3.4.4/../../../../arm-elf/lib/thumb/interwork/libm.a(s_cos.o)
__ieee754_rem_pio2f                               /usr/lib/gcc/arm-elf/3.4.4/../../../../arm-elf/lib/thumb/interwork/libm.a(ef_rem_pio2.o)
                                                  /usr/lib/gcc/arm-elf/3.4.4/../../../../arm-elf/lib/thumb/interwork/libm.a(sf_sin.o)
                                                  /usr/lib/gcc/arm-elf/3.4.4/../../../../arm-elf/lib/thumb/interwork/libm.a(sf_cos.o)
__ieee754_sinh                                    /usr/lib/gcc/arm-elf/3.4.4/../../../../arm-elf/lib/thumb/interwork/libm.a(e_sinh.o)
                                                  /usr/lib/gcc/arm-elf/3.4.4/../../../../arm-elf/lib/thumb/interwork/libm.a(w_sinh.o)
__ieee754_sqrt                                    /usr/lib/gcc/arm-elf/3.4.4/../../../../arm-elf/lib/thumb/interwork/libm.a(e_sqrt.o)
                                                  /usr/lib/gcc/arm-elf/3.4.4/../../../../arm-elf/lib/thumb/interwork/libm.a(e_pow.o)
                                                  /usr/lib/gcc/arm-elf/3.4.4/../../../../arm-elf/lib/thumb/interwork/libm.a(e_asin.o)
                                                  /usr/lib/gcc/arm-elf/3.4.4/../../../../arm-elf/lib/thumb/interwork/libm.a(w_sqrt.o)
__ieee754_sqrtf                                   /usr/lib/gcc/arm-elf/3.4.4/../../../../arm-elf/lib/thumb/interwork/libm.a(ef_sqrt.o)
                                                  /usr/lib/gcc/arm-elf/3.4.4/../../../../arm-elf/lib/thumb/interwork/libm.a(wf_sqrt.o)
__infinity                                        /usr/lib/gcc/arm-elf/3.4.4/../../../../arm-elf/lib/thumb/interwork/libm.a(s_infconst.o)
                                                  /usr/lib/gcc/arm-elf/3.4.4/../../../../arm-elf/lib/thumb/interwork/libm.a(w_sinh.o)
                                                  /usr/lib/gcc/arm-elf/3.4.4/../../../../arm-elf/lib/thumb/interwork/libm.a(w_pow.o)
                                                  /usr/lib/gcc/arm-elf/3.4.4/../../../../arm-elf/lib/thumb/interwork/libm.a(w_log.o)
                                                  /usr/lib/gcc/arm-elf/3.4.4/../../../../arm-elf/lib/thumb/interwork/libm.a(w_exp.o)
                                                  /usr/lib/gcc/arm-elf/3.4.4/../../../../arm-elf/lib/thumb/interwork/libm.a(w_cosh.o)
__kernel_cos                                      /usr/lib/gcc/arm-elf/3.4.4/../../../../arm-elf/lib/thumb/interwork/libm.a(k_cos.o)
                                                  /usr/lib/gcc/arm-elf/3.4.4/../../../../arm-elf/lib/thumb/interwork/libm.a(s_sin.o)
                                                  /usr/lib/gcc/arm-elf/3.4.4/../../../../arm-elf/lib/thumb/interwork/libm.a(s_cos.o)
__kernel_cosf                                     /usr/lib/gcc/arm-elf/3.4.4/../../../../arm-elf/lib/thumb/interwork/libm.a(kf_cos.o)
                                                  /usr/lib/gcc/arm-elf/3.4.4/../../../../arm-elf/lib/thumb/interwork/libm.a(sf_sin.o)
                                                  /usr/lib/gcc/arm-elf/3.4.4/../../../../arm-elf/lib/thumb/interwork/libm.a(sf_cos.o)
__kernel_rem_pio2                                 /usr/lib/gcc/arm-elf/3.4.4/../../../../arm-elf/lib/thumb/interwork/libm.a(k_rem_pio2.o)
                                                  /usr/lib/gcc/arm-elf/3.4.4/../../../../arm-elf/lib/thumb/interwork/libm.a(e_rem_pio2.o)
__kernel_rem_pio2f                                /usr/lib/gcc/arm-elf/3.4.4/../../../../arm-elf/lib/thumb/interwork/libm.a(kf_rem_pio2.o)
                                                  /usr/lib/gcc/arm-elf/3.4.4/../../../../arm-elf/lib/thumb/interwork/libm.a(ef_rem_pio2.o)
__kernel_sin                                      /usr/lib/gcc/arm-elf/3.4.4/../../../../arm-elf/lib/thumb/interwork/libm.a(k_sin.o)
                                                  /usr/lib/gcc/arm-elf/3.4.4/../../../../arm-elf/lib/thumb/interwork/libm.a(s_sin.o)
                                                  /usr/lib/gcc/arm-elf/3.4.4/../../../../arm-elf/lib/thumb/interwork/libm.a(s_cos.o)
__kernel_sinf                                     /usr/lib/gcc/arm-elf/3.4.4/../../../../arm-elf/lib/thumb/interwork/libm.a(kf_sin.o)
                                                  /usr/lib/gcc/arm-elf/3.4.4/../../../../arm-elf/lib/thumb/interwork/libm.a(sf_sin.o)
                                                  /usr/lib/gcc/arm-elf/3.4.4/../../../../arm-elf/lib/thumb/interwork/libm.a(sf_cos.o)
__kernel_tan                                      /usr/lib/gcc/arm-elf/3.4.4/../../../../arm-elf/lib/thumb/interwork/libm.a(k_tan.o)
                                                  /usr/lib/gcc/arm-elf/3.4.4/../../../../arm-elf/lib/thumb/interwork/libm.a(s_tan.o)
__ledf2                                           /usr/lib/gcc/arm-elf/3.4.4/thumb/interwork/libgcc.a(_cmpdf2.o)
__lesf2                                           /usr/lib/gcc/arm-elf/3.4.4/thumb/interwork/libgcc.a(_cmpsf2.o)
__log_from_arm                                    /usr/lib/gcc/arm-elf/3.4.4/../../../../arm-elf/lib/thumb/interwork/libc.a(impure.o)
__ltdf2                                           /usr/lib/gcc/arm-elf/3.4.4/thumb/interwork/libgcc.a(_cmpdf2.o)
                                                  /usr/lib/gcc/arm-elf/3.4.4/../../../../arm-elf/lib/thumb/interwork/libm.a(s_expm1.o)
                                                  /usr/lib/gcc/arm-elf/3.4.4/../../../../arm-elf/lib/thumb/interwork/libm.a(e_exp.o)
                                                  /usr/lib/gcc/arm-elf/3.4.4/../../../../arm-elf/lib/thumb/interwork/libm.a(w_sqrt.o)
                                                  /usr/lib/gcc/arm-elf/3.4.4/../../../../arm-elf/lib/thumb/interwork/libm.a(w_pow.o)
                                                  /usr/lib/gcc/arm-elf/3.4.4/../../../../arm-elf/lib/thumb/interwork/libm.a(w_exp.o)
                                                  /home/excelobs/paparazzi/var/KMUAV_XB_AS_IMU/ap/modules/ins/ins_arduimu_basic.o
                                                  /home/excelobs/paparazzi/var/KMUAV_XB_AS_IMU/ap/subsystems/navigation/nav_survey_rectangle.o
                                                  /home/excelobs/paparazzi/var/KMUAV_XB_AS_IMU/ap/subsystems/nav.o
                                                  /home/excelobs/paparazzi/var/KMUAV_XB_AS_IMU/ap/firmwares/fixedwing/guidance/guidance_v.o
                                                  /home/excelobs/paparazzi/var/KMUAV_XB_AS_IMU/ap/firmwares/fixedwing/stabilization/stabilization_attitude.o
                                                  /home/excelobs/paparazzi/var/KMUAV_XB_AS_IMU/ap/./estimator.o
                                                  /home/excelobs/paparazzi/var/KMUAV_XB_AS_IMU/ap/firmwares/fixedwing/main_ap.o
__ltsf2                                           /usr/lib/gcc/arm-elf/3.4.4/thumb/interwork/libgcc.a(_cmpsf2.o)
                                                  /usr/lib/gcc/arm-elf/3.4.4/../../../../arm-elf/lib/thumb/interwork/libm.a(wf_sqrt.o)
                                                  /home/excelobs/paparazzi/var/KMUAV_XB_AS_IMU/ap/modules/sensors/airspeed_ets.o
                                                  /home/excelobs/paparazzi/var/KMUAV_XB_AS_IMU/ap/subsystems/navigation/nav_line.o
                                                  /home/excelobs/paparazzi/var/KMUAV_XB_AS_IMU/ap/subsystems/navigation/nav_survey_rectangle.o
                                                  /home/excelobs/paparazzi/var/KMUAV_XB_AS_IMU/ap/subsystems/nav.o
                                                  /home/excelobs/paparazzi/var/KMUAV_XB_AS_IMU/ap/firmwares/fixedwing/guidance/guidance_v.o
                                                  /home/excelobs/paparazzi/var/KMUAV_XB_AS_IMU/ap/firmwares/fixedwing/stabilization/stabilization_attitude.o
                                                  /home/excelobs/paparazzi/var/KMUAV_XB_AS_IMU/ap/firmwares/fixedwing/datalink.o
                                                  /home/excelobs/paparazzi/var/KMUAV_XB_AS_IMU/ap/./estimator.o
                                                  /home/excelobs/paparazzi/var/KMUAV_XB_AS_IMU/ap/firmwares/fixedwing/main_ap.o
__muldf3                                          /usr/lib/gcc/arm-elf/3.4.4/thumb/interwork/libgcc.a(_muldivdf3.o)
                                                  /usr/lib/gcc/arm-elf/3.4.4/../../../../arm-elf/lib/thumb/interwork/libm.a(s_scalbn.o)
                                                  /usr/lib/gcc/arm-elf/3.4.4/../../../../arm-elf/lib/thumb/interwork/libm.a(s_expm1.o)
                                                  /usr/lib/gcc/arm-elf/3.4.4/../../../../arm-elf/lib/thumb/interwork/libm.a(k_tan.o)
                                                  /usr/lib/gcc/arm-elf/3.4.4/../../../../arm-elf/lib/thumb/interwork/libm.a(k_sin.o)
                                                  /usr/lib/gcc/arm-elf/3.4.4/../../../../arm-elf/lib/thumb/interwork/libm.a(k_rem_pio2.o)
                                                  /usr/lib/gcc/arm-elf/3.4.4/../../../../arm-elf/lib/thumb/interwork/libm.a(k_cos.o)
                                                  /usr/lib/gcc/arm-elf/3.4.4/../../../../arm-elf/lib/thumb/interwork/libm.a(e_sqrt.o)
                                                  /usr/lib/gcc/arm-elf/3.4.4/../../../../arm-elf/lib/thumb/interwork/libm.a(e_sinh.o)
                                                  /usr/lib/gcc/arm-elf/3.4.4/../../../../arm-elf/lib/thumb/interwork/libm.a(e_rem_pio2.o)
                                                  /usr/lib/gcc/arm-elf/3.4.4/../../../../arm-elf/lib/thumb/interwork/libm.a(e_pow.o)
                                                  /usr/lib/gcc/arm-elf/3.4.4/../../../../arm-elf/lib/thumb/interwork/libm.a(e_log.o)
                                                  /usr/lib/gcc/arm-elf/3.4.4/../../../../arm-elf/lib/thumb/interwork/libm.a(e_exp.o)
                                                  /usr/lib/gcc/arm-elf/3.4.4/../../../../arm-elf/lib/thumb/interwork/libm.a(e_cosh.o)
                                                  /usr/lib/gcc/arm-elf/3.4.4/../../../../arm-elf/lib/thumb/interwork/libm.a(e_asin.o)
                                                  /usr/lib/gcc/arm-elf/3.4.4/../../../../arm-elf/lib/thumb/interwork/libm.a(w_pow.o)
                                                  /usr/lib/gcc/arm-elf/3.4.4/../../../../arm-elf/lib/thumb/interwork/libm.a(s_atan.o)
                                                  /home/excelobs/paparazzi/var/KMUAV_XB_AS_IMU/ap/modules/sensors/airspeed_ets.o
                                                  /home/excelobs/paparazzi/var/KMUAV_XB_AS_IMU/ap/subsystems/navigation/nav_line.o
                                                  /home/excelobs/paparazzi/var/KMUAV_XB_AS_IMU/ap/subsystems/navigation/nav_survey_rectangle.o
                                                  /home/excelobs/paparazzi/var/KMUAV_XB_AS_IMU/ap/subsystems/nav.o
                                                  /home/excelobs/paparazzi/var/KMUAV_XB_AS_IMU/ap/./latlong.o
                                                  /home/excelobs/paparazzi/var/KMUAV_XB_AS_IMU/ap/./gps_ubx.o
                                                  /home/excelobs/paparazzi/var/KMUAV_XB_AS_IMU/ap/firmwares/fixedwing/stabilization/stabilization_attitude.o
                                                  /home/excelobs/paparazzi/var/KMUAV_XB_AS_IMU/ap/firmwares/fixedwing/datalink.o
                                                  /home/excelobs/paparazzi/var/KMUAV_XB_AS_IMU/ap/./estimator.o
                                                  /home/excelobs/paparazzi/var/KMUAV_XB_AS_IMU/ap/firmwares/fixedwing/main_ap.o
                                                  /home/excelobs/paparazzi/var/KMUAV_XB_AS_IMU/ap/subsystems/electrical.o
                                                  /home/excelobs/paparazzi/var/KMUAV_XB_AS_IMU/ap/firmwares/fixedwing/main_fbw.o
__mulsf3                                          /usr/lib/gcc/arm-elf/3.4.4/thumb/interwork/libgcc.a(_muldivsf3.o)
                                                  /usr/lib/gcc/arm-elf/3.4.4/../../../../arm-elf/lib/thumb/interwork/libm.a(sf_scalbn.o)
                                                  /usr/lib/gcc/arm-elf/3.4.4/../../../../arm-elf/lib/thumb/interwork/libm.a(sf_atan.o)
                                                  /usr/lib/gcc/arm-elf/3.4.4/../../../../arm-elf/lib/thumb/interwork/libm.a(kf_sin.o)
                                                  /usr/lib/gcc/arm-elf/3.4.4/../../../../arm-elf/lib/thumb/interwork/libm.a(kf_rem_pio2.o)
                                                  /usr/lib/gcc/arm-elf/3.4.4/../../../../arm-elf/lib/thumb/interwork/libm.a(kf_cos.o)
                                                  /usr/lib/gcc/arm-elf/3.4.4/../../../../arm-elf/lib/thumb/interwork/libm.a(ef_sqrt.o)
                                                  /usr/lib/gcc/arm-elf/3.4.4/../../../../arm-elf/lib/thumb/interwork/libm.a(ef_rem_pio2.o)
                                                  /home/excelobs/paparazzi/var/KMUAV_XB_AS_IMU/ap/modules/ins/ins_arduimu_basic.o
                                                  /home/excelobs/paparazzi/var/KMUAV_XB_AS_IMU/ap/subsystems/navigation/nav_line.o
                                                  /home/excelobs/paparazzi/var/KMUAV_XB_AS_IMU/ap/subsystems/navigation/nav_survey_rectangle.o
                                                  /home/excelobs/paparazzi/var/KMUAV_XB_AS_IMU/ap/subsystems/nav.o
                                                  /home/excelobs/paparazzi/var/KMUAV_XB_AS_IMU/ap/./latlong.o
                                                  /home/excelobs/paparazzi/var/KMUAV_XB_AS_IMU/ap/./gps_ubx.o
                                                  /home/excelobs/paparazzi/var/KMUAV_XB_AS_IMU/ap/firmwares/fixedwing/guidance/guidance_v.o
                                                  /home/excelobs/paparazzi/var/KMUAV_XB_AS_IMU/ap/firmwares/fixedwing/stabilization/stabilization_attitude.o
                                                  /home/excelobs/paparazzi/var/KMUAV_XB_AS_IMU/ap/./estimator.o
                                                  /home/excelobs/paparazzi/var/KMUAV_XB_AS_IMU/ap/firmwares/fixedwing/main_ap.o
                                                  /home/excelobs/paparazzi/var/KMUAV_XB_AS_IMU/ap/subsystems/electrical.o
__nedf2                                           /usr/lib/gcc/arm-elf/3.4.4/thumb/interwork/libgcc.a(_cmpdf2.o)
                                                  /usr/lib/gcc/arm-elf/3.4.4/../../../../arm-elf/lib/thumb/interwork/libm.a(s_matherr.o)
                                                  /usr/lib/gcc/arm-elf/3.4.4/../../../../arm-elf/lib/thumb/interwork/libm.a(w_pow.o)
__nesf2                                           /usr/lib/gcc/arm-elf/3.4.4/thumb/interwork/libgcc.a(_cmpsf2.o)
                                                  /home/excelobs/paparazzi/var/KMUAV_XB_AS_IMU/ap/firmwares/fixedwing/datalink.o
__pow_from_arm                                    /usr/lib/gcc/arm-elf/3.4.4/../../../../arm-elf/lib/thumb/interwork/libc.a(impure.o)
__sin_from_arm                                    /usr/lib/gcc/arm-elf/3.4.4/../../../../arm-elf/lib/thumb/interwork/libc.a(impure.o)
__sinf_from_arm                                   /usr/lib/gcc/arm-elf/3.4.4/../../../../arm-elf/lib/thumb/interwork/libc.a(impure.o)
__sinh_from_arm                                   /usr/lib/gcc/arm-elf/3.4.4/../../../../arm-elf/lib/thumb/interwork/libc.a(impure.o)
__sqrt_from_arm                                   /usr/lib/gcc/arm-elf/3.4.4/../../../../arm-elf/lib/thumb/interwork/libc.a(impure.o)
__sqrtf_from_arm                                  /usr/lib/gcc/arm-elf/3.4.4/../../../../arm-elf/lib/thumb/interwork/libc.a(impure.o)
__subdf3                                          /usr/lib/gcc/arm-elf/3.4.4/thumb/interwork/libgcc.a(_addsubdf3.o)
                                                  /usr/lib/gcc/arm-elf/3.4.4/../../../../arm-elf/lib/thumb/interwork/libm.a(s_rint.o)
                                                  /usr/lib/gcc/arm-elf/3.4.4/../../../../arm-elf/lib/thumb/interwork/libm.a(s_expm1.o)
                                                  /usr/lib/gcc/arm-elf/3.4.4/../../../../arm-elf/lib/thumb/interwork/libm.a(k_tan.o)
                                                  /usr/lib/gcc/arm-elf/3.4.4/../../../../arm-elf/lib/thumb/interwork/libm.a(k_sin.o)
                                                  /usr/lib/gcc/arm-elf/3.4.4/../../../../arm-elf/lib/thumb/interwork/libm.a(k_rem_pio2.o)
                                                  /usr/lib/gcc/arm-elf/3.4.4/../../../../arm-elf/lib/thumb/interwork/libm.a(k_cos.o)
                                                  /usr/lib/gcc/arm-elf/3.4.4/../../../../arm-elf/lib/thumb/interwork/libm.a(e_sqrt.o)
                                                  /usr/lib/gcc/arm-elf/3.4.4/../../../../arm-elf/lib/thumb/interwork/libm.a(e_sinh.o)
                                                  /usr/lib/gcc/arm-elf/3.4.4/../../../../arm-elf/lib/thumb/interwork/libm.a(e_rem_pio2.o)
                                                  /usr/lib/gcc/arm-elf/3.4.4/../../../../arm-elf/lib/thumb/interwork/libm.a(e_pow.o)
                                                  /usr/lib/gcc/arm-elf/3.4.4/../../../../arm-elf/lib/thumb/interwork/libm.a(e_log.o)
                                                  /usr/lib/gcc/arm-elf/3.4.4/../../../../arm-elf/lib/thumb/interwork/libm.a(e_exp.o)
                                                  /usr/lib/gcc/arm-elf/3.4.4/../../../../arm-elf/lib/thumb/interwork/libm.a(e_atan2.o)
                                                  /usr/lib/gcc/arm-elf/3.4.4/../../../../arm-elf/lib/thumb/interwork/libm.a(e_asin.o)
                                                  /usr/lib/gcc/arm-elf/3.4.4/../../../../arm-elf/lib/thumb/interwork/libm.a(s_tan.o)
                                                  /usr/lib/gcc/arm-elf/3.4.4/../../../../arm-elf/lib/thumb/interwork/libm.a(s_sin.o)
                                                  /usr/lib/gcc/arm-elf/3.4.4/../../../../arm-elf/lib/thumb/interwork/libm.a(s_cos.o)
                                                  /usr/lib/gcc/arm-elf/3.4.4/../../../../arm-elf/lib/thumb/interwork/libm.a(s_atan.o)
                                                  /home/excelobs/paparazzi/var/KMUAV_XB_AS_IMU/ap/subsystems/navigation/nav_line.o
                                                  /home/excelobs/paparazzi/var/KMUAV_XB_AS_IMU/ap/subsystems/navigation/nav_survey_rectangle.o
                                                  /home/excelobs/paparazzi/var/KMUAV_XB_AS_IMU/ap/subsystems/nav.o
                                                  /home/excelobs/paparazzi/var/KMUAV_XB_AS_IMU/ap/./latlong.o
                                                  /home/excelobs/paparazzi/var/KMUAV_XB_AS_IMU/ap/firmwares/fixedwing/stabilization/stabilization_attitude.o
                                                  /home/excelobs/paparazzi/var/KMUAV_XB_AS_IMU/ap/./estimator.o
                                                  /home/excelobs/paparazzi/var/KMUAV_XB_AS_IMU/ap/subsystems/electrical.o
__subsf3                                          /usr/lib/gcc/arm-elf/3.4.4/thumb/interwork/libgcc.a(_addsubsf3.o)
                                                  /usr/lib/gcc/arm-elf/3.4.4/../../../../arm-elf/lib/thumb/interwork/libm.a(sf_atan.o)
                                                  /usr/lib/gcc/arm-elf/3.4.4/../../../../arm-elf/lib/thumb/interwork/libm.a(kf_sin.o)
                                                  /usr/lib/gcc/arm-elf/3.4.4/../../../../arm-elf/lib/thumb/interwork/libm.a(kf_rem_pio2.o)
                                                  /usr/lib/gcc/arm-elf/3.4.4/../../../../arm-elf/lib/thumb/interwork/libm.a(kf_cos.o)
                                                  /usr/lib/gcc/arm-elf/3.4.4/../../../../arm-elf/lib/thumb/interwork/libm.a(ef_sqrt.o)
                                                  /usr/lib/gcc/arm-elf/3.4.4/../../../../arm-elf/lib/thumb/interwork/libm.a(ef_rem_pio2.o)
                                                  /usr/lib/gcc/arm-elf/3.4.4/../../../../arm-elf/lib/thumb/interwork/libm.a(ef_atan2.o)
                                                  /usr/lib/gcc/arm-elf/3.4.4/../../../../arm-elf/lib/thumb/interwork/libm.a(sf_sin.o)
                                                  /usr/lib/gcc/arm-elf/3.4.4/../../../../arm-elf/lib/thumb/interwork/libm.a(sf_cos.o)
                                                  /home/excelobs/paparazzi/var/KMUAV_XB_AS_IMU/ap/modules/ins/ins_arduimu_basic.o
                                                  /home/excelobs/paparazzi/var/KMUAV_XB_AS_IMU/ap/subsystems/navigation/nav_line.o
                                                  /home/excelobs/paparazzi/var/KMUAV_XB_AS_IMU/ap/subsystems/navigation/nav_survey_rectangle.o
                                                  /home/excelobs/paparazzi/var/KMUAV_XB_AS_IMU/ap/subsystems/nav.o
                                                  /home/excelobs/paparazzi/var/KMUAV_XB_AS_IMU/ap/./latlong.o
                                                  /home/excelobs/paparazzi/var/KMUAV_XB_AS_IMU/ap/firmwares/fixedwing/guidance/guidance_v.o
                                                  /home/excelobs/paparazzi/var/KMUAV_XB_AS_IMU/ap/firmwares/fixedwing/stabilization/stabilization_attitude.o
                                                  /home/excelobs/paparazzi/var/KMUAV_XB_AS_IMU/ap/firmwares/fixedwing/datalink.o
                                                  /home/excelobs/paparazzi/var/KMUAV_XB_AS_IMU/ap/./estimator.o
__tan_from_arm                                    /usr/lib/gcc/arm-elf/3.4.4/../../../../arm-elf/lib/thumb/interwork/libc.a(impure.o)
__truncdfsf2                                      /usr/lib/gcc/arm-elf/3.4.4/thumb/interwork/libgcc.a(_truncdfsf2.o)
                                                  /usr/lib/gcc/arm-elf/3.4.4/../../../../arm-elf/lib/thumb/interwork/libm.a(wf_sqrt.o)
                                                  /usr/lib/gcc/arm-elf/3.4.4/../../../../arm-elf/lib/thumb/interwork/libm.a(wf_atan2.o)
                                                  /home/excelobs/paparazzi/var/KMUAV_XB_AS_IMU/ap/modules/sensors/airspeed_ets.o
                                                  /home/excelobs/paparazzi/var/KMUAV_XB_AS_IMU/ap/subsystems/navigation/nav_line.o
                                                  /home/excelobs/paparazzi/var/KMUAV_XB_AS_IMU/ap/subsystems/navigation/nav_survey_rectangle.o
                                                  /home/excelobs/paparazzi/var/KMUAV_XB_AS_IMU/ap/subsystems/nav.o
                                                  /home/excelobs/paparazzi/var/KMUAV_XB_AS_IMU/ap/./latlong.o
                                                  /home/excelobs/paparazzi/var/KMUAV_XB_AS_IMU/ap/./gps_ubx.o
                                                  /home/excelobs/paparazzi/var/KMUAV_XB_AS_IMU/ap/firmwares/fixedwing/guidance/guidance_v.o
                                                  /home/excelobs/paparazzi/var/KMUAV_XB_AS_IMU/ap/firmwares/fixedwing/stabilization/stabilization_attitude.o
                                                  /home/excelobs/paparazzi/var/KMUAV_XB_AS_IMU/ap/firmwares/fixedwing/datalink.o
                                                  /home/excelobs/paparazzi/var/KMUAV_XB_AS_IMU/ap/./estimator.o
                                                  /home/excelobs/paparazzi/var/KMUAV_XB_AS_IMU/ap/firmwares/fixedwing/main_ap.o
                                                  /home/excelobs/paparazzi/var/KMUAV_XB_AS_IMU/ap/firmwares/fixedwing/main_fbw.o
__udivsi3                                         /usr/lib/gcc/arm-elf/3.4.4/thumb/interwork/libgcc.a(_udivsi3.o)
                                                  /home/excelobs/paparazzi/var/KMUAV_XB_AS_IMU/ap/modules/sensors/airspeed_ets.o
                                                  /home/excelobs/paparazzi/var/KMUAV_XB_AS_IMU/ap/subsystems/electrical.o
_boot                                             /home/excelobs/paparazzi/var/KMUAV_XB_AS_IMU/ap/crt0.o
_data                                             /home/excelobs/paparazzi/var/KMUAV_XB_AS_IMU/ap/crt0.o
_edata                                            /home/excelobs/paparazzi/var/KMUAV_XB_AS_IMU/ap/crt0.o
_etext                                            /home/excelobs/paparazzi/var/KMUAV_XB_AS_IMU/ap/crt0.o
_global_impure_ptr                                /usr/lib/gcc/arm-elf/3.4.4/../../../../arm-elf/lib/thumb/interwork/libc.a(impure.o)
_impure_ptr                                       /usr/lib/gcc/arm-elf/3.4.4/../../../../arm-elf/lib/thumb/interwork/libc.a(impure.o)
                                                  /usr/lib/gcc/arm-elf/3.4.4/../../../../arm-elf/lib/thumb/interwork/libc.a(errno.o)
_mainCRTStartup                                   /home/excelobs/paparazzi/var/KMUAV_XB_AS_IMU/ap/crt0.o
_reset                                            /home/excelobs/paparazzi/var/KMUAV_XB_AS_IMU/ap/crt0.o
_stack                                            /home/excelobs/paparazzi/var/KMUAV_XB_AS_IMU/ap/crt0.o
_start                                            /home/excelobs/paparazzi/var/KMUAV_XB_AS_IMU/ap/crt0.o
abort                                             /home/excelobs/paparazzi/var/KMUAV_XB_AS_IMU/ap/crt0.o
ac_ident                                          /home/excelobs/paparazzi/var/KMUAV_XB_AS_IMU/ap/firmwares/fixedwing/main_ap.o
acs_idx                                           /home/excelobs/paparazzi/var/KMUAV_XB_AS_IMU/ap/subsystems/navigation/traffic_info.o
                                                  /home/excelobs/paparazzi/var/KMUAV_XB_AS_IMU/ap/firmwares/fixedwing/datalink.o
actuators                                         /home/excelobs/paparazzi/var/KMUAV_XB_AS_IMU/ap/actuators.o
                                                  /home/excelobs/paparazzi/var/KMUAV_XB_AS_IMU/ap/firmwares/fixedwing/main_fbw.o
actuators_init                                    /home/excelobs/paparazzi/var/KMUAV_XB_AS_IMU/ap/arch/lpc21/servos_4017_hw.o
                                                  /home/excelobs/paparazzi/var/KMUAV_XB_AS_IMU/ap/firmwares/fixedwing/main_fbw.o
adc0_val                                          /home/excelobs/paparazzi/var/KMUAV_XB_AS_IMU/ap/arch/lpc21/mcu_periph/adc_arch.o
adc1_val                                          /home/excelobs/paparazzi/var/KMUAV_XB_AS_IMU/ap/arch/lpc21/mcu_periph/adc_arch.o
adcISR0                                           /home/excelobs/paparazzi/var/KMUAV_XB_AS_IMU/ap/arch/lpc21/mcu_periph/adc_arch.o
adcISR1                                           /home/excelobs/paparazzi/var/KMUAV_XB_AS_IMU/ap/arch/lpc21/mcu_periph/adc_arch.o
adc_buf_channel                                   /home/excelobs/paparazzi/var/KMUAV_XB_AS_IMU/ap/arch/lpc21/mcu_periph/adc_arch.o
                                                  /home/excelobs/paparazzi/var/KMUAV_XB_AS_IMU/ap/subsystems/electrical.o
adc_init                                          /home/excelobs/paparazzi/var/KMUAV_XB_AS_IMU/ap/arch/lpc21/mcu_periph/adc_arch.o
                                                  /home/excelobs/paparazzi/var/KMUAV_XB_AS_IMU/ap/mcu.o
airspeed_ets                                      /home/excelobs/paparazzi/var/KMUAV_XB_AS_IMU/ap/modules/sensors/airspeed_ets.o
airspeed_ets_buffer                               /home/excelobs/paparazzi/var/KMUAV_XB_AS_IMU/ap/modules/sensors/airspeed_ets.o
airspeed_ets_buffer_idx                           /home/excelobs/paparazzi/var/KMUAV_XB_AS_IMU/ap/modules/sensors/airspeed_ets.o
airspeed_ets_cnt                                  /home/excelobs/paparazzi/var/KMUAV_XB_AS_IMU/ap/modules/sensors/airspeed_ets.o
airspeed_ets_i2c_done                             /home/excelobs/paparazzi/var/KMUAV_XB_AS_IMU/ap/modules/sensors/airspeed_ets.o
airspeed_ets_i2c_trans                            /home/excelobs/paparazzi/var/KMUAV_XB_AS_IMU/ap/modules/sensors/airspeed_ets.o
                                                  /home/excelobs/paparazzi/var/KMUAV_XB_AS_IMU/ap/firmwares/fixedwing/main_ap.o
airspeed_ets_init                                 /home/excelobs/paparazzi/var/KMUAV_XB_AS_IMU/ap/modules/sensors/airspeed_ets.o
                                                  /home/excelobs/paparazzi/var/KMUAV_XB_AS_IMU/ap/firmwares/fixedwing/main_ap.o
airspeed_ets_offset                               /home/excelobs/paparazzi/var/KMUAV_XB_AS_IMU/ap/modules/sensors/airspeed_ets.o
airspeed_ets_offset_init                          /home/excelobs/paparazzi/var/KMUAV_XB_AS_IMU/ap/modules/sensors/airspeed_ets.o
airspeed_ets_offset_tmp                           /home/excelobs/paparazzi/var/KMUAV_XB_AS_IMU/ap/modules/sensors/airspeed_ets.o
airspeed_ets_raw                                  /home/excelobs/paparazzi/var/KMUAV_XB_AS_IMU/ap/modules/sensors/airspeed_ets.o
airspeed_ets_read_event                           /home/excelobs/paparazzi/var/KMUAV_XB_AS_IMU/ap/modules/sensors/airspeed_ets.o
                                                  /home/excelobs/paparazzi/var/KMUAV_XB_AS_IMU/ap/firmwares/fixedwing/main_ap.o
airspeed_ets_read_periodic                        /home/excelobs/paparazzi/var/KMUAV_XB_AS_IMU/ap/modules/sensors/airspeed_ets.o
                                                  /home/excelobs/paparazzi/var/KMUAV_XB_AS_IMU/ap/firmwares/fixedwing/main_ap.o
airspeed_ets_valid                                /home/excelobs/paparazzi/var/KMUAV_XB_AS_IMU/ap/modules/sensors/airspeed_ets.o
alt_kalman                                        /home/excelobs/paparazzi/var/KMUAV_XB_AS_IMU/ap/./estimator.o
alt_kalman_enabled                                /home/excelobs/paparazzi/var/KMUAV_XB_AS_IMU/ap/./estimator.o
                                                  /home/excelobs/paparazzi/var/KMUAV_XB_AS_IMU/ap/firmwares/fixedwing/datalink.o
                                                  /home/excelobs/paparazzi/var/KMUAV_XB_AS_IMU/ap/firmwares/fixedwing/main_ap.o
alt_kalman_init                                   /home/excelobs/paparazzi/var/KMUAV_XB_AS_IMU/ap/./estimator.o
                                                  /home/excelobs/paparazzi/var/KMUAV_XB_AS_IMU/ap/firmwares/fixedwing/main_ap.o
alt_kalman_reset                                  /home/excelobs/paparazzi/var/KMUAV_XB_AS_IMU/ap/./estimator.o
ap_ok                                             /home/excelobs/paparazzi/var/KMUAV_XB_AS_IMU/ap/./inter_mcu.o
                                                  /home/excelobs/paparazzi/var/KMUAV_XB_AS_IMU/ap/firmwares/fixedwing/main_fbw.o
ap_state                                          /home/excelobs/paparazzi/var/KMUAV_XB_AS_IMU/ap/./inter_mcu.o
                                                  /home/excelobs/paparazzi/var/KMUAV_XB_AS_IMU/ap/modules/ins/ins_arduimu_basic.o
                                                  /home/excelobs/paparazzi/var/KMUAV_XB_AS_IMU/ap/firmwares/fixedwing/main_ap.o
                                                  /home/excelobs/paparazzi/var/KMUAV_XB_AS_IMU/ap/firmwares/fixedwing/main_fbw.o
ardu_gps_trans                                    /home/excelobs/paparazzi/var/KMUAV_XB_AS_IMU/ap/modules/ins/ins_arduimu_basic.o
ardu_ins_trans                                    /home/excelobs/paparazzi/var/KMUAV_XB_AS_IMU/ap/modules/ins/ins_arduimu_basic.o
arduimu_accel                                     /home/excelobs/paparazzi/var/KMUAV_XB_AS_IMU/ap/modules/ins/ins_arduimu_basic.o
arduimu_eulers                                    /home/excelobs/paparazzi/var/KMUAV_XB_AS_IMU/ap/modules/ins/ins_arduimu_basic.o
arduimu_rates                                     /home/excelobs/paparazzi/var/KMUAV_XB_AS_IMU/ap/modules/ins/ins_arduimu_basic.o
asin                                              /usr/lib/gcc/arm-elf/3.4.4/../../../../arm-elf/lib/thumb/interwork/libm.a(w_asin.o)
                                                  /home/excelobs/paparazzi/var/KMUAV_XB_AS_IMU/ap/./latlong.o
atan                                              /usr/lib/gcc/arm-elf/3.4.4/../../../../arm-elf/lib/thumb/interwork/libm.a(s_atan.o)
                                                  /usr/lib/gcc/arm-elf/3.4.4/../../../../arm-elf/lib/thumb/interwork/libm.a(e_atan2.o)
                                                  /home/excelobs/paparazzi/var/KMUAV_XB_AS_IMU/ap/subsystems/nav.o
                                                  /home/excelobs/paparazzi/var/KMUAV_XB_AS_IMU/ap/./latlong.o
atan2                                             /usr/lib/gcc/arm-elf/3.4.4/../../../../arm-elf/lib/thumb/interwork/libm.a(w_atan2.o)
                                                  /home/excelobs/paparazzi/var/KMUAV_XB_AS_IMU/ap/subsystems/navigation/nav_line.o
                                                  /home/excelobs/paparazzi/var/KMUAV_XB_AS_IMU/ap/subsystems/nav.o
                                                  /home/excelobs/paparazzi/var/KMUAV_XB_AS_IMU/ap/./estimator.o
atan2f                                            /usr/lib/gcc/arm-elf/3.4.4/../../../../arm-elf/lib/thumb/interwork/libm.a(wf_atan2.o)
                                                  /home/excelobs/paparazzi/var/KMUAV_XB_AS_IMU/ap/./estimator.o
atanf                                             /usr/lib/gcc/arm-elf/3.4.4/../../../../arm-elf/lib/thumb/interwork/libm.a(sf_atan.o)
                                                  /usr/lib/gcc/arm-elf/3.4.4/../../../../arm-elf/lib/thumb/interwork/libm.a(ef_atan2.o)
block_time                                        /home/excelobs/paparazzi/var/KMUAV_XB_AS_IMU/ap/subsystems/nav.o
                                                  /home/excelobs/paparazzi/var/KMUAV_XB_AS_IMU/ap/firmwares/fixedwing/main_ap.o
carrot_x                                          /home/excelobs/paparazzi/var/KMUAV_XB_AS_IMU/ap/subsystems/nav.o
carrot_y                                          /home/excelobs/paparazzi/var/KMUAV_XB_AS_IMU/ap/subsystems/nav.o
circle_bank                                       /home/excelobs/paparazzi/var/KMUAV_XB_AS_IMU/ap/subsystems/nav.o
ck_a                                              /home/excelobs/paparazzi/var/KMUAV_XB_AS_IMU/ap/./pprz_transport.o
                                                  /home/excelobs/paparazzi/var/KMUAV_XB_AS_IMU/ap/modules/ins/ins_arduimu_basic.o
                                                  /home/excelobs/paparazzi/var/KMUAV_XB_AS_IMU/ap/./gps.o
                                                  /home/excelobs/paparazzi/var/KMUAV_XB_AS_IMU/ap/firmwares/fixedwing/datalink.o
                                                  /home/excelobs/paparazzi/var/KMUAV_XB_AS_IMU/ap/firmwares/fixedwing/main_ap.o
                                                  /home/excelobs/paparazzi/var/KMUAV_XB_AS_IMU/ap/firmwares/fixedwing/main_fbw.o
ck_b                                              /home/excelobs/paparazzi/var/KMUAV_XB_AS_IMU/ap/./pprz_transport.o
                                                  /home/excelobs/paparazzi/var/KMUAV_XB_AS_IMU/ap/modules/ins/ins_arduimu_basic.o
                                                  /home/excelobs/paparazzi/var/KMUAV_XB_AS_IMU/ap/./gps.o
                                                  /home/excelobs/paparazzi/var/KMUAV_XB_AS_IMU/ap/firmwares/fixedwing/datalink.o
                                                  /home/excelobs/paparazzi/var/KMUAV_XB_AS_IMU/ap/firmwares/fixedwing/main_ap.o
                                                  /home/excelobs/paparazzi/var/KMUAV_XB_AS_IMU/ap/firmwares/fixedwing/main_fbw.o
commands                                          /home/excelobs/paparazzi/var/KMUAV_XB_AS_IMU/ap/./commands.o
                                                  /home/excelobs/paparazzi/var/KMUAV_XB_AS_IMU/ap/subsystems/electrical.o
                                                  /home/excelobs/paparazzi/var/KMUAV_XB_AS_IMU/ap/firmwares/fixedwing/main_fbw.o
commands_failsafe                                 /home/excelobs/paparazzi/var/KMUAV_XB_AS_IMU/ap/./commands.o
                                                  /home/excelobs/paparazzi/var/KMUAV_XB_AS_IMU/ap/firmwares/fixedwing/main_fbw.o
common_nav_periodic_task_4Hz                      /home/excelobs/paparazzi/var/KMUAV_XB_AS_IMU/ap/subsystems/nav.o
                                                  /home/excelobs/paparazzi/var/KMUAV_XB_AS_IMU/ap/firmwares/fixedwing/main_ap.o
compute_dist2_to_home                             /home/excelobs/paparazzi/var/KMUAV_XB_AS_IMU/ap/subsystems/nav.o
copysign                                          /usr/lib/gcc/arm-elf/3.4.4/../../../../arm-elf/lib/thumb/interwork/libm.a(s_copysign.o)
                                                  /usr/lib/gcc/arm-elf/3.4.4/../../../../arm-elf/lib/thumb/interwork/libm.a(s_scalbn.o)
copysignf                                         /usr/lib/gcc/arm-elf/3.4.4/../../../../arm-elf/lib/thumb/interwork/libm.a(sf_copysign.o)
                                                  /usr/lib/gcc/arm-elf/3.4.4/../../../../arm-elf/lib/thumb/interwork/libm.a(sf_scalbn.o)
cos                                               /usr/lib/gcc/arm-elf/3.4.4/../../../../arm-elf/lib/thumb/interwork/libm.a(s_cos.o)
                                                  /home/excelobs/paparazzi/var/KMUAV_XB_AS_IMU/ap/subsystems/nav.o
                                                  /home/excelobs/paparazzi/var/KMUAV_XB_AS_IMU/ap/./latlong.o
cosf                                              /usr/lib/gcc/arm-elf/3.4.4/../../../../arm-elf/lib/thumb/interwork/libm.a(sf_cos.o)
                                                  /home/excelobs/paparazzi/var/KMUAV_XB_AS_IMU/ap/./estimator.o
cosh                                              /usr/lib/gcc/arm-elf/3.4.4/../../../../arm-elf/lib/thumb/interwork/libm.a(w_cosh.o)
                                                  /home/excelobs/paparazzi/var/KMUAV_XB_AS_IMU/ap/./latlong.o
cpu_time_sec                                      /home/excelobs/paparazzi/var/KMUAV_XB_AS_IMU/ap/sys_time.o
                                                  /home/excelobs/paparazzi/var/KMUAV_XB_AS_IMU/ap/firmwares/fixedwing/main.o
                                                  /home/excelobs/paparazzi/var/KMUAV_XB_AS_IMU/ap/firmwares/fixedwing/main_ap.o
                                                  /home/excelobs/paparazzi/var/KMUAV_XB_AS_IMU/ap/firmwares/fixedwing/main_fbw.o
cpu_time_ticks                                    /home/excelobs/paparazzi/var/KMUAV_XB_AS_IMU/ap/arch/lpc21/sys_time_hw.o
                                                  /home/excelobs/paparazzi/var/KMUAV_XB_AS_IMU/ap/firmwares/fixedwing/main.o
                                                  /home/excelobs/paparazzi/var/KMUAV_XB_AS_IMU/ap/firmwares/fixedwing/main_fbw.o
datalink_time                                     /home/excelobs/paparazzi/var/KMUAV_XB_AS_IMU/ap/firmwares/fixedwing/datalink.o
                                                  /home/excelobs/paparazzi/var/KMUAV_XB_AS_IMU/ap/subsystems/nav.o
                                                  /home/excelobs/paparazzi/var/KMUAV_XB_AS_IMU/ap/firmwares/fixedwing/main_ap.o
desired_x                                         /home/excelobs/paparazzi/var/KMUAV_XB_AS_IMU/ap/subsystems/nav.o
                                                  /home/excelobs/paparazzi/var/KMUAV_XB_AS_IMU/ap/firmwares/fixedwing/main_ap.o
desired_y                                         /home/excelobs/paparazzi/var/KMUAV_XB_AS_IMU/ap/subsystems/nav.o
                                                  /home/excelobs/paparazzi/var/KMUAV_XB_AS_IMU/ap/firmwares/fixedwing/main_ap.o
disableFIQ                                        /home/excelobs/paparazzi/var/KMUAV_XB_AS_IMU/ap/arch/lpc21/armVIC.o
disableIRQ                                        /home/excelobs/paparazzi/var/KMUAV_XB_AS_IMU/ap/arch/lpc21/armVIC.o
                                                  /home/excelobs/paparazzi/var/KMUAV_XB_AS_IMU/ap/arch/lpc21/mcu_periph/i2c_arch.o
                                                  /home/excelobs/paparazzi/var/KMUAV_XB_AS_IMU/ap/arch/lpc21/subsystems/settings_arch.o
                                                  /home/excelobs/paparazzi/var/KMUAV_XB_AS_IMU/ap/arch/lpc21/mcu_periph/uart_arch.o
dist2_to_home                                     /home/excelobs/paparazzi/var/KMUAV_XB_AS_IMU/ap/subsystems/nav.o
                                                  /home/excelobs/paparazzi/var/KMUAV_XB_AS_IMU/ap/firmwares/fixedwing/datalink.o
                                                  /home/excelobs/paparazzi/var/KMUAV_XB_AS_IMU/ap/firmwares/fixedwing/main_ap.o
dist2_to_wp                                       /home/excelobs/paparazzi/var/KMUAV_XB_AS_IMU/ap/subsystems/nav.o
                                                  /home/excelobs/paparazzi/var/KMUAV_XB_AS_IMU/ap/firmwares/fixedwing/datalink.o
                                                  /home/excelobs/paparazzi/var/KMUAV_XB_AS_IMU/ap/firmwares/fixedwing/main_ap.o
dl_buffer                                         /home/excelobs/paparazzi/var/KMUAV_XB_AS_IMU/ap/firmwares/fixedwing/datalink.o
                                                  /home/excelobs/paparazzi/var/KMUAV_XB_AS_IMU/ap/firmwares/fixedwing/main_ap.o
dl_msg_available                                  /home/excelobs/paparazzi/var/KMUAV_XB_AS_IMU/ap/firmwares/fixedwing/datalink.o
                                                  /home/excelobs/paparazzi/var/KMUAV_XB_AS_IMU/ap/firmwares/fixedwing/main_ap.o
dl_parse_msg                                      /home/excelobs/paparazzi/var/KMUAV_XB_AS_IMU/ap/firmwares/fixedwing/datalink.o
                                                  /home/excelobs/paparazzi/var/KMUAV_XB_AS_IMU/ap/firmwares/fixedwing/main_ap.o
downlink_nb_bytes                                 /home/excelobs/paparazzi/var/KMUAV_XB_AS_IMU/ap/./downlink.o
                                                  /home/excelobs/paparazzi/var/KMUAV_XB_AS_IMU/ap/modules/ins/ins_arduimu_basic.o
                                                  /home/excelobs/paparazzi/var/KMUAV_XB_AS_IMU/ap/./gps.o
                                                  /home/excelobs/paparazzi/var/KMUAV_XB_AS_IMU/ap/firmwares/fixedwing/datalink.o
                                                  /home/excelobs/paparazzi/var/KMUAV_XB_AS_IMU/ap/firmwares/fixedwing/main_ap.o
                                                  /home/excelobs/paparazzi/var/KMUAV_XB_AS_IMU/ap/firmwares/fixedwing/main_fbw.o
downlink_nb_msgs                                  /home/excelobs/paparazzi/var/KMUAV_XB_AS_IMU/ap/./downlink.o
                                                  /home/excelobs/paparazzi/var/KMUAV_XB_AS_IMU/ap/modules/ins/ins_arduimu_basic.o
                                                  /home/excelobs/paparazzi/var/KMUAV_XB_AS_IMU/ap/./gps.o
                                                  /home/excelobs/paparazzi/var/KMUAV_XB_AS_IMU/ap/firmwares/fixedwing/datalink.o
                                                  /home/excelobs/paparazzi/var/KMUAV_XB_AS_IMU/ap/firmwares/fixedwing/main_ap.o
                                                  /home/excelobs/paparazzi/var/KMUAV_XB_AS_IMU/ap/firmwares/fixedwing/main_fbw.o
downlink_nb_ovrn                                  /home/excelobs/paparazzi/var/KMUAV_XB_AS_IMU/ap/./downlink.o
                                                  /home/excelobs/paparazzi/var/KMUAV_XB_AS_IMU/ap/modules/ins/ins_arduimu_basic.o
                                                  /home/excelobs/paparazzi/var/KMUAV_XB_AS_IMU/ap/./gps.o
                                                  /home/excelobs/paparazzi/var/KMUAV_XB_AS_IMU/ap/firmwares/fixedwing/datalink.o
                                                  /home/excelobs/paparazzi/var/KMUAV_XB_AS_IMU/ap/firmwares/fixedwing/main_ap.o
                                                  /home/excelobs/paparazzi/var/KMUAV_XB_AS_IMU/ap/firmwares/fixedwing/main_fbw.o
electrical                                        /home/excelobs/paparazzi/var/KMUAV_XB_AS_IMU/ap/subsystems/electrical.o
                                                  /home/excelobs/paparazzi/var/KMUAV_XB_AS_IMU/ap/firmwares/fixedwing/main_fbw.o
electrical_init                                   /home/excelobs/paparazzi/var/KMUAV_XB_AS_IMU/ap/subsystems/electrical.o
                                                  /home/excelobs/paparazzi/var/KMUAV_XB_AS_IMU/ap/firmwares/fixedwing/main_fbw.o
electrical_periodic                               /home/excelobs/paparazzi/var/KMUAV_XB_AS_IMU/ap/subsystems/electrical.o
                                                  /home/excelobs/paparazzi/var/KMUAV_XB_AS_IMU/ap/firmwares/fixedwing/main_fbw.o
enableFIQ                                         /home/excelobs/paparazzi/var/KMUAV_XB_AS_IMU/ap/arch/lpc21/armVIC.o
enableIRQ                                         /home/excelobs/paparazzi/var/KMUAV_XB_AS_IMU/ap/arch/lpc21/armVIC.o
                                                  /home/excelobs/paparazzi/var/KMUAV_XB_AS_IMU/ap/arch/lpc21/mcu_periph/i2c_arch.o
                                                  /home/excelobs/paparazzi/var/KMUAV_XB_AS_IMU/ap/arch/lpc21/subsystems/settings_arch.o
                                                  /home/excelobs/paparazzi/var/KMUAV_XB_AS_IMU/ap/firmwares/fixedwing/main_ap.o
energy                                            /home/excelobs/paparazzi/var/KMUAV_XB_AS_IMU/ap/firmwares/fixedwing/main_ap.o
estimator_airspeed                                /home/excelobs/paparazzi/var/KMUAV_XB_AS_IMU/ap/./estimator.o
                                                  /home/excelobs/paparazzi/var/KMUAV_XB_AS_IMU/ap/modules/sensors/airspeed_ets.o
                                                  /home/excelobs/paparazzi/var/KMUAV_XB_AS_IMU/ap/firmwares/fixedwing/guidance/guidance_v.o
                                                  /home/excelobs/paparazzi/var/KMUAV_XB_AS_IMU/ap/firmwares/fixedwing/main_ap.o
estimator_flight_time                             /home/excelobs/paparazzi/var/KMUAV_XB_AS_IMU/ap/./estimator.o
                                                  /home/excelobs/paparazzi/var/KMUAV_XB_AS_IMU/ap/subsystems/nav.o
                                                  /home/excelobs/paparazzi/var/KMUAV_XB_AS_IMU/ap/firmwares/fixedwing/datalink.o
                                                  /home/excelobs/paparazzi/var/KMUAV_XB_AS_IMU/ap/firmwares/fixedwing/main_ap.o
estimator_hspeed_dir                              /home/excelobs/paparazzi/var/KMUAV_XB_AS_IMU/ap/./estimator.o
                                                  /home/excelobs/paparazzi/var/KMUAV_XB_AS_IMU/ap/subsystems/navigation/nav_survey_rectangle.o
                                                  /home/excelobs/paparazzi/var/KMUAV_XB_AS_IMU/ap/subsystems/nav.o
                                                  /home/excelobs/paparazzi/var/KMUAV_XB_AS_IMU/ap/firmwares/fixedwing/stabilization/stabilization_attitude.o
estimator_hspeed_mod                              /home/excelobs/paparazzi/var/KMUAV_XB_AS_IMU/ap/./estimator.o
                                                  /home/excelobs/paparazzi/var/KMUAV_XB_AS_IMU/ap/subsystems/nav.o
                                                  /home/excelobs/paparazzi/var/KMUAV_XB_AS_IMU/ap/firmwares/fixedwing/guidance/guidance_v.o
                                                  /home/excelobs/paparazzi/var/KMUAV_XB_AS_IMU/ap/firmwares/fixedwing/stabilization/stabilization_attitude.o
                                                  /home/excelobs/paparazzi/var/KMUAV_XB_AS_IMU/ap/firmwares/fixedwing/main_ap.o
estimator_init                                    /home/excelobs/paparazzi/var/KMUAV_XB_AS_IMU/ap/./estimator.o
                                                  /home/excelobs/paparazzi/var/KMUAV_XB_AS_IMU/ap/firmwares/fixedwing/main_ap.o
estimator_p                                       /home/excelobs/paparazzi/var/KMUAV_XB_AS_IMU/ap/./estimator.o
                                                  /home/excelobs/paparazzi/var/KMUAV_XB_AS_IMU/ap/modules/ins/ins_arduimu_basic.o
                                                  /home/excelobs/paparazzi/var/KMUAV_XB_AS_IMU/ap/firmwares/fixedwing/stabilization/stabilization_attitude.o
estimator_phi                                     /home/excelobs/paparazzi/var/KMUAV_XB_AS_IMU/ap/./estimator.o
                                                  /home/excelobs/paparazzi/var/KMUAV_XB_AS_IMU/ap/modules/ins/ins_arduimu_basic.o
                                                  /home/excelobs/paparazzi/var/KMUAV_XB_AS_IMU/ap/firmwares/fixedwing/stabilization/stabilization_attitude.o
                                                  /home/excelobs/paparazzi/var/KMUAV_XB_AS_IMU/ap/firmwares/fixedwing/main_ap.o
estimator_propagate_state                         /home/excelobs/paparazzi/var/KMUAV_XB_AS_IMU/ap/./estimator.o
                                                  /home/excelobs/paparazzi/var/KMUAV_XB_AS_IMU/ap/firmwares/fixedwing/main_ap.o
estimator_psi                                     /home/excelobs/paparazzi/var/KMUAV_XB_AS_IMU/ap/./estimator.o
                                                  /home/excelobs/paparazzi/var/KMUAV_XB_AS_IMU/ap/firmwares/fixedwing/main_ap.o
estimator_q                                       /home/excelobs/paparazzi/var/KMUAV_XB_AS_IMU/ap/./estimator.o
estimator_t                                       /home/excelobs/paparazzi/var/KMUAV_XB_AS_IMU/ap/./estimator.o
estimator_theta                                   /home/excelobs/paparazzi/var/KMUAV_XB_AS_IMU/ap/./estimator.o
                                                  /home/excelobs/paparazzi/var/KMUAV_XB_AS_IMU/ap/modules/ins/ins_arduimu_basic.o
                                                  /home/excelobs/paparazzi/var/KMUAV_XB_AS_IMU/ap/firmwares/fixedwing/stabilization/stabilization_attitude.o
                                                  /home/excelobs/paparazzi/var/KMUAV_XB_AS_IMU/ap/firmwares/fixedwing/main_ap.o
estimator_update_state_gps                        /home/excelobs/paparazzi/var/KMUAV_XB_AS_IMU/ap/./estimator.o
                                                  /home/excelobs/paparazzi/var/KMUAV_XB_AS_IMU/ap/firmwares/fixedwing/main_ap.o
estimator_update_state_infrared                   /home/excelobs/paparazzi/var/KMUAV_XB_AS_IMU/ap/./estimator.o
estimator_x                                       /home/excelobs/paparazzi/var/KMUAV_XB_AS_IMU/ap/./estimator.o
                                                  /home/excelobs/paparazzi/var/KMUAV_XB_AS_IMU/ap/subsystems/navigation/nav_survey_rectangle.o
                                                  /home/excelobs/paparazzi/var/KMUAV_XB_AS_IMU/ap/subsystems/nav.o
                                                  /home/excelobs/paparazzi/var/KMUAV_XB_AS_IMU/ap/firmwares/fixedwing/datalink.o
                                                  /home/excelobs/paparazzi/var/KMUAV_XB_AS_IMU/ap/firmwares/fixedwing/main_ap.o
estimator_y                                       /home/excelobs/paparazzi/var/KMUAV_XB_AS_IMU/ap/./estimator.o
                                                  /home/excelobs/paparazzi/var/KMUAV_XB_AS_IMU/ap/subsystems/navigation/nav_survey_rectangle.o
                                                  /home/excelobs/paparazzi/var/KMUAV_XB_AS_IMU/ap/subsystems/nav.o
                                                  /home/excelobs/paparazzi/var/KMUAV_XB_AS_IMU/ap/firmwares/fixedwing/datalink.o
                                                  /home/excelobs/paparazzi/var/KMUAV_XB_AS_IMU/ap/firmwares/fixedwing/main_ap.o
estimator_z                                       /home/excelobs/paparazzi/var/KMUAV_XB_AS_IMU/ap/./estimator.o
                                                  /home/excelobs/paparazzi/var/KMUAV_XB_AS_IMU/ap/subsystems/nav.o
                                                  /home/excelobs/paparazzi/var/KMUAV_XB_AS_IMU/ap/firmwares/fixedwing/guidance/guidance_v.o
                                                  /home/excelobs/paparazzi/var/KMUAV_XB_AS_IMU/ap/firmwares/fixedwing/main_ap.o
estimator_z_dot                                   /home/excelobs/paparazzi/var/KMUAV_XB_AS_IMU/ap/./estimator.o
                                                  /home/excelobs/paparazzi/var/KMUAV_XB_AS_IMU/ap/firmwares/fixedwing/guidance/guidance_v.o
                                                  /home/excelobs/paparazzi/var/KMUAV_XB_AS_IMU/ap/firmwares/fixedwing/main_ap.o
event_task_ap                                     /home/excelobs/paparazzi/var/KMUAV_XB_AS_IMU/ap/firmwares/fixedwing/main_ap.o
                                                  /home/excelobs/paparazzi/var/KMUAV_XB_AS_IMU/ap/firmwares/fixedwing/main.o
event_task_fbw                                    /home/excelobs/paparazzi/var/KMUAV_XB_AS_IMU/ap/firmwares/fixedwing/main_fbw.o
                                                  /home/excelobs/paparazzi/var/KMUAV_XB_AS_IMU/ap/firmwares/fixedwing/main.o
exit                                              /home/excelobs/paparazzi/var/KMUAV_XB_AS_IMU/ap/crt0.o
exp                                               /usr/lib/gcc/arm-elf/3.4.4/../../../../arm-elf/lib/thumb/interwork/libm.a(w_exp.o)
                                                  /home/excelobs/paparazzi/var/KMUAV_XB_AS_IMU/ap/./latlong.o
expm1                                             /usr/lib/gcc/arm-elf/3.4.4/../../../../arm-elf/lib/thumb/interwork/libm.a(s_expm1.o)
                                                  /usr/lib/gcc/arm-elf/3.4.4/../../../../arm-elf/lib/thumb/interwork/libm.a(e_sinh.o)
                                                  /usr/lib/gcc/arm-elf/3.4.4/../../../../arm-elf/lib/thumb/interwork/libm.a(e_cosh.o)
fabs                                              /usr/lib/gcc/arm-elf/3.4.4/../../../../arm-elf/lib/thumb/interwork/libm.a(s_fabs.o)
                                                  /usr/lib/gcc/arm-elf/3.4.4/../../../../arm-elf/lib/thumb/interwork/libm.a(k_tan.o)
                                                  /usr/lib/gcc/arm-elf/3.4.4/../../../../arm-elf/lib/thumb/interwork/libm.a(e_sinh.o)
                                                  /usr/lib/gcc/arm-elf/3.4.4/../../../../arm-elf/lib/thumb/interwork/libm.a(e_rem_pio2.o)
                                                  /usr/lib/gcc/arm-elf/3.4.4/../../../../arm-elf/lib/thumb/interwork/libm.a(e_pow.o)
                                                  /usr/lib/gcc/arm-elf/3.4.4/../../../../arm-elf/lib/thumb/interwork/libm.a(e_cosh.o)
                                                  /usr/lib/gcc/arm-elf/3.4.4/../../../../arm-elf/lib/thumb/interwork/libm.a(e_atan2.o)
                                                  /usr/lib/gcc/arm-elf/3.4.4/../../../../arm-elf/lib/thumb/interwork/libm.a(e_asin.o)
                                                  /usr/lib/gcc/arm-elf/3.4.4/../../../../arm-elf/lib/thumb/interwork/libm.a(w_cosh.o)
                                                  /usr/lib/gcc/arm-elf/3.4.4/../../../../arm-elf/lib/thumb/interwork/libm.a(w_asin.o)
                                                  /usr/lib/gcc/arm-elf/3.4.4/../../../../arm-elf/lib/thumb/interwork/libm.a(s_atan.o)
fabsf                                             /usr/lib/gcc/arm-elf/3.4.4/../../../../arm-elf/lib/thumb/interwork/libm.a(sf_fabs.o)
                                                  /usr/lib/gcc/arm-elf/3.4.4/../../../../arm-elf/lib/thumb/interwork/libm.a(sf_atan.o)
                                                  /usr/lib/gcc/arm-elf/3.4.4/../../../../arm-elf/lib/thumb/interwork/libm.a(ef_rem_pio2.o)
                                                  /usr/lib/gcc/arm-elf/3.4.4/../../../../arm-elf/lib/thumb/interwork/libm.a(ef_atan2.o)
fatal_error_nb                                    /home/excelobs/paparazzi/var/KMUAV_XB_AS_IMU/ap/firmwares/fixedwing/main_ap.o
fbw_mode                                          /home/excelobs/paparazzi/var/KMUAV_XB_AS_IMU/ap/firmwares/fixedwing/main_fbw.o
fbw_new_actuators                                 /home/excelobs/paparazzi/var/KMUAV_XB_AS_IMU/ap/firmwares/fixedwing/main_fbw.o
fbw_state                                         /home/excelobs/paparazzi/var/KMUAV_XB_AS_IMU/ap/./inter_mcu.o
                                                  /home/excelobs/paparazzi/var/KMUAV_XB_AS_IMU/ap/firmwares/fixedwing/main_ap.o
                                                  /home/excelobs/paparazzi/var/KMUAV_XB_AS_IMU/ap/firmwares/fixedwing/main_fbw.o
finite                                            /usr/lib/gcc/arm-elf/3.4.4/../../../../arm-elf/lib/thumb/interwork/libm.a(s_finite.o)
                                                  /usr/lib/gcc/arm-elf/3.4.4/../../../../arm-elf/lib/thumb/interwork/libm.a(w_sinh.o)
                                                  /usr/lib/gcc/arm-elf/3.4.4/../../../../arm-elf/lib/thumb/interwork/libm.a(w_pow.o)
                                                  /usr/lib/gcc/arm-elf/3.4.4/../../../../arm-elf/lib/thumb/interwork/libm.a(w_exp.o)
flight_altitude                                   /home/excelobs/paparazzi/var/KMUAV_XB_AS_IMU/ap/subsystems/nav.o
                                                  /home/excelobs/paparazzi/var/KMUAV_XB_AS_IMU/ap/firmwares/fixedwing/datalink.o
                                                  /home/excelobs/paparazzi/var/KMUAV_XB_AS_IMU/ap/firmwares/fixedwing/main_ap.o
floor                                             /usr/lib/gcc/arm-elf/3.4.4/../../../../arm-elf/lib/thumb/interwork/libm.a(s_floor.o)
                                                  /usr/lib/gcc/arm-elf/3.4.4/../../../../arm-elf/lib/thumb/interwork/libm.a(k_rem_pio2.o)
floorf                                            /usr/lib/gcc/arm-elf/3.4.4/../../../../arm-elf/lib/thumb/interwork/libm.a(sf_floor.o)
                                                  /usr/lib/gcc/arm-elf/3.4.4/../../../../arm-elf/lib/thumb/interwork/libm.a(kf_rem_pio2.o)
fly_to_xy                                         /home/excelobs/paparazzi/var/KMUAV_XB_AS_IMU/ap/subsystems/nav.o
fp_pitch                                          /home/excelobs/paparazzi/var/KMUAV_XB_AS_IMU/ap/subsystems/nav.o
                                                  /home/excelobs/paparazzi/var/KMUAV_XB_AS_IMU/ap/firmwares/fixedwing/datalink.o
                                                  /home/excelobs/paparazzi/var/KMUAV_XB_AS_IMU/ap/firmwares/fixedwing/main_ap.o
get_ac_info                                       /home/excelobs/paparazzi/var/KMUAV_XB_AS_IMU/ap/subsystems/navigation/traffic_info.o
gps_PDOP                                          /home/excelobs/paparazzi/var/KMUAV_XB_AS_IMU/ap/./gps_ubx.o
                                                  /home/excelobs/paparazzi/var/KMUAV_XB_AS_IMU/ap/firmwares/fixedwing/main_ap.o
gps_Pacc                                          /home/excelobs/paparazzi/var/KMUAV_XB_AS_IMU/ap/./gps_ubx.o
                                                  /home/excelobs/paparazzi/var/KMUAV_XB_AS_IMU/ap/firmwares/fixedwing/main_ap.o
gps_Reset                                         /home/excelobs/paparazzi/var/KMUAV_XB_AS_IMU/ap/firmwares/fixedwing/datalink.o
gps_Sacc                                          /home/excelobs/paparazzi/var/KMUAV_XB_AS_IMU/ap/./gps_ubx.o
                                                  /home/excelobs/paparazzi/var/KMUAV_XB_AS_IMU/ap/firmwares/fixedwing/main_ap.o
gps_alt                                           /home/excelobs/paparazzi/var/KMUAV_XB_AS_IMU/ap/./gps_ubx.o
                                                  /home/excelobs/paparazzi/var/KMUAV_XB_AS_IMU/ap/subsystems/nav.o
                                                  /home/excelobs/paparazzi/var/KMUAV_XB_AS_IMU/ap/./gps.o
                                                  /home/excelobs/paparazzi/var/KMUAV_XB_AS_IMU/ap/./estimator.o
gps_climb                                         /home/excelobs/paparazzi/var/KMUAV_XB_AS_IMU/ap/./gps_ubx.o
                                                  /home/excelobs/paparazzi/var/KMUAV_XB_AS_IMU/ap/./gps.o
                                                  /home/excelobs/paparazzi/var/KMUAV_XB_AS_IMU/ap/./estimator.o
gps_configuring                                   /home/excelobs/paparazzi/var/KMUAV_XB_AS_IMU/ap/./gps_ubx.o
gps_course                                        /home/excelobs/paparazzi/var/KMUAV_XB_AS_IMU/ap/./gps_ubx.o
                                                  /home/excelobs/paparazzi/var/KMUAV_XB_AS_IMU/ap/modules/ins/ins_arduimu_basic.o
                                                  /home/excelobs/paparazzi/var/KMUAV_XB_AS_IMU/ap/./gps.o
                                                  /home/excelobs/paparazzi/var/KMUAV_XB_AS_IMU/ap/./estimator.o
gps_downlink                                      /home/excelobs/paparazzi/var/KMUAV_XB_AS_IMU/ap/./gps.o
                                                  /home/excelobs/paparazzi/var/KMUAV_XB_AS_IMU/ap/firmwares/fixedwing/main_ap.o
gps_ecefVZ                                        /home/excelobs/paparazzi/var/KMUAV_XB_AS_IMU/ap/./gps_ubx.o
gps_gspeed                                        /home/excelobs/paparazzi/var/KMUAV_XB_AS_IMU/ap/./gps_ubx.o
                                                  /home/excelobs/paparazzi/var/KMUAV_XB_AS_IMU/ap/modules/ins/ins_arduimu_basic.o
                                                  /home/excelobs/paparazzi/var/KMUAV_XB_AS_IMU/ap/./gps.o
                                                  /home/excelobs/paparazzi/var/KMUAV_XB_AS_IMU/ap/./estimator.o
gps_hmsl                                          /home/excelobs/paparazzi/var/KMUAV_XB_AS_IMU/ap/./gps_ubx.o
gps_init                                          /home/excelobs/paparazzi/var/KMUAV_XB_AS_IMU/ap/./gps_ubx.o
                                                  /home/excelobs/paparazzi/var/KMUAV_XB_AS_IMU/ap/firmwares/fixedwing/main_ap.o
gps_itow                                          /home/excelobs/paparazzi/var/KMUAV_XB_AS_IMU/ap/./gps_ubx.o
                                                  /home/excelobs/paparazzi/var/KMUAV_XB_AS_IMU/ap/./gps.o
gps_lat                                           /home/excelobs/paparazzi/var/KMUAV_XB_AS_IMU/ap/./gps_ubx.o
                                                  /home/excelobs/paparazzi/var/KMUAV_XB_AS_IMU/ap/subsystems/nav.o
gps_lon                                           /home/excelobs/paparazzi/var/KMUAV_XB_AS_IMU/ap/./gps_ubx.o
                                                  /home/excelobs/paparazzi/var/KMUAV_XB_AS_IMU/ap/subsystems/nav.o
gps_lost                                          /home/excelobs/paparazzi/var/KMUAV_XB_AS_IMU/ap/firmwares/fixedwing/main_ap.o
gps_mode                                          /home/excelobs/paparazzi/var/KMUAV_XB_AS_IMU/ap/./gps_ubx.o
                                                  /home/excelobs/paparazzi/var/KMUAV_XB_AS_IMU/ap/modules/ins/ins_arduimu_basic.o
                                                  /home/excelobs/paparazzi/var/KMUAV_XB_AS_IMU/ap/subsystems/nav.o
                                                  /home/excelobs/paparazzi/var/KMUAV_XB_AS_IMU/ap/./gps.o
                                                  /home/excelobs/paparazzi/var/KMUAV_XB_AS_IMU/ap/firmwares/fixedwing/main_ap.o
gps_msg_received                                  /home/excelobs/paparazzi/var/KMUAV_XB_AS_IMU/ap/./gps_ubx.o
                                                  /home/excelobs/paparazzi/var/KMUAV_XB_AS_IMU/ap/firmwares/fixedwing/main_ap.o
gps_nb_channels                                   /home/excelobs/paparazzi/var/KMUAV_XB_AS_IMU/ap/./gps_ubx.o
                                                  /home/excelobs/paparazzi/var/KMUAV_XB_AS_IMU/ap/./gps.o
gps_nb_ovrn                                       /home/excelobs/paparazzi/var/KMUAV_XB_AS_IMU/ap/./gps_ubx.o
                                                  /home/excelobs/paparazzi/var/KMUAV_XB_AS_IMU/ap/./gps.o
gps_numSV                                         /home/excelobs/paparazzi/var/KMUAV_XB_AS_IMU/ap/./gps_ubx.o
                                                  /home/excelobs/paparazzi/var/KMUAV_XB_AS_IMU/ap/firmwares/fixedwing/main_ap.o
gps_pos_available                                 /home/excelobs/paparazzi/var/KMUAV_XB_AS_IMU/ap/./gps_ubx.o
                                                  /home/excelobs/paparazzi/var/KMUAV_XB_AS_IMU/ap/firmwares/fixedwing/main_ap.o
gps_reset                                         /home/excelobs/paparazzi/var/KMUAV_XB_AS_IMU/ap/./gps_ubx.o
                                                  /home/excelobs/paparazzi/var/KMUAV_XB_AS_IMU/ap/firmwares/fixedwing/datalink.o
                                                  /home/excelobs/paparazzi/var/KMUAV_XB_AS_IMU/ap/firmwares/fixedwing/main_ap.o
gps_send                                          /home/excelobs/paparazzi/var/KMUAV_XB_AS_IMU/ap/./gps.o
                                                  /home/excelobs/paparazzi/var/KMUAV_XB_AS_IMU/ap/firmwares/fixedwing/main_ap.o
gps_sol_flags                                     /home/excelobs/paparazzi/var/KMUAV_XB_AS_IMU/ap/./gps_ubx.o
gps_speed_3d                                      /home/excelobs/paparazzi/var/KMUAV_XB_AS_IMU/ap/./gps_ubx.o
                                                  /home/excelobs/paparazzi/var/KMUAV_XB_AS_IMU/ap/modules/ins/ins_arduimu_basic.o
gps_status_flags                                  /home/excelobs/paparazzi/var/KMUAV_XB_AS_IMU/ap/./gps_ubx.o
                                                  /home/excelobs/paparazzi/var/KMUAV_XB_AS_IMU/ap/modules/ins/ins_arduimu_basic.o
gps_svinfos                                       /home/excelobs/paparazzi/var/KMUAV_XB_AS_IMU/ap/./gps_ubx.o
                                                  /home/excelobs/paparazzi/var/KMUAV_XB_AS_IMU/ap/./gps.o
gps_utm_east                                      /home/excelobs/paparazzi/var/KMUAV_XB_AS_IMU/ap/./gps_ubx.o
                                                  /home/excelobs/paparazzi/var/KMUAV_XB_AS_IMU/ap/./gps.o
                                                  /home/excelobs/paparazzi/var/KMUAV_XB_AS_IMU/ap/./estimator.o
gps_utm_north                                     /home/excelobs/paparazzi/var/KMUAV_XB_AS_IMU/ap/./gps_ubx.o
                                                  /home/excelobs/paparazzi/var/KMUAV_XB_AS_IMU/ap/./gps.o
                                                  /home/excelobs/paparazzi/var/KMUAV_XB_AS_IMU/ap/./estimator.o
gps_utm_zone                                      /home/excelobs/paparazzi/var/KMUAV_XB_AS_IMU/ap/./gps_ubx.o
                                                  /home/excelobs/paparazzi/var/KMUAV_XB_AS_IMU/ap/./gps.o
gps_verbose_downlink                              /home/excelobs/paparazzi/var/KMUAV_XB_AS_IMU/ap/./gps.o
                                                  /home/excelobs/paparazzi/var/KMUAV_XB_AS_IMU/ap/firmwares/fixedwing/main_ap.o
gps_week                                          /home/excelobs/paparazzi/var/KMUAV_XB_AS_IMU/ap/./gps_ubx.o
                                                  /home/excelobs/paparazzi/var/KMUAV_XB_AS_IMU/ap/./gps.o
ground_alt                                        /home/excelobs/paparazzi/var/KMUAV_XB_AS_IMU/ap/subsystems/nav.o
h_ctl_aileron_of_throttle                         /home/excelobs/paparazzi/var/KMUAV_XB_AS_IMU/ap/firmwares/fixedwing/stabilization/stabilization_attitude.o
                                                  /home/excelobs/paparazzi/var/KMUAV_XB_AS_IMU/ap/firmwares/fixedwing/datalink.o
                                                  /home/excelobs/paparazzi/var/KMUAV_XB_AS_IMU/ap/firmwares/fixedwing/main_ap.o
h_ctl_aileron_setpoint                            /home/excelobs/paparazzi/var/KMUAV_XB_AS_IMU/ap/firmwares/fixedwing/stabilization/stabilization_attitude.o
                                                  /home/excelobs/paparazzi/var/KMUAV_XB_AS_IMU/ap/firmwares/fixedwing/main_ap.o
h_ctl_attitude_loop                               /home/excelobs/paparazzi/var/KMUAV_XB_AS_IMU/ap/firmwares/fixedwing/stabilization/stabilization_attitude.o
                                                  /home/excelobs/paparazzi/var/KMUAV_XB_AS_IMU/ap/firmwares/fixedwing/main_ap.o
h_ctl_auto1_rate                                  /home/excelobs/paparazzi/var/KMUAV_XB_AS_IMU/ap/firmwares/fixedwing/stabilization/stabilization_attitude.o
h_ctl_course_dgain                                /home/excelobs/paparazzi/var/KMUAV_XB_AS_IMU/ap/firmwares/fixedwing/stabilization/stabilization_attitude.o
                                                  /home/excelobs/paparazzi/var/KMUAV_XB_AS_IMU/ap/firmwares/fixedwing/datalink.o
                                                  /home/excelobs/paparazzi/var/KMUAV_XB_AS_IMU/ap/firmwares/fixedwing/main_ap.o
h_ctl_course_loop                                 /home/excelobs/paparazzi/var/KMUAV_XB_AS_IMU/ap/firmwares/fixedwing/stabilization/stabilization_attitude.o
                                                  /home/excelobs/paparazzi/var/KMUAV_XB_AS_IMU/ap/firmwares/fixedwing/main_ap.o
h_ctl_course_pgain                                /home/excelobs/paparazzi/var/KMUAV_XB_AS_IMU/ap/firmwares/fixedwing/stabilization/stabilization_attitude.o
                                                  /home/excelobs/paparazzi/var/KMUAV_XB_AS_IMU/ap/subsystems/nav.o
                                                  /home/excelobs/paparazzi/var/KMUAV_XB_AS_IMU/ap/firmwares/fixedwing/datalink.o
                                                  /home/excelobs/paparazzi/var/KMUAV_XB_AS_IMU/ap/firmwares/fixedwing/main_ap.o
h_ctl_course_pre_bank                             /home/excelobs/paparazzi/var/KMUAV_XB_AS_IMU/ap/firmwares/fixedwing/stabilization/stabilization_attitude.o
                                                  /home/excelobs/paparazzi/var/KMUAV_XB_AS_IMU/ap/subsystems/nav.o
h_ctl_course_pre_bank_correction                  /home/excelobs/paparazzi/var/KMUAV_XB_AS_IMU/ap/firmwares/fixedwing/stabilization/stabilization_attitude.o
                                                  /home/excelobs/paparazzi/var/KMUAV_XB_AS_IMU/ap/firmwares/fixedwing/datalink.o
                                                  /home/excelobs/paparazzi/var/KMUAV_XB_AS_IMU/ap/firmwares/fixedwing/main_ap.o
h_ctl_course_setpoint                             /home/excelobs/paparazzi/var/KMUAV_XB_AS_IMU/ap/firmwares/fixedwing/stabilization/stabilization_attitude.o
                                                  /home/excelobs/paparazzi/var/KMUAV_XB_AS_IMU/ap/subsystems/nav.o
                                                  /home/excelobs/paparazzi/var/KMUAV_XB_AS_IMU/ap/firmwares/fixedwing/main_ap.o
h_ctl_disabled                                    /home/excelobs/paparazzi/var/KMUAV_XB_AS_IMU/ap/firmwares/fixedwing/stabilization/stabilization_attitude.o
h_ctl_elevator_of_roll                            /home/excelobs/paparazzi/var/KMUAV_XB_AS_IMU/ap/firmwares/fixedwing/stabilization/stabilization_attitude.o
                                                  /home/excelobs/paparazzi/var/KMUAV_XB_AS_IMU/ap/firmwares/fixedwing/datalink.o
                                                  /home/excelobs/paparazzi/var/KMUAV_XB_AS_IMU/ap/firmwares/fixedwing/main_ap.o
h_ctl_elevator_setpoint                           /home/excelobs/paparazzi/var/KMUAV_XB_AS_IMU/ap/firmwares/fixedwing/stabilization/stabilization_attitude.o
                                                  /home/excelobs/paparazzi/var/KMUAV_XB_AS_IMU/ap/firmwares/fixedwing/main_ap.o
h_ctl_init                                        /home/excelobs/paparazzi/var/KMUAV_XB_AS_IMU/ap/firmwares/fixedwing/stabilization/stabilization_attitude.o
                                                  /home/excelobs/paparazzi/var/KMUAV_XB_AS_IMU/ap/firmwares/fixedwing/main_ap.o
h_ctl_pitch_dgain                                 /home/excelobs/paparazzi/var/KMUAV_XB_AS_IMU/ap/firmwares/fixedwing/stabilization/stabilization_attitude.o
                                                  /home/excelobs/paparazzi/var/KMUAV_XB_AS_IMU/ap/firmwares/fixedwing/datalink.o
                                                  /home/excelobs/paparazzi/var/KMUAV_XB_AS_IMU/ap/firmwares/fixedwing/main_ap.o
h_ctl_pitch_loop_setpoint                         /home/excelobs/paparazzi/var/KMUAV_XB_AS_IMU/ap/firmwares/fixedwing/stabilization/stabilization_attitude.o
                                                  /home/excelobs/paparazzi/var/KMUAV_XB_AS_IMU/ap/firmwares/fixedwing/main_ap.o
h_ctl_pitch_pgain                                 /home/excelobs/paparazzi/var/KMUAV_XB_AS_IMU/ap/firmwares/fixedwing/stabilization/stabilization_attitude.o
                                                  /home/excelobs/paparazzi/var/KMUAV_XB_AS_IMU/ap/firmwares/fixedwing/datalink.o
                                                  /home/excelobs/paparazzi/var/KMUAV_XB_AS_IMU/ap/firmwares/fixedwing/main_ap.o
h_ctl_pitch_setpoint                              /home/excelobs/paparazzi/var/KMUAV_XB_AS_IMU/ap/firmwares/fixedwing/stabilization/stabilization_attitude.o
                                                  /home/excelobs/paparazzi/var/KMUAV_XB_AS_IMU/ap/firmwares/fixedwing/main_ap.o
h_ctl_roll_attitude_gain                          /home/excelobs/paparazzi/var/KMUAV_XB_AS_IMU/ap/firmwares/fixedwing/stabilization/stabilization_attitude.o
                                                  /home/excelobs/paparazzi/var/KMUAV_XB_AS_IMU/ap/firmwares/fixedwing/datalink.o
                                                  /home/excelobs/paparazzi/var/KMUAV_XB_AS_IMU/ap/firmwares/fixedwing/main_ap.o
h_ctl_roll_max_setpoint                           /home/excelobs/paparazzi/var/KMUAV_XB_AS_IMU/ap/firmwares/fixedwing/stabilization/stabilization_attitude.o
                                                  /home/excelobs/paparazzi/var/KMUAV_XB_AS_IMU/ap/subsystems/nav.o
                                                  /home/excelobs/paparazzi/var/KMUAV_XB_AS_IMU/ap/firmwares/fixedwing/datalink.o
                                                  /home/excelobs/paparazzi/var/KMUAV_XB_AS_IMU/ap/firmwares/fixedwing/main_ap.o
h_ctl_roll_pgain                                  /home/excelobs/paparazzi/var/KMUAV_XB_AS_IMU/ap/firmwares/fixedwing/stabilization/stabilization_attitude.o
                                                  /home/excelobs/paparazzi/var/KMUAV_XB_AS_IMU/ap/firmwares/fixedwing/datalink.o
                                                  /home/excelobs/paparazzi/var/KMUAV_XB_AS_IMU/ap/firmwares/fixedwing/main_ap.o
h_ctl_roll_rate_gain                              /home/excelobs/paparazzi/var/KMUAV_XB_AS_IMU/ap/firmwares/fixedwing/stabilization/stabilization_attitude.o
                                                  /home/excelobs/paparazzi/var/KMUAV_XB_AS_IMU/ap/firmwares/fixedwing/datalink.o
                                                  /home/excelobs/paparazzi/var/KMUAV_XB_AS_IMU/ap/firmwares/fixedwing/main_ap.o
h_ctl_roll_setpoint                               /home/excelobs/paparazzi/var/KMUAV_XB_AS_IMU/ap/firmwares/fixedwing/stabilization/stabilization_attitude.o
                                                  /home/excelobs/paparazzi/var/KMUAV_XB_AS_IMU/ap/subsystems/nav.o
                                                  /home/excelobs/paparazzi/var/KMUAV_XB_AS_IMU/ap/firmwares/fixedwing/main_ap.o
h_ctl_roll_slew                                   /home/excelobs/paparazzi/var/KMUAV_XB_AS_IMU/ap/firmwares/fixedwing/stabilization/stabilization_attitude.o
                                                  /home/excelobs/paparazzi/var/KMUAV_XB_AS_IMU/ap/firmwares/fixedwing/datalink.o
                                                  /home/excelobs/paparazzi/var/KMUAV_XB_AS_IMU/ap/firmwares/fixedwing/main_ap.o
high_accel_flag                                   /home/excelobs/paparazzi/var/KMUAV_XB_AS_IMU/ap/modules/ins/ins_arduimu_basic.o
horizontal_mode                                   /home/excelobs/paparazzi/var/KMUAV_XB_AS_IMU/ap/subsystems/nav.o
                                                  /home/excelobs/paparazzi/var/KMUAV_XB_AS_IMU/ap/firmwares/fixedwing/main_ap.o
i2c0                                              /home/excelobs/paparazzi/var/KMUAV_XB_AS_IMU/ap/mcu_periph/i2c.o
                                                  /home/excelobs/paparazzi/var/KMUAV_XB_AS_IMU/ap/modules/sensors/airspeed_ets.o
                                                  /home/excelobs/paparazzi/var/KMUAV_XB_AS_IMU/ap/arch/lpc21/mcu_periph/i2c_arch.o
i2c0_ISR                                          /home/excelobs/paparazzi/var/KMUAV_XB_AS_IMU/ap/arch/lpc21/mcu_periph/i2c_arch.o
i2c0_hw_init                                      /home/excelobs/paparazzi/var/KMUAV_XB_AS_IMU/ap/arch/lpc21/mcu_periph/i2c_arch.o
                                                  /home/excelobs/paparazzi/var/KMUAV_XB_AS_IMU/ap/mcu_periph/i2c.o
i2c0_init                                         /home/excelobs/paparazzi/var/KMUAV_XB_AS_IMU/ap/mcu_periph/i2c.o
                                                  /home/excelobs/paparazzi/var/KMUAV_XB_AS_IMU/ap/mcu.o
i2c1                                              /home/excelobs/paparazzi/var/KMUAV_XB_AS_IMU/ap/mcu_periph/i2c.o
                                                  /home/excelobs/paparazzi/var/KMUAV_XB_AS_IMU/ap/modules/ins/ins_arduimu_basic.o
                                                  /home/excelobs/paparazzi/var/KMUAV_XB_AS_IMU/ap/arch/lpc21/mcu_periph/i2c_arch.o
i2c1_ISR                                          /home/excelobs/paparazzi/var/KMUAV_XB_AS_IMU/ap/arch/lpc21/mcu_periph/i2c_arch.o
i2c1_hw_init                                      /home/excelobs/paparazzi/var/KMUAV_XB_AS_IMU/ap/arch/lpc21/mcu_periph/i2c_arch.o
                                                  /home/excelobs/paparazzi/var/KMUAV_XB_AS_IMU/ap/mcu_periph/i2c.o
i2c1_init                                         /home/excelobs/paparazzi/var/KMUAV_XB_AS_IMU/ap/mcu_periph/i2c.o
                                                  /home/excelobs/paparazzi/var/KMUAV_XB_AS_IMU/ap/mcu.o
i2c_idle                                          /home/excelobs/paparazzi/var/KMUAV_XB_AS_IMU/ap/arch/lpc21/mcu_periph/i2c_arch.o
i2c_init                                          /home/excelobs/paparazzi/var/KMUAV_XB_AS_IMU/ap/mcu_periph/i2c.o
i2c_submit                                        /home/excelobs/paparazzi/var/KMUAV_XB_AS_IMU/ap/arch/lpc21/mcu_periph/i2c_arch.o
                                                  /home/excelobs/paparazzi/var/KMUAV_XB_AS_IMU/ap/modules/ins/ins_arduimu_basic.o
                                                  /home/excelobs/paparazzi/var/KMUAV_XB_AS_IMU/ap/modules/sensors/airspeed_ets.o
infrared                                          /home/excelobs/paparazzi/var/KMUAV_XB_AS_IMU/ap/./estimator.o
init_ap                                           /home/excelobs/paparazzi/var/KMUAV_XB_AS_IMU/ap/firmwares/fixedwing/main_ap.o
                                                  /home/excelobs/paparazzi/var/KMUAV_XB_AS_IMU/ap/firmwares/fixedwing/main.o
init_fbw                                          /home/excelobs/paparazzi/var/KMUAV_XB_AS_IMU/ap/firmwares/fixedwing/main_fbw.o
                                                  /home/excelobs/paparazzi/var/KMUAV_XB_AS_IMU/ap/firmwares/fixedwing/main.o
ins_pitch_neutral                                 /home/excelobs/paparazzi/var/KMUAV_XB_AS_IMU/ap/modules/ins/ins_arduimu_basic.o
                                                  /home/excelobs/paparazzi/var/KMUAV_XB_AS_IMU/ap/firmwares/fixedwing/datalink.o
                                                  /home/excelobs/paparazzi/var/KMUAV_XB_AS_IMU/ap/firmwares/fixedwing/main_ap.o
ins_roll_neutral                                  /home/excelobs/paparazzi/var/KMUAV_XB_AS_IMU/ap/modules/ins/ins_arduimu_basic.o
                                                  /home/excelobs/paparazzi/var/KMUAV_XB_AS_IMU/ap/firmwares/fixedwing/datalink.o
                                                  /home/excelobs/paparazzi/var/KMUAV_XB_AS_IMU/ap/firmwares/fixedwing/main_ap.o
inter_mcu_received_ap                             /home/excelobs/paparazzi/var/KMUAV_XB_AS_IMU/ap/./inter_mcu.o
                                                  /home/excelobs/paparazzi/var/KMUAV_XB_AS_IMU/ap/firmwares/fixedwing/main_ap.o
                                                  /home/excelobs/paparazzi/var/KMUAV_XB_AS_IMU/ap/firmwares/fixedwing/main_fbw.o
inter_mcu_received_fbw                            /home/excelobs/paparazzi/var/KMUAV_XB_AS_IMU/ap/./inter_mcu.o
                                                  /home/excelobs/paparazzi/var/KMUAV_XB_AS_IMU/ap/firmwares/fixedwing/main_ap.o
                                                  /home/excelobs/paparazzi/var/KMUAV_XB_AS_IMU/ap/firmwares/fixedwing/main_fbw.o
isnan                                             /usr/lib/gcc/arm-elf/3.4.4/../../../../arm-elf/lib/thumb/interwork/libm.a(s_isnan.o)
                                                  /usr/lib/gcc/arm-elf/3.4.4/../../../../arm-elf/lib/thumb/interwork/libm.a(w_sqrt.o)
                                                  /usr/lib/gcc/arm-elf/3.4.4/../../../../arm-elf/lib/thumb/interwork/libm.a(w_pow.o)
                                                  /usr/lib/gcc/arm-elf/3.4.4/../../../../arm-elf/lib/thumb/interwork/libm.a(w_log.o)
                                                  /usr/lib/gcc/arm-elf/3.4.4/../../../../arm-elf/lib/thumb/interwork/libm.a(w_cosh.o)
                                                  /usr/lib/gcc/arm-elf/3.4.4/../../../../arm-elf/lib/thumb/interwork/libm.a(w_atan2.o)
                                                  /usr/lib/gcc/arm-elf/3.4.4/../../../../arm-elf/lib/thumb/interwork/libm.a(w_asin.o)
isnanf                                            /usr/lib/gcc/arm-elf/3.4.4/../../../../arm-elf/lib/thumb/interwork/libm.a(sf_isnan.o)
                                                  /usr/lib/gcc/arm-elf/3.4.4/../../../../arm-elf/lib/thumb/interwork/libm.a(wf_sqrt.o)
                                                  /usr/lib/gcc/arm-elf/3.4.4/../../../../arm-elf/lib/thumb/interwork/libm.a(wf_atan2.o)
kill_throttle                                     /home/excelobs/paparazzi/var/KMUAV_XB_AS_IMU/ap/firmwares/fixedwing/main_ap.o
                                                  /home/excelobs/paparazzi/var/KMUAV_XB_AS_IMU/ap/subsystems/nav.o
                                                  /home/excelobs/paparazzi/var/KMUAV_XB_AS_IMU/ap/firmwares/fixedwing/datalink.o
last_block                                        /home/excelobs/paparazzi/var/KMUAV_XB_AS_IMU/ap/subsystems/nav.o
last_gps_msg_t                                    /home/excelobs/paparazzi/var/KMUAV_XB_AS_IMU/ap/./gps.o
                                                  /home/excelobs/paparazzi/var/KMUAV_XB_AS_IMU/ap/firmwares/fixedwing/main_ap.o
last_periodic_event                               /home/excelobs/paparazzi/var/KMUAV_XB_AS_IMU/ap/arch/lpc21/sys_time_hw.o
                                                  /home/excelobs/paparazzi/var/KMUAV_XB_AS_IMU/ap/firmwares/fixedwing/main.o
last_stage                                        /home/excelobs/paparazzi/var/KMUAV_XB_AS_IMU/ap/subsystems/nav.o
last_x                                            /home/excelobs/paparazzi/var/KMUAV_XB_AS_IMU/ap/subsystems/nav.o
last_y                                            /home/excelobs/paparazzi/var/KMUAV_XB_AS_IMU/ap/subsystems/nav.o
lateral_mode                                      /home/excelobs/paparazzi/var/KMUAV_XB_AS_IMU/ap/firmwares/fixedwing/main_ap.o
                                                  /home/excelobs/paparazzi/var/KMUAV_XB_AS_IMU/ap/subsystems/nav.o
latlong_lat                                       /home/excelobs/paparazzi/var/KMUAV_XB_AS_IMU/ap/./latlong.o
latlong_lon                                       /home/excelobs/paparazzi/var/KMUAV_XB_AS_IMU/ap/./latlong.o
latlong_of_utm                                    /home/excelobs/paparazzi/var/KMUAV_XB_AS_IMU/ap/./latlong.o
latlong_utm_of                                    /home/excelobs/paparazzi/var/KMUAV_XB_AS_IMU/ap/./latlong.o
                                                  /home/excelobs/paparazzi/var/KMUAV_XB_AS_IMU/ap/subsystems/nav.o
                                                  /home/excelobs/paparazzi/var/KMUAV_XB_AS_IMU/ap/./gps_ubx.o
                                                  /home/excelobs/paparazzi/var/KMUAV_XB_AS_IMU/ap/firmwares/fixedwing/datalink.o
latlong_utm_x                                     /home/excelobs/paparazzi/var/KMUAV_XB_AS_IMU/ap/./latlong.o
                                                  /home/excelobs/paparazzi/var/KMUAV_XB_AS_IMU/ap/subsystems/nav.o
                                                  /home/excelobs/paparazzi/var/KMUAV_XB_AS_IMU/ap/./gps_ubx.o
                                                  /home/excelobs/paparazzi/var/KMUAV_XB_AS_IMU/ap/firmwares/fixedwing/datalink.o
latlong_utm_y                                     /home/excelobs/paparazzi/var/KMUAV_XB_AS_IMU/ap/./latlong.o
                                                  /home/excelobs/paparazzi/var/KMUAV_XB_AS_IMU/ap/subsystems/nav.o
                                                  /home/excelobs/paparazzi/var/KMUAV_XB_AS_IMU/ap/./gps_ubx.o
                                                  /home/excelobs/paparazzi/var/KMUAV_XB_AS_IMU/ap/firmwares/fixedwing/datalink.o
launch                                            /home/excelobs/paparazzi/var/KMUAV_XB_AS_IMU/ap/firmwares/fixedwing/main_ap.o
                                                  /home/excelobs/paparazzi/var/KMUAV_XB_AS_IMU/ap/firmwares/fixedwing/datalink.o
log                                               /usr/lib/gcc/arm-elf/3.4.4/../../../../arm-elf/lib/thumb/interwork/libm.a(w_log.o)
                                                  /home/excelobs/paparazzi/var/KMUAV_XB_AS_IMU/ap/./latlong.o
main                                              /home/excelobs/paparazzi/var/KMUAV_XB_AS_IMU/ap/firmwares/fixedwing/main.o
                                                  /home/excelobs/paparazzi/var/KMUAV_XB_AS_IMU/ap/crt0.o
matherr                                           /usr/lib/gcc/arm-elf/3.4.4/../../../../arm-elf/lib/thumb/interwork/libm.a(s_matherr.o)
                                                  /usr/lib/gcc/arm-elf/3.4.4/../../../../arm-elf/lib/thumb/interwork/libm.a(wf_sqrt.o)
                                                  /usr/lib/gcc/arm-elf/3.4.4/../../../../arm-elf/lib/thumb/interwork/libm.a(wf_atan2.o)
                                                  /usr/lib/gcc/arm-elf/3.4.4/../../../../arm-elf/lib/thumb/interwork/libm.a(w_sqrt.o)
                                                  /usr/lib/gcc/arm-elf/3.4.4/../../../../arm-elf/lib/thumb/interwork/libm.a(w_sinh.o)
                                                  /usr/lib/gcc/arm-elf/3.4.4/../../../../arm-elf/lib/thumb/interwork/libm.a(w_pow.o)
                                                  /usr/lib/gcc/arm-elf/3.4.4/../../../../arm-elf/lib/thumb/interwork/libm.a(w_log.o)
                                                  /usr/lib/gcc/arm-elf/3.4.4/../../../../arm-elf/lib/thumb/interwork/libm.a(w_exp.o)
                                                  /usr/lib/gcc/arm-elf/3.4.4/../../../../arm-elf/lib/thumb/interwork/libm.a(w_cosh.o)
                                                  /usr/lib/gcc/arm-elf/3.4.4/../../../../arm-elf/lib/thumb/interwork/libm.a(w_atan2.o)
                                                  /usr/lib/gcc/arm-elf/3.4.4/../../../../arm-elf/lib/thumb/interwork/libm.a(w_asin.o)
max_dist_from_home                                /home/excelobs/paparazzi/var/KMUAV_XB_AS_IMU/ap/subsystems/nav.o
mcu_arch_init                                     /home/excelobs/paparazzi/var/KMUAV_XB_AS_IMU/ap/arch/lpc21/mcu_arch.o
                                                  /home/excelobs/paparazzi/var/KMUAV_XB_AS_IMU/ap/mcu.o
mcu_init                                          /home/excelobs/paparazzi/var/KMUAV_XB_AS_IMU/ap/mcu.o
                                                  /home/excelobs/paparazzi/var/KMUAV_XB_AS_IMU/ap/firmwares/fixedwing/main_fbw.o
nav_altitude                                      /home/excelobs/paparazzi/var/KMUAV_XB_AS_IMU/ap/subsystems/nav.o
                                                  /home/excelobs/paparazzi/var/KMUAV_XB_AS_IMU/ap/subsystems/navigation/nav_line.o
                                                  /home/excelobs/paparazzi/var/KMUAV_XB_AS_IMU/ap/subsystems/navigation/nav_survey_rectangle.o
nav_approaching_xy                                /home/excelobs/paparazzi/var/KMUAV_XB_AS_IMU/ap/subsystems/nav.o
                                                  /home/excelobs/paparazzi/var/KMUAV_XB_AS_IMU/ap/subsystems/navigation/nav_line.o
nav_block                                         /home/excelobs/paparazzi/var/KMUAV_XB_AS_IMU/ap/subsystems/nav.o
                                                  /home/excelobs/paparazzi/var/KMUAV_XB_AS_IMU/ap/firmwares/fixedwing/datalink.o
                                                  /home/excelobs/paparazzi/var/KMUAV_XB_AS_IMU/ap/firmwares/fixedwing/main_ap.o
nav_circle_XY                                     /home/excelobs/paparazzi/var/KMUAV_XB_AS_IMU/ap/subsystems/nav.o
                                                  /home/excelobs/paparazzi/var/KMUAV_XB_AS_IMU/ap/subsystems/navigation/nav_line.o
                                                  /home/excelobs/paparazzi/var/KMUAV_XB_AS_IMU/ap/subsystems/navigation/nav_survey_rectangle.o
nav_circle_radians                                /home/excelobs/paparazzi/var/KMUAV_XB_AS_IMU/ap/subsystems/nav.o
                                                  /home/excelobs/paparazzi/var/KMUAV_XB_AS_IMU/ap/firmwares/fixedwing/datalink.o
                                                  /home/excelobs/paparazzi/var/KMUAV_XB_AS_IMU/ap/firmwares/fixedwing/main_ap.o
nav_circle_radius                                 /home/excelobs/paparazzi/var/KMUAV_XB_AS_IMU/ap/subsystems/nav.o
                                                  /home/excelobs/paparazzi/var/KMUAV_XB_AS_IMU/ap/firmwares/fixedwing/main_ap.o
nav_circle_trigo_qdr                              /home/excelobs/paparazzi/var/KMUAV_XB_AS_IMU/ap/subsystems/nav.o
                                                  /home/excelobs/paparazzi/var/KMUAV_XB_AS_IMU/ap/subsystems/navigation/nav_line.o
nav_circle_x                                      /home/excelobs/paparazzi/var/KMUAV_XB_AS_IMU/ap/subsystems/nav.o
                                                  /home/excelobs/paparazzi/var/KMUAV_XB_AS_IMU/ap/firmwares/fixedwing/main_ap.o
nav_circle_y                                      /home/excelobs/paparazzi/var/KMUAV_XB_AS_IMU/ap/subsystems/nav.o
                                                  /home/excelobs/paparazzi/var/KMUAV_XB_AS_IMU/ap/firmwares/fixedwing/main_ap.o
nav_climb                                         /home/excelobs/paparazzi/var/KMUAV_XB_AS_IMU/ap/subsystems/nav.o
                                                  /home/excelobs/paparazzi/var/KMUAV_XB_AS_IMU/ap/firmwares/fixedwing/datalink.o
                                                  /home/excelobs/paparazzi/var/KMUAV_XB_AS_IMU/ap/firmwares/fixedwing/main_ap.o
nav_course                                        /home/excelobs/paparazzi/var/KMUAV_XB_AS_IMU/ap/subsystems/nav.o
                                                  /home/excelobs/paparazzi/var/KMUAV_XB_AS_IMU/ap/firmwares/fixedwing/datalink.o
                                                  /home/excelobs/paparazzi/var/KMUAV_XB_AS_IMU/ap/firmwares/fixedwing/main_ap.o
nav_eight                                         /home/excelobs/paparazzi/var/KMUAV_XB_AS_IMU/ap/subsystems/nav.o
nav_eight_init                                    /home/excelobs/paparazzi/var/KMUAV_XB_AS_IMU/ap/subsystems/nav.o
nav_glide_pitch_trim                              /home/excelobs/paparazzi/var/KMUAV_XB_AS_IMU/ap/subsystems/nav.o
                                                  /home/excelobs/paparazzi/var/KMUAV_XB_AS_IMU/ap/firmwares/fixedwing/datalink.o
                                                  /home/excelobs/paparazzi/var/KMUAV_XB_AS_IMU/ap/firmwares/fixedwing/main_ap.o
nav_goto_block                                    /home/excelobs/paparazzi/var/KMUAV_XB_AS_IMU/ap/subsystems/nav.o
                                                  /home/excelobs/paparazzi/var/KMUAV_XB_AS_IMU/ap/firmwares/fixedwing/datalink.o
nav_ground_speed_pgain                            /home/excelobs/paparazzi/var/KMUAV_XB_AS_IMU/ap/subsystems/nav.o
                                                  /home/excelobs/paparazzi/var/KMUAV_XB_AS_IMU/ap/firmwares/fixedwing/datalink.o
                                                  /home/excelobs/paparazzi/var/KMUAV_XB_AS_IMU/ap/firmwares/fixedwing/main_ap.o
nav_ground_speed_setpoint                         /home/excelobs/paparazzi/var/KMUAV_XB_AS_IMU/ap/subsystems/nav.o
                                                  /home/excelobs/paparazzi/var/KMUAV_XB_AS_IMU/ap/firmwares/fixedwing/datalink.o
                                                  /home/excelobs/paparazzi/var/KMUAV_XB_AS_IMU/ap/firmwares/fixedwing/main_ap.o
nav_home                                          /home/excelobs/paparazzi/var/KMUAV_XB_AS_IMU/ap/subsystems/nav.o
                                                  /home/excelobs/paparazzi/var/KMUAV_XB_AS_IMU/ap/firmwares/fixedwing/main_ap.o
nav_in_circle                                     /home/excelobs/paparazzi/var/KMUAV_XB_AS_IMU/ap/subsystems/nav.o
                                                  /home/excelobs/paparazzi/var/KMUAV_XB_AS_IMU/ap/subsystems/navigation/nav_survey_rectangle.o
                                                  /home/excelobs/paparazzi/var/KMUAV_XB_AS_IMU/ap/firmwares/fixedwing/main_ap.o
nav_in_segment                                    /home/excelobs/paparazzi/var/KMUAV_XB_AS_IMU/ap/subsystems/nav.o
                                                  /home/excelobs/paparazzi/var/KMUAV_XB_AS_IMU/ap/subsystems/navigation/nav_survey_rectangle.o
                                                  /home/excelobs/paparazzi/var/KMUAV_XB_AS_IMU/ap/firmwares/fixedwing/main_ap.o
nav_init                                          /home/excelobs/paparazzi/var/KMUAV_XB_AS_IMU/ap/subsystems/nav.o
                                                  /home/excelobs/paparazzi/var/KMUAV_XB_AS_IMU/ap/firmwares/fixedwing/main_ap.o
nav_init_block                                    /home/excelobs/paparazzi/var/KMUAV_XB_AS_IMU/ap/subsystems/nav.o
nav_init_stage                                    /home/excelobs/paparazzi/var/KMUAV_XB_AS_IMU/ap/subsystems/nav.o
                                                  /home/excelobs/paparazzi/var/KMUAV_XB_AS_IMU/ap/subsystems/navigation/nav_line.o
nav_line                                          /home/excelobs/paparazzi/var/KMUAV_XB_AS_IMU/ap/subsystems/navigation/nav_line.o
                                                  /home/excelobs/paparazzi/var/KMUAV_XB_AS_IMU/ap/subsystems/nav.o
nav_line_init                                     /home/excelobs/paparazzi/var/KMUAV_XB_AS_IMU/ap/subsystems/navigation/nav_line.o
                                                  /home/excelobs/paparazzi/var/KMUAV_XB_AS_IMU/ap/subsystems/nav.o
nav_mode                                          /home/excelobs/paparazzi/var/KMUAV_XB_AS_IMU/ap/subsystems/nav.o
                                                  /home/excelobs/paparazzi/var/KMUAV_XB_AS_IMU/ap/firmwares/fixedwing/datalink.o
                                                  /home/excelobs/paparazzi/var/KMUAV_XB_AS_IMU/ap/firmwares/fixedwing/main_ap.o
nav_move_waypoint                                 /home/excelobs/paparazzi/var/KMUAV_XB_AS_IMU/ap/subsystems/nav.o
                                                  /home/excelobs/paparazzi/var/KMUAV_XB_AS_IMU/ap/firmwares/fixedwing/datalink.o
nav_oval                                          /home/excelobs/paparazzi/var/KMUAV_XB_AS_IMU/ap/subsystems/nav.o
nav_oval_count                                    /home/excelobs/paparazzi/var/KMUAV_XB_AS_IMU/ap/subsystems/nav.o
                                                  /home/excelobs/paparazzi/var/KMUAV_XB_AS_IMU/ap/firmwares/fixedwing/datalink.o
                                                  /home/excelobs/paparazzi/var/KMUAV_XB_AS_IMU/ap/firmwares/fixedwing/main_ap.o
nav_oval_init                                     /home/excelobs/paparazzi/var/KMUAV_XB_AS_IMU/ap/subsystems/nav.o
nav_periodic_task                                 /home/excelobs/paparazzi/var/KMUAV_XB_AS_IMU/ap/subsystems/nav.o
                                                  /home/excelobs/paparazzi/var/KMUAV_XB_AS_IMU/ap/firmwares/fixedwing/main_ap.o
nav_pitch                                         /home/excelobs/paparazzi/var/KMUAV_XB_AS_IMU/ap/subsystems/nav.o
                                                  /home/excelobs/paparazzi/var/KMUAV_XB_AS_IMU/ap/subsystems/navigation/nav_line.o
                                                  /home/excelobs/paparazzi/var/KMUAV_XB_AS_IMU/ap/subsystems/navigation/nav_survey_rectangle.o
                                                  /home/excelobs/paparazzi/var/KMUAV_XB_AS_IMU/ap/firmwares/fixedwing/guidance/guidance_v.o
                                                  /home/excelobs/paparazzi/var/KMUAV_XB_AS_IMU/ap/firmwares/fixedwing/main_ap.o
nav_radius                                        /home/excelobs/paparazzi/var/KMUAV_XB_AS_IMU/ap/subsystems/nav.o
                                                  /home/excelobs/paparazzi/var/KMUAV_XB_AS_IMU/ap/firmwares/fixedwing/datalink.o
                                                  /home/excelobs/paparazzi/var/KMUAV_XB_AS_IMU/ap/firmwares/fixedwing/main_ap.o
nav_reset_reference                               /home/excelobs/paparazzi/var/KMUAV_XB_AS_IMU/ap/subsystems/nav.o
nav_route_xy                                      /home/excelobs/paparazzi/var/KMUAV_XB_AS_IMU/ap/subsystems/nav.o
                                                  /home/excelobs/paparazzi/var/KMUAV_XB_AS_IMU/ap/subsystems/navigation/nav_line.o
                                                  /home/excelobs/paparazzi/var/KMUAV_XB_AS_IMU/ap/subsystems/navigation/nav_survey_rectangle.o
nav_segment_x_1                                   /home/excelobs/paparazzi/var/KMUAV_XB_AS_IMU/ap/subsystems/nav.o
                                                  /home/excelobs/paparazzi/var/KMUAV_XB_AS_IMU/ap/firmwares/fixedwing/main_ap.o
nav_segment_x_2                                   /home/excelobs/paparazzi/var/KMUAV_XB_AS_IMU/ap/subsystems/nav.o
                                                  /home/excelobs/paparazzi/var/KMUAV_XB_AS_IMU/ap/firmwares/fixedwing/main_ap.o
nav_segment_y_1                                   /home/excelobs/paparazzi/var/KMUAV_XB_AS_IMU/ap/subsystems/nav.o
                                                  /home/excelobs/paparazzi/var/KMUAV_XB_AS_IMU/ap/firmwares/fixedwing/main_ap.o
nav_segment_y_2                                   /home/excelobs/paparazzi/var/KMUAV_XB_AS_IMU/ap/subsystems/nav.o
                                                  /home/excelobs/paparazzi/var/KMUAV_XB_AS_IMU/ap/firmwares/fixedwing/main_ap.o
nav_shift                                         /home/excelobs/paparazzi/var/KMUAV_XB_AS_IMU/ap/subsystems/nav.o
                                                  /home/excelobs/paparazzi/var/KMUAV_XB_AS_IMU/ap/firmwares/fixedwing/datalink.o
                                                  /home/excelobs/paparazzi/var/KMUAV_XB_AS_IMU/ap/firmwares/fixedwing/main_ap.o
nav_stage                                         /home/excelobs/paparazzi/var/KMUAV_XB_AS_IMU/ap/subsystems/nav.o
                                                  /home/excelobs/paparazzi/var/KMUAV_XB_AS_IMU/ap/firmwares/fixedwing/datalink.o
                                                  /home/excelobs/paparazzi/var/KMUAV_XB_AS_IMU/ap/firmwares/fixedwing/main_ap.o
nav_survey_active                                 /home/excelobs/paparazzi/var/KMUAV_XB_AS_IMU/ap/subsystems/nav.o
                                                  /home/excelobs/paparazzi/var/KMUAV_XB_AS_IMU/ap/subsystems/navigation/nav_survey_rectangle.o
                                                  /home/excelobs/paparazzi/var/KMUAV_XB_AS_IMU/ap/firmwares/fixedwing/main_ap.o
nav_survey_east                                   /home/excelobs/paparazzi/var/KMUAV_XB_AS_IMU/ap/subsystems/nav.o
                                                  /home/excelobs/paparazzi/var/KMUAV_XB_AS_IMU/ap/subsystems/navigation/nav_survey_rectangle.o
                                                  /home/excelobs/paparazzi/var/KMUAV_XB_AS_IMU/ap/firmwares/fixedwing/main_ap.o
nav_survey_north                                  /home/excelobs/paparazzi/var/KMUAV_XB_AS_IMU/ap/subsystems/nav.o
                                                  /home/excelobs/paparazzi/var/KMUAV_XB_AS_IMU/ap/subsystems/navigation/nav_survey_rectangle.o
                                                  /home/excelobs/paparazzi/var/KMUAV_XB_AS_IMU/ap/firmwares/fixedwing/main_ap.o
nav_survey_rectangle                              /home/excelobs/paparazzi/var/KMUAV_XB_AS_IMU/ap/subsystems/navigation/nav_survey_rectangle.o
                                                  /home/excelobs/paparazzi/var/KMUAV_XB_AS_IMU/ap/subsystems/nav.o
nav_survey_rectangle_init                         /home/excelobs/paparazzi/var/KMUAV_XB_AS_IMU/ap/subsystems/navigation/nav_survey_rectangle.o
                                                  /home/excelobs/paparazzi/var/KMUAV_XB_AS_IMU/ap/subsystems/nav.o
nav_survey_shift                                  /home/excelobs/paparazzi/var/KMUAV_XB_AS_IMU/ap/subsystems/nav.o
                                                  /home/excelobs/paparazzi/var/KMUAV_XB_AS_IMU/ap/subsystems/navigation/nav_survey_rectangle.o
                                                  /home/excelobs/paparazzi/var/KMUAV_XB_AS_IMU/ap/firmwares/fixedwing/datalink.o
                                                  /home/excelobs/paparazzi/var/KMUAV_XB_AS_IMU/ap/firmwares/fixedwing/main_ap.o
nav_survey_south                                  /home/excelobs/paparazzi/var/KMUAV_XB_AS_IMU/ap/subsystems/nav.o
                                                  /home/excelobs/paparazzi/var/KMUAV_XB_AS_IMU/ap/subsystems/navigation/nav_survey_rectangle.o
                                                  /home/excelobs/paparazzi/var/KMUAV_XB_AS_IMU/ap/firmwares/fixedwing/main_ap.o
nav_survey_west                                   /home/excelobs/paparazzi/var/KMUAV_XB_AS_IMU/ap/subsystems/nav.o
                                                  /home/excelobs/paparazzi/var/KMUAV_XB_AS_IMU/ap/subsystems/navigation/nav_survey_rectangle.o
                                                  /home/excelobs/paparazzi/var/KMUAV_XB_AS_IMU/ap/firmwares/fixedwing/main_ap.o
nav_throttle_setpoint                             /home/excelobs/paparazzi/var/KMUAV_XB_AS_IMU/ap/subsystems/nav.o
                                                  /home/excelobs/paparazzi/var/KMUAV_XB_AS_IMU/ap/firmwares/fixedwing/guidance/guidance_v.o
                                                  /home/excelobs/paparazzi/var/KMUAV_XB_AS_IMU/ap/firmwares/fixedwing/main_ap.o
nav_update_waypoints_alt                          /home/excelobs/paparazzi/var/KMUAV_XB_AS_IMU/ap/subsystems/nav.o
nav_utm_east0                                     /home/excelobs/paparazzi/var/KMUAV_XB_AS_IMU/ap/subsystems/nav.o
                                                  /home/excelobs/paparazzi/var/KMUAV_XB_AS_IMU/ap/firmwares/fixedwing/datalink.o
                                                  /home/excelobs/paparazzi/var/KMUAV_XB_AS_IMU/ap/./estimator.o
                                                  /home/excelobs/paparazzi/var/KMUAV_XB_AS_IMU/ap/firmwares/fixedwing/main_ap.o
nav_utm_north0                                    /home/excelobs/paparazzi/var/KMUAV_XB_AS_IMU/ap/subsystems/nav.o
                                                  /home/excelobs/paparazzi/var/KMUAV_XB_AS_IMU/ap/firmwares/fixedwing/datalink.o
                                                  /home/excelobs/paparazzi/var/KMUAV_XB_AS_IMU/ap/./estimator.o
                                                  /home/excelobs/paparazzi/var/KMUAV_XB_AS_IMU/ap/firmwares/fixedwing/main_ap.o
nav_utm_zone0                                     /home/excelobs/paparazzi/var/KMUAV_XB_AS_IMU/ap/subsystems/nav.o
                                                  /home/excelobs/paparazzi/var/KMUAV_XB_AS_IMU/ap/./gps_ubx.o
                                                  /home/excelobs/paparazzi/var/KMUAV_XB_AS_IMU/ap/firmwares/fixedwing/datalink.o
                                                  /home/excelobs/paparazzi/var/KMUAV_XB_AS_IMU/ap/firmwares/fixedwing/main_ap.o
nav_without_gps                                   /home/excelobs/paparazzi/var/KMUAV_XB_AS_IMU/ap/subsystems/nav.o
                                                  /home/excelobs/paparazzi/var/KMUAV_XB_AS_IMU/ap/firmwares/fixedwing/main_ap.o
nb_waypoint                                       /home/excelobs/paparazzi/var/KMUAV_XB_AS_IMU/ap/subsystems/nav.o
                                                  /home/excelobs/paparazzi/var/KMUAV_XB_AS_IMU/ap/firmwares/fixedwing/main_ap.o
oval_status                                       /home/excelobs/paparazzi/var/KMUAV_XB_AS_IMU/ap/subsystems/nav.o
parse_gps_msg                                     /home/excelobs/paparazzi/var/KMUAV_XB_AS_IMU/ap/./gps_ubx.o
                                                  /home/excelobs/paparazzi/var/KMUAV_XB_AS_IMU/ap/firmwares/fixedwing/main_ap.o
parse_ubx                                         /home/excelobs/paparazzi/var/KMUAV_XB_AS_IMU/ap/./gps_ubx.o
                                                  /home/excelobs/paparazzi/var/KMUAV_XB_AS_IMU/ap/firmwares/fixedwing/main_ap.o
periodic_task_ap                                  /home/excelobs/paparazzi/var/KMUAV_XB_AS_IMU/ap/firmwares/fixedwing/main_ap.o
                                                  /home/excelobs/paparazzi/var/KMUAV_XB_AS_IMU/ap/firmwares/fixedwing/main.o
periodic_task_fbw                                 /home/excelobs/paparazzi/var/KMUAV_XB_AS_IMU/ap/firmwares/fixedwing/main_fbw.o
                                                  /home/excelobs/paparazzi/var/KMUAV_XB_AS_IMU/ap/firmwares/fixedwing/main.o
pers_settings                                     /home/excelobs/paparazzi/var/KMUAV_XB_AS_IMU/ap/subsystems/settings.o
persistent_read                                   /home/excelobs/paparazzi/var/KMUAV_XB_AS_IMU/ap/arch/lpc21/subsystems/settings_arch.o
persistent_write                                  /home/excelobs/paparazzi/var/KMUAV_XB_AS_IMU/ap/arch/lpc21/subsystems/settings_arch.o
                                                  /home/excelobs/paparazzi/var/KMUAV_XB_AS_IMU/ap/subsystems/settings.o
pow                                               /usr/lib/gcc/arm-elf/3.4.4/../../../../arm-elf/lib/thumb/interwork/libm.a(w_pow.o)
                                                  /home/excelobs/paparazzi/var/KMUAV_XB_AS_IMU/ap/./latlong.o
                                                  /home/excelobs/paparazzi/var/KMUAV_XB_AS_IMU/ap/subsystems/electrical.o
power_switch                                      /home/excelobs/paparazzi/var/KMUAV_XB_AS_IMU/ap/firmwares/fixedwing/main_ap.o
ppm_arch_init                                     /home/excelobs/paparazzi/var/KMUAV_XB_AS_IMU/ap/arch/lpc21/subsystems/radio_control/ppm_arch.o
                                                  /home/excelobs/paparazzi/var/KMUAV_XB_AS_IMU/ap/subsystems/radio_control/ppm.o
ppm_cur_pulse                                     /home/excelobs/paparazzi/var/KMUAV_XB_AS_IMU/ap/arch/lpc21/subsystems/radio_control/ppm_arch.o
                                                  /home/excelobs/paparazzi/var/KMUAV_XB_AS_IMU/ap/arch/lpc21/sys_time_hw.o
ppm_data_valid                                    /home/excelobs/paparazzi/var/KMUAV_XB_AS_IMU/ap/arch/lpc21/subsystems/radio_control/ppm_arch.o
                                                  /home/excelobs/paparazzi/var/KMUAV_XB_AS_IMU/ap/arch/lpc21/sys_time_hw.o
ppm_frame_available                               /home/excelobs/paparazzi/var/KMUAV_XB_AS_IMU/ap/subsystems/radio_control/ppm.o
                                                  /home/excelobs/paparazzi/var/KMUAV_XB_AS_IMU/ap/arch/lpc21/subsystems/radio_control/ppm_arch.o
                                                  /home/excelobs/paparazzi/var/KMUAV_XB_AS_IMU/ap/arch/lpc21/sys_time_hw.o
                                                  /home/excelobs/paparazzi/var/KMUAV_XB_AS_IMU/ap/firmwares/fixedwing/main_fbw.o
ppm_last_pulse_time                               /home/excelobs/paparazzi/var/KMUAV_XB_AS_IMU/ap/arch/lpc21/subsystems/radio_control/ppm_arch.o
                                                  /home/excelobs/paparazzi/var/KMUAV_XB_AS_IMU/ap/arch/lpc21/sys_time_hw.o
ppm_pulses                                        /home/excelobs/paparazzi/var/KMUAV_XB_AS_IMU/ap/subsystems/radio_control/ppm.o
                                                  /home/excelobs/paparazzi/var/KMUAV_XB_AS_IMU/ap/arch/lpc21/sys_time_hw.o
                                                  /home/excelobs/paparazzi/var/KMUAV_XB_AS_IMU/ap/firmwares/fixedwing/main_fbw.o
pprz_error                                        /home/excelobs/paparazzi/var/KMUAV_XB_AS_IMU/ap/./pprz_transport.o
                                                  /home/excelobs/paparazzi/var/KMUAV_XB_AS_IMU/ap/firmwares/fixedwing/main_ap.o
pprz_mode                                         /home/excelobs/paparazzi/var/KMUAV_XB_AS_IMU/ap/firmwares/fixedwing/main_ap.o
                                                  /home/excelobs/paparazzi/var/KMUAV_XB_AS_IMU/ap/firmwares/fixedwing/datalink.o
pprz_msg_received                                 /home/excelobs/paparazzi/var/KMUAV_XB_AS_IMU/ap/./pprz_transport.o
                                                  /home/excelobs/paparazzi/var/KMUAV_XB_AS_IMU/ap/firmwares/fixedwing/main_ap.o
pprz_ovrn                                         /home/excelobs/paparazzi/var/KMUAV_XB_AS_IMU/ap/./pprz_transport.o
                                                  /home/excelobs/paparazzi/var/KMUAV_XB_AS_IMU/ap/firmwares/fixedwing/main_ap.o
pprz_payload                                      /home/excelobs/paparazzi/var/KMUAV_XB_AS_IMU/ap/./pprz_transport.o
                                                  /home/excelobs/paparazzi/var/KMUAV_XB_AS_IMU/ap/firmwares/fixedwing/main_ap.o
pprz_payload_len                                  /home/excelobs/paparazzi/var/KMUAV_XB_AS_IMU/ap/./pprz_transport.o
                                                  /home/excelobs/paparazzi/var/KMUAV_XB_AS_IMU/ap/firmwares/fixedwing/main_ap.o
radio_control                                     /home/excelobs/paparazzi/var/KMUAV_XB_AS_IMU/ap/subsystems/radio_control.o
                                                  /home/excelobs/paparazzi/var/KMUAV_XB_AS_IMU/ap/firmwares/fixedwing/main_fbw.o
radio_control_impl_init                           /home/excelobs/paparazzi/var/KMUAV_XB_AS_IMU/ap/subsystems/radio_control/ppm.o
                                                  /home/excelobs/paparazzi/var/KMUAV_XB_AS_IMU/ap/firmwares/fixedwing/main_fbw.o
rc_pitch                                          /home/excelobs/paparazzi/var/KMUAV_XB_AS_IMU/ap/subsystems/nav.o
rc_settings_mode                                  /home/excelobs/paparazzi/var/KMUAV_XB_AS_IMU/ap/firmwares/fixedwing/main_ap.o
reset                                             /home/excelobs/paparazzi/var/KMUAV_XB_AS_IMU/ap/crt0.o
                                                  /home/excelobs/paparazzi/var/KMUAV_XB_AS_IMU/ap/arch/lpc21/mcu_arch.o
restoreFIQ                                        /home/excelobs/paparazzi/var/KMUAV_XB_AS_IMU/ap/arch/lpc21/armVIC.o
restoreIRQ                                        /home/excelobs/paparazzi/var/KMUAV_XB_AS_IMU/ap/arch/lpc21/armVIC.o
                                                  /home/excelobs/paparazzi/var/KMUAV_XB_AS_IMU/ap/arch/lpc21/mcu_periph/uart_arch.o
rint                                              /usr/lib/gcc/arm-elf/3.4.4/../../../../arm-elf/lib/thumb/interwork/libm.a(s_rint.o)
                                                  /usr/lib/gcc/arm-elf/3.4.4/../../../../arm-elf/lib/thumb/interwork/libm.a(w_pow.o)
scalbn                                            /usr/lib/gcc/arm-elf/3.4.4/../../../../arm-elf/lib/thumb/interwork/libm.a(s_scalbn.o)
                                                  /usr/lib/gcc/arm-elf/3.4.4/../../../../arm-elf/lib/thumb/interwork/libm.a(k_rem_pio2.o)
                                                  /usr/lib/gcc/arm-elf/3.4.4/../../../../arm-elf/lib/thumb/interwork/libm.a(e_pow.o)
scalbnf                                           /usr/lib/gcc/arm-elf/3.4.4/../../../../arm-elf/lib/thumb/interwork/libm.a(sf_scalbn.o)
                                                  /usr/lib/gcc/arm-elf/3.4.4/../../../../arm-elf/lib/thumb/interwork/libm.a(kf_rem_pio2.o)
send_ck_a                                         /home/excelobs/paparazzi/var/KMUAV_XB_AS_IMU/ap/./gps_ubx.o
send_ck_b                                         /home/excelobs/paparazzi/var/KMUAV_XB_AS_IMU/ap/./gps_ubx.o
servos_4017_idx                                   /home/excelobs/paparazzi/var/KMUAV_XB_AS_IMU/ap/arch/lpc21/servos_4017_hw.o
                                                  /home/excelobs/paparazzi/var/KMUAV_XB_AS_IMU/ap/arch/lpc21/sys_time_hw.o
servos_values                                     /home/excelobs/paparazzi/var/KMUAV_XB_AS_IMU/ap/arch/lpc21/servos_4017_hw.o
                                                  /home/excelobs/paparazzi/var/KMUAV_XB_AS_IMU/ap/arch/lpc21/sys_time_hw.o
                                                  /home/excelobs/paparazzi/var/KMUAV_XB_AS_IMU/ap/firmwares/fixedwing/main_fbw.o
settings_init                                     /home/excelobs/paparazzi/var/KMUAV_XB_AS_IMU/ap/subsystems/settings.o
                                                  /home/excelobs/paparazzi/var/KMUAV_XB_AS_IMU/ap/firmwares/fixedwing/main_ap.o
settings_store                                    /home/excelobs/paparazzi/var/KMUAV_XB_AS_IMU/ap/subsystems/settings.o
settings_store_now                                /home/excelobs/paparazzi/var/KMUAV_XB_AS_IMU/ap/subsystems/settings.o
sin                                               /usr/lib/gcc/arm-elf/3.4.4/../../../../arm-elf/lib/thumb/interwork/libm.a(s_sin.o)
                                                  /home/excelobs/paparazzi/var/KMUAV_XB_AS_IMU/ap/subsystems/nav.o
                                                  /home/excelobs/paparazzi/var/KMUAV_XB_AS_IMU/ap/./latlong.o
sinf                                              /usr/lib/gcc/arm-elf/3.4.4/../../../../arm-elf/lib/thumb/interwork/libm.a(sf_sin.o)
                                                  /home/excelobs/paparazzi/var/KMUAV_XB_AS_IMU/ap/./estimator.o
sinh                                              /usr/lib/gcc/arm-elf/3.4.4/../../../../arm-elf/lib/thumb/interwork/libm.a(w_sinh.o)
                                                  /home/excelobs/paparazzi/var/KMUAV_XB_AS_IMU/ap/./latlong.o
slider_1_val                                      /home/excelobs/paparazzi/var/KMUAV_XB_AS_IMU/ap/firmwares/fixedwing/main_ap.o
slider_2_val                                      /home/excelobs/paparazzi/var/KMUAV_XB_AS_IMU/ap/firmwares/fixedwing/main_ap.o
sqrt                                              /usr/lib/gcc/arm-elf/3.4.4/../../../../arm-elf/lib/thumb/interwork/libm.a(w_sqrt.o)
                                                  /home/excelobs/paparazzi/var/KMUAV_XB_AS_IMU/ap/subsystems/navigation/nav_line.o
                                                  /home/excelobs/paparazzi/var/KMUAV_XB_AS_IMU/ap/subsystems/nav.o
sqrtf                                             /usr/lib/gcc/arm-elf/3.4.4/../../../../arm-elf/lib/thumb/interwork/libm.a(wf_sqrt.o)
                                                  /home/excelobs/paparazzi/var/KMUAV_XB_AS_IMU/ap/modules/sensors/airspeed_ets.o
stage_time                                        /home/excelobs/paparazzi/var/KMUAV_XB_AS_IMU/ap/subsystems/nav.o
                                                  /home/excelobs/paparazzi/var/KMUAV_XB_AS_IMU/ap/firmwares/fixedwing/datalink.o
                                                  /home/excelobs/paparazzi/var/KMUAV_XB_AS_IMU/ap/firmwares/fixedwing/main_ap.o
start                                             /home/excelobs/paparazzi/var/KMUAV_XB_AS_IMU/ap/crt0.o
sys_time_chrono                                   /home/excelobs/paparazzi/var/KMUAV_XB_AS_IMU/ap/arch/lpc21/sys_time_hw.o
sys_time_chrono_start                             /home/excelobs/paparazzi/var/KMUAV_XB_AS_IMU/ap/arch/lpc21/sys_time_hw.o
tan                                               /usr/lib/gcc/arm-elf/3.4.4/../../../../arm-elf/lib/thumb/interwork/libm.a(s_tan.o)
                                                  /home/excelobs/paparazzi/var/KMUAV_XB_AS_IMU/ap/./latlong.o
telemetry_mode_Ap_DefaultChannel                  /home/excelobs/paparazzi/var/KMUAV_XB_AS_IMU/ap/./downlink.o
                                                  /home/excelobs/paparazzi/var/KMUAV_XB_AS_IMU/ap/firmwares/fixedwing/datalink.o
                                                  /home/excelobs/paparazzi/var/KMUAV_XB_AS_IMU/ap/firmwares/fixedwing/main_ap.o
telemetry_mode_Fbw_DefaultChannel                 /home/excelobs/paparazzi/var/KMUAV_XB_AS_IMU/ap/./downlink.o
                                                  /home/excelobs/paparazzi/var/KMUAV_XB_AS_IMU/ap/firmwares/fixedwing/datalink.o
                                                  /home/excelobs/paparazzi/var/KMUAV_XB_AS_IMU/ap/firmwares/fixedwing/main_ap.o
                                                  /home/excelobs/paparazzi/var/KMUAV_XB_AS_IMU/ap/firmwares/fixedwing/main_fbw.o
the_acs                                           /home/excelobs/paparazzi/var/KMUAV_XB_AS_IMU/ap/subsystems/navigation/traffic_info.o
                                                  /home/excelobs/paparazzi/var/KMUAV_XB_AS_IMU/ap/firmwares/fixedwing/datalink.o
the_acs_id                                        /home/excelobs/paparazzi/var/KMUAV_XB_AS_IMU/ap/subsystems/navigation/traffic_info.o
                                                  /home/excelobs/paparazzi/var/KMUAV_XB_AS_IMU/ap/firmwares/fixedwing/datalink.o
time_since_last_ap                                /home/excelobs/paparazzi/var/KMUAV_XB_AS_IMU/ap/./inter_mcu.o
                                                  /home/excelobs/paparazzi/var/KMUAV_XB_AS_IMU/ap/firmwares/fixedwing/main_fbw.o
too_far_from_home                                 /home/excelobs/paparazzi/var/KMUAV_XB_AS_IMU/ap/subsystems/nav.o
                                                  /home/excelobs/paparazzi/var/KMUAV_XB_AS_IMU/ap/firmwares/fixedwing/main_ap.o
traffic_info_init                                 /home/excelobs/paparazzi/var/KMUAV_XB_AS_IMU/ap/subsystems/navigation/traffic_info.o
                                                  /home/excelobs/paparazzi/var/KMUAV_XB_AS_IMU/ap/firmwares/fixedwing/main_ap.o
uart0_ISR                                         /home/excelobs/paparazzi/var/KMUAV_XB_AS_IMU/ap/arch/lpc21/mcu_periph/uart_arch.o
uart0_check_free_space                            /home/excelobs/paparazzi/var/KMUAV_XB_AS_IMU/ap/arch/lpc21/mcu_periph/uart_arch.o
uart0_init                                        /home/excelobs/paparazzi/var/KMUAV_XB_AS_IMU/ap/arch/lpc21/mcu_periph/uart_arch.o
                                                  /home/excelobs/paparazzi/var/KMUAV_XB_AS_IMU/ap/mcu.o
uart0_init_param                                  /home/excelobs/paparazzi/var/KMUAV_XB_AS_IMU/ap/arch/lpc21/mcu_periph/uart_arch.o
uart0_rx_buffer                                   /home/excelobs/paparazzi/var/KMUAV_XB_AS_IMU/ap/arch/lpc21/mcu_periph/uart_arch.o
                                                  /home/excelobs/paparazzi/var/KMUAV_XB_AS_IMU/ap/firmwares/fixedwing/main_ap.o
uart0_rx_extract_idx                              /home/excelobs/paparazzi/var/KMUAV_XB_AS_IMU/ap/arch/lpc21/mcu_periph/uart_arch.o
                                                  /home/excelobs/paparazzi/var/KMUAV_XB_AS_IMU/ap/firmwares/fixedwing/main_ap.o
uart0_rx_insert_idx                               /home/excelobs/paparazzi/var/KMUAV_XB_AS_IMU/ap/arch/lpc21/mcu_periph/uart_arch.o
                                                  /home/excelobs/paparazzi/var/KMUAV_XB_AS_IMU/ap/firmwares/fixedwing/main_ap.o
uart0_transmit                                    /home/excelobs/paparazzi/var/KMUAV_XB_AS_IMU/ap/arch/lpc21/mcu_periph/uart_arch.o
                                                  /home/excelobs/paparazzi/var/KMUAV_XB_AS_IMU/ap/./gps_ubx.o
uart0_tx_buffer                                   /home/excelobs/paparazzi/var/KMUAV_XB_AS_IMU/ap/arch/lpc21/mcu_periph/uart_arch.o
uart0_tx_extract_idx                              /home/excelobs/paparazzi/var/KMUAV_XB_AS_IMU/ap/arch/lpc21/mcu_periph/uart_arch.o
uart0_tx_insert_idx                               /home/excelobs/paparazzi/var/KMUAV_XB_AS_IMU/ap/arch/lpc21/mcu_periph/uart_arch.o
uart0_tx_running                                  /home/excelobs/paparazzi/var/KMUAV_XB_AS_IMU/ap/arch/lpc21/mcu_periph/uart_arch.o
uart1_ISR                                         /home/excelobs/paparazzi/var/KMUAV_XB_AS_IMU/ap/arch/lpc21/mcu_periph/uart_arch.o
uart1_check_free_space                            /home/excelobs/paparazzi/var/KMUAV_XB_AS_IMU/ap/arch/lpc21/mcu_periph/uart_arch.o
                                                  /home/excelobs/paparazzi/var/KMUAV_XB_AS_IMU/ap/modules/ins/ins_arduimu_basic.o
                                                  /home/excelobs/paparazzi/var/KMUAV_XB_AS_IMU/ap/./gps.o
                                                  /home/excelobs/paparazzi/var/KMUAV_XB_AS_IMU/ap/firmwares/fixedwing/datalink.o
                                                  /home/excelobs/paparazzi/var/KMUAV_XB_AS_IMU/ap/firmwares/fixedwing/main_ap.o
                                                  /home/excelobs/paparazzi/var/KMUAV_XB_AS_IMU/ap/firmwares/fixedwing/main_fbw.o
uart1_init                                        /home/excelobs/paparazzi/var/KMUAV_XB_AS_IMU/ap/arch/lpc21/mcu_periph/uart_arch.o
                                                  /home/excelobs/paparazzi/var/KMUAV_XB_AS_IMU/ap/mcu.o
uart1_init_param                                  /home/excelobs/paparazzi/var/KMUAV_XB_AS_IMU/ap/arch/lpc21/mcu_periph/uart_arch.o
uart1_rx_buffer                                   /home/excelobs/paparazzi/var/KMUAV_XB_AS_IMU/ap/arch/lpc21/mcu_periph/uart_arch.o
                                                  /home/excelobs/paparazzi/var/KMUAV_XB_AS_IMU/ap/firmwares/fixedwing/main_ap.o
uart1_rx_extract_idx                              /home/excelobs/paparazzi/var/KMUAV_XB_AS_IMU/ap/arch/lpc21/mcu_periph/uart_arch.o
                                                  /home/excelobs/paparazzi/var/KMUAV_XB_AS_IMU/ap/firmwares/fixedwing/main_ap.o
uart1_rx_insert_idx                               /home/excelobs/paparazzi/var/KMUAV_XB_AS_IMU/ap/arch/lpc21/mcu_periph/uart_arch.o
                                                  /home/excelobs/paparazzi/var/KMUAV_XB_AS_IMU/ap/firmwares/fixedwing/main_ap.o
uart1_transmit                                    /home/excelobs/paparazzi/var/KMUAV_XB_AS_IMU/ap/arch/lpc21/mcu_periph/uart_arch.o
                                                  /home/excelobs/paparazzi/var/KMUAV_XB_AS_IMU/ap/modules/ins/ins_arduimu_basic.o
                                                  /home/excelobs/paparazzi/var/KMUAV_XB_AS_IMU/ap/./gps.o
                                                  /home/excelobs/paparazzi/var/KMUAV_XB_AS_IMU/ap/firmwares/fixedwing/datalink.o
                                                  /home/excelobs/paparazzi/var/KMUAV_XB_AS_IMU/ap/firmwares/fixedwing/main_ap.o
                                                  /home/excelobs/paparazzi/var/KMUAV_XB_AS_IMU/ap/firmwares/fixedwing/main_fbw.o
uart1_tx_buffer                                   /home/excelobs/paparazzi/var/KMUAV_XB_AS_IMU/ap/arch/lpc21/mcu_periph/uart_arch.o
uart1_tx_extract_idx                              /home/excelobs/paparazzi/var/KMUAV_XB_AS_IMU/ap/arch/lpc21/mcu_periph/uart_arch.o
uart1_tx_insert_idx                               /home/excelobs/paparazzi/var/KMUAV_XB_AS_IMU/ap/arch/lpc21/mcu_periph/uart_arch.o
uart1_tx_running                                  /home/excelobs/paparazzi/var/KMUAV_XB_AS_IMU/ap/arch/lpc21/mcu_periph/uart_arch.o
ubx_class                                         /home/excelobs/paparazzi/var/KMUAV_XB_AS_IMU/ap/./gps_ubx.o
ubx_id                                            /home/excelobs/paparazzi/var/KMUAV_XB_AS_IMU/ap/./gps_ubx.o
ubx_len                                           /home/excelobs/paparazzi/var/KMUAV_XB_AS_IMU/ap/./gps_ubx.o
ubx_msg_buf                                       /home/excelobs/paparazzi/var/KMUAV_XB_AS_IMU/ap/./gps_ubx.o
ubxsend_cfg_rst                                   /home/excelobs/paparazzi/var/KMUAV_XB_AS_IMU/ap/./gps_ubx.o
v_ctl_altitude_error                              /home/excelobs/paparazzi/var/KMUAV_XB_AS_IMU/ap/firmwares/fixedwing/guidance/guidance_v.o
v_ctl_altitude_loop                               /home/excelobs/paparazzi/var/KMUAV_XB_AS_IMU/ap/firmwares/fixedwing/guidance/guidance_v.o
                                                  /home/excelobs/paparazzi/var/KMUAV_XB_AS_IMU/ap/firmwares/fixedwing/main_ap.o
v_ctl_altitude_pgain                              /home/excelobs/paparazzi/var/KMUAV_XB_AS_IMU/ap/firmwares/fixedwing/guidance/guidance_v.o
                                                  /home/excelobs/paparazzi/var/KMUAV_XB_AS_IMU/ap/firmwares/fixedwing/datalink.o
                                                  /home/excelobs/paparazzi/var/KMUAV_XB_AS_IMU/ap/firmwares/fixedwing/main_ap.o
v_ctl_altitude_pre_climb                          /home/excelobs/paparazzi/var/KMUAV_XB_AS_IMU/ap/firmwares/fixedwing/guidance/guidance_v.o
                                                  /home/excelobs/paparazzi/var/KMUAV_XB_AS_IMU/ap/subsystems/navigation/nav_line.o
                                                  /home/excelobs/paparazzi/var/KMUAV_XB_AS_IMU/ap/subsystems/navigation/nav_survey_rectangle.o
                                                  /home/excelobs/paparazzi/var/KMUAV_XB_AS_IMU/ap/subsystems/nav.o
v_ctl_altitude_setpoint                           /home/excelobs/paparazzi/var/KMUAV_XB_AS_IMU/ap/firmwares/fixedwing/guidance/guidance_v.o
                                                  /home/excelobs/paparazzi/var/KMUAV_XB_AS_IMU/ap/subsystems/nav.o
                                                  /home/excelobs/paparazzi/var/KMUAV_XB_AS_IMU/ap/firmwares/fixedwing/main_ap.o
v_ctl_auto_airspeed_controlled                    /home/excelobs/paparazzi/var/KMUAV_XB_AS_IMU/ap/firmwares/fixedwing/guidance/guidance_v.o
                                                  /home/excelobs/paparazzi/var/KMUAV_XB_AS_IMU/ap/firmwares/fixedwing/main_ap.o
v_ctl_auto_airspeed_igain                         /home/excelobs/paparazzi/var/KMUAV_XB_AS_IMU/ap/firmwares/fixedwing/guidance/guidance_v.o
v_ctl_auto_airspeed_pgain                         /home/excelobs/paparazzi/var/KMUAV_XB_AS_IMU/ap/firmwares/fixedwing/guidance/guidance_v.o
v_ctl_auto_airspeed_setpoint                      /home/excelobs/paparazzi/var/KMUAV_XB_AS_IMU/ap/firmwares/fixedwing/guidance/guidance_v.o
                                                  /home/excelobs/paparazzi/var/KMUAV_XB_AS_IMU/ap/firmwares/fixedwing/main_ap.o
v_ctl_auto_airspeed_sum_err                       /home/excelobs/paparazzi/var/KMUAV_XB_AS_IMU/ap/firmwares/fixedwing/guidance/guidance_v.o
v_ctl_auto_groundspeed_igain                      /home/excelobs/paparazzi/var/KMUAV_XB_AS_IMU/ap/firmwares/fixedwing/guidance/guidance_v.o
v_ctl_auto_groundspeed_pgain                      /home/excelobs/paparazzi/var/KMUAV_XB_AS_IMU/ap/firmwares/fixedwing/guidance/guidance_v.o
v_ctl_auto_groundspeed_setpoint                   /home/excelobs/paparazzi/var/KMUAV_XB_AS_IMU/ap/firmwares/fixedwing/guidance/guidance_v.o
                                                  /home/excelobs/paparazzi/var/KMUAV_XB_AS_IMU/ap/firmwares/fixedwing/main_ap.o
v_ctl_auto_groundspeed_sum_err                    /home/excelobs/paparazzi/var/KMUAV_XB_AS_IMU/ap/firmwares/fixedwing/guidance/guidance_v.o
v_ctl_auto_pitch_igain                            /home/excelobs/paparazzi/var/KMUAV_XB_AS_IMU/ap/firmwares/fixedwing/guidance/guidance_v.o
                                                  /home/excelobs/paparazzi/var/KMUAV_XB_AS_IMU/ap/firmwares/fixedwing/datalink.o
                                                  /home/excelobs/paparazzi/var/KMUAV_XB_AS_IMU/ap/firmwares/fixedwing/main_ap.o
v_ctl_auto_pitch_pgain                            /home/excelobs/paparazzi/var/KMUAV_XB_AS_IMU/ap/firmwares/fixedwing/guidance/guidance_v.o
                                                  /home/excelobs/paparazzi/var/KMUAV_XB_AS_IMU/ap/firmwares/fixedwing/datalink.o
                                                  /home/excelobs/paparazzi/var/KMUAV_XB_AS_IMU/ap/firmwares/fixedwing/main_ap.o
v_ctl_auto_pitch_sum_err                          /home/excelobs/paparazzi/var/KMUAV_XB_AS_IMU/ap/firmwares/fixedwing/guidance/guidance_v.o
v_ctl_auto_throttle_climb_throttle_increment      /home/excelobs/paparazzi/var/KMUAV_XB_AS_IMU/ap/firmwares/fixedwing/guidance/guidance_v.o
                                                  /home/excelobs/paparazzi/var/KMUAV_XB_AS_IMU/ap/firmwares/fixedwing/datalink.o
                                                  /home/excelobs/paparazzi/var/KMUAV_XB_AS_IMU/ap/firmwares/fixedwing/main_ap.o
v_ctl_auto_throttle_cruise_throttle               /home/excelobs/paparazzi/var/KMUAV_XB_AS_IMU/ap/firmwares/fixedwing/guidance/guidance_v.o
                                                  /home/excelobs/paparazzi/var/KMUAV_XB_AS_IMU/ap/firmwares/fixedwing/stabilization/stabilization_attitude.o
                                                  /home/excelobs/paparazzi/var/KMUAV_XB_AS_IMU/ap/firmwares/fixedwing/datalink.o
                                                  /home/excelobs/paparazzi/var/KMUAV_XB_AS_IMU/ap/firmwares/fixedwing/main_ap.o
v_ctl_auto_throttle_dash_trim                     /home/excelobs/paparazzi/var/KMUAV_XB_AS_IMU/ap/firmwares/fixedwing/stabilization/stabilization_attitude.o
v_ctl_auto_throttle_dgain                         /home/excelobs/paparazzi/var/KMUAV_XB_AS_IMU/ap/firmwares/fixedwing/guidance/guidance_v.o
                                                  /home/excelobs/paparazzi/var/KMUAV_XB_AS_IMU/ap/firmwares/fixedwing/datalink.o
                                                  /home/excelobs/paparazzi/var/KMUAV_XB_AS_IMU/ap/firmwares/fixedwing/main_ap.o
v_ctl_auto_throttle_igain                         /home/excelobs/paparazzi/var/KMUAV_XB_AS_IMU/ap/firmwares/fixedwing/guidance/guidance_v.o
                                                  /home/excelobs/paparazzi/var/KMUAV_XB_AS_IMU/ap/firmwares/fixedwing/datalink.o
                                                  /home/excelobs/paparazzi/var/KMUAV_XB_AS_IMU/ap/firmwares/fixedwing/main_ap.o
v_ctl_auto_throttle_loiter_trim                   /home/excelobs/paparazzi/var/KMUAV_XB_AS_IMU/ap/firmwares/fixedwing/stabilization/stabilization_attitude.o
v_ctl_auto_throttle_nominal_cruise_throttle       /home/excelobs/paparazzi/var/KMUAV_XB_AS_IMU/ap/firmwares/fixedwing/guidance/guidance_v.o
                                                  /home/excelobs/paparazzi/var/KMUAV_XB_AS_IMU/ap/firmwares/fixedwing/stabilization/stabilization_attitude.o
                                                  /home/excelobs/paparazzi/var/KMUAV_XB_AS_IMU/ap/firmwares/fixedwing/datalink.o
v_ctl_auto_throttle_pgain                         /home/excelobs/paparazzi/var/KMUAV_XB_AS_IMU/ap/firmwares/fixedwing/guidance/guidance_v.o
                                                  /home/excelobs/paparazzi/var/KMUAV_XB_AS_IMU/ap/firmwares/fixedwing/datalink.o
                                                  /home/excelobs/paparazzi/var/KMUAV_XB_AS_IMU/ap/firmwares/fixedwing/main_ap.o
v_ctl_auto_throttle_pitch_of_vz_dgain             /home/excelobs/paparazzi/var/KMUAV_XB_AS_IMU/ap/firmwares/fixedwing/guidance/guidance_v.o
                                                  /home/excelobs/paparazzi/var/KMUAV_XB_AS_IMU/ap/firmwares/fixedwing/datalink.o
                                                  /home/excelobs/paparazzi/var/KMUAV_XB_AS_IMU/ap/firmwares/fixedwing/main_ap.o
v_ctl_auto_throttle_pitch_of_vz_pgain             /home/excelobs/paparazzi/var/KMUAV_XB_AS_IMU/ap/firmwares/fixedwing/guidance/guidance_v.o
                                                  /home/excelobs/paparazzi/var/KMUAV_XB_AS_IMU/ap/firmwares/fixedwing/datalink.o
                                                  /home/excelobs/paparazzi/var/KMUAV_XB_AS_IMU/ap/firmwares/fixedwing/main_ap.o
v_ctl_auto_throttle_submode                       /home/excelobs/paparazzi/var/KMUAV_XB_AS_IMU/ap/firmwares/fixedwing/guidance/guidance_v.o
                                                  /home/excelobs/paparazzi/var/KMUAV_XB_AS_IMU/ap/subsystems/nav.o
                                                  /home/excelobs/paparazzi/var/KMUAV_XB_AS_IMU/ap/firmwares/fixedwing/main_ap.o
v_ctl_auto_throttle_sum_err                       /home/excelobs/paparazzi/var/KMUAV_XB_AS_IMU/ap/firmwares/fixedwing/guidance/guidance_v.o
                                                  /home/excelobs/paparazzi/var/KMUAV_XB_AS_IMU/ap/firmwares/fixedwing/main_ap.o
v_ctl_climb_loop                                  /home/excelobs/paparazzi/var/KMUAV_XB_AS_IMU/ap/firmwares/fixedwing/guidance/guidance_v.o
                                                  /home/excelobs/paparazzi/var/KMUAV_XB_AS_IMU/ap/firmwares/fixedwing/main_ap.o
v_ctl_climb_mode                                  /home/excelobs/paparazzi/var/KMUAV_XB_AS_IMU/ap/firmwares/fixedwing/guidance/guidance_v.o
                                                  /home/excelobs/paparazzi/var/KMUAV_XB_AS_IMU/ap/subsystems/navigation/nav_line.o
                                                  /home/excelobs/paparazzi/var/KMUAV_XB_AS_IMU/ap/subsystems/navigation/nav_survey_rectangle.o
                                                  /home/excelobs/paparazzi/var/KMUAV_XB_AS_IMU/ap/subsystems/nav.o
v_ctl_climb_setpoint                              /home/excelobs/paparazzi/var/KMUAV_XB_AS_IMU/ap/firmwares/fixedwing/guidance/guidance_v.o
                                                  /home/excelobs/paparazzi/var/KMUAV_XB_AS_IMU/ap/firmwares/fixedwing/main_ap.o
v_ctl_init                                        /home/excelobs/paparazzi/var/KMUAV_XB_AS_IMU/ap/firmwares/fixedwing/guidance/guidance_v.o
                                                  /home/excelobs/paparazzi/var/KMUAV_XB_AS_IMU/ap/firmwares/fixedwing/main_ap.o
v_ctl_mode                                        /home/excelobs/paparazzi/var/KMUAV_XB_AS_IMU/ap/firmwares/fixedwing/guidance/guidance_v.o
                                                  /home/excelobs/paparazzi/var/KMUAV_XB_AS_IMU/ap/subsystems/navigation/nav_line.o
                                                  /home/excelobs/paparazzi/var/KMUAV_XB_AS_IMU/ap/subsystems/navigation/nav_survey_rectangle.o
                                                  /home/excelobs/paparazzi/var/KMUAV_XB_AS_IMU/ap/subsystems/nav.o
                                                  /home/excelobs/paparazzi/var/KMUAV_XB_AS_IMU/ap/firmwares/fixedwing/main_ap.o
v_ctl_throttle_setpoint                           /home/excelobs/paparazzi/var/KMUAV_XB_AS_IMU/ap/firmwares/fixedwing/guidance/guidance_v.o
                                                  /home/excelobs/paparazzi/var/KMUAV_XB_AS_IMU/ap/firmwares/fixedwing/stabilization/stabilization_attitude.o
                                                  /home/excelobs/paparazzi/var/KMUAV_XB_AS_IMU/ap/firmwares/fixedwing/main_ap.o
v_ctl_throttle_slew                               /home/excelobs/paparazzi/var/KMUAV_XB_AS_IMU/ap/firmwares/fixedwing/guidance/guidance_v.o
                                                  /home/excelobs/paparazzi/var/KMUAV_XB_AS_IMU/ap/firmwares/fixedwing/main_ap.o
v_ctl_throttle_slewed                             /home/excelobs/paparazzi/var/KMUAV_XB_AS_IMU/ap/firmwares/fixedwing/guidance/guidance_v.o
                                                  /home/excelobs/paparazzi/var/KMUAV_XB_AS_IMU/ap/firmwares/fixedwing/main_ap.o
vsupply                                           /home/excelobs/paparazzi/var/KMUAV_XB_AS_IMU/ap/firmwares/fixedwing/main_ap.o
                                                  /home/excelobs/paparazzi/var/KMUAV_XB_AS_IMU/ap/subsystems/nav.o
waypoints                                         /home/excelobs/paparazzi/var/KMUAV_XB_AS_IMU/ap/subsystems/nav.o
                                                  /home/excelobs/paparazzi/var/KMUAV_XB_AS_IMU/ap/subsystems/navigation/nav_line.o
                                                  /home/excelobs/paparazzi/var/KMUAV_XB_AS_IMU/ap/subsystems/navigation/nav_survey_rectangle.o
                                                  /home/excelobs/paparazzi/var/KMUAV_XB_AS_IMU/ap/firmwares/fixedwing/datalink.o
                                                  /home/excelobs/paparazzi/var/KMUAV_XB_AS_IMU/ap/firmwares/fixedwing/main_ap.o
wind_east                                         /home/excelobs/paparazzi/var/KMUAV_XB_AS_IMU/ap/./estimator.o
                                                  /home/excelobs/paparazzi/var/KMUAV_XB_AS_IMU/ap/firmwares/fixedwing/datalink.o
                                                  /home/excelobs/paparazzi/var/KMUAV_XB_AS_IMU/ap/firmwares/fixedwing/main_ap.o
wind_north                                        /home/excelobs/paparazzi/var/KMUAV_XB_AS_IMU/ap/./estimator.o
                                                  /home/excelobs/paparazzi/var/KMUAV_XB_AS_IMU/ap/firmwares/fixedwing/datalink.o
                                                  /home/excelobs/paparazzi/var/KMUAV_XB_AS_IMU/ap/firmwares/fixedwing/main_ap.o
