   1              		.file	"ins_arduimu_basic.c"
   2              		.section	.text.ArduIMU_init,"ax",%progbits
   3              		.align	2
   4              		.global	ArduIMU_init
   6              	ArduIMU_init:
   7              		@ Function supports interworking.
   8              		@ args = 0, pretend = 0, frame = 0
   9              		@ frame_needed = 0, uses_anonymous_args = 0
  10 0000 68309FE5 		ldr	r3, .L2
  11 0004 0020A0E3 		mov	r2, #0
  12 0008 10402DE9 		stmfd	sp!, {r4, lr}
  13 000c 002083E5 		str	r2, [r3, #0]	@ float
  14 0010 5C309FE5 		ldr	r3, .L2+4
  15 0014 0010A0E3 		mov	r1, #0
  16 0018 0010C3E5 		strb	r1, [r3, #0]
  17 001c 54309FE5 		ldr	r3, .L2+8
  18 0020 0440A0E3 		mov	r4, #4
  19 0024 2C4083E5 		str	r4, [r3, #44]
  20 0028 4C309FE5 		ldr	r3, .L2+12
  21 002c 4C009FE5 		ldr	r0, .L2+16
  22 0030 4CC09FE5 		ldr	ip, .L2+20
  23 0034 4CE09FE5 		ldr	lr, .L2+24
  24 0038 2C4083E5 		str	r4, [r3, #44]
  25 003c 48309FE5 		ldr	r3, .L2+28
  26 0040 082080E5 		str	r2, [r0, #8]	@ float
  27 0044 08208CE5 		str	r2, [ip, #8]	@ float
  28 0048 08208EE5 		str	r2, [lr, #8]	@ float
  29 004c 002083E5 		str	r2, [r3, #0]	@ float
  30 0050 002080E5 		str	r2, [r0, #0]	@ float
  31 0054 042080E5 		str	r2, [r0, #4]	@ float
  32 0058 00208CE5 		str	r2, [ip, #0]	@ float
  33 005c 04208CE5 		str	r2, [ip, #4]	@ float
  34 0060 00208EE5 		str	r2, [lr, #0]	@ float
  35 0064 04208EE5 		str	r2, [lr, #4]	@ float
  36 0068 1040BDE8 		ldmfd	sp!, {r4, lr}
  37 006c 1EFF2FE1 		bx	lr
  38              	.L3:
  39              		.align	2
  40              	.L2:
  41 0070 00000000 		.word	ins_pitch_neutral
  42 0074 00000000 		.word	high_accel_flag
  43 0078 00000000 		.word	ardu_ins_trans
  44 007c 00000000 		.word	ardu_gps_trans
  45 0080 00000000 		.word	arduimu_eulers
  46 0084 00000000 		.word	arduimu_rates
  47 0088 00000000 		.word	arduimu_accel
  48 008c 00000000 		.word	ins_roll_neutral
  50              		.global	__floatsidf
  51              		.global	__ltdf2
  52              		.section	.text.ArduIMU_periodicGPS,"ax",%progbits
  53              		.align	2
  54              		.global	ArduIMU_periodicGPS
  56              	ArduIMU_periodicGPS:
  57              		@ Function supports interworking.
  58              		@ args = 0, pretend = 0, frame = 20
  59              		@ frame_needed = 1, uses_anonymous_args = 0
  60 0000 0DC0A0E1 		mov	ip, sp
  61 0004 F0DF2DE9 		stmfd	sp!, {r4, r5, r6, r7, r8, r9, sl, fp, ip, lr, pc}
  62 0008 04B04CE2 		sub	fp, ip, #4
  63 000c 14D04DE2 		sub	sp, sp, #20
  64 0010 50919FE5 		ldr	r9, .L10+8
  65 0014 2C3099E5 		ldr	r3, [r9, #44]
  66 0018 040053E3 		cmp	r3, #4
  67 001c 48419FE5 		ldr	r4, .L10+12
  68 0020 5300001A 		bne	.L4
  69 0024 B000D4E1 		ldrh	r0, [r4, #0]
  70 0028 FEFFFFEB 		bl	__floatsidf
  71 002c 4B2F8FE2 		adr	r2, .L10
  72 0030 0C0092E8 		ldmia	r2, {r2-r3}
  73 0034 FEFFFFEB 		bl	__ltdf2
  74 0038 000050E3 		cmp	r0, #0
  75 003c 140000AA 		bge	.L6
  76 0040 28319FE5 		ldr	r3, .L10+16
  77 0044 003093E5 		ldr	r3, [r3, #0]
  78 0048 F030D3E1 		ldrsh	r3, [r3, #0]
  79 004c 000053E3 		cmp	r3, #0
  80 0050 0120A013 		movne	r2, #1
  81 0054 1500001A 		bne	.L9
  82              	.L6:
  83 0058 0020A0E3 		mov	r2, #0
  84              	.L9:
  85 005c 10319FE5 		ldr	r3, .L10+20
  86 0060 0020C3E5 		strb	r2, [r3, #0]
  87 0064 0C319FE5 		ldr	r3, .L10+24
  88 0068 B060D3E1 		ldrh	r6, [r3, #0]
  89 006c 08319FE5 		ldr	r3, .L10+28
  90 0070 B080D3E1 		ldrh	r8, [r3, #0]
  91 0074 04319FE5 		ldr	r3, .L10+32
  92 0078 0030D3E5 		ldrb	r3, [r3, #0]	@ zero_extendqisi2
  93 007c 34300BE5 		str	r3, [fp, #-52]
  94 0080 FC309FE5 		ldr	r3, .L10+36
  95 0084 0030D3E5 		ldrb	r3, [r3, #0]	@ zero_extendqisi2
  96 0088 38300BE5 		str	r3, [fp, #-56]
  97 008c E0309FE5 		ldr	r3, .L10+20
  98 0090 0030D3E5 		ldrb	r3, [r3, #0]	@ zero_extendqisi2
  99 0094 0658A0E1 		mov	r5, r6, asl #16
 100 0098 0878A0E1 		mov	r7, r8, asl #16
 101 009c 25C8A0E1 		mov	ip, r5, lsr #16
 102 00a0 3C300BE5 		str	r3, [fp, #-60]
 103 00a4 C73FA0E1 		mov	r3, r7, asr #31
 104 00a8 30300BE5 		str	r3, [fp, #-48]
 105 00ac 4C3CA0E1 		mov	r3, ip, asr #24
 106 00b0 B040D4E1 		ldrh	r4, [r4, #0]
 107 00b4 2C300BE5 		str	r3, [fp, #-44]
 108 00b8 0F30A0E3 		mov	r3, #15
 109 00bc 0830C9E5 		strb	r3, [r9, #8]
 110 00c0 133083E2 		add	r3, r3, #19
 111 00c4 04E8A0E1 		mov	lr, r4, asl #16
 112 00c8 0430C9E5 		strb	r3, [r9, #4]
 113 00cc 0030A0E3 		mov	r3, #0	@ movhi
 114 00d0 2E28A0E1 		mov	r2, lr, lsr #16
 115 00d4 B630C9E1 		strh	r3, [r9, #6]	@ movhi 
 116 00d8 2C301BE5 		ldr	r3, [fp, #-44]
 117 00dc 42ACA0E1 		mov	sl, r2, asr #24
 118 00e0 2EECA0E1 		mov	lr, lr, lsr #24
 119 00e4 255CA0E1 		mov	r5, r5, lsr #24
 120 00e8 4228A0E1 		mov	r2, r2, asr #16
 121 00ec 4CC8A0E1 		mov	ip, ip, asr #16
 122 00f0 0940C9E5 		strb	r4, [r9, #9]
 123 00f4 0AE0C9E5 		strb	lr, [r9, #10]
 124 00f8 0B20C9E5 		strb	r2, [r9, #11]
 125 00fc 0CA0C9E5 		strb	sl, [r9, #12]
 126 0100 0D60C9E5 		strb	r6, [r9, #13]
 127 0104 0E50C9E5 		strb	r5, [r9, #14]
 128 0108 0FC0C9E5 		strb	ip, [r9, #15]
 129 010c 1030C9E5 		strb	r3, [r9, #16]
 130 0110 0030A0E3 		mov	r3, #0
 131 0114 003089E5 		str	r3, [r9, #0]
 132 0118 30301BE5 		ldr	r3, [fp, #-48]
 133 011c 477CA0E1 		mov	r7, r7, asr #24
 134 0120 1180C9E5 		strb	r8, [r9, #17]
 135 0124 1270C9E5 		strb	r7, [r9, #18]
 136 0128 1330C9E5 		strb	r3, [r9, #19]
 137 012c 1430C9E5 		strb	r3, [r9, #20]
 138 0130 34301BE5 		ldr	r3, [fp, #-52]
 139 0134 1530C9E5 		strb	r3, [r9, #21]
 140 0138 38301BE5 		ldr	r3, [fp, #-56]
 141 013c 1630C9E5 		strb	r3, [r9, #22]
 142 0140 3C301BE5 		ldr	r3, [fp, #-60]
 143 0144 3C009FE5 		ldr	r0, .L10+40
 144 0148 18109FE5 		ldr	r1, .L10+8
 145 014c 1730C9E5 		strb	r3, [r9, #23]
 146 0150 FEFFFFEB 		bl	i2c_submit
 147              	.L4:
 148 0154 28D04BE2 		sub	sp, fp, #40
 149 0158 F06F9DE8 		ldmfd	sp, {r4, r5, r6, r7, r8, r9, sl, fp, sp, lr}
 150 015c 1EFF2FE1 		bx	lr
 151              	.L11:
 152              		.align	2
 153              	.L10:
 154 0160 00000040 		.word	1073741824
 155 0164 00000000 		.word	0
 156 0168 00000000 		.word	ardu_gps_trans
 157 016c 00000000 		.word	gps_speed_3d
 158 0170 00000000 		.word	ap_state
 159 0174 00000000 		.word	high_accel_flag
 160 0178 00000000 		.word	gps_gspeed
 161 017c 00000000 		.word	gps_course
 162 0180 00000000 		.word	gps_mode
 163 0184 00000000 		.word	gps_status_flags
 164 0188 00000000 		.word	i2c1
 166              		.section	.text.ArduIMU_periodic,"ax",%progbits
 167              		.align	2
 168              		.global	ArduIMU_periodic
 170              	ArduIMU_periodic:
 171              		@ Function supports interworking.
 172              		@ args = 0, pretend = 0, frame = 0
 173              		@ frame_needed = 1, uses_anonymous_args = 0
 174 0000 0DC0A0E1 		mov	ip, sp
 175 0004 00D82DE9 		stmfd	sp!, {fp, ip, lr, pc}
 176 0008 40209FE5 		ldr	r2, .L14
 177 000c 2C3092E5 		ldr	r3, [r2, #44]
 178 0010 040053E3 		cmp	r3, #4
 179 0014 04B04CE2 		sub	fp, ip, #4
 180 0018 34009FE5 		ldr	r0, .L14+4
 181 001c 0210A0E1 		mov	r1, r2
 182 0020 1000001A 		bne	.L12
 183 0024 033043E2 		sub	r3, r3, #3
 184 0028 003082E5 		str	r3, [r2, #0]
 185 002c 213083E2 		add	r3, r3, #33
 186 0030 0430C2E5 		strb	r3, [r2, #4]
 187 0034 223043E2 		sub	r3, r3, #34
 188 0038 0830C2E5 		strb	r3, [r2, #8]
 189 003c 1230A0E3 		mov	r3, #18	@ movhi
 190 0040 B630C2E1 		strh	r3, [r2, #6]	@ movhi 
 191 0044 FEFFFFEB 		bl	i2c_submit
 192              	.L12:
 193 0048 00689DE8 		ldmfd	sp, {fp, sp, lr}
 194 004c 1EFF2FE1 		bx	lr
 195              	.L15:
 196              		.align	2
 197              	.L14:
 198 0050 00000000 		.word	ardu_ins_trans
 199 0054 00000000 		.word	i2c1
 201              		.global	__floatsisf
 202              		.global	__mulsf3
 203              		.global	__subsf3
 204              		.section	.data.prescaler.0,"aw",%progbits
 205              		.align	1
 208              	prescaler.0:
 209 0000 0000     		.short	0
 210              		.section	.data.prescaler.1,"aw",%progbits
 211              		.align	1
 214              	prescaler.1:
 215 0000 0000     		.short	0
 216              		.section	.text.ArduIMU_event,"ax",%progbits
 217              		.align	2
 218              		.global	ArduIMU_event
 220              	ArduIMU_event:
 221              		@ Function supports interworking.
 222              		@ args = 0, pretend = 0, frame = 48
 223              		@ frame_needed = 1, uses_anonymous_args = 0
 224 0000 0DC0A0E1 		mov	ip, sp
 225 0004 F0DF2DE9 		stmfd	sp!, {r4, r5, r6, r7, r8, r9, sl, fp, ip, lr, pc}
 226 0008 04B04CE2 		sub	fp, ip, #4
 227 000c 30D04DE2 		sub	sp, sp, #48
 228 0010 48779FE5 		ldr	r7, .L28
 229 0014 2C3097E5 		ldr	r3, [r7, #44]
 230 0018 020053E3 		cmp	r3, #2
 231 001c C601001A 		bne	.L17
 232 0020 0A20D7E5 		ldrb	r2, [r7, #10]	@ zero_extendqisi2
 233 0024 0930D7E5 		ldrb	r3, [r7, #9]	@ zero_extendqisi2
 234 0028 34479FE5 		ldr	r4, .L28+4
 235 002c 0C10D7E5 		ldrb	r1, [r7, #12]	@ zero_extendqisi2
 236 0030 023483E1 		orr	r3, r3, r2, asl #8
 237 0034 0B20D7E5 		ldrb	r2, [r7, #11]	@ zero_extendqisi2
 238 0038 2C100BE5 		str	r1, [fp, #-44]
 239 003c 30200BE5 		str	r2, [fp, #-48]
 240 0040 B030C4E1 		strh	r3, [r4, #0]	@ movhi 
 241 0044 0E30D7E5 		ldrb	r3, [r7, #14]	@ zero_extendqisi2
 242 0048 0D50D7E5 		ldrb	r5, [r7, #13]	@ zero_extendqisi2
 243 004c 1010D7E5 		ldrb	r1, [r7, #16]	@ zero_extendqisi2
 244 0050 0F20D7E5 		ldrb	r2, [r7, #15]	@ zero_extendqisi2
 245 0054 34300BE5 		str	r3, [fp, #-52]
 246 0058 38500BE5 		str	r5, [fp, #-56]
 247 005c 40100BE5 		str	r1, [fp, #-64]
 248 0060 1250D7E5 		ldrb	r5, [r7, #18]	@ zero_extendqisi2
 249 0064 44200BE5 		str	r2, [fp, #-68]
 250 0068 11E0D7E5 		ldrb	lr, [r7, #17]	@ zero_extendqisi2
 251 006c 1460D7E5 		ldrb	r6, [r7, #20]	@ zero_extendqisi2
 252 0070 13C0D7E5 		ldrb	ip, [r7, #19]	@ zero_extendqisi2
 253 0074 16A0D7E5 		ldrb	sl, [r7, #22]	@ zero_extendqisi2
 254 0078 1510D7E5 		ldrb	r1, [r7, #21]	@ zero_extendqisi2
 255 007c 1880D7E5 		ldrb	r8, [r7, #24]	@ zero_extendqisi2
 256 0080 1730D7E5 		ldrb	r3, [r7, #23]	@ zero_extendqisi2
 257 0084 1A00D7E5 		ldrb	r0, [r7, #26]	@ zero_extendqisi2
 258 0088 1920D7E5 		ldrb	r2, [r7, #25]	@ zero_extendqisi2
 259 008c 54300BE5 		str	r3, [fp, #-84]
 260 0090 58200BE5 		str	r2, [fp, #-88]
 261 0094 30301BE5 		ldr	r3, [fp, #-48]
 262 0098 2C201BE5 		ldr	r2, [fp, #-44]
 263 009c 029483E1 		orr	r9, r3, r2, asl #8
 264 00a0 34201BE5 		ldr	r2, [fp, #-52]
 265 00a4 38301BE5 		ldr	r3, [fp, #-56]
 266 00a8 023483E1 		orr	r3, r3, r2, asl #8
 267 00ac 3C300BE5 		str	r3, [fp, #-60]
 268 00b0 40201BE5 		ldr	r2, [fp, #-64]
 269 00b4 44301BE5 		ldr	r3, [fp, #-68]
 270 00b8 023483E1 		orr	r3, r3, r2, asl #8
 271 00bc 05E48EE1 		orr	lr, lr, r5, asl #8
 272 00c0 48300BE5 		str	r3, [fp, #-72]
 273 00c4 54301BE5 		ldr	r3, [fp, #-84]
 274 00c8 58501BE5 		ldr	r5, [fp, #-88]
 275 00cc 082483E1 		orr	r2, r3, r8, asl #8
 276 00d0 003485E1 		orr	r3, r5, r0, asl #8
 277 00d4 3C501BE5 		ldr	r5, [fp, #-60]
 278 00d8 B450C4E1 		strh	r5, [r4, #4]	@ movhi 
 279 00dc 48501BE5 		ldr	r5, [fp, #-72]
 280 00e0 06C48CE1 		orr	ip, ip, r6, asl #8
 281 00e4 0A1481E1 		orr	r1, r1, sl, asl #8
 282 00e8 B8E0C4E1 		strh	lr, [r4, #8]	@ movhi 
 283 00ec BAC0C4E1 		strh	ip, [r4, #10]	@ movhi 
 284 00f0 B031C4E1 		strh	r3, [r4, #16]	@ movhi 
 285 00f4 BE20C4E1 		strh	r2, [r4, #14]	@ movhi 
 286 00f8 B290C4E1 		strh	r9, [r4, #2]	@ movhi 
 287 00fc B650C4E1 		strh	r5, [r4, #6]	@ movhi 
 288 0100 BC10C4E1 		strh	r1, [r4, #12]	@ movhi 
 289 0104 F000D4E1 		ldrsh	r0, [r4, #0]
 290 0108 FEFFFFEB 		bl	__floatsisf
 291 010c E615A0E3 		mov	r1, #964689920
 292 0110 FEFFFFEB 		bl	__mulsf3
 293 0114 4C000BE5 		str	r0, [fp, #-76]	@ float
 294 0118 4C201BE5 		ldr	r2, [fp, #-76]	@ float
 295 011c 44169FE5 		ldr	r1, .L28+8
 296 0120 F200D4E1 		ldrsh	r0, [r4, #2]
 297 0124 002081E5 		str	r2, [r1, #0]	@ float
 298 0128 FEFFFFEB 		bl	__floatsisf
 299 012c E615A0E3 		mov	r1, #964689920
 300 0130 FEFFFFEB 		bl	__mulsf3
 301 0134 2C369FE5 		ldr	r3, .L28+8
 302 0138 0090A0E1 		mov	r9, r0
 303 013c 049083E5 		str	r9, [r3, #4]	@ float
 304 0140 F400D4E1 		ldrsh	r0, [r4, #4]
 305 0144 FEFFFFEB 		bl	__floatsisf
 306 0148 E615A0E3 		mov	r1, #964689920
 307 014c FEFFFFEB 		bl	__mulsf3
 308 0150 10569FE5 		ldr	r5, .L28+8
 309 0154 080085E5 		str	r0, [r5, #8]	@ float
 310 0158 F600D4E1 		ldrsh	r0, [r4, #6]
 311 015c FEFFFFEB 		bl	__floatsisf
 312 0160 E615A0E3 		mov	r1, #964689920
 313 0164 FEFFFFEB 		bl	__mulsf3
 314 0168 50000BE5 		str	r0, [fp, #-80]	@ float
 315 016c F8859FE5 		ldr	r8, .L28+12
 316 0170 50101BE5 		ldr	r1, [fp, #-80]	@ float
 317 0174 F800D4E1 		ldrsh	r0, [r4, #8]
 318 0178 001088E5 		str	r1, [r8, #0]	@ float
 319 017c FEFFFFEB 		bl	__floatsisf
 320 0180 E615A0E3 		mov	r1, #964689920
 321 0184 FEFFFFEB 		bl	__mulsf3
 322 0188 040088E5 		str	r0, [r8, #4]	@ float
 323 018c FA00D4E1 		ldrsh	r0, [r4, #10]
 324 0190 FEFFFFEB 		bl	__floatsisf
 325 0194 E615A0E3 		mov	r1, #964689920
 326 0198 FEFFFFEB 		bl	__mulsf3
 327 019c 080088E5 		str	r0, [r8, #8]	@ float
 328 01a0 FC00D4E1 		ldrsh	r0, [r4, #12]
 329 01a4 FEFFFFEB 		bl	__floatsisf
 330 01a8 EA15A0E3 		mov	r1, #981467136
 331 01ac FEFFFFEB 		bl	__mulsf3
 332 01b0 B8A59FE5 		ldr	sl, .L28+16
 333 01b4 00008AE5 		str	r0, [sl, #0]	@ float
 334 01b8 FE00D4E1 		ldrsh	r0, [r4, #14]
 335 01bc FEFFFFEB 		bl	__floatsisf
 336 01c0 EA15A0E3 		mov	r1, #981467136
 337 01c4 FEFFFFEB 		bl	__mulsf3
 338 01c8 04008AE5 		str	r0, [sl, #4]	@ float
 339 01cc F001D4E1 		ldrsh	r0, [r4, #16]
 340 01d0 FEFFFFEB 		bl	__floatsisf
 341 01d4 EA15A0E3 		mov	r1, #981467136
 342 01d8 FEFFFFEB 		bl	__mulsf3
 343 01dc 90359FE5 		ldr	r3, .L28+20
 344 01e0 08008AE5 		str	r0, [sl, #8]	@ float
 345 01e4 001093E5 		ldr	r1, [r3, #0]	@ float
 346 01e8 4C001BE5 		ldr	r0, [fp, #-76]	@ float
 347 01ec FEFFFFEB 		bl	__subsf3
 348 01f0 80359FE5 		ldr	r3, .L28+24
 349 01f4 000083E5 		str	r0, [r3, #0]	@ float
 350 01f8 7C359FE5 		ldr	r3, .L28+28
 351 01fc 0900A0E1 		mov	r0, r9
 352 0200 001093E5 		ldr	r1, [r3, #0]	@ float
 353 0204 FEFFFFEB 		bl	__subsf3
 354 0208 70259FE5 		ldr	r2, .L28+32
 355 020c B030D2E1 		ldrh	r3, [r2, #0]
 356 0210 013083E2 		add	r3, r3, #1
 357 0214 B030C2E1 		strh	r3, [r2, #0]	@ movhi 
 358 0218 B030D2E1 		ldrh	r3, [r2, #0]
 359 021c 0E0053E3 		cmp	r3, #14
 360 0220 5C359FE5 		ldr	r3, .L28+36
 361 0224 50501BE5 		ldr	r5, [fp, #-80]	@ float
 362 0228 000083E5 		str	r0, [r3, #0]	@ float
 363 022c 54359FE5 		ldr	r3, .L28+40
 364 0230 005083E5 		str	r5, [r3, #0]	@ float
 365 0234 0430A0E3 		mov	r3, #4
 366 0238 2C3087E5 		str	r3, [r7, #44]
 367 023c 2601009A 		bls	.L18
 368 0240 0010A0E3 		mov	r1, #0	@ movhi
 369 0244 B010C2E1 		strh	r1, [r2, #0]	@ movhi 
 370 0248 1200A0E3 		mov	r0, #18
 371 024c FEFFFFEB 		bl	uart1_check_free_space
 372 0250 FF0010E3 		tst	r0, #255
 373 0254 30259F05 		ldreq	r2, .L28+44
 374 0258 0030D205 		ldreqb	r3, [r2, #0]	@ zero_extendqisi2
 375 025c 01308302 		addeq	r3, r3, #1
 376 0260 0030C205 		streqb	r3, [r2, #0]
 377 0264 2601000A 		beq	.L18
 378 0268 20159FE5 		ldr	r1, .L28+48
 379 026c 20C59FE5 		ldr	ip, .L28+52
 380 0270 B030D1E1 		ldrh	r3, [r1, #0]
 381 0274 B020DCE1 		ldrh	r2, [ip, #0]
 382 0278 123083E2 		add	r3, r3, #18
 383 027c 012082E2 		add	r2, r2, #1
 384 0280 B030C1E1 		strh	r3, [r1, #0]	@ movhi 
 385 0284 B020CCE1 		strh	r2, [ip, #0]	@ movhi 
 386 0288 9900A0E3 		mov	r0, #153
 387 028c 04459FE5 		ldr	r4, .L28+56
 388 0290 FEFFFFEB 		bl	uart1_transmit
 389 0294 1200A0E3 		mov	r0, #18
 390 0298 FEFFFFEB 		bl	uart1_transmit
 391 029c F8249FE5 		ldr	r2, .L28+60
 392 02a0 1C30A0E3 		mov	r3, #28
 393 02a4 0030C4E5 		strb	r3, [r4, #0]
 394 02a8 123083E2 		add	r3, r3, #18
 395 02ac 0030C2E5 		strb	r3, [r2, #0]
 396 02b0 0A00A0E3 		mov	r0, #10
 397 02b4 FEFFFFEB 		bl	uart1_transmit
 398 02b8 0030D4E5 		ldrb	r3, [r4, #0]	@ zero_extendqisi2
 399 02bc 383043E2 		sub	r3, r3, #56
 400 02c0 D4549FE5 		ldr	r5, .L28+60
 401 02c4 0030C4E5 		strb	r3, [r4, #0]
 402 02c8 0030D5E5 		ldrb	r3, [r5, #0]	@ zero_extendqisi2
 403 02cc 0020D4E5 		ldrb	r2, [r4, #0]	@ zero_extendqisi2
 404 02d0 023083E0 		add	r3, r3, r2
 405 02d4 C800A0E3 		mov	r0, #200
 406 02d8 0030C5E5 		strb	r3, [r5, #0]
 407 02dc FEFFFFEB 		bl	uart1_transmit
 408 02e0 0000D8E5 		ldrb	r0, [r8, #0]	@ zero_extendqisi2
 409 02e4 0030D4E5 		ldrb	r3, [r4, #0]	@ zero_extendqisi2
 410 02e8 033080E0 		add	r3, r0, r3
 411 02ec 0030C4E5 		strb	r3, [r4, #0]
 412 02f0 0030D5E5 		ldrb	r3, [r5, #0]	@ zero_extendqisi2
 413 02f4 0020D4E5 		ldrb	r2, [r4, #0]	@ zero_extendqisi2
 414 02f8 023083E0 		add	r3, r3, r2
 415 02fc 0030C5E5 		strb	r3, [r5, #0]
 416 0300 FEFFFFEB 		bl	uart1_transmit
 417 0304 0100D8E5 		ldrb	r0, [r8, #1]	@ zero_extendqisi2
 418 0308 0030D4E5 		ldrb	r3, [r4, #0]	@ zero_extendqisi2
 419 030c 033080E0 		add	r3, r0, r3
 420 0310 0030C4E5 		strb	r3, [r4, #0]
 421 0314 0030D5E5 		ldrb	r3, [r5, #0]	@ zero_extendqisi2
 422 0318 0020D4E5 		ldrb	r2, [r4, #0]	@ zero_extendqisi2
 423 031c 023083E0 		add	r3, r3, r2
 424 0320 0030C5E5 		strb	r3, [r5, #0]
 425 0324 FEFFFFEB 		bl	uart1_transmit
 426 0328 0200D8E5 		ldrb	r0, [r8, #2]	@ zero_extendqisi2
 427 032c 0030D4E5 		ldrb	r3, [r4, #0]	@ zero_extendqisi2
 428 0330 033080E0 		add	r3, r0, r3
 429 0334 0030C4E5 		strb	r3, [r4, #0]
 430 0338 0030D5E5 		ldrb	r3, [r5, #0]	@ zero_extendqisi2
 431 033c 0020D4E5 		ldrb	r2, [r4, #0]	@ zero_extendqisi2
 432 0340 023083E0 		add	r3, r3, r2
 433 0344 0030C5E5 		strb	r3, [r5, #0]
 434 0348 FEFFFFEB 		bl	uart1_transmit
 435 034c 0300D8E5 		ldrb	r0, [r8, #3]	@ zero_extendqisi2
 436 0350 0030D4E5 		ldrb	r3, [r4, #0]	@ zero_extendqisi2
 437 0354 033080E0 		add	r3, r0, r3
 438 0358 0030C4E5 		strb	r3, [r4, #0]
 439 035c 0030D5E5 		ldrb	r3, [r5, #0]	@ zero_extendqisi2
 440 0360 0020D4E5 		ldrb	r2, [r4, #0]	@ zero_extendqisi2
 441 0364 023083E0 		add	r3, r3, r2
 442 0368 0030C5E5 		strb	r3, [r5, #0]
 443 036c FEFFFFEB 		bl	uart1_transmit
 444 0370 0400D8E5 		ldrb	r0, [r8, #4]	@ zero_extendqisi2
 445 0374 0030D4E5 		ldrb	r3, [r4, #0]	@ zero_extendqisi2
 446 0378 033080E0 		add	r3, r0, r3
 447 037c 0030C4E5 		strb	r3, [r4, #0]
 448 0380 0030D5E5 		ldrb	r3, [r5, #0]	@ zero_extendqisi2
 449 0384 0020D4E5 		ldrb	r2, [r4, #0]	@ zero_extendqisi2
 450 0388 023083E0 		add	r3, r3, r2
 451 038c 0030C5E5 		strb	r3, [r5, #0]
 452 0390 FEFFFFEB 		bl	uart1_transmit
 453 0394 0500D8E5 		ldrb	r0, [r8, #5]	@ zero_extendqisi2
 454 0398 0030D4E5 		ldrb	r3, [r4, #0]	@ zero_extendqisi2
 455 039c 033080E0 		add	r3, r0, r3
 456 03a0 0030C4E5 		strb	r3, [r4, #0]
 457 03a4 0030D5E5 		ldrb	r3, [r5, #0]	@ zero_extendqisi2
 458 03a8 0020D4E5 		ldrb	r2, [r4, #0]	@ zero_extendqisi2
 459 03ac 023083E0 		add	r3, r3, r2
 460 03b0 0030C5E5 		strb	r3, [r5, #0]
 461 03b4 FEFFFFEB 		bl	uart1_transmit
 462 03b8 0600D8E5 		ldrb	r0, [r8, #6]	@ zero_extendqisi2
 463 03bc 0030D4E5 		ldrb	r3, [r4, #0]	@ zero_extendqisi2
 464 03c0 033080E0 		add	r3, r0, r3
 465 03c4 0030C4E5 		strb	r3, [r4, #0]
 466 03c8 0030D5E5 		ldrb	r3, [r5, #0]	@ zero_extendqisi2
 467 03cc 0020D4E5 		ldrb	r2, [r4, #0]	@ zero_extendqisi2
 468 03d0 023083E0 		add	r3, r3, r2
 469 03d4 0030C5E5 		strb	r3, [r5, #0]
 470 03d8 FEFFFFEB 		bl	uart1_transmit
 471 03dc 0700D8E5 		ldrb	r0, [r8, #7]	@ zero_extendqisi2
 472 03e0 0030D4E5 		ldrb	r3, [r4, #0]	@ zero_extendqisi2
 473 03e4 033080E0 		add	r3, r0, r3
 474 03e8 0030C4E5 		strb	r3, [r4, #0]
 475 03ec 0030D5E5 		ldrb	r3, [r5, #0]	@ zero_extendqisi2
 476 03f0 0020D4E5 		ldrb	r2, [r4, #0]	@ zero_extendqisi2
 477 03f4 023083E0 		add	r3, r3, r2
 478 03f8 0030C5E5 		strb	r3, [r5, #0]
 479 03fc FEFFFFEB 		bl	uart1_transmit
 480 0400 0800D8E5 		ldrb	r0, [r8, #8]	@ zero_extendqisi2
 481 0404 0030D4E5 		ldrb	r3, [r4, #0]	@ zero_extendqisi2
 482 0408 033080E0 		add	r3, r0, r3
 483 040c 0030C4E5 		strb	r3, [r4, #0]
 484 0410 0030D5E5 		ldrb	r3, [r5, #0]	@ zero_extendqisi2
 485 0414 0020D4E5 		ldrb	r2, [r4, #0]	@ zero_extendqisi2
 486 0418 023083E0 		add	r3, r3, r2
 487 041c 0030C5E5 		strb	r3, [r5, #0]
 488 0420 FEFFFFEB 		bl	uart1_transmit
 489 0424 0900D8E5 		ldrb	r0, [r8, #9]	@ zero_extendqisi2
 490 0428 0030D4E5 		ldrb	r3, [r4, #0]	@ zero_extendqisi2
 491 042c 033080E0 		add	r3, r0, r3
 492 0430 0030C4E5 		strb	r3, [r4, #0]
 493 0434 0030D5E5 		ldrb	r3, [r5, #0]	@ zero_extendqisi2
 494 0438 0020D4E5 		ldrb	r2, [r4, #0]	@ zero_extendqisi2
 495 043c 023083E0 		add	r3, r3, r2
 496 0440 0030C5E5 		strb	r3, [r5, #0]
 497 0444 FEFFFFEB 		bl	uart1_transmit
 498 0448 0A00D8E5 		ldrb	r0, [r8, #10]	@ zero_extendqisi2
 499 044c 0030D4E5 		ldrb	r3, [r4, #0]	@ zero_extendqisi2
 500 0450 033080E0 		add	r3, r0, r3
 501 0454 0030C4E5 		strb	r3, [r4, #0]
 502 0458 0030D5E5 		ldrb	r3, [r5, #0]	@ zero_extendqisi2
 503 045c 0020D4E5 		ldrb	r2, [r4, #0]	@ zero_extendqisi2
 504 0460 023083E0 		add	r3, r3, r2
 505 0464 0030C5E5 		strb	r3, [r5, #0]
 506 0468 FEFFFFEB 		bl	uart1_transmit
 507 046c 0B00D8E5 		ldrb	r0, [r8, #11]	@ zero_extendqisi2
 508 0470 0030D4E5 		ldrb	r3, [r4, #0]	@ zero_extendqisi2
 509 0474 033080E0 		add	r3, r0, r3
 510 0478 0030C4E5 		strb	r3, [r4, #0]
 511 047c 0030D5E5 		ldrb	r3, [r5, #0]	@ zero_extendqisi2
 512 0480 0020D4E5 		ldrb	r2, [r4, #0]	@ zero_extendqisi2
 513 0484 023083E0 		add	r3, r3, r2
 514 0488 0030C5E5 		strb	r3, [r5, #0]
 515 048c FEFFFFEB 		bl	uart1_transmit
 516 0490 0000D4E5 		ldrb	r0, [r4, #0]	@ zero_extendqisi2
 517 0494 FEFFFFEB 		bl	uart1_transmit
 518 0498 0000D5E5 		ldrb	r0, [r5, #0]	@ zero_extendqisi2
 519 049c FEFFFFEB 		bl	uart1_transmit
 520              	.L18:
 521 04a0 F8229FE5 		ldr	r2, .L28+64
 522 04a4 B030D2E1 		ldrh	r3, [r2, #0]
 523 04a8 013083E2 		add	r3, r3, #1
 524 04ac B030C2E1 		strh	r3, [r2, #0]	@ movhi 
 525 04b0 B030D2E1 		ldrh	r3, [r2, #0]
 526 04b4 0E0053E3 		cmp	r3, #14
 527 04b8 CA01009A 		bls	.L24
 528 04bc 0010A0E3 		mov	r1, #0	@ movhi
 529 04c0 B010C2E1 		strh	r1, [r2, #0]	@ movhi 
 530 04c4 1200A0E3 		mov	r0, #18
 531 04c8 FEFFFFEB 		bl	uart1_check_free_space
 532 04cc FF0010E3 		tst	r0, #255
 533 04d0 B4229F05 		ldreq	r2, .L28+44
 534 04d4 0030D205 		ldreqb	r3, [r2, #0]	@ zero_extendqisi2
 535 04d8 01308302 		addeq	r3, r3, #1
 536 04dc 0030C205 		streqb	r3, [r2, #0]
 537 04e0 CA01000A 		beq	.L24
 538 04e4 A4129FE5 		ldr	r1, .L28+48
 539 04e8 A4C29FE5 		ldr	ip, .L28+52
 540 04ec B030D1E1 		ldrh	r3, [r1, #0]
 541 04f0 B020DCE1 		ldrh	r2, [ip, #0]
 542 04f4 123083E2 		add	r3, r3, #18
 543 04f8 012082E2 		add	r2, r2, #1
 544 04fc B030C1E1 		strh	r3, [r1, #0]	@ movhi 
 545 0500 B020CCE1 		strh	r2, [ip, #0]	@ movhi 
 546 0504 9900A0E3 		mov	r0, #153
 547 0508 88429FE5 		ldr	r4, .L28+56
 548 050c FEFFFFEB 		bl	uart1_transmit
 549 0510 1200A0E3 		mov	r0, #18
 550 0514 FEFFFFEB 		bl	uart1_transmit
 551 0518 7C229FE5 		ldr	r2, .L28+60
 552 051c 1C30A0E3 		mov	r3, #28
 553 0520 0030C4E5 		strb	r3, [r4, #0]
 554 0524 123083E2 		add	r3, r3, #18
 555 0528 0030C2E5 		strb	r3, [r2, #0]
 556 052c 0A00A0E3 		mov	r0, #10
 557 0530 FEFFFFEB 		bl	uart1_transmit
 558 0534 0030D4E5 		ldrb	r3, [r4, #0]	@ zero_extendqisi2
 559 0538 363043E2 		sub	r3, r3, #54
 560 053c 58529FE5 		ldr	r5, .L28+60
 561 0540 0030C4E5 		strb	r3, [r4, #0]
 562 0544 0030D5E5 		ldrb	r3, [r5, #0]	@ zero_extendqisi2
 563 0548 0020D4E5 		ldrb	r2, [r4, #0]	@ zero_extendqisi2
 564 054c 023083E0 		add	r3, r3, r2
 565 0550 0030C5E5 		strb	r3, [r5, #0]
 566 0554 CA00A0E3 		mov	r0, #202
 567 0558 FEFFFFEB 		bl	uart1_transmit
 568 055c 0000DAE5 		ldrb	r0, [sl, #0]	@ zero_extendqisi2
 569 0560 0030D4E5 		ldrb	r3, [r4, #0]	@ zero_extendqisi2
 570 0564 033080E0 		add	r3, r0, r3
 571 0568 0030C4E5 		strb	r3, [r4, #0]
 572 056c 0030D5E5 		ldrb	r3, [r5, #0]	@ zero_extendqisi2
 573 0570 0020D4E5 		ldrb	r2, [r4, #0]	@ zero_extendqisi2
 574 0574 023083E0 		add	r3, r3, r2
 575 0578 0030C5E5 		strb	r3, [r5, #0]
 576 057c FEFFFFEB 		bl	uart1_transmit
 577 0580 0100DAE5 		ldrb	r0, [sl, #1]	@ zero_extendqisi2
 578 0584 0030D4E5 		ldrb	r3, [r4, #0]	@ zero_extendqisi2
 579 0588 033080E0 		add	r3, r0, r3
 580 058c 0030C4E5 		strb	r3, [r4, #0]
 581 0590 0030D5E5 		ldrb	r3, [r5, #0]	@ zero_extendqisi2
 582 0594 0020D4E5 		ldrb	r2, [r4, #0]	@ zero_extendqisi2
 583 0598 023083E0 		add	r3, r3, r2
 584 059c 0030C5E5 		strb	r3, [r5, #0]
 585 05a0 FEFFFFEB 		bl	uart1_transmit
 586 05a4 0200DAE5 		ldrb	r0, [sl, #2]	@ zero_extendqisi2
 587 05a8 0030D4E5 		ldrb	r3, [r4, #0]	@ zero_extendqisi2
 588 05ac 033080E0 		add	r3, r0, r3
 589 05b0 0030C4E5 		strb	r3, [r4, #0]
 590 05b4 0030D5E5 		ldrb	r3, [r5, #0]	@ zero_extendqisi2
 591 05b8 0020D4E5 		ldrb	r2, [r4, #0]	@ zero_extendqisi2
 592 05bc 023083E0 		add	r3, r3, r2
 593 05c0 0030C5E5 		strb	r3, [r5, #0]
 594 05c4 FEFFFFEB 		bl	uart1_transmit
 595 05c8 0300DAE5 		ldrb	r0, [sl, #3]	@ zero_extendqisi2
 596 05cc 0030D4E5 		ldrb	r3, [r4, #0]	@ zero_extendqisi2
 597 05d0 033080E0 		add	r3, r0, r3
 598 05d4 0030C4E5 		strb	r3, [r4, #0]
 599 05d8 0030D5E5 		ldrb	r3, [r5, #0]	@ zero_extendqisi2
 600 05dc 0020D4E5 		ldrb	r2, [r4, #0]	@ zero_extendqisi2
 601 05e0 023083E0 		add	r3, r3, r2
 602 05e4 0030C5E5 		strb	r3, [r5, #0]
 603 05e8 FEFFFFEB 		bl	uart1_transmit
 604 05ec 0400DAE5 		ldrb	r0, [sl, #4]	@ zero_extendqisi2
 605 05f0 0030D4E5 		ldrb	r3, [r4, #0]	@ zero_extendqisi2
 606 05f4 033080E0 		add	r3, r0, r3
 607 05f8 0030C4E5 		strb	r3, [r4, #0]
 608 05fc 0030D5E5 		ldrb	r3, [r5, #0]	@ zero_extendqisi2
 609 0600 0020D4E5 		ldrb	r2, [r4, #0]	@ zero_extendqisi2
 610 0604 023083E0 		add	r3, r3, r2
 611 0608 0030C5E5 		strb	r3, [r5, #0]
 612 060c FEFFFFEB 		bl	uart1_transmit
 613 0610 0500DAE5 		ldrb	r0, [sl, #5]	@ zero_extendqisi2
 614 0614 0030D4E5 		ldrb	r3, [r4, #0]	@ zero_extendqisi2
 615 0618 033080E0 		add	r3, r0, r3
 616 061c 0030C4E5 		strb	r3, [r4, #0]
 617 0620 0030D5E5 		ldrb	r3, [r5, #0]	@ zero_extendqisi2
 618 0624 0020D4E5 		ldrb	r2, [r4, #0]	@ zero_extendqisi2
 619 0628 023083E0 		add	r3, r3, r2
 620 062c 0030C5E5 		strb	r3, [r5, #0]
 621 0630 FEFFFFEB 		bl	uart1_transmit
 622 0634 0600DAE5 		ldrb	r0, [sl, #6]	@ zero_extendqisi2
 623 0638 0030D4E5 		ldrb	r3, [r4, #0]	@ zero_extendqisi2
 624 063c 033080E0 		add	r3, r0, r3
 625 0640 0030C4E5 		strb	r3, [r4, #0]
 626 0644 0030D5E5 		ldrb	r3, [r5, #0]	@ zero_extendqisi2
 627 0648 0020D4E5 		ldrb	r2, [r4, #0]	@ zero_extendqisi2
 628 064c 023083E0 		add	r3, r3, r2
 629 0650 0030C5E5 		strb	r3, [r5, #0]
 630 0654 FEFFFFEB 		bl	uart1_transmit
 631 0658 0700DAE5 		ldrb	r0, [sl, #7]	@ zero_extendqisi2
 632 065c 0030D4E5 		ldrb	r3, [r4, #0]	@ zero_extendqisi2
 633 0660 033080E0 		add	r3, r0, r3
 634 0664 0030C4E5 		strb	r3, [r4, #0]
 635 0668 0030D5E5 		ldrb	r3, [r5, #0]	@ zero_extendqisi2
 636 066c 0020D4E5 		ldrb	r2, [r4, #0]	@ zero_extendqisi2
 637 0670 023083E0 		add	r3, r3, r2
 638 0674 0030C5E5 		strb	r3, [r5, #0]
 639 0678 FEFFFFEB 		bl	uart1_transmit
 640 067c 0800DAE5 		ldrb	r0, [sl, #8]	@ zero_extendqisi2
 641 0680 0030D4E5 		ldrb	r3, [r4, #0]	@ zero_extendqisi2
 642 0684 033080E0 		add	r3, r0, r3
 643 0688 0030C4E5 		strb	r3, [r4, #0]
 644 068c 0030D5E5 		ldrb	r3, [r5, #0]	@ zero_extendqisi2
 645 0690 0020D4E5 		ldrb	r2, [r4, #0]	@ zero_extendqisi2
 646 0694 023083E0 		add	r3, r3, r2
 647 0698 0030C5E5 		strb	r3, [r5, #0]
 648 069c FEFFFFEB 		bl	uart1_transmit
 649 06a0 0900DAE5 		ldrb	r0, [sl, #9]	@ zero_extendqisi2
 650 06a4 0030D4E5 		ldrb	r3, [r4, #0]	@ zero_extendqisi2
 651 06a8 033080E0 		add	r3, r0, r3
 652 06ac 0030C4E5 		strb	r3, [r4, #0]
 653 06b0 0030D5E5 		ldrb	r3, [r5, #0]	@ zero_extendqisi2
 654 06b4 0020D4E5 		ldrb	r2, [r4, #0]	@ zero_extendqisi2
 655 06b8 023083E0 		add	r3, r3, r2
 656 06bc 0030C5E5 		strb	r3, [r5, #0]
 657 06c0 FEFFFFEB 		bl	uart1_transmit
 658 06c4 0A00DAE5 		ldrb	r0, [sl, #10]	@ zero_extendqisi2
 659 06c8 0030D4E5 		ldrb	r3, [r4, #0]	@ zero_extendqisi2
 660 06cc 033080E0 		add	r3, r0, r3
 661 06d0 0030C4E5 		strb	r3, [r4, #0]
 662 06d4 0030D5E5 		ldrb	r3, [r5, #0]	@ zero_extendqisi2
 663 06d8 0020D4E5 		ldrb	r2, [r4, #0]	@ zero_extendqisi2
 664 06dc 023083E0 		add	r3, r3, r2
 665 06e0 0030C5E5 		strb	r3, [r5, #0]
 666 06e4 FEFFFFEB 		bl	uart1_transmit
 667 06e8 0B00DAE5 		ldrb	r0, [sl, #11]	@ zero_extendqisi2
 668 06ec 0030D4E5 		ldrb	r3, [r4, #0]	@ zero_extendqisi2
 669 06f0 033080E0 		add	r3, r0, r3
 670 06f4 0030C4E5 		strb	r3, [r4, #0]
 671 06f8 0030D5E5 		ldrb	r3, [r5, #0]	@ zero_extendqisi2
 672 06fc 0020D4E5 		ldrb	r2, [r4, #0]	@ zero_extendqisi2
 673 0700 023083E0 		add	r3, r3, r2
 674 0704 0030C5E5 		strb	r3, [r5, #0]
 675 0708 FEFFFFEB 		bl	uart1_transmit
 676 070c 0000D4E5 		ldrb	r0, [r4, #0]	@ zero_extendqisi2
 677 0710 FEFFFFEB 		bl	uart1_transmit
 678 0714 0000D5E5 		ldrb	r0, [r5, #0]	@ zero_extendqisi2
 679 0718 FEFFFFEB 		bl	uart1_transmit
 680 071c CA0100EA 		b	.L24
 681              	.L17:
 682 0720 2C3097E5 		ldr	r3, [r7, #44]
 683 0724 030053E3 		cmp	r3, #3
 684 0728 01308302 		addeq	r3, r3, #1
 685 072c 2C308705 		streq	r3, [r7, #44]
 686              	.L24:
 687 0730 6C209FE5 		ldr	r2, .L28+68
 688 0734 2C3092E5 		ldr	r3, [r2, #44]
 689 0738 020053E3 		cmp	r3, #2
 690 073c D101000A 		beq	.L27
 691 0740 2C3092E5 		ldr	r3, [r2, #44]
 692 0744 030053E3 		cmp	r3, #3
 693 0748 D301001A 		bne	.L16
 694              	.L27:
 695 074c 0430A0E3 		mov	r3, #4
 696 0750 2C3082E5 		str	r3, [r2, #44]
 697              	.L16:
 698 0754 28D04BE2 		sub	sp, fp, #40
 699 0758 F06F9DE8 		ldmfd	sp, {r4, r5, r6, r7, r8, r9, sl, fp, sp, lr}
 700 075c 1EFF2FE1 		bx	lr
 701              	.L29:
 702              		.align	2
 703              	.L28:
 704 0760 00000000 		.word	ardu_ins_trans
 705 0764 00000000 		.word	recievedData
 706 0768 00000000 		.word	arduimu_eulers
 707 076c 00000000 		.word	arduimu_rates
 708 0770 00000000 		.word	arduimu_accel
 709 0774 00000000 		.word	ins_roll_neutral
 710 0778 00000000 		.word	estimator_phi
 711 077c 00000000 		.word	ins_pitch_neutral
 712 0780 00000000 		.word	prescaler.0
 713 0784 00000000 		.word	estimator_theta
 714 0788 00000000 		.word	estimator_p
 715 078c 00000000 		.word	downlink_nb_ovrn
 716 0790 00000000 		.word	downlink_nb_bytes
 717 0794 00000000 		.word	downlink_nb_msgs
 718 0798 00000000 		.word	ck_a
 719 079c 00000000 		.word	ck_b
 720 07a0 00000000 		.word	prescaler.1
 721 07a4 00000000 		.word	ardu_gps_trans
 723              		.global	arduimu_eulers
 724              		.section	.bss.arduimu_eulers,"aw",%nobits
 725              		.align	2
 728              	arduimu_eulers:
 729 0000 00000000 		.space	12
 729      00000000 
 729      00000000 
 730              		.global	arduimu_rates
 731              		.section	.bss.arduimu_rates,"aw",%nobits
 732              		.align	2
 735              	arduimu_rates:
 736 0000 00000000 		.space	12
 736      00000000 
 736      00000000 
 737              		.global	arduimu_accel
 738              		.section	.bss.arduimu_accel,"aw",%nobits
 739              		.align	2
 742              	arduimu_accel:
 743 0000 00000000 		.space	12
 743      00000000 
 743      00000000 
 744              		.global	ins_roll_neutral
 745              		.section	.bss.ins_roll_neutral,"aw",%nobits
 746              		.align	2
 749              	ins_roll_neutral:
 750 0000 00000000 		.space	4
 751              		.global	ins_pitch_neutral
 752              		.section	.bss.ins_pitch_neutral,"aw",%nobits
 753              		.align	2
 756              	ins_pitch_neutral:
 757 0000 00000000 		.space	4
 758              		.global	ardu_gps_trans
 759              		.section	.bss.ardu_gps_trans,"aw",%nobits
 760              		.align	2
 763              	ardu_gps_trans:
 764 0000 00000000 		.space	48
 764      00000000 
 764      00000000 
 764      00000000 
 764      00000000 
 765              		.global	ardu_ins_trans
 766              		.section	.bss.ardu_ins_trans,"aw",%nobits
 767              		.align	2
 770              	ardu_ins_trans:
 771 0000 00000000 		.space	48
 771      00000000 
 771      00000000 
 771      00000000 
 771      00000000 
 772              		.section	.bss.recievedData,"aw",%nobits
 773              		.align	1
 776              	recievedData:
 777 0000 00000000 		.space	18
 777      00000000 
 777      00000000 
 777      00000000 
 777      0000
 778              		.global	high_accel_flag
 779              		.section	.bss.high_accel_flag,"aw",%nobits
 782              	high_accel_flag:
 783 0000 00       		.space	1
 784              		.ident	"GCC: (GNU) 3.4.4"