   1              		.file	"main_ap.c"
   2              		.global	ac_ident
   3              		.section	.data.ac_ident,"aw",%progbits
   6              	ac_ident:
   7 0000 0A       		.byte	10
   8              		.global	gps_lost
   9              		.section	.data.gps_lost,"aw",%progbits
  12              	gps_lost:
  13 0000 00       		.byte	0
  14              		.global	launch
  15              		.section	.data.launch,"aw",%progbits
  18              	launch:
  19 0000 00       		.byte	0
  20              		.global	kill_throttle
  21              		.section	.data.kill_throttle,"aw",%progbits
  24              	kill_throttle:
  25 0000 00       		.byte	0
  26              		.global	lateral_mode
  27              		.section	.data.lateral_mode,"aw",%progbits
  30              	lateral_mode:
  31 0000 00       		.byte	0
  32              		.global	pprz_mode
  33              		.section	.data.pprz_mode,"aw",%progbits
  36              	pprz_mode:
  37 0000 02       		.byte	2
  38              		.global	fatal_error_nb
  39              		.section	.data.fatal_error_nb,"aw",%progbits
  42              	fatal_error_nb:
  43 0000 00       		.byte	0
  44              		.global	rc_settings_mode
  45              		.section	.data.rc_settings_mode,"aw",%progbits
  48              	rc_settings_mode:
  49 0000 00       		.byte	0
  50              		.section	.rodata.version,"a",%progbits
  51              		.align	1
  54              	version:
  55 0000 0100     		.short	1
  56              		.section	.bss.last_pprz_mode.58,"aw",%nobits
  59              	last_pprz_mode.58:
  60 0000 00       		.space	1
  61              		.global	__extendsfdf2
  62              		.global	__divdf3
  63              		.global	__fixunsdfsi
  64              		.global	__floatsidf
  65              		.global	__gtdf2
  66              		.global	__floatsisf
  67              		.global	__addsf3
  68              		.global	__muldf3
  69              		.global	__fixdfsi
  70              		.global	__gtsf2
  71              		.global	__ltsf2
  72              		.global	__divsf3
  73              		.global	__mulsf3
  74              		.section	.text.navigation_task,"ax",%progbits
  75              		.align	2
  77              	navigation_task:
  78              		@ Function supports interworking.
  79              		@ args = 0, pretend = 0, frame = 4
  80              		@ frame_needed = 1, uses_anonymous_args = 0
  81 0000 0DC0A0E1 		mov	ip, sp
  82 0004 F0D92DE9 		stmfd	sp!, {r4, r5, r6, r7, r8, fp, ip, lr, pc}
  83 0008 04B04CE2 		sub	fp, ip, #4
  84 000c 04D04DE2 		sub	sp, sp, #4
  85 0010 CC839FE5 		ldr	r8, .L35
  86 0014 0030D8E5 		ldrb	r3, [r8, #0]	@ zero_extendqisi2
  87 0018 000053E3 		cmp	r3, #0
  88 001c EC00000A 		beq	.L2
  89 0020 C0339FE5 		ldr	r3, .L35+4
  90 0024 C0239FE5 		ldr	r2, .L35+8
  91 0028 B030D3E1 		ldrh	r3, [r3, #0]
  92 002c B020D2E1 		ldrh	r2, [r2, #0]
  93 0030 033062E0 		rsb	r3, r2, r3
  94 0034 020053E3 		cmp	r3, #2
  95 0038 7E0000DA 		ble	.L3
  96 003c AC639FE5 		ldr	r6, .L35+12
  97 0040 0020D6E5 		ldrb	r2, [r6, #0]	@ zero_extendqisi2
  98 0044 023042E2 		sub	r3, r2, #2
  99 0048 010053E3 		cmp	r3, #1
 100 004c EC00008A 		bhi	.L2
 101 0050 9C339FE5 		ldr	r3, .L35+16
 102 0054 0020C3E5 		strb	r2, [r3, #0]
 103 0058 0430A0E3 		mov	r3, #4
 104 005c 0030C6E5 		strb	r3, [r6, #0]
 105 0060 0C00A0E3 		mov	r0, #12
 106 0064 FEFFFFEB 		bl	uart1_check_free_space
 107 0068 FF0010E3 		tst	r0, #255
 108 006c 98239F05 		ldreq	r2, .L35+40
 109 0070 0030D205 		ldreqb	r3, [r2, #0]	@ zero_extendqisi2
 110 0074 01308302 		addeq	r3, r3, #1
 111 0078 0030C205 		streqb	r3, [r2, #0]
 112 007c 7A00000A 		beq	.L6
 113 0080 88139FE5 		ldr	r1, .L35+44
 114 0084 88C39FE5 		ldr	ip, .L35+48
 115 0088 B030D1E1 		ldrh	r3, [r1, #0]
 116 008c B020DCE1 		ldrh	r2, [ip, #0]
 117 0090 0C3083E2 		add	r3, r3, #12
 118 0094 012082E2 		add	r2, r2, #1
 119 0098 B030C1E1 		strh	r3, [r1, #0]	@ movhi 
 120 009c B020CCE1 		strh	r2, [ip, #0]	@ movhi 
 121 00a0 9900A0E3 		mov	r0, #153
 122 00a4 6C439FE5 		ldr	r4, .L35+52
 123 00a8 FEFFFFEB 		bl	uart1_transmit
 124 00ac 0C00A0E3 		mov	r0, #12
 125 00b0 64539FE5 		ldr	r5, .L35+56
 126 00b4 FEFFFFEB 		bl	uart1_transmit
 127 00b8 1630A0E3 		mov	r3, #22
 128 00bc 0030C4E5 		strb	r3, [r4, #0]
 129 00c0 0C3083E2 		add	r3, r3, #12
 130 00c4 0A00A0E3 		mov	r0, #10
 131 00c8 0030C5E5 		strb	r3, [r5, #0]
 132 00cc FEFFFFEB 		bl	uart1_transmit
 133 00d0 0030D4E5 		ldrb	r3, [r4, #0]	@ zero_extendqisi2
 134 00d4 0B3083E2 		add	r3, r3, #11
 135 00d8 0030C4E5 		strb	r3, [r4, #0]
 136 00dc 0030D5E5 		ldrb	r3, [r5, #0]	@ zero_extendqisi2
 137 00e0 0020D4E5 		ldrb	r2, [r4, #0]	@ zero_extendqisi2
 138 00e4 023083E0 		add	r3, r3, r2
 139 00e8 0B00A0E3 		mov	r0, #11
 140 00ec 0030C5E5 		strb	r3, [r5, #0]
 141 00f0 FEFFFFEB 		bl	uart1_transmit
 142 00f4 0000D6E5 		ldrb	r0, [r6, #0]	@ zero_extendqisi2
 143 00f8 0030D4E5 		ldrb	r3, [r4, #0]	@ zero_extendqisi2
 144 00fc 033080E0 		add	r3, r0, r3
 145 0100 0030C4E5 		strb	r3, [r4, #0]
 146 0104 0030D5E5 		ldrb	r3, [r5, #0]	@ zero_extendqisi2
 147 0108 0020D4E5 		ldrb	r2, [r4, #0]	@ zero_extendqisi2
 148 010c 023083E0 		add	r3, r3, r2
 149 0110 0030C5E5 		strb	r3, [r5, #0]
 150 0114 FEFFFFEB 		bl	uart1_transmit
 151 0118 1C339FE5 		ldr	r3, .L35+88
 152 011c 0000D3E5 		ldrb	r0, [r3, #0]	@ zero_extendqisi2
 153 0120 0030D4E5 		ldrb	r3, [r4, #0]	@ zero_extendqisi2
 154 0124 033080E0 		add	r3, r0, r3
 155 0128 0030C4E5 		strb	r3, [r4, #0]
 156 012c 0030D5E5 		ldrb	r3, [r5, #0]	@ zero_extendqisi2
 157 0130 0020D4E5 		ldrb	r2, [r4, #0]	@ zero_extendqisi2
 158 0134 023083E0 		add	r3, r3, r2
 159 0138 0030C5E5 		strb	r3, [r5, #0]
 160 013c FEFFFFEB 		bl	uart1_transmit
 161 0140 F8329FE5 		ldr	r3, .L35+92
 162 0144 0000D3E5 		ldrb	r0, [r3, #0]	@ zero_extendqisi2
 163 0148 0030D4E5 		ldrb	r3, [r4, #0]	@ zero_extendqisi2
 164 014c 033080E0 		add	r3, r0, r3
 165 0150 0030C4E5 		strb	r3, [r4, #0]
 166 0154 0030D5E5 		ldrb	r3, [r5, #0]	@ zero_extendqisi2
 167 0158 0020D4E5 		ldrb	r2, [r4, #0]	@ zero_extendqisi2
 168 015c 023083E0 		add	r3, r3, r2
 169 0160 0030C5E5 		strb	r3, [r5, #0]
 170 0164 FEFFFFEB 		bl	uart1_transmit
 171 0168 88329FE5 		ldr	r3, .L35+20
 172 016c 0000D3E5 		ldrb	r0, [r3, #0]	@ zero_extendqisi2
 173 0170 0030D4E5 		ldrb	r3, [r4, #0]	@ zero_extendqisi2
 174 0174 033080E0 		add	r3, r0, r3
 175 0178 0030C4E5 		strb	r3, [r4, #0]
 176 017c 0030D5E5 		ldrb	r3, [r5, #0]	@ zero_extendqisi2
 177 0180 0020D4E5 		ldrb	r2, [r4, #0]	@ zero_extendqisi2
 178 0184 023083E0 		add	r3, r3, r2
 179 0188 0030C5E5 		strb	r3, [r5, #0]
 180 018c FEFFFFEB 		bl	uart1_transmit
 181 0190 64329FE5 		ldr	r3, .L35+24
 182 0194 0000D3E5 		ldrb	r0, [r3, #0]	@ zero_extendqisi2
 183 0198 0030D4E5 		ldrb	r3, [r4, #0]	@ zero_extendqisi2
 184 019c 033080E0 		add	r3, r0, r3
 185 01a0 0030C4E5 		strb	r3, [r4, #0]
 186 01a4 0030D5E5 		ldrb	r3, [r5, #0]	@ zero_extendqisi2
 187 01a8 0020D4E5 		ldrb	r2, [r4, #0]	@ zero_extendqisi2
 188 01ac 023083E0 		add	r3, r3, r2
 189 01b0 0030C5E5 		strb	r3, [r5, #0]
 190 01b4 FEFFFFEB 		bl	uart1_transmit
 191 01b8 40329FE5 		ldr	r3, .L35+28
 192 01bc 0000D3E5 		ldrb	r0, [r3, #0]	@ zero_extendqisi2
 193 01c0 0030D4E5 		ldrb	r3, [r4, #0]	@ zero_extendqisi2
 194 01c4 033080E0 		add	r3, r0, r3
 195 01c8 0030C4E5 		strb	r3, [r4, #0]
 196 01cc 0030D5E5 		ldrb	r3, [r5, #0]	@ zero_extendqisi2
 197 01d0 0020D4E5 		ldrb	r2, [r4, #0]	@ zero_extendqisi2
 198 01d4 023083E0 		add	r3, r3, r2
 199 01d8 0030C5E5 		strb	r3, [r5, #0]
 200 01dc FEFFFFEB 		bl	uart1_transmit
 201 01e0 0000D4E5 		ldrb	r0, [r4, #0]	@ zero_extendqisi2
 202 01e4 FEFFFFEB 		bl	uart1_transmit
 203 01e8 0000D5E5 		ldrb	r0, [r5, #0]	@ zero_extendqisi2
 204 01ec FEFFFFEB 		bl	uart1_transmit
 205              	.L6:
 206 01f0 0C329FE5 		ldr	r3, .L35+32
 207 01f4 0120A0E3 		mov	r2, #1
 208 01f8 0020C3E5 		strb	r2, [r3, #0]
 209 01fc EC0000EA 		b	.L2
 210              	.L3:
 211 0200 FC119FE5 		ldr	r1, .L35+32
 212 0204 0030D1E5 		ldrb	r3, [r1, #0]	@ zero_extendqisi2
 213 0208 000053E3 		cmp	r3, #0
 214 020c EC00000A 		beq	.L2
 215 0210 DC319FE5 		ldr	r3, .L35+16
 216 0214 D4619FE5 		ldr	r6, .L35+12
 217 0218 0020D3E5 		ldrb	r2, [r3, #0]	@ zero_extendqisi2
 218 021c 0030A0E3 		mov	r3, #0
 219 0220 0030C1E5 		strb	r3, [r1, #0]
 220 0224 0020C6E5 		strb	r2, [r6, #0]
 221 0228 0C00A0E3 		mov	r0, #12
 222 022c FEFFFFEB 		bl	uart1_check_free_space
 223 0230 FF0010E3 		tst	r0, #255
 224 0234 D0219F05 		ldreq	r2, .L35+40
 225 0238 0030D205 		ldreqb	r3, [r2, #0]	@ zero_extendqisi2
 226 023c 01308302 		addeq	r3, r3, #1
 227 0240 0030C205 		streqb	r3, [r2, #0]
 228 0244 EC00000A 		beq	.L2
 229 0248 C0119FE5 		ldr	r1, .L35+44
 230 024c C0C19FE5 		ldr	ip, .L35+48
 231 0250 B030D1E1 		ldrh	r3, [r1, #0]
 232 0254 B020DCE1 		ldrh	r2, [ip, #0]
 233 0258 0C3083E2 		add	r3, r3, #12
 234 025c 012082E2 		add	r2, r2, #1
 235 0260 B030C1E1 		strh	r3, [r1, #0]	@ movhi 
 236 0264 B020CCE1 		strh	r2, [ip, #0]	@ movhi 
 237 0268 9900A0E3 		mov	r0, #153
 238 026c A4419FE5 		ldr	r4, .L35+52
 239 0270 FEFFFFEB 		bl	uart1_transmit
 240 0274 0C00A0E3 		mov	r0, #12
 241 0278 9C519FE5 		ldr	r5, .L35+56
 242 027c FEFFFFEB 		bl	uart1_transmit
 243 0280 1630A0E3 		mov	r3, #22
 244 0284 0030C4E5 		strb	r3, [r4, #0]
 245 0288 0C3083E2 		add	r3, r3, #12
 246 028c 0A00A0E3 		mov	r0, #10
 247 0290 0030C5E5 		strb	r3, [r5, #0]
 248 0294 FEFFFFEB 		bl	uart1_transmit
 249 0298 0030D4E5 		ldrb	r3, [r4, #0]	@ zero_extendqisi2
 250 029c 0B3083E2 		add	r3, r3, #11
 251 02a0 0030C4E5 		strb	r3, [r4, #0]
 252 02a4 0030D5E5 		ldrb	r3, [r5, #0]	@ zero_extendqisi2
 253 02a8 0020D4E5 		ldrb	r2, [r4, #0]	@ zero_extendqisi2
 254 02ac 023083E0 		add	r3, r3, r2
 255 02b0 0B00A0E3 		mov	r0, #11
 256 02b4 0030C5E5 		strb	r3, [r5, #0]
 257 02b8 FEFFFFEB 		bl	uart1_transmit
 258 02bc 0000D6E5 		ldrb	r0, [r6, #0]	@ zero_extendqisi2
 259 02c0 0030D4E5 		ldrb	r3, [r4, #0]	@ zero_extendqisi2
 260 02c4 033080E0 		add	r3, r0, r3
 261 02c8 0030C4E5 		strb	r3, [r4, #0]
 262 02cc 0030D5E5 		ldrb	r3, [r5, #0]	@ zero_extendqisi2
 263 02d0 0020D4E5 		ldrb	r2, [r4, #0]	@ zero_extendqisi2
 264 02d4 023083E0 		add	r3, r3, r2
 265 02d8 0030C5E5 		strb	r3, [r5, #0]
 266 02dc FEFFFFEB 		bl	uart1_transmit
 267 02e0 54319FE5 		ldr	r3, .L35+88
 268 02e4 0000D3E5 		ldrb	r0, [r3, #0]	@ zero_extendqisi2
 269 02e8 0030D4E5 		ldrb	r3, [r4, #0]	@ zero_extendqisi2
 270 02ec 033080E0 		add	r3, r0, r3
 271 02f0 0030C4E5 		strb	r3, [r4, #0]
 272 02f4 0030D5E5 		ldrb	r3, [r5, #0]	@ zero_extendqisi2
 273 02f8 0020D4E5 		ldrb	r2, [r4, #0]	@ zero_extendqisi2
 274 02fc 023083E0 		add	r3, r3, r2
 275 0300 0030C5E5 		strb	r3, [r5, #0]
 276 0304 FEFFFFEB 		bl	uart1_transmit
 277 0308 30319FE5 		ldr	r3, .L35+92
 278 030c 0000D3E5 		ldrb	r0, [r3, #0]	@ zero_extendqisi2
 279 0310 0030D4E5 		ldrb	r3, [r4, #0]	@ zero_extendqisi2
 280 0314 033080E0 		add	r3, r0, r3
 281 0318 0030C4E5 		strb	r3, [r4, #0]
 282 031c 0030D5E5 		ldrb	r3, [r5, #0]	@ zero_extendqisi2
 283 0320 0020D4E5 		ldrb	r2, [r4, #0]	@ zero_extendqisi2
 284 0324 023083E0 		add	r3, r3, r2
 285 0328 0030C5E5 		strb	r3, [r5, #0]
 286 032c FEFFFFEB 		bl	uart1_transmit
 287 0330 C0309FE5 		ldr	r3, .L35+20
 288 0334 0000D3E5 		ldrb	r0, [r3, #0]	@ zero_extendqisi2
 289 0338 0030D4E5 		ldrb	r3, [r4, #0]	@ zero_extendqisi2
 290 033c 033080E0 		add	r3, r0, r3
 291 0340 0030C4E5 		strb	r3, [r4, #0]
 292 0344 0030D5E5 		ldrb	r3, [r5, #0]	@ zero_extendqisi2
 293 0348 0020D4E5 		ldrb	r2, [r4, #0]	@ zero_extendqisi2
 294 034c 023083E0 		add	r3, r3, r2
 295 0350 0030C5E5 		strb	r3, [r5, #0]
 296 0354 FEFFFFEB 		bl	uart1_transmit
 297 0358 9C309FE5 		ldr	r3, .L35+24
 298 035c 0000D3E5 		ldrb	r0, [r3, #0]	@ zero_extendqisi2
 299 0360 0030D4E5 		ldrb	r3, [r4, #0]	@ zero_extendqisi2
 300 0364 033080E0 		add	r3, r0, r3
 301 0368 0030C4E5 		strb	r3, [r4, #0]
 302 036c 0030D5E5 		ldrb	r3, [r5, #0]	@ zero_extendqisi2
 303 0370 0020D4E5 		ldrb	r2, [r4, #0]	@ zero_extendqisi2
 304 0374 023083E0 		add	r3, r3, r2
 305 0378 0030C5E5 		strb	r3, [r5, #0]
 306 037c FEFFFFEB 		bl	uart1_transmit
 307 0380 78309FE5 		ldr	r3, .L35+28
 308 0384 0000D3E5 		ldrb	r0, [r3, #0]	@ zero_extendqisi2
 309 0388 0030D4E5 		ldrb	r3, [r4, #0]	@ zero_extendqisi2
 310 038c 033080E0 		add	r3, r0, r3
 311 0390 0030C4E5 		strb	r3, [r4, #0]
 312 0394 0030D5E5 		ldrb	r3, [r5, #0]	@ zero_extendqisi2
 313 0398 0020D4E5 		ldrb	r2, [r4, #0]	@ zero_extendqisi2
 314 039c 023083E0 		add	r3, r3, r2
 315 03a0 0030C5E5 		strb	r3, [r5, #0]
 316 03a4 FEFFFFEB 		bl	uart1_transmit
 317 03a8 0000D4E5 		ldrb	r0, [r4, #0]	@ zero_extendqisi2
 318 03ac FEFFFFEB 		bl	uart1_transmit
 319 03b0 0000D5E5 		ldrb	r0, [r5, #0]	@ zero_extendqisi2
 320 03b4 FEFFFFEB 		bl	uart1_transmit
 321              	.L2:
 322 03b8 30709FE5 		ldr	r7, .L35+12
 323 03bc FEFFFFEB 		bl	common_nav_periodic_task_4Hz
 324 03c0 0030D7E5 		ldrb	r3, [r7, #0]	@ zero_extendqisi2
 325 03c4 030053E3 		cmp	r3, #3
 326 03c8 F300001A 		bne	.L11
 327 03cc FEFFFFEB 		bl	nav_home
 328 03d0 150100EA 		b	.L12
 329              	.L11:
 330 03d4 040053E3 		cmp	r3, #4
 331 03d8 1401001A 		bne	.L13
 332 03dc FEFFFFEB 		bl	nav_without_gps
 333 03e0 150100EA 		b	.L12
 334              	.L36:
 335              		.align	2
 336              	.L35:
 337 03e4 00000000 		.word	launch
 338 03e8 00000000 		.word	cpu_time_sec
 339 03ec 00000000 		.word	last_gps_msg_t
 340 03f0 00000000 		.word	pprz_mode
 341 03f4 00000000 		.word	last_pprz_mode.58
 342 03f8 00000000 		.word	horizontal_mode
 343 03fc 00000000 		.word	rc_settings_mode
 344 0400 00000000 		.word	mcu1_status
 345 0404 00000000 		.word	gps_lost
 346 0408 00000000 		.word	nav_circle_radians
 347 040c 00000000 		.word	downlink_nb_ovrn
 348 0410 00000000 		.word	downlink_nb_bytes
 349 0414 00000000 		.word	downlink_nb_msgs
 350 0418 00000000 		.word	ck_a
 351 041c 00000000 		.word	ck_b
 352 0420 00000000 		.word	nav_block
 353 0424 00000000 		.word	nav_stage
 354 0428 00000000 		.word	estimator_x
 355 042c 00000000 		.word	estimator_y
 356 0430 00000000 		.word	dist2_to_wp
 357 0434 00000000 		.word	dist2_to_home
 358 0438 00000000 		.word	nav_oval_count
 359 043c 00000000 		.word	v_ctl_mode
 360 0440 00000000 		.word	lateral_mode
 361 0444 00000000 		.word	nav_throttle_setpoint
 362 0448 00000000 		.word	v_ctl_throttle_setpoint
 363 044c 00000000 		.word	vsupply
 364 0450 FB211940 		.word	1075388923
 365 0454 182D4454 		.word	1413754136
 366              	.L13:
 367 0458 FEFFFFEB 		bl	nav_periodic_task
 368              	.L12:
 369 045c 5C301FE5 		ldr	r3, .L35+36
 370 0460 003093E5 		ldr	r3, [r3, #0]
 371 0464 0201C3E3 		bic	r0, r3, #-2147483648
 372 0468 FEFFFFEB 		bl	__extendsfdf2
 373 046c 24204FE2 		adr	r2, .L35+108
 374 0470 0C0092E8 		ldmia	r2, {r2-r3}
 375 0474 FEFFFFEB 		bl	__divdf3
 376 0478 FEFFFFEB 		bl	__fixunsdfsi
 377 047c 21004BE5 		strb	r0, [fp, #-33]
 378 0480 1A00A0E3 		mov	r0, #26
 379 0484 FEFFFFEB 		bl	uart1_check_free_space
 380 0488 FF0010E3 		tst	r0, #255
 381 048c 88201F05 		ldreq	r2, .L35+40
 382 0490 0030D205 		ldreqb	r3, [r2, #0]	@ zero_extendqisi2
 383 0494 01308302 		addeq	r3, r3, #1
 384 0498 0030C205 		streqb	r3, [r2, #0]
 385 049c 0202000A 		beq	.L16
 386 04a0 98101FE5 		ldr	r1, .L35+44
 387 04a4 98C01FE5 		ldr	ip, .L35+48
 388 04a8 B030D1E1 		ldrh	r3, [r1, #0]
 389 04ac B020DCE1 		ldrh	r2, [ip, #0]
 390 04b0 1A3083E2 		add	r3, r3, #26
 391 04b4 012082E2 		add	r2, r2, #1
 392 04b8 B030C1E1 		strh	r3, [r1, #0]	@ movhi 
 393 04bc B020CCE1 		strh	r2, [ip, #0]	@ movhi 
 394 04c0 9900A0E3 		mov	r0, #153
 395 04c4 B4401FE5 		ldr	r4, .L35+52
 396 04c8 FEFFFFEB 		bl	uart1_transmit
 397 04cc 1A00A0E3 		mov	r0, #26
 398 04d0 BC501FE5 		ldr	r5, .L35+56
 399 04d4 FEFFFFEB 		bl	uart1_transmit
 400 04d8 2430A0E3 		mov	r3, #36
 401 04dc 0030C4E5 		strb	r3, [r4, #0]
 402 04e0 1A3083E2 		add	r3, r3, #26
 403 04e4 0A00A0E3 		mov	r0, #10
 404 04e8 0030C5E5 		strb	r3, [r5, #0]
 405 04ec FEFFFFEB 		bl	uart1_transmit
 406 04f0 0030D4E5 		ldrb	r3, [r4, #0]	@ zero_extendqisi2
 407 04f4 0A3083E2 		add	r3, r3, #10
 408 04f8 0030C4E5 		strb	r3, [r4, #0]
 409 04fc 0030D5E5 		ldrb	r3, [r5, #0]	@ zero_extendqisi2
 410 0500 0020D4E5 		ldrb	r2, [r4, #0]	@ zero_extendqisi2
 411 0504 023083E0 		add	r3, r3, r2
 412 0508 0A00A0E3 		mov	r0, #10
 413 050c 0030C5E5 		strb	r3, [r5, #0]
 414 0510 FEFFFFEB 		bl	uart1_transmit
 415 0514 FC301FE5 		ldr	r3, .L35+60
 416 0518 0000D3E5 		ldrb	r0, [r3, #0]	@ zero_extendqisi2
 417 051c 0030D4E5 		ldrb	r3, [r4, #0]	@ zero_extendqisi2
 418 0520 033080E0 		add	r3, r0, r3
 419 0524 0030C4E5 		strb	r3, [r4, #0]
 420 0528 0030D5E5 		ldrb	r3, [r5, #0]	@ zero_extendqisi2
 421 052c 0020D4E5 		ldrb	r2, [r4, #0]	@ zero_extendqisi2
 422 0530 023083E0 		add	r3, r3, r2
 423 0534 0030C5E5 		strb	r3, [r5, #0]
 424 0538 FEFFFFEB 		bl	uart1_transmit
 425 053c 20311FE5 		ldr	r3, .L35+64
 426 0540 0000D3E5 		ldrb	r0, [r3, #0]	@ zero_extendqisi2
 427 0544 0030D4E5 		ldrb	r3, [r4, #0]	@ zero_extendqisi2
 428 0548 033080E0 		add	r3, r0, r3
 429 054c 0030C4E5 		strb	r3, [r4, #0]
 430 0550 0030D5E5 		ldrb	r3, [r5, #0]	@ zero_extendqisi2
 431 0554 0020D4E5 		ldrb	r2, [r4, #0]	@ zero_extendqisi2
 432 0558 38611FE5 		ldr	r6, .L35+68
 433 055c 023083E0 		add	r3, r3, r2
 434 0560 0030C5E5 		strb	r3, [r5, #0]
 435 0564 FEFFFFEB 		bl	uart1_transmit
 436 0568 0000D6E5 		ldrb	r0, [r6, #0]	@ zero_extendqisi2
 437 056c 0030D4E5 		ldrb	r3, [r4, #0]	@ zero_extendqisi2
 438 0570 033080E0 		add	r3, r0, r3
 439 0574 0030C4E5 		strb	r3, [r4, #0]
 440 0578 0030D5E5 		ldrb	r3, [r5, #0]	@ zero_extendqisi2
 441 057c 0020D4E5 		ldrb	r2, [r4, #0]	@ zero_extendqisi2
 442 0580 023083E0 		add	r3, r3, r2
 443 0584 0030C5E5 		strb	r3, [r5, #0]
 444 0588 FEFFFFEB 		bl	uart1_transmit
 445 058c 0100D6E5 		ldrb	r0, [r6, #1]	@ zero_extendqisi2
 446 0590 0030D4E5 		ldrb	r3, [r4, #0]	@ zero_extendqisi2
 447 0594 033080E0 		add	r3, r0, r3
 448 0598 0030C4E5 		strb	r3, [r4, #0]
 449 059c 0030D5E5 		ldrb	r3, [r5, #0]	@ zero_extendqisi2
 450 05a0 0020D4E5 		ldrb	r2, [r4, #0]	@ zero_extendqisi2
 451 05a4 023083E0 		add	r3, r3, r2
 452 05a8 0030C5E5 		strb	r3, [r5, #0]
 453 05ac FEFFFFEB 		bl	uart1_transmit
 454 05b0 0200D6E5 		ldrb	r0, [r6, #2]	@ zero_extendqisi2
 455 05b4 0030D4E5 		ldrb	r3, [r4, #0]	@ zero_extendqisi2
 456 05b8 033080E0 		add	r3, r0, r3
 457 05bc 0030C4E5 		strb	r3, [r4, #0]
 458 05c0 0030D5E5 		ldrb	r3, [r5, #0]	@ zero_extendqisi2
 459 05c4 0020D4E5 		ldrb	r2, [r4, #0]	@ zero_extendqisi2
 460 05c8 023083E0 		add	r3, r3, r2
 461 05cc 0030C5E5 		strb	r3, [r5, #0]
 462 05d0 FEFFFFEB 		bl	uart1_transmit
 463 05d4 0300D6E5 		ldrb	r0, [r6, #3]	@ zero_extendqisi2
 464 05d8 0030D4E5 		ldrb	r3, [r4, #0]	@ zero_extendqisi2
 465 05dc 033080E0 		add	r3, r0, r3
 466 05e0 0030C4E5 		strb	r3, [r4, #0]
 467 05e4 0030D5E5 		ldrb	r3, [r5, #0]	@ zero_extendqisi2
 468 05e8 0020D4E5 		ldrb	r2, [r4, #0]	@ zero_extendqisi2
 469 05ec C8611FE5 		ldr	r6, .L35+72
 470 05f0 023083E0 		add	r3, r3, r2
 471 05f4 0030C5E5 		strb	r3, [r5, #0]
 472 05f8 FEFFFFEB 		bl	uart1_transmit
 473 05fc 0000D6E5 		ldrb	r0, [r6, #0]	@ zero_extendqisi2
 474 0600 0030D4E5 		ldrb	r3, [r4, #0]	@ zero_extendqisi2
 475 0604 033080E0 		add	r3, r0, r3
 476 0608 0030C4E5 		strb	r3, [r4, #0]
 477 060c 0030D5E5 		ldrb	r3, [r5, #0]	@ zero_extendqisi2
 478 0610 0020D4E5 		ldrb	r2, [r4, #0]	@ zero_extendqisi2
 479 0614 023083E0 		add	r3, r3, r2
 480 0618 0030C5E5 		strb	r3, [r5, #0]
 481 061c FEFFFFEB 		bl	uart1_transmit
 482 0620 0100D6E5 		ldrb	r0, [r6, #1]	@ zero_extendqisi2
 483 0624 0030D4E5 		ldrb	r3, [r4, #0]	@ zero_extendqisi2
 484 0628 033080E0 		add	r3, r0, r3
 485 062c 0030C4E5 		strb	r3, [r4, #0]
 486 0630 0030D5E5 		ldrb	r3, [r5, #0]	@ zero_extendqisi2
 487 0634 0020D4E5 		ldrb	r2, [r4, #0]	@ zero_extendqisi2
 488 0638 023083E0 		add	r3, r3, r2
 489 063c 0030C5E5 		strb	r3, [r5, #0]
 490 0640 FEFFFFEB 		bl	uart1_transmit
 491 0644 0200D6E5 		ldrb	r0, [r6, #2]	@ zero_extendqisi2
 492 0648 0030D4E5 		ldrb	r3, [r4, #0]	@ zero_extendqisi2
 493 064c 033080E0 		add	r3, r0, r3
 494 0650 0030C4E5 		strb	r3, [r4, #0]
 495 0654 0030D5E5 		ldrb	r3, [r5, #0]	@ zero_extendqisi2
 496 0658 0020D4E5 		ldrb	r2, [r4, #0]	@ zero_extendqisi2
 497 065c 023083E0 		add	r3, r3, r2
 498 0660 0030C5E5 		strb	r3, [r5, #0]
 499 0664 FEFFFFEB 		bl	uart1_transmit
 500 0668 0300D6E5 		ldrb	r0, [r6, #3]	@ zero_extendqisi2
 501 066c 0030D4E5 		ldrb	r3, [r4, #0]	@ zero_extendqisi2
 502 0670 033080E0 		add	r3, r0, r3
 503 0674 0030C4E5 		strb	r3, [r4, #0]
 504 0678 0030D5E5 		ldrb	r3, [r5, #0]	@ zero_extendqisi2
 505 067c 0020D4E5 		ldrb	r2, [r4, #0]	@ zero_extendqisi2
 506 0680 58621FE5 		ldr	r6, .L35+76
 507 0684 023083E0 		add	r3, r3, r2
 508 0688 0030C5E5 		strb	r3, [r5, #0]
 509 068c FEFFFFEB 		bl	uart1_transmit
 510 0690 0000D6E5 		ldrb	r0, [r6, #0]	@ zero_extendqisi2
 511 0694 0030D4E5 		ldrb	r3, [r4, #0]	@ zero_extendqisi2
 512 0698 033080E0 		add	r3, r0, r3
 513 069c 0030C4E5 		strb	r3, [r4, #0]
 514 06a0 0030D5E5 		ldrb	r3, [r5, #0]	@ zero_extendqisi2
 515 06a4 0020D4E5 		ldrb	r2, [r4, #0]	@ zero_extendqisi2
 516 06a8 023083E0 		add	r3, r3, r2
 517 06ac 0030C5E5 		strb	r3, [r5, #0]
 518 06b0 FEFFFFEB 		bl	uart1_transmit
 519 06b4 0100D6E5 		ldrb	r0, [r6, #1]	@ zero_extendqisi2
 520 06b8 0030D4E5 		ldrb	r3, [r4, #0]	@ zero_extendqisi2
 521 06bc 033080E0 		add	r3, r0, r3
 522 06c0 0030C4E5 		strb	r3, [r4, #0]
 523 06c4 0030D5E5 		ldrb	r3, [r5, #0]	@ zero_extendqisi2
 524 06c8 0020D4E5 		ldrb	r2, [r4, #0]	@ zero_extendqisi2
 525 06cc 023083E0 		add	r3, r3, r2
 526 06d0 0030C5E5 		strb	r3, [r5, #0]
 527 06d4 FEFFFFEB 		bl	uart1_transmit
 528 06d8 0200D6E5 		ldrb	r0, [r6, #2]	@ zero_extendqisi2
 529 06dc 0030D4E5 		ldrb	r3, [r4, #0]	@ zero_extendqisi2
 530 06e0 033080E0 		add	r3, r0, r3
 531 06e4 0030C4E5 		strb	r3, [r4, #0]
 532 06e8 0030D5E5 		ldrb	r3, [r5, #0]	@ zero_extendqisi2
 533 06ec 0020D4E5 		ldrb	r2, [r4, #0]	@ zero_extendqisi2
 534 06f0 023083E0 		add	r3, r3, r2
 535 06f4 0030C5E5 		strb	r3, [r5, #0]
 536 06f8 FEFFFFEB 		bl	uart1_transmit
 537 06fc 0300D6E5 		ldrb	r0, [r6, #3]	@ zero_extendqisi2
 538 0700 0030D4E5 		ldrb	r3, [r4, #0]	@ zero_extendqisi2
 539 0704 033080E0 		add	r3, r0, r3
 540 0708 0030C4E5 		strb	r3, [r4, #0]
 541 070c 0030D5E5 		ldrb	r3, [r5, #0]	@ zero_extendqisi2
 542 0710 0020D4E5 		ldrb	r2, [r4, #0]	@ zero_extendqisi2
 543 0714 E8621FE5 		ldr	r6, .L35+80
 544 0718 023083E0 		add	r3, r3, r2
 545 071c 0030C5E5 		strb	r3, [r5, #0]
 546 0720 FEFFFFEB 		bl	uart1_transmit
 547 0724 0000D6E5 		ldrb	r0, [r6, #0]	@ zero_extendqisi2
 548 0728 0030D4E5 		ldrb	r3, [r4, #0]	@ zero_extendqisi2
 549 072c 033080E0 		add	r3, r0, r3
 550 0730 0030C4E5 		strb	r3, [r4, #0]
 551 0734 0030D5E5 		ldrb	r3, [r5, #0]	@ zero_extendqisi2
 552 0738 0020D4E5 		ldrb	r2, [r4, #0]	@ zero_extendqisi2
 553 073c 023083E0 		add	r3, r3, r2
 554 0740 0030C5E5 		strb	r3, [r5, #0]
 555 0744 FEFFFFEB 		bl	uart1_transmit
 556 0748 0100D6E5 		ldrb	r0, [r6, #1]	@ zero_extendqisi2
 557 074c 0030D4E5 		ldrb	r3, [r4, #0]	@ zero_extendqisi2
 558 0750 033080E0 		add	r3, r0, r3
 559 0754 0030C4E5 		strb	r3, [r4, #0]
 560 0758 0030D5E5 		ldrb	r3, [r5, #0]	@ zero_extendqisi2
 561 075c 0020D4E5 		ldrb	r2, [r4, #0]	@ zero_extendqisi2
 562 0760 023083E0 		add	r3, r3, r2
 563 0764 0030C5E5 		strb	r3, [r5, #0]
 564 0768 FEFFFFEB 		bl	uart1_transmit
 565 076c 0200D6E5 		ldrb	r0, [r6, #2]	@ zero_extendqisi2
 566 0770 0030D4E5 		ldrb	r3, [r4, #0]	@ zero_extendqisi2
 567 0774 033080E0 		add	r3, r0, r3
 568 0778 0030C4E5 		strb	r3, [r4, #0]
 569 077c 0030D5E5 		ldrb	r3, [r5, #0]	@ zero_extendqisi2
 570 0780 0020D4E5 		ldrb	r2, [r4, #0]	@ zero_extendqisi2
 571 0784 023083E0 		add	r3, r3, r2
 572 0788 0030C5E5 		strb	r3, [r5, #0]
 573 078c FEFFFFEB 		bl	uart1_transmit
 574 0790 0300D6E5 		ldrb	r0, [r6, #3]	@ zero_extendqisi2
 575 0794 0030D4E5 		ldrb	r3, [r4, #0]	@ zero_extendqisi2
 576 0798 033080E0 		add	r3, r0, r3
 577 079c 0030C4E5 		strb	r3, [r4, #0]
 578 07a0 0030D5E5 		ldrb	r3, [r5, #0]	@ zero_extendqisi2
 579 07a4 0020D4E5 		ldrb	r2, [r4, #0]	@ zero_extendqisi2
 580 07a8 023083E0 		add	r3, r3, r2
 581 07ac 0030C5E5 		strb	r3, [r5, #0]
 582 07b0 FEFFFFEB 		bl	uart1_transmit
 583 07b4 21005BE5 		ldrb	r0, [fp, #-33]	@ zero_extendqisi2
 584 07b8 0030D4E5 		ldrb	r3, [r4, #0]	@ zero_extendqisi2
 585 07bc 033080E0 		add	r3, r0, r3
 586 07c0 0030C4E5 		strb	r3, [r4, #0]
 587 07c4 0030D5E5 		ldrb	r3, [r5, #0]	@ zero_extendqisi2
 588 07c8 0020D4E5 		ldrb	r2, [r4, #0]	@ zero_extendqisi2
 589 07cc 023083E0 		add	r3, r3, r2
 590 07d0 0030C5E5 		strb	r3, [r5, #0]
 591 07d4 FEFFFFEB 		bl	uart1_transmit
 592 07d8 A8331FE5 		ldr	r3, .L35+84
 593 07dc 0000D3E5 		ldrb	r0, [r3, #0]	@ zero_extendqisi2
 594 07e0 0030D4E5 		ldrb	r3, [r4, #0]	@ zero_extendqisi2
 595 07e4 033080E0 		add	r3, r0, r3
 596 07e8 0030C4E5 		strb	r3, [r4, #0]
 597 07ec 0030D5E5 		ldrb	r3, [r5, #0]	@ zero_extendqisi2
 598 07f0 0020D4E5 		ldrb	r2, [r4, #0]	@ zero_extendqisi2
 599 07f4 023083E0 		add	r3, r3, r2
 600 07f8 0030C5E5 		strb	r3, [r5, #0]
 601 07fc FEFFFFEB 		bl	uart1_transmit
 602 0800 0000D4E5 		ldrb	r0, [r4, #0]	@ zero_extendqisi2
 603 0804 FEFFFFEB 		bl	uart1_transmit
 604 0808 0000D5E5 		ldrb	r0, [r5, #0]	@ zero_extendqisi2
 605 080c FEFFFFEB 		bl	uart1_transmit
 606              	.L16:
 607 0810 DC431FE5 		ldr	r4, .L35+88
 608 0814 0030D4E5 		ldrb	r3, [r4, #0]	@ zero_extendqisi2
 609 0818 030053E3 		cmp	r3, #3
 610 081c FEFFFF0B 		bleq	v_ctl_altitude_loop
 611              	.L17:
 612 0820 0030D7E5 		ldrb	r3, [r7, #0]	@ zero_extendqisi2
 613 0824 023043E2 		sub	r3, r3, #2
 614 0828 020053E3 		cmp	r3, #2
 615 082c 6002008A 		bhi	.L18
 616 0830 F8331FE5 		ldr	r3, .L35+92
 617 0834 0030D3E5 		ldrb	r3, [r3, #0]	@ zero_extendqisi2
 618 0838 020053E3 		cmp	r3, #2
 619 083c FEFFFF8B 		blhi	h_ctl_course_loop
 620              	.L19:
 621 0840 0030D4E5 		ldrb	r3, [r4, #0]	@ zero_extendqisi2
 622 0844 010053E3 		cmp	r3, #1
 623 0848 FEFFFF8B 		blhi	v_ctl_climb_loop
 624              	.L20:
 625 084c 0030D4E5 		ldrb	r3, [r4, #0]	@ zero_extendqisi2
 626 0850 010053E3 		cmp	r3, #1
 627 0854 18241F05 		ldreq	r2, .L35+96
 628 0858 18341F05 		ldreq	r3, .L35+100
 629 085c B020D201 		ldreqh	r2, [r2, #0]
 630 0860 B020C301 		streqh	r2, [r3, #0]	@ movhi 
 631 0864 20341FE5 		ldr	r3, .L35+104
 632 0868 0040D3E5 		ldrb	r4, [r3, #0]	@ zero_extendqisi2
 633 086c 0400A0E1 		mov	r0, r4
 634 0870 FEFFFFEB 		bl	__floatsidf
 635 0874 522F8FE2 		adr	r2, .L37
 636 0878 0C0092E8 		ldmia	r2, {r2-r3}
 637 087c FEFFFFEB 		bl	__gtdf2
 638 0880 000050E3 		cmp	r0, #0
 639 0884 410200DA 		ble	.L22
 640 0888 44719FE5 		ldr	r7, .L37+16
 641 088c F000D7E1 		ldrsh	r0, [r7, #0]
 642 0890 FEFFFFEB 		bl	__floatsidf
 643 0894 044CA0E1 		mov	r4, r4, asl #24
 644 0898 444CA0E1 		mov	r4, r4, asr #24
 645 089c 0160A0E1 		mov	r6, r1
 646 08a0 0050A0E1 		mov	r5, r0
 647 08a4 0400A0E1 		mov	r0, r4
 648 08a8 FEFFFFEB 		bl	__floatsisf
 649 08ac 000054E3 		cmp	r4, #0
 650 08b0 20119FB5 		ldrlt	r1, .L37+20
 651 08b4 FEFFFFBB 		bllt	__addsf3
 652              	.L24:
 653 08b8 FEFFFFEB 		bl	__extendsfdf2
 654 08bc 0130A0E1 		mov	r3, r1
 655 08c0 0020A0E1 		mov	r2, r0
 656 08c4 010C8FE2 		adr	r0, .L37+8
 657 08c8 030090E8 		ldmia	r0, {r0-r1}
 658 08cc FEFFFFEB 		bl	__divdf3
 659 08d0 0130A0E1 		mov	r3, r1
 660 08d4 0020A0E1 		mov	r2, r0
 661 08d8 0610A0E1 		mov	r1, r6
 662 08dc 0500A0E1 		mov	r0, r5
 663 08e0 FEFFFFEB 		bl	__muldf3
 664 08e4 FEFFFFEB 		bl	__fixdfsi
 665 08e8 B000C7E1 		strh	r0, [r7, #0]	@ movhi 
 666 08ec F030D7E1 		ldrsh	r3, [r7, #0]
 667 08f0 000053E3 		cmp	r3, #0
 668 08f4 0720A0E1 		mov	r2, r7
 669 08f8 0030A0B3 		movlt	r3, #0	@ movhi
 670 08fc 400200BA 		blt	.L26
 671 0900 960D53E3 		cmp	r3, #9600
 672 0904 963DA0A3 		movge	r3, #9600
 673              	.L26:
 674 0908 B030C2E1 		strh	r3, [r2, #0]	@ movhi 
 675              	.L22:
 676 090c C8309FE5 		ldr	r3, .L37+24
 677 0910 C8509FE5 		ldr	r5, .L37+28
 678 0914 004093E5 		ldr	r4, [r3, #0]	@ float
 679 0918 3F14A0E3 		mov	r1, #1056964608
 680 091c 0400A0E1 		mov	r0, r4
 681 0920 004085E5 		str	r4, [r5, #0]	@ float
 682 0924 FEFFFFEB 		bl	__gtsf2
 683 0928 000050E3 		cmp	r0, #0
 684 092c 3F34A0C3 		movgt	r3, #1056964608
 685 0930 510200CA 		bgt	.L34
 686 0934 0400A0E1 		mov	r0, r4
 687 0938 BF14A0E3 		mov	r1, #-1090519040
 688 093c FEFFFFEB 		bl	__ltsf2
 689 0940 000050E3 		cmp	r0, #0
 690 0944 520200AA 		bge	.L29
 691 0948 BF34A0E3 		mov	r3, #-1090519040
 692              	.L34:
 693 094c 003085E5 		str	r3, [r5, #0]	@ float
 694              	.L29:
 695 0950 8C309FE5 		ldr	r3, .L37+32
 696 0954 0030D3E5 		ldrb	r3, [r3, #0]	@ zero_extendqisi2
 697 0958 000053E3 		cmp	r3, #0
 698 095c 5D02001A 		bne	.L33
 699 0960 80309FE5 		ldr	r3, .L37+36
 700 0964 B030D3E1 		ldrh	r3, [r3, #0]
 701 0968 000053E3 		cmp	r3, #0
 702 096c 6002001A 		bne	.L18
 703 0970 0030D8E5 		ldrb	r3, [r8, #0]	@ zero_extendqisi2
 704 0974 000053E3 		cmp	r3, #0
 705 0978 6002001A 		bne	.L18
 706              	.L33:
 707 097c 50309FE5 		ldr	r3, .L37+16
 708 0980 0020A0E3 		mov	r2, #0	@ movhi
 709 0984 B020C3E1 		strh	r2, [r3, #0]	@ movhi 
 710              	.L18:
 711 0988 5C309FE5 		ldr	r3, .L37+40
 712 098c 000093E5 		ldr	r0, [r3, #0]
 713 0990 FEFFFFEB 		bl	__floatsisf
 714 0994 54109FE5 		ldr	r1, .L37+44
 715 0998 FEFFFFEB 		bl	__divsf3
 716 099c FA15A0E3 		mov	r1, #1048576000
 717 09a0 FEFFFFEB 		bl	__mulsf3
 718 09a4 48409FE5 		ldr	r4, .L37+48
 719 09a8 0010A0E1 		mov	r1, r0
 720 09ac 000094E5 		ldr	r0, [r4, #0]	@ float
 721 09b0 FEFFFFEB 		bl	__addsf3
 722 09b4 000084E5 		str	r0, [r4, #0]	@ float
 723 09b8 20D04BE2 		sub	sp, fp, #32
 724 09bc F0699DE8 		ldmfd	sp, {r4, r5, r6, r7, r8, fp, sp, lr}
 725 09c0 1EFF2FE1 		bx	lr
 726              	.L38:
 727              		.align	2
 728              	.L37:
 729 09c4 00000000 		.word	0
 730 09c8 00000000 		.word	0
 731 09cc 00C05B40 		.word	1079754752
 732 09d0 00000000 		.word	0
 733 09d4 00000000 		.word	v_ctl_throttle_setpoint
 734 09d8 00008043 		.word	1132462080
 735 09dc 00000000 		.word	nav_pitch
 736 09e0 00000000 		.word	h_ctl_pitch_setpoint
 737 09e4 00000000 		.word	kill_throttle
 738 09e8 00000000 		.word	estimator_flight_time
 739 09ec 00000000 		.word	current
 740 09f0 00006145 		.word	1163984896
 741 09f4 00000000 		.word	energy
 743              		.section	.data._60Hz.4,"aw",%progbits
 746              	_60Hz.4:
 747 0000 00       		.byte	0
 748              		.section	.data._20Hz.5,"aw",%progbits
 751              	_20Hz.5:
 752 0000 00       		.byte	0
 753              		.section	.data._10Hz.6,"aw",%progbits
 756              	_10Hz.6:
 757 0000 00       		.byte	0
 758              		.section	.data._4Hz.7,"aw",%progbits
 761              	_4Hz.7:
 762 0000 00       		.byte	0
 763              		.section	.data._1Hz.8,"aw",%progbits
 766              	_1Hz.8:
 767 0000 00       		.byte	0
 768              		.section	.data.boot.10,"aw",%progbits
 771              	boot.10:
 772 0000 01       		.byte	1
 773              		.section	.data.i6.11,"aw",%progbits
 776              	i6.11:
 777 0000 00       		.byte	0
 778              		.section	.data.i15.12,"aw",%progbits
 781              	i15.12:
 782 0000 00       		.byte	0
 783              		.section	.data.i30.13,"aw",%progbits
 786              	i30.13:
 787 0000 00       		.byte	0
 788              		.section	.data.i36.14,"aw",%progbits
 791              	i36.14:
 792 0000 00       		.byte	0
 793              		.section	.data.i48.15,"aw",%progbits
 796              	i48.15:
 797 0000 00       		.byte	0
 798              		.section	.data.i60.16,"aw",%progbits
 801              	i60.16:
 802 0000 00       		.byte	0
 803              		.section	.data.i63.17,"aw",%progbits
 806              	i63.17:
 807 0000 00       		.byte	0
 808              		.section	.data.i66.18,"aw",%progbits
 811              	i66.18:
 812 0000 00       		.byte	0
 813              		.section	.data.i72.19,"aw",%progbits
 816              	i72.19:
 817 0000 00       		.byte	0
 818              		.section	.data.i90.20,"aw",%progbits
 821              	i90.20:
 822 0000 00       		.byte	0
 823              		.section	.data.i120.21,"aw",%progbits
 826              	i120.21:
 827 0000 00       		.byte	0
 828              		.section	.data.i126.22,"aw",%progbits
 831              	i126.22:
 832 0000 00       		.byte	0
 833              		.section	.data.i150.23,"aw",%progbits
 836              	i150.23:
 837 0000 00       		.byte	0
 838              		.section	.data.i300.24,"aw",%progbits
 839              		.align	1
 842              	i300.24:
 843 0000 0000     		.short	0
 844              		.section	.data.i306.25,"aw",%progbits
 845              		.align	1
 848              	i306.25:
 849 0000 0000     		.short	0
 850              		.section	.data.i540.26,"aw",%progbits
 851              		.align	1
 854              	i540.26:
 855 0000 0000     		.short	0
 856              		.section	.bss.i.27,"aw",%nobits
 859              	i.27:
 860 0000 00       		.space	1
 861              		.global	__fixsfsi
 862              		.section	.bss.i.28,"aw",%nobits
 865              	i.28:
 866 0000 00       		.space	1
 867              		.section	.bss.last.29,"aw",%nobits
 868              		.align	1
 871              	last.29:
 872 0000 0000     		.space	2
 873              		.section	.data.i63.30,"aw",%progbits
 876              	i63.30:
 877 0000 00       		.byte	0
 878              		.section	.data.i66.31,"aw",%progbits
 881              	i66.31:
 882 0000 00       		.byte	0
 883              		.section	.data.i78.32,"aw",%progbits
 886              	i78.32:
 887 0000 00       		.byte	0
 888              		.section	.data.i84.33,"aw",%progbits
 891              	i84.33:
 892 0000 00       		.byte	0
 893              		.section	.data.i90.34,"aw",%progbits
 896              	i90.34:
 897 0000 00       		.byte	0
 898              		.section	.data.i126.35,"aw",%progbits
 901              	i126.35:
 902 0000 00       		.byte	0
 903              		.section	.data.i180.36,"aw",%progbits
 906              	i180.36:
 907 0000 00       		.byte	0
 908              		.section	.data.i183.37,"aw",%progbits
 911              	i183.37:
 912 0000 00       		.byte	0
 913              		.section	.data.i192.38,"aw",%progbits
 916              	i192.38:
 917 0000 00       		.byte	0
 918              		.section	.data.i240.39,"aw",%progbits
 921              	i240.39:
 922 0000 00       		.byte	0
 923              		.section	.data.i243.40,"aw",%progbits
 926              	i243.40:
 927 0000 00       		.byte	0
 928              		.section	.data.i300.41,"aw",%progbits
 929              		.align	1
 932              	i300.41:
 933 0000 0000     		.short	0
 934              		.section	.data.i306.42,"aw",%progbits
 935              		.align	1
 938              	i306.42:
 939 0000 0000     		.short	0
 940              		.section	.data.i312.43,"aw",%progbits
 941              		.align	1
 944              	i312.43:
 945 0000 0000     		.short	0
 946              		.section	.data.i540.44,"aw",%progbits
 947              		.align	1
 950              	i540.44:
 951 0000 0000     		.short	0
 952              		.section	.data.i606.45,"aw",%progbits
 953              		.align	1
 956              	i606.45:
 957 0000 0000     		.short	0
 958              		.section	.bss.i.46,"aw",%nobits
 961              	i.46:
 962 0000 00       		.space	1
 963              		.section	.bss.i.47,"aw",%nobits
 966              	i.47:
 967 0000 00       		.space	1
 968              		.section	.bss.last.48,"aw",%nobits
 969              		.align	1
 972              	last.48:
 973 0000 0000     		.space	2
 974              		.section	.data.i300.49,"aw",%progbits
 975              		.align	1
 978              	i300.49:
 979 0000 0000     		.short	0
 980              		.section	.data.i306.50,"aw",%progbits
 981              		.align	1
 984              	i306.50:
 985 0000 0000     		.short	0
 986              		.section	.data.i318.51,"aw",%progbits
 987              		.align	1
 990              	i318.51:
 991 0000 0000     		.short	0
 992              		.section	.data.i324.52,"aw",%progbits
 993              		.align	1
 996              	i324.52:
 997 0000 0000     		.short	0
 998              		.section	.data.i330.53,"aw",%progbits
 999              		.align	1
 1002              	i330.53:
 1003 0000 0000     		.short	0
 1004              		.section	.data.i342.54,"aw",%progbits
 1005              		.align	1
 1008              	i342.54:
 1009 0000 0000     		.short	0
 1010              		.section	.data.i606.55,"aw",%progbits
 1011              		.align	1
 1014              	i606.55:
 1015 0000 0000     		.short	0
 1016              		.section	.data.i612.56,"aw",%progbits
 1017              		.align	1
 1020              	i612.56:
 1021 0000 0000     		.short	0
 1022              		.section	.bss.last.57,"aw",%nobits
 1023              		.align	1
 1026              	last.57:
 1027 0000 0000     		.space	2
 1028              		.section	.data.t.9,"aw",%progbits
 1031              	t.9:
 1032 0000 00       		.byte	0
 1033              		.global	__ltdf2
 1034              		.section	.bss.i1.59,"aw",%nobits
 1037              	i1.59:
 1038 0000 00       		.space	1
 1039              		.section	.bss.i6.60,"aw",%nobits
 1042              	i6.60:
 1043 0000 00       		.space	1
 1044              		.section	.bss.i15.61,"aw",%nobits
 1047              	i15.61:
 1048 0000 00       		.space	1
 1049              		.section	.rodata.str1.4,"aMS",%progbits,1
 1050              		.align	2
 1051              	.LC0:
 1052 0000 F7C0B70F 		.ascii	"\367\300\267\017\251\253\277:K<5h\004\262\202\241\000"
 1052      A9ABBF3A 
 1052      4B3C3568 
 1052      04B282A1 
 1052      00
 1053 0011 000000   		.section	.text.periodic_task_ap,"ax",%progbits
 1054              		.align	2
 1055              		.global	periodic_task_ap
 1057              	periodic_task_ap:
 1058              		@ Function supports interworking.
 1059              		@ args = 0, pretend = 0, frame = 64
 1060              		@ frame_needed = 1, uses_anonymous_args = 0
 1061 0000 0DC0A0E1 		mov	ip, sp
 1062 0004 F0DF2DE9 		stmfd	sp!, {r4, r5, r6, r7, r8, r9, sl, fp, ip, lr, pc}
 1063 0008 B01D9FE5 		ldr	r1, .L438
 1064 000c 04B04CE2 		sub	fp, ip, #4
 1065 0010 40D04DE2 		sub	sp, sp, #64
 1066 0014 0030D1E5 		ldrb	r3, [r1, #0]	@ zero_extendqisi2
 1067 0018 013083E2 		add	r3, r3, #1
 1068 001c 0030C1E5 		strb	r3, [r1, #0]
 1069 0020 0030D1E5 		ldrb	r3, [r1, #0]	@ zero_extendqisi2
 1070 0024 000053E3 		cmp	r3, #0
 1071 0028 2A1E000A 		beq	.L39
 1072 002c 902D9FE5 		ldr	r2, .L438+4
 1073 0030 0030D2E5 		ldrb	r3, [r2, #0]	@ zero_extendqisi2
 1074 0034 013083E2 		add	r3, r3, #1
 1075 0038 0030C2E5 		strb	r3, [r2, #0]
 1076 003c 0030D2E5 		ldrb	r3, [r2, #0]	@ zero_extendqisi2
 1077 0040 0000A0E3 		mov	r0, #0
 1078 0044 020053E3 		cmp	r3, #2
 1079 0048 0000C285 		strhib	r0, [r2, #0]
 1080 004c 742D9FE5 		ldr	r2, .L438+8
 1081 0050 0030D2E5 		ldrb	r3, [r2, #0]	@ zero_extendqisi2
 1082 0054 013083E2 		add	r3, r3, #1
 1083 0058 0030C2E5 		strb	r3, [r2, #0]
 1084 005c 0030D2E5 		ldrb	r3, [r2, #0]	@ zero_extendqisi2
 1085 0060 050053E3 		cmp	r3, #5
 1086 0064 0000C285 		strhib	r0, [r2, #0]
 1087 0068 5C2D9FE5 		ldr	r2, .L438+12
 1088 006c 0030D2E5 		ldrb	r3, [r2, #0]	@ zero_extendqisi2
 1089 0070 013083E2 		add	r3, r3, #1
 1090 0074 0030C2E5 		strb	r3, [r2, #0]
 1091 0078 0030D2E5 		ldrb	r3, [r2, #0]	@ zero_extendqisi2
 1092 007c 0E0053E3 		cmp	r3, #14
 1093 0080 0000C285 		strhib	r0, [r2, #0]
 1094 0084 442D9FE5 		ldr	r2, .L438+16
 1095 0088 0030D2E5 		ldrb	r3, [r2, #0]	@ zero_extendqisi2
 1096 008c 013083E2 		add	r3, r3, #1
 1097 0090 0030C2E5 		strb	r3, [r2, #0]
 1098 0094 387D9FE5 		ldr	r7, .L438+20
 1099 0098 0030D2E5 		ldrb	r3, [r2, #0]	@ zero_extendqisi2
 1100 009c 3B0053E3 		cmp	r3, #59
 1101 00a0 0030D7E5 		ldrb	r3, [r7, #0]	@ zero_extendqisi2
 1102 00a4 0000C285 		strhib	r0, [r2, #0]
 1103 00a8 000053E3 		cmp	r3, #0
 1104 00ac 0000C1E5 		strb	r0, [r1, #0]
 1105 00b0 6A00000A 		beq	.L46
 1106 00b4 0800A0E3 		mov	r0, #8
 1107 00b8 FEFFFFEB 		bl	uart1_check_free_space
 1108 00bc FF0010E3 		tst	r0, #255
 1109 00c0 0C2E9F05 		ldreq	r2, .L438+276
 1110 00c4 0030D205 		ldreqb	r3, [r2, #0]	@ zero_extendqisi2
 1111 00c8 01308302 		addeq	r3, r3, #1
 1112 00cc 0030C205 		streqb	r3, [r2, #0]
 1113 00d0 6700000A 		beq	.L48
 1114 00d4 FC1D9FE5 		ldr	r1, .L438+280
 1115 00d8 FCCD9FE5 		ldr	ip, .L438+284
 1116 00dc B030D1E1 		ldrh	r3, [r1, #0]
 1117 00e0 B020DCE1 		ldrh	r2, [ip, #0]
 1118 00e4 083083E2 		add	r3, r3, #8
 1119 00e8 012082E2 		add	r2, r2, #1
 1120 00ec B030C1E1 		strh	r3, [r1, #0]	@ movhi 
 1121 00f0 B020CCE1 		strh	r2, [ip, #0]	@ movhi 
 1122 00f4 9900A0E3 		mov	r0, #153
 1123 00f8 E04D9FE5 		ldr	r4, .L438+288
 1124 00fc FEFFFFEB 		bl	uart1_transmit
 1125 0100 0800A0E3 		mov	r0, #8
 1126 0104 D85D9FE5 		ldr	r5, .L438+292
 1127 0108 FEFFFFEB 		bl	uart1_transmit
 1128 010c 1230A0E3 		mov	r3, #18
 1129 0110 0030C4E5 		strb	r3, [r4, #0]
 1130 0114 083083E2 		add	r3, r3, #8
 1131 0118 0A00A0E3 		mov	r0, #10
 1132 011c 0030C5E5 		strb	r3, [r5, #0]
 1133 0120 FEFFFFEB 		bl	uart1_transmit
 1134 0124 0030D4E5 		ldrb	r3, [r4, #0]	@ zero_extendqisi2
 1135 0128 013083E2 		add	r3, r3, #1
 1136 012c 0030C4E5 		strb	r3, [r4, #0]
 1137 0130 0030D5E5 		ldrb	r3, [r5, #0]	@ zero_extendqisi2
 1138 0134 0020D4E5 		ldrb	r2, [r4, #0]	@ zero_extendqisi2
 1139 0138 986C9FE5 		ldr	r6, .L438+24
 1140 013c 023083E0 		add	r3, r3, r2
 1141 0140 0100A0E3 		mov	r0, #1
 1142 0144 0030C5E5 		strb	r3, [r5, #0]
 1143 0148 FEFFFFEB 		bl	uart1_transmit
 1144 014c 0000D6E5 		ldrb	r0, [r6, #0]	@ zero_extendqisi2
 1145 0150 0030D4E5 		ldrb	r3, [r4, #0]	@ zero_extendqisi2
 1146 0154 033080E0 		add	r3, r0, r3
 1147 0158 0030C4E5 		strb	r3, [r4, #0]
 1148 015c 0030D5E5 		ldrb	r3, [r5, #0]	@ zero_extendqisi2
 1149 0160 0020D4E5 		ldrb	r2, [r4, #0]	@ zero_extendqisi2
 1150 0164 023083E0 		add	r3, r3, r2
 1151 0168 0030C5E5 		strb	r3, [r5, #0]
 1152 016c FEFFFFEB 		bl	uart1_transmit
 1153 0170 0100D6E5 		ldrb	r0, [r6, #1]	@ zero_extendqisi2
 1154 0174 0030D4E5 		ldrb	r3, [r4, #0]	@ zero_extendqisi2
 1155 0178 033080E0 		add	r3, r0, r3
 1156 017c 0030C4E5 		strb	r3, [r4, #0]
 1157 0180 0030D5E5 		ldrb	r3, [r5, #0]	@ zero_extendqisi2
 1158 0184 0020D4E5 		ldrb	r2, [r4, #0]	@ zero_extendqisi2
 1159 0188 023083E0 		add	r3, r3, r2
 1160 018c 0030C5E5 		strb	r3, [r5, #0]
 1161 0190 FEFFFFEB 		bl	uart1_transmit
 1162 0194 0000D4E5 		ldrb	r0, [r4, #0]	@ zero_extendqisi2
 1163 0198 FEFFFFEB 		bl	uart1_transmit
 1164 019c 0000D5E5 		ldrb	r0, [r5, #0]	@ zero_extendqisi2
 1165 01a0 FEFFFFEB 		bl	uart1_transmit
 1166              	.L48:
 1167 01a4 0030A0E3 		mov	r3, #0
 1168 01a8 0030C7E5 		strb	r3, [r7, #0]
 1169 01ac 781D00EA 		b	.L380
 1170              	.L46:
 1171 01b0 243C9FE5 		ldr	r3, .L438+28
 1172 01b4 0010D3E5 		ldrb	r1, [r3, #0]	@ zero_extendqisi2
 1173 01b8 000051E3 		cmp	r1, #0
 1174 01bc 3B0D001A 		bne	.L50
 1175 01c0 180C9FE5 		ldr	r0, .L438+32
 1176 01c4 0030D0E5 		ldrb	r3, [r0, #0]	@ zero_extendqisi2
 1177 01c8 013083E2 		add	r3, r3, #1
 1178 01cc 0030C0E5 		strb	r3, [r0, #0]
 1179 01d0 0C8C9FE5 		ldr	r8, .L438+36
 1180 01d4 0030D0E5 		ldrb	r3, [r0, #0]	@ zero_extendqisi2
 1181 01d8 050053E3 		cmp	r3, #5
 1182 01dc 0030D8E5 		ldrb	r3, [r8, #0]	@ zero_extendqisi2
 1183 01e0 013083E2 		add	r3, r3, #1
 1184 01e4 0030C8E5 		strb	r3, [r8, #0]
 1185 01e8 F87B9FE5 		ldr	r7, .L438+40
 1186 01ec 0030D8E5 		ldrb	r3, [r8, #0]	@ zero_extendqisi2
 1187 01f0 0010C085 		strhib	r1, [r0, #0]
 1188 01f4 0E0053E3 		cmp	r3, #14
 1189 01f8 0030D7E5 		ldrb	r3, [r7, #0]	@ zero_extendqisi2
 1190 01fc 013083E2 		add	r3, r3, #1
 1191 0200 0030C7E5 		strb	r3, [r7, #0]
 1192 0204 E02B9FE5 		ldr	r2, .L438+44
 1193 0208 0030D7E5 		ldrb	r3, [r7, #0]	@ zero_extendqisi2
 1194 020c 0010C885 		strhib	r1, [r8, #0]
 1195 0210 1D0053E3 		cmp	r3, #29
 1196 0214 0030D2E5 		ldrb	r3, [r2, #0]	@ zero_extendqisi2
 1197 0218 013083E2 		add	r3, r3, #1
 1198 021c 0030C2E5 		strb	r3, [r2, #0]
 1199 0220 0030D2E5 		ldrb	r3, [r2, #0]	@ zero_extendqisi2
 1200 0224 0010C785 		strhib	r1, [r7, #0]
 1201 0228 230053E3 		cmp	r3, #35
 1202 022c 0010C285 		strhib	r1, [r2, #0]
 1203 0230 B82B9FE5 		ldr	r2, .L438+48
 1204 0234 0030D2E5 		ldrb	r3, [r2, #0]	@ zero_extendqisi2
 1205 0238 013083E2 		add	r3, r3, #1
 1206 023c 0030C2E5 		strb	r3, [r2, #0]
 1207 0240 ACAB9FE5 		ldr	sl, .L438+52
 1208 0244 0030D2E5 		ldrb	r3, [r2, #0]	@ zero_extendqisi2
 1209 0248 2F0053E3 		cmp	r3, #47
 1210 024c 0030DAE5 		ldrb	r3, [sl, #0]	@ zero_extendqisi2
 1211 0250 013083E2 		add	r3, r3, #1
 1212 0254 0030CAE5 		strb	r3, [sl, #0]
 1213 0258 989B9FE5 		ldr	r9, .L438+56
 1214 025c 0030DAE5 		ldrb	r3, [sl, #0]	@ zero_extendqisi2
 1215 0260 0010C285 		strhib	r1, [r2, #0]
 1216 0264 3B0053E3 		cmp	r3, #59
 1217 0268 0030D9E5 		ldrb	r3, [r9, #0]	@ zero_extendqisi2
 1218 026c 013083E2 		add	r3, r3, #1
 1219 0270 0030C9E5 		strb	r3, [r9, #0]
 1220 0274 282C9FE5 		ldr	r2, .L438+228
 1221 0278 0030D9E5 		ldrb	r3, [r9, #0]	@ zero_extendqisi2
 1222 027c 0010CA85 		strhib	r1, [sl, #0]
 1223 0280 3E0053E3 		cmp	r3, #62
 1224 0284 0030D2E5 		ldrb	r3, [r2, #0]	@ zero_extendqisi2
 1225 0288 013083E2 		add	r3, r3, #1
 1226 028c 0030C2E5 		strb	r3, [r2, #0]
 1227 0290 0030D2E5 		ldrb	r3, [r2, #0]	@ zero_extendqisi2
 1228 0294 0010C985 		strhib	r1, [r9, #0]
 1229 0298 410053E3 		cmp	r3, #65
 1230 029c 0010C285 		strhib	r1, [r2, #0]
 1231 02a0 242C9FE5 		ldr	r2, .L438+268
 1232 02a4 0030D2E5 		ldrb	r3, [r2, #0]	@ zero_extendqisi2
 1233 02a8 013083E2 		add	r3, r3, #1
 1234 02ac 0030C2E5 		strb	r3, [r2, #0]
 1235 02b0 0030D2E5 		ldrb	r3, [r2, #0]	@ zero_extendqisi2
 1236 02b4 470053E3 		cmp	r3, #71
 1237 02b8 0010C285 		strhib	r1, [r2, #0]
 1238 02bc 382B9FE5 		ldr	r2, .L438+60
 1239 02c0 0030D2E5 		ldrb	r3, [r2, #0]	@ zero_extendqisi2
 1240 02c4 013083E2 		add	r3, r3, #1
 1241 02c8 0030C2E5 		strb	r3, [r2, #0]
 1242 02cc 0030D2E5 		ldrb	r3, [r2, #0]	@ zero_extendqisi2
 1243 02d0 590053E3 		cmp	r3, #89
 1244 02d4 0010C285 		strhib	r1, [r2, #0]
 1245 02d8 202B9FE5 		ldr	r2, .L438+64
 1246 02dc 0030D2E5 		ldrb	r3, [r2, #0]	@ zero_extendqisi2
 1247 02e0 013083E2 		add	r3, r3, #1
 1248 02e4 0030C2E5 		strb	r3, [r2, #0]
 1249 02e8 0030D2E5 		ldrb	r3, [r2, #0]	@ zero_extendqisi2
 1250 02ec 770053E3 		cmp	r3, #119
 1251 02f0 0030A083 		movhi	r3, #0
 1252 02f4 0030C285 		strhib	r3, [r2, #0]
 1253 02f8 042B9FE5 		ldr	r2, .L438+68
 1254 02fc 0030D2E5 		ldrb	r3, [r2, #0]	@ zero_extendqisi2
 1255 0300 013083E2 		add	r3, r3, #1
 1256 0304 0030C2E5 		strb	r3, [r2, #0]
 1257 0308 0030D2E5 		ldrb	r3, [r2, #0]	@ zero_extendqisi2
 1258 030c 7D0053E3 		cmp	r3, #125
 1259 0310 0030A083 		movhi	r3, #0
 1260 0314 0030C285 		strhib	r3, [r2, #0]
 1261 0318 E82A9FE5 		ldr	r2, .L438+72
 1262 031c 0030D2E5 		ldrb	r3, [r2, #0]	@ zero_extendqisi2
 1263 0320 013083E2 		add	r3, r3, #1
 1264 0324 0030C2E5 		strb	r3, [r2, #0]
 1265 0328 0030D2E5 		ldrb	r3, [r2, #0]	@ zero_extendqisi2
 1266 032c 950053E3 		cmp	r3, #149
 1267 0330 0030A083 		movhi	r3, #0
 1268 0334 0030C285 		strhib	r3, [r2, #0]
 1269 0338 CC2A9FE5 		ldr	r2, .L438+76
 1270 033c B030D2E1 		ldrh	r3, [r2, #0]
 1271 0340 013083E2 		add	r3, r3, #1
 1272 0344 B030C2E1 		strh	r3, [r2, #0]	@ movhi 
 1273 0348 B030D2E1 		ldrh	r3, [r2, #0]
 1274 034c 4B0F53E3 		cmp	r3, #300
 1275 0350 0030A023 		movcs	r3, #0	@ movhi
 1276 0354 B030C221 		strcsh	r3, [r2, #0]	@ movhi 
 1277 0358 B02A9FE5 		ldr	r2, .L438+80
 1278 035c B030D2E1 		ldrh	r3, [r2, #0]
 1279 0360 013083E2 		add	r3, r3, #1
 1280 0364 B030C2E1 		strh	r3, [r2, #0]	@ movhi 
 1281 0368 A43A9FE5 		ldr	r3, .L438+84
 1282 036c B020D2E1 		ldrh	r2, [r2, #0]
 1283 0370 030052E1 		cmp	r2, r3
 1284 0374 943A9F85 		ldrhi	r3, .L438+80
 1285 0378 0020A083 		movhi	r2, #0	@ movhi
 1286 037c B020C381 		strhih	r2, [r3, #0]	@ movhi 
 1287 0380 902A9FE5 		ldr	r2, .L438+88
 1288 0384 B030D2E1 		ldrh	r3, [r2, #0]
 1289 0388 013083E2 		add	r3, r3, #1
 1290 038c B030C2E1 		strh	r3, [r2, #0]	@ movhi 
 1291 0390 B030D2E1 		ldrh	r3, [r2, #0]
 1292 0394 870F53E3 		cmp	r3, #540
 1293 0398 0030A023 		movcs	r3, #0	@ movhi
 1294 039c B030C221 		strcsh	r3, [r2, #0]	@ movhi 
 1295 03a0 0030D0E5 		ldrb	r3, [r0, #0]	@ zero_extendqisi2
 1296 03a4 000053E3 		cmp	r3, #0
 1297 03a8 8101001A 		bne	.L67
 1298 03ac 1200A0E3 		mov	r0, #18
 1299 03b0 FEFFFFEB 		bl	uart1_check_free_space
 1300 03b4 FF0010E3 		tst	r0, #255
 1301 03b8 142B9F05 		ldreq	r2, .L438+276
 1302 03bc 0030D205 		ldreqb	r3, [r2, #0]	@ zero_extendqisi2
 1303 03c0 01308302 		addeq	r3, r3, #1
 1304 03c4 0030C205 		streqb	r3, [r2, #0]
 1305 03c8 8101000A 		beq	.L67
 1306 03cc 041B9FE5 		ldr	r1, .L438+280
 1307 03d0 04CB9FE5 		ldr	ip, .L438+284
 1308 03d4 B030D1E1 		ldrh	r3, [r1, #0]
 1309 03d8 B020DCE1 		ldrh	r2, [ip, #0]
 1310 03dc 123083E2 		add	r3, r3, #18
 1311 03e0 012082E2 		add	r2, r2, #1
 1312 03e4 B030C1E1 		strh	r3, [r1, #0]	@ movhi 
 1313 03e8 B020CCE1 		strh	r2, [ip, #0]	@ movhi 
 1314 03ec 9900A0E3 		mov	r0, #153
 1315 03f0 E84A9FE5 		ldr	r4, .L438+288
 1316 03f4 FEFFFFEB 		bl	uart1_transmit
 1317 03f8 1200A0E3 		mov	r0, #18
 1318 03fc E05A9FE5 		ldr	r5, .L438+292
 1319 0400 FEFFFFEB 		bl	uart1_transmit
 1320 0404 1C30A0E3 		mov	r3, #28
 1321 0408 0030C4E5 		strb	r3, [r4, #0]
 1322 040c 123083E2 		add	r3, r3, #18
 1323 0410 0A00A0E3 		mov	r0, #10
 1324 0414 0030C5E5 		strb	r3, [r5, #0]
 1325 0418 FEFFFFEB 		bl	uart1_transmit
 1326 041c 0030D4E5 		ldrb	r3, [r4, #0]	@ zero_extendqisi2
 1327 0420 063083E2 		add	r3, r3, #6
 1328 0424 0030C4E5 		strb	r3, [r4, #0]
 1329 0428 0030D5E5 		ldrb	r3, [r5, #0]	@ zero_extendqisi2
 1330 042c 0020D4E5 		ldrb	r2, [r4, #0]	@ zero_extendqisi2
 1331 0430 E4699FE5 		ldr	r6, .L438+92
 1332 0434 023083E0 		add	r3, r3, r2
 1333 0438 0600A0E3 		mov	r0, #6
 1334 043c 0030C5E5 		strb	r3, [r5, #0]
 1335 0440 FEFFFFEB 		bl	uart1_transmit
 1336 0444 0000D6E5 		ldrb	r0, [r6, #0]	@ zero_extendqisi2
 1337 0448 0030D4E5 		ldrb	r3, [r4, #0]	@ zero_extendqisi2
 1338 044c 033080E0 		add	r3, r0, r3
 1339 0450 0030C4E5 		strb	r3, [r4, #0]
 1340 0454 0030D5E5 		ldrb	r3, [r5, #0]	@ zero_extendqisi2
 1341 0458 0020D4E5 		ldrb	r2, [r4, #0]	@ zero_extendqisi2
 1342 045c 023083E0 		add	r3, r3, r2
 1343 0460 0030C5E5 		strb	r3, [r5, #0]
 1344 0464 FEFFFFEB 		bl	uart1_transmit
 1345 0468 0100D6E5 		ldrb	r0, [r6, #1]	@ zero_extendqisi2
 1346 046c 0030D4E5 		ldrb	r3, [r4, #0]	@ zero_extendqisi2
 1347 0470 033080E0 		add	r3, r0, r3
 1348 0474 0030C4E5 		strb	r3, [r4, #0]
 1349 0478 0030D5E5 		ldrb	r3, [r5, #0]	@ zero_extendqisi2
 1350 047c 0020D4E5 		ldrb	r2, [r4, #0]	@ zero_extendqisi2
 1351 0480 023083E0 		add	r3, r3, r2
 1352 0484 0030C5E5 		strb	r3, [r5, #0]
 1353 0488 FEFFFFEB 		bl	uart1_transmit
 1354 048c 0200D6E5 		ldrb	r0, [r6, #2]	@ zero_extendqisi2
 1355 0490 0030D4E5 		ldrb	r3, [r4, #0]	@ zero_extendqisi2
 1356 0494 033080E0 		add	r3, r0, r3
 1357 0498 0030C4E5 		strb	r3, [r4, #0]
 1358 049c 0030D5E5 		ldrb	r3, [r5, #0]	@ zero_extendqisi2
 1359 04a0 0020D4E5 		ldrb	r2, [r4, #0]	@ zero_extendqisi2
 1360 04a4 023083E0 		add	r3, r3, r2
 1361 04a8 0030C5E5 		strb	r3, [r5, #0]
 1362 04ac FEFFFFEB 		bl	uart1_transmit
 1363 04b0 0300D6E5 		ldrb	r0, [r6, #3]	@ zero_extendqisi2
 1364 04b4 0030D4E5 		ldrb	r3, [r4, #0]	@ zero_extendqisi2
 1365 04b8 033080E0 		add	r3, r0, r3
 1366 04bc 0030C4E5 		strb	r3, [r4, #0]
 1367 04c0 0030D5E5 		ldrb	r3, [r5, #0]	@ zero_extendqisi2
 1368 04c4 0020D4E5 		ldrb	r2, [r4, #0]	@ zero_extendqisi2
 1369 04c8 50699FE5 		ldr	r6, .L438+96
 1370 04cc 023083E0 		add	r3, r3, r2
 1371 04d0 0030C5E5 		strb	r3, [r5, #0]
 1372 04d4 FEFFFFEB 		bl	uart1_transmit
 1373 04d8 0000D6E5 		ldrb	r0, [r6, #0]	@ zero_extendqisi2
 1374 04dc 0030D4E5 		ldrb	r3, [r4, #0]	@ zero_extendqisi2
 1375 04e0 033080E0 		add	r3, r0, r3
 1376 04e4 0030C4E5 		strb	r3, [r4, #0]
 1377 04e8 0030D5E5 		ldrb	r3, [r5, #0]	@ zero_extendqisi2
 1378 04ec 0020D4E5 		ldrb	r2, [r4, #0]	@ zero_extendqisi2
 1379 04f0 023083E0 		add	r3, r3, r2
 1380 04f4 0030C5E5 		strb	r3, [r5, #0]
 1381 04f8 FEFFFFEB 		bl	uart1_transmit
 1382 04fc 0100D6E5 		ldrb	r0, [r6, #1]	@ zero_extendqisi2
 1383 0500 0030D4E5 		ldrb	r3, [r4, #0]	@ zero_extendqisi2
 1384 0504 033080E0 		add	r3, r0, r3
 1385 0508 0030C4E5 		strb	r3, [r4, #0]
 1386 050c 0030D5E5 		ldrb	r3, [r5, #0]	@ zero_extendqisi2
 1387 0510 0020D4E5 		ldrb	r2, [r4, #0]	@ zero_extendqisi2
 1388 0514 023083E0 		add	r3, r3, r2
 1389 0518 0030C5E5 		strb	r3, [r5, #0]
 1390 051c FEFFFFEB 		bl	uart1_transmit
 1391 0520 0200D6E5 		ldrb	r0, [r6, #2]	@ zero_extendqisi2
 1392 0524 0030D4E5 		ldrb	r3, [r4, #0]	@ zero_extendqisi2
 1393 0528 033080E0 		add	r3, r0, r3
 1394 052c 0030C4E5 		strb	r3, [r4, #0]
 1395 0530 0030D5E5 		ldrb	r3, [r5, #0]	@ zero_extendqisi2
 1396 0534 0020D4E5 		ldrb	r2, [r4, #0]	@ zero_extendqisi2
 1397 0538 023083E0 		add	r3, r3, r2
 1398 053c 0030C5E5 		strb	r3, [r5, #0]
 1399 0540 FEFFFFEB 		bl	uart1_transmit
 1400 0544 0300D6E5 		ldrb	r0, [r6, #3]	@ zero_extendqisi2
 1401 0548 0030D4E5 		ldrb	r3, [r4, #0]	@ zero_extendqisi2
 1402 054c 033080E0 		add	r3, r0, r3
 1403 0550 0030C4E5 		strb	r3, [r4, #0]
 1404 0554 0030D5E5 		ldrb	r3, [r5, #0]	@ zero_extendqisi2
 1405 0558 0020D4E5 		ldrb	r2, [r4, #0]	@ zero_extendqisi2
 1406 055c C0689FE5 		ldr	r6, .L438+100
 1407 0560 023083E0 		add	r3, r3, r2
 1408 0564 0030C5E5 		strb	r3, [r5, #0]
 1409 0568 FEFFFFEB 		bl	uart1_transmit
 1410 056c 0000D6E5 		ldrb	r0, [r6, #0]	@ zero_extendqisi2
 1411 0570 0030D4E5 		ldrb	r3, [r4, #0]	@ zero_extendqisi2
 1412 0574 033080E0 		add	r3, r0, r3
 1413 0578 0030C4E5 		strb	r3, [r4, #0]
 1414 057c 0030D5E5 		ldrb	r3, [r5, #0]	@ zero_extendqisi2
 1415 0580 0020D4E5 		ldrb	r2, [r4, #0]	@ zero_extendqisi2
 1416 0584 023083E0 		add	r3, r3, r2
 1417 0588 0030C5E5 		strb	r3, [r5, #0]
 1418 058c FEFFFFEB 		bl	uart1_transmit
 1419 0590 0100D6E5 		ldrb	r0, [r6, #1]	@ zero_extendqisi2
 1420 0594 0030D4E5 		ldrb	r3, [r4, #0]	@ zero_extendqisi2
 1421 0598 033080E0 		add	r3, r0, r3
 1422 059c 0030C4E5 		strb	r3, [r4, #0]
 1423 05a0 0030D5E5 		ldrb	r3, [r5, #0]	@ zero_extendqisi2
 1424 05a4 0020D4E5 		ldrb	r2, [r4, #0]	@ zero_extendqisi2
 1425 05a8 023083E0 		add	r3, r3, r2
 1426 05ac 0030C5E5 		strb	r3, [r5, #0]
 1427 05b0 FEFFFFEB 		bl	uart1_transmit
 1428 05b4 0200D6E5 		ldrb	r0, [r6, #2]	@ zero_extendqisi2
 1429 05b8 0030D4E5 		ldrb	r3, [r4, #0]	@ zero_extendqisi2
 1430 05bc 033080E0 		add	r3, r0, r3
 1431 05c0 0030C4E5 		strb	r3, [r4, #0]
 1432 05c4 0030D5E5 		ldrb	r3, [r5, #0]	@ zero_extendqisi2
 1433 05c8 0020D4E5 		ldrb	r2, [r4, #0]	@ zero_extendqisi2
 1434 05cc 023083E0 		add	r3, r3, r2
 1435 05d0 0030C5E5 		strb	r3, [r5, #0]
 1436 05d4 FEFFFFEB 		bl	uart1_transmit
 1437 05d8 0300D6E5 		ldrb	r0, [r6, #3]	@ zero_extendqisi2
 1438 05dc 0030D4E5 		ldrb	r3, [r4, #0]	@ zero_extendqisi2
 1439 05e0 033080E0 		add	r3, r0, r3
 1440 05e4 0030C4E5 		strb	r3, [r4, #0]
 1441 05e8 0030D5E5 		ldrb	r3, [r5, #0]	@ zero_extendqisi2
 1442 05ec 0020D4E5 		ldrb	r2, [r4, #0]	@ zero_extendqisi2
 1443 05f0 023083E0 		add	r3, r3, r2
 1444 05f4 0030C5E5 		strb	r3, [r5, #0]
 1445 05f8 FEFFFFEB 		bl	uart1_transmit
 1446 05fc 0000D4E5 		ldrb	r0, [r4, #0]	@ zero_extendqisi2
 1447 0600 FEFFFFEB 		bl	uart1_transmit
 1448 0604 0000D5E5 		ldrb	r0, [r5, #0]	@ zero_extendqisi2
 1449 0608 FEFFFFEB 		bl	uart1_transmit
 1450              	.L67:
 1451 060c 0030D8E5 		ldrb	r3, [r8, #0]	@ zero_extendqisi2
 1452 0610 060053E3 		cmp	r3, #6
 1453 0614 FEFFFF0B 		bleq	gps_send
 1454              	.L70:
 1455 0618 0030D7E5 		ldrb	r3, [r7, #0]	@ zero_extendqisi2
 1456 061c 0C0053E3 		cmp	r3, #12
 1457 0620 EB01001A 		bne	.L71
 1458 0624 0E00A0E3 		mov	r0, #14
 1459 0628 FEFFFFEB 		bl	uart1_check_free_space
 1460 062c FF0010E3 		tst	r0, #255
 1461 0630 B902000A 		beq	.L77
 1462 0634 9C189FE5 		ldr	r1, .L438+280
 1463 0638 9CC89FE5 		ldr	ip, .L438+284
 1464 063c B030D1E1 		ldrh	r3, [r1, #0]
 1465 0640 B020DCE1 		ldrh	r2, [ip, #0]
 1466 0644 0E3083E2 		add	r3, r3, #14
 1467 0648 012082E2 		add	r2, r2, #1
 1468 064c B030C1E1 		strh	r3, [r1, #0]	@ movhi 
 1469 0650 B020CCE1 		strh	r2, [ip, #0]	@ movhi 
 1470 0654 9900A0E3 		mov	r0, #153
 1471 0658 80489FE5 		ldr	r4, .L438+288
 1472 065c FEFFFFEB 		bl	uart1_transmit
 1473 0660 0E00A0E3 		mov	r0, #14
 1474 0664 78589FE5 		ldr	r5, .L438+292
 1475 0668 FEFFFFEB 		bl	uart1_transmit
 1476 066c 1830A0E3 		mov	r3, #24
 1477 0670 0030C4E5 		strb	r3, [r4, #0]
 1478 0674 0E3083E2 		add	r3, r3, #14
 1479 0678 0A00A0E3 		mov	r0, #10
 1480 067c 0030C5E5 		strb	r3, [r5, #0]
 1481 0680 FEFFFFEB 		bl	uart1_transmit
 1482 0684 0030D4E5 		ldrb	r3, [r4, #0]	@ zero_extendqisi2
 1483 0688 2A3083E2 		add	r3, r3, #42
 1484 068c 0030C4E5 		strb	r3, [r4, #0]
 1485 0690 0030D5E5 		ldrb	r3, [r5, #0]	@ zero_extendqisi2
 1486 0694 0020D4E5 		ldrb	r2, [r4, #0]	@ zero_extendqisi2
 1487 0698 88679FE5 		ldr	r6, .L438+104
 1488 069c 023083E0 		add	r3, r3, r2
 1489 06a0 2A00A0E3 		mov	r0, #42
 1490 06a4 0030C5E5 		strb	r3, [r5, #0]
 1491 06a8 FEFFFFEB 		bl	uart1_transmit
 1492 06ac 0000D6E5 		ldrb	r0, [r6, #0]	@ zero_extendqisi2
 1493 06b0 0030D4E5 		ldrb	r3, [r4, #0]	@ zero_extendqisi2
 1494 06b4 033080E0 		add	r3, r0, r3
 1495 06b8 0030C4E5 		strb	r3, [r4, #0]
 1496 06bc 0030D5E5 		ldrb	r3, [r5, #0]	@ zero_extendqisi2
 1497 06c0 0020D4E5 		ldrb	r2, [r4, #0]	@ zero_extendqisi2
 1498 06c4 023083E0 		add	r3, r3, r2
 1499 06c8 0030C5E5 		strb	r3, [r5, #0]
 1500 06cc FEFFFFEB 		bl	uart1_transmit
 1501 06d0 0100D6E5 		ldrb	r0, [r6, #1]	@ zero_extendqisi2
 1502 06d4 0030D4E5 		ldrb	r3, [r4, #0]	@ zero_extendqisi2
 1503 06d8 033080E0 		add	r3, r0, r3
 1504 06dc 0030C4E5 		strb	r3, [r4, #0]
 1505 06e0 0030D5E5 		ldrb	r3, [r5, #0]	@ zero_extendqisi2
 1506 06e4 0020D4E5 		ldrb	r2, [r4, #0]	@ zero_extendqisi2
 1507 06e8 023083E0 		add	r3, r3, r2
 1508 06ec 0030C5E5 		strb	r3, [r5, #0]
 1509 06f0 FEFFFFEB 		bl	uart1_transmit
 1510 06f4 0200D6E5 		ldrb	r0, [r6, #2]	@ zero_extendqisi2
 1511 06f8 0030D4E5 		ldrb	r3, [r4, #0]	@ zero_extendqisi2
 1512 06fc 033080E0 		add	r3, r0, r3
 1513 0700 0030C4E5 		strb	r3, [r4, #0]
 1514 0704 0030D5E5 		ldrb	r3, [r5, #0]	@ zero_extendqisi2
 1515 0708 0020D4E5 		ldrb	r2, [r4, #0]	@ zero_extendqisi2
 1516 070c 023083E0 		add	r3, r3, r2
 1517 0710 0030C5E5 		strb	r3, [r5, #0]
 1518 0714 FEFFFFEB 		bl	uart1_transmit
 1519 0718 0300D6E5 		ldrb	r0, [r6, #3]	@ zero_extendqisi2
 1520 071c 0030D4E5 		ldrb	r3, [r4, #0]	@ zero_extendqisi2
 1521 0720 033080E0 		add	r3, r0, r3
 1522 0724 0030C4E5 		strb	r3, [r4, #0]
 1523 0728 0030D5E5 		ldrb	r3, [r5, #0]	@ zero_extendqisi2
 1524 072c 0020D4E5 		ldrb	r2, [r4, #0]	@ zero_extendqisi2
 1525 0730 F4669FE5 		ldr	r6, .L438+108
 1526 0734 023083E0 		add	r3, r3, r2
 1527 0738 0030C5E5 		strb	r3, [r5, #0]
 1528 073c FEFFFFEB 		bl	uart1_transmit
 1529 0740 0000D6E5 		ldrb	r0, [r6, #0]	@ zero_extendqisi2
 1530 0744 0030D4E5 		ldrb	r3, [r4, #0]	@ zero_extendqisi2
 1531 0748 033080E0 		add	r3, r0, r3
 1532 074c 0030C4E5 		strb	r3, [r4, #0]
 1533 0750 0030D5E5 		ldrb	r3, [r5, #0]	@ zero_extendqisi2
 1534 0754 0020D4E5 		ldrb	r2, [r4, #0]	@ zero_extendqisi2
 1535 0758 023083E0 		add	r3, r3, r2
 1536 075c 0030C5E5 		strb	r3, [r5, #0]
 1537 0760 FEFFFFEB 		bl	uart1_transmit
 1538 0764 0100D6E5 		ldrb	r0, [r6, #1]	@ zero_extendqisi2
 1539 0768 0030D4E5 		ldrb	r3, [r4, #0]	@ zero_extendqisi2
 1540 076c 033080E0 		add	r3, r0, r3
 1541 0770 0030C4E5 		strb	r3, [r4, #0]
 1542 0774 0030D5E5 		ldrb	r3, [r5, #0]	@ zero_extendqisi2
 1543 0778 0020D4E5 		ldrb	r2, [r4, #0]	@ zero_extendqisi2
 1544 077c 023083E0 		add	r3, r3, r2
 1545 0780 0030C5E5 		strb	r3, [r5, #0]
 1546 0784 FEFFFFEB 		bl	uart1_transmit
 1547 0788 0200D6E5 		ldrb	r0, [r6, #2]	@ zero_extendqisi2
 1548 078c 0030D4E5 		ldrb	r3, [r4, #0]	@ zero_extendqisi2
 1549 0790 033080E0 		add	r3, r0, r3
 1550 0794 0030C4E5 		strb	r3, [r4, #0]
 1551 0798 0030D5E5 		ldrb	r3, [r5, #0]	@ zero_extendqisi2
 1552 079c 0020D4E5 		ldrb	r2, [r4, #0]	@ zero_extendqisi2
 1553 07a0 023083E0 		add	r3, r3, r2
 1554 07a4 0030C5E5 		strb	r3, [r5, #0]
 1555 07a8 FEFFFFEB 		bl	uart1_transmit
 1556 07ac 0300D6E5 		ldrb	r0, [r6, #3]	@ zero_extendqisi2
 1557 07b0 AC0200EA 		b	.L409
 1558              	.L71:
 1559 07b4 120053E3 		cmp	r3, #18
 1560 07b8 BD02001A 		bne	.L74
 1561 07bc 6C669FE5 		ldr	r6, .L438+112
 1562 07c0 0030D6E5 		ldrb	r3, [r6, #0]	@ zero_extendqisi2
 1563 07c4 013083E2 		add	r3, r3, #1
 1564 07c8 0030C6E5 		strb	r3, [r6, #0]
 1565 07cc 60369FE5 		ldr	r3, .L438+116
 1566 07d0 0020D3E5 		ldrb	r2, [r3, #0]	@ zero_extendqisi2
 1567 07d4 0030D6E5 		ldrb	r3, [r6, #0]	@ zero_extendqisi2
 1568 07d8 020053E1 		cmp	r3, r2
 1569 07dc 0030A023 		movcs	r3, #0
 1570 07e0 0030C625 		strcsb	r3, [r6, #0]
 1571 07e4 4C369FE5 		ldr	r3, .L438+120
 1572 07e8 000093E5 		ldr	r0, [r3, #0]
 1573 07ec FEFFFFEB 		bl	__floatsisf
 1574 07f0 0040D6E5 		ldrb	r4, [r6, #0]	@ zero_extendqisi2
 1575 07f4 40769FE5 		ldr	r7, .L438+124
 1576 07f8 844084E0 		add	r4, r4, r4, asl #1
 1577 07fc 0441A0E1 		mov	r4, r4, asl #2
 1578 0800 071094E7 		ldr	r1, [r4, r7]	@ float
 1579 0804 FEFFFFEB 		bl	__addsf3
 1580 0808 30369FE5 		ldr	r3, .L438+128
 1581 080c 48000BE5 		str	r0, [fp, #-72]	@ float
 1582 0810 074084E0 		add	r4, r4, r7
 1583 0814 000093E5 		ldr	r0, [r3, #0]
 1584 0818 FEFFFFEB 		bl	__floatsisf
 1585 081c 041094E5 		ldr	r1, [r4, #4]	@ float
 1586 0820 FEFFFFEB 		bl	__addsf3
 1587 0824 4C000BE5 		str	r0, [fp, #-76]	@ float
 1588 0828 1400A0E3 		mov	r0, #20
 1589 082c FEFFFFEB 		bl	uart1_check_free_space
 1590 0830 FF0010E3 		tst	r0, #255
 1591 0834 B902000A 		beq	.L77
 1592 0838 98169FE5 		ldr	r1, .L438+280
 1593 083c 98C69FE5 		ldr	ip, .L438+284
 1594 0840 B030D1E1 		ldrh	r3, [r1, #0]
 1595 0844 B020DCE1 		ldrh	r2, [ip, #0]
 1596 0848 143083E2 		add	r3, r3, #20
 1597 084c 012082E2 		add	r2, r2, #1
 1598 0850 B030C1E1 		strh	r3, [r1, #0]	@ movhi 
 1599 0854 B020CCE1 		strh	r2, [ip, #0]	@ movhi 
 1600 0858 9900A0E3 		mov	r0, #153
 1601 085c 7C469FE5 		ldr	r4, .L438+288
 1602 0860 FEFFFFEB 		bl	uart1_transmit
 1603 0864 1400A0E3 		mov	r0, #20
 1604 0868 74569FE5 		ldr	r5, .L438+292
 1605 086c FEFFFFEB 		bl	uart1_transmit
 1606 0870 1E30A0E3 		mov	r3, #30
 1607 0874 0030C4E5 		strb	r3, [r4, #0]
 1608 0878 143083E2 		add	r3, r3, #20
 1609 087c 0A00A0E3 		mov	r0, #10
 1610 0880 0030C5E5 		strb	r3, [r5, #0]
 1611 0884 FEFFFFEB 		bl	uart1_transmit
 1612 0888 0030D4E5 		ldrb	r3, [r4, #0]	@ zero_extendqisi2
 1613 088c 233083E2 		add	r3, r3, #35
 1614 0890 0030C4E5 		strb	r3, [r4, #0]
 1615 0894 0030D5E5 		ldrb	r3, [r5, #0]	@ zero_extendqisi2
 1616 0898 0020D4E5 		ldrb	r2, [r4, #0]	@ zero_extendqisi2
 1617 089c 023083E0 		add	r3, r3, r2
 1618 08a0 2300A0E3 		mov	r0, #35
 1619 08a4 0030C5E5 		strb	r3, [r5, #0]
 1620 08a8 FEFFFFEB 		bl	uart1_transmit
 1621 08ac 0000D6E5 		ldrb	r0, [r6, #0]	@ zero_extendqisi2
 1622 08b0 0030D4E5 		ldrb	r3, [r4, #0]	@ zero_extendqisi2
 1623 08b4 033080E0 		add	r3, r0, r3
 1624 08b8 0030C4E5 		strb	r3, [r4, #0]
 1625 08bc 0030D5E5 		ldrb	r3, [r5, #0]	@ zero_extendqisi2
 1626 08c0 0020D4E5 		ldrb	r2, [r4, #0]	@ zero_extendqisi2
 1627 08c4 023083E0 		add	r3, r3, r2
 1628 08c8 0030C5E5 		strb	r3, [r5, #0]
 1629 08cc FEFFFFEB 		bl	uart1_transmit
 1630 08d0 48005BE5 		ldrb	r0, [fp, #-72]	@ zero_extendqisi2
 1631 08d4 0030D4E5 		ldrb	r3, [r4, #0]	@ zero_extendqisi2
 1632 08d8 033080E0 		add	r3, r0, r3
 1633 08dc 0030C4E5 		strb	r3, [r4, #0]
 1634 08e0 0030D5E5 		ldrb	r3, [r5, #0]	@ zero_extendqisi2
 1635 08e4 0020D4E5 		ldrb	r2, [r4, #0]	@ zero_extendqisi2
 1636 08e8 023083E0 		add	r3, r3, r2
 1637 08ec 0030C5E5 		strb	r3, [r5, #0]
 1638 08f0 FEFFFFEB 		bl	uart1_transmit
 1639 08f4 47005BE5 		ldrb	r0, [fp, #-71]	@ zero_extendqisi2
 1640 08f8 0030D4E5 		ldrb	r3, [r4, #0]	@ zero_extendqisi2
 1641 08fc 033080E0 		add	r3, r0, r3
 1642 0900 0030C4E5 		strb	r3, [r4, #0]
 1643 0904 0030D5E5 		ldrb	r3, [r5, #0]	@ zero_extendqisi2
 1644 0908 0020D4E5 		ldrb	r2, [r4, #0]	@ zero_extendqisi2
 1645 090c 023083E0 		add	r3, r3, r2
 1646 0910 0030C5E5 		strb	r3, [r5, #0]
 1647 0914 FEFFFFEB 		bl	uart1_transmit
 1648 0918 46005BE5 		ldrb	r0, [fp, #-70]	@ zero_extendqisi2
 1649 091c 0030D4E5 		ldrb	r3, [r4, #0]	@ zero_extendqisi2
 1650 0920 033080E0 		add	r3, r0, r3
 1651 0924 0030C4E5 		strb	r3, [r4, #0]
 1652 0928 0030D5E5 		ldrb	r3, [r5, #0]	@ zero_extendqisi2
 1653 092c 0020D4E5 		ldrb	r2, [r4, #0]	@ zero_extendqisi2
 1654 0930 023083E0 		add	r3, r3, r2
 1655 0934 0030C5E5 		strb	r3, [r5, #0]
 1656 0938 FEFFFFEB 		bl	uart1_transmit
 1657 093c 45005BE5 		ldrb	r0, [fp, #-69]	@ zero_extendqisi2
 1658 0940 0030D4E5 		ldrb	r3, [r4, #0]	@ zero_extendqisi2
 1659 0944 033080E0 		add	r3, r0, r3
 1660 0948 0030C4E5 		strb	r3, [r4, #0]
 1661 094c 0030D5E5 		ldrb	r3, [r5, #0]	@ zero_extendqisi2
 1662 0950 0020D4E5 		ldrb	r2, [r4, #0]	@ zero_extendqisi2
 1663 0954 023083E0 		add	r3, r3, r2
 1664 0958 0030C5E5 		strb	r3, [r5, #0]
 1665 095c FEFFFFEB 		bl	uart1_transmit
 1666 0960 4C005BE5 		ldrb	r0, [fp, #-76]	@ zero_extendqisi2
 1667 0964 0030D4E5 		ldrb	r3, [r4, #0]	@ zero_extendqisi2
 1668 0968 033080E0 		add	r3, r0, r3
 1669 096c 0030C4E5 		strb	r3, [r4, #0]
 1670 0970 0030D5E5 		ldrb	r3, [r5, #0]	@ zero_extendqisi2
 1671 0974 0020D4E5 		ldrb	r2, [r4, #0]	@ zero_extendqisi2
 1672 0978 023083E0 		add	r3, r3, r2
 1673 097c 0030C5E5 		strb	r3, [r5, #0]
 1674 0980 FEFFFFEB 		bl	uart1_transmit
 1675 0984 4B005BE5 		ldrb	r0, [fp, #-75]	@ zero_extendqisi2
 1676 0988 0030D4E5 		ldrb	r3, [r4, #0]	@ zero_extendqisi2
 1677 098c 033080E0 		add	r3, r0, r3
 1678 0990 0030C4E5 		strb	r3, [r4, #0]
 1679 0994 0030D5E5 		ldrb	r3, [r5, #0]	@ zero_extendqisi2
 1680 0998 0020D4E5 		ldrb	r2, [r4, #0]	@ zero_extendqisi2
 1681 099c 023083E0 		add	r3, r3, r2
 1682 09a0 0030C5E5 		strb	r3, [r5, #0]
 1683 09a4 FEFFFFEB 		bl	uart1_transmit
 1684 09a8 4A005BE5 		ldrb	r0, [fp, #-74]	@ zero_extendqisi2
 1685 09ac 0030D4E5 		ldrb	r3, [r4, #0]	@ zero_extendqisi2
 1686 09b0 033080E0 		add	r3, r0, r3
 1687 09b4 0030C4E5 		strb	r3, [r4, #0]
 1688 09b8 0030D5E5 		ldrb	r3, [r5, #0]	@ zero_extendqisi2
 1689 09bc 0020D4E5 		ldrb	r2, [r4, #0]	@ zero_extendqisi2
 1690 09c0 023083E0 		add	r3, r3, r2
 1691 09c4 0030C5E5 		strb	r3, [r5, #0]
 1692 09c8 FEFFFFEB 		bl	uart1_transmit
 1693 09cc 49005BE5 		ldrb	r0, [fp, #-73]	@ zero_extendqisi2
 1694 09d0 0030D4E5 		ldrb	r3, [r4, #0]	@ zero_extendqisi2
 1695 09d4 033080E0 		add	r3, r0, r3
 1696 09d8 0030C4E5 		strb	r3, [r4, #0]
 1697 09dc 0030D5E5 		ldrb	r3, [r5, #0]	@ zero_extendqisi2
 1698 09e0 0020D4E5 		ldrb	r2, [r4, #0]	@ zero_extendqisi2
 1699 09e4 023083E0 		add	r3, r3, r2
 1700 09e8 0030C5E5 		strb	r3, [r5, #0]
 1701 09ec FEFFFFEB 		bl	uart1_transmit
 1702 09f0 0030D6E5 		ldrb	r3, [r6, #0]	@ zero_extendqisi2
 1703 09f4 082087E2 		add	r2, r7, #8
 1704 09f8 833083E0 		add	r3, r3, r3, asl #1
 1705 09fc 0301D2E7 		ldrb	r0, [r2, r3, asl #2]	@ zero_extendqisi2
 1706 0a00 0030D4E5 		ldrb	r3, [r4, #0]	@ zero_extendqisi2
 1707 0a04 033080E0 		add	r3, r0, r3
 1708 0a08 0030C4E5 		strb	r3, [r4, #0]
 1709 0a0c 0030D5E5 		ldrb	r3, [r5, #0]	@ zero_extendqisi2
 1710 0a10 0020D4E5 		ldrb	r2, [r4, #0]	@ zero_extendqisi2
 1711 0a14 023083E0 		add	r3, r3, r2
 1712 0a18 0030C5E5 		strb	r3, [r5, #0]
 1713 0a1c FEFFFFEB 		bl	uart1_transmit
 1714 0a20 0030D6E5 		ldrb	r3, [r6, #0]	@ zero_extendqisi2
 1715 0a24 092087E2 		add	r2, r7, #9
 1716 0a28 833083E0 		add	r3, r3, r3, asl #1
 1717 0a2c 0301D2E7 		ldrb	r0, [r2, r3, asl #2]	@ zero_extendqisi2
 1718 0a30 0030D4E5 		ldrb	r3, [r4, #0]	@ zero_extendqisi2
 1719 0a34 033080E0 		add	r3, r0, r3
 1720 0a38 0030C4E5 		strb	r3, [r4, #0]
 1721 0a3c 0030D5E5 		ldrb	r3, [r5, #0]	@ zero_extendqisi2
 1722 0a40 0020D4E5 		ldrb	r2, [r4, #0]	@ zero_extendqisi2
 1723 0a44 023083E0 		add	r3, r3, r2
 1724 0a48 0030C5E5 		strb	r3, [r5, #0]
 1725 0a4c FEFFFFEB 		bl	uart1_transmit
 1726 0a50 0030D6E5 		ldrb	r3, [r6, #0]	@ zero_extendqisi2
 1727 0a54 0A2087E2 		add	r2, r7, #10
 1728 0a58 833083E0 		add	r3, r3, r3, asl #1
 1729 0a5c 0301D2E7 		ldrb	r0, [r2, r3, asl #2]	@ zero_extendqisi2
 1730 0a60 0030D4E5 		ldrb	r3, [r4, #0]	@ zero_extendqisi2
 1731 0a64 033080E0 		add	r3, r0, r3
 1732 0a68 0030C4E5 		strb	r3, [r4, #0]
 1733 0a6c 0030D5E5 		ldrb	r3, [r5, #0]	@ zero_extendqisi2
 1734 0a70 0020D4E5 		ldrb	r2, [r4, #0]	@ zero_extendqisi2
 1735 0a74 023083E0 		add	r3, r3, r2
 1736 0a78 0030C5E5 		strb	r3, [r5, #0]
 1737 0a7c FEFFFFEB 		bl	uart1_transmit
 1738 0a80 0030D6E5 		ldrb	r3, [r6, #0]	@ zero_extendqisi2
 1739 0a84 0B2087E2 		add	r2, r7, #11
 1740 0a88 833083E0 		add	r3, r3, r3, asl #1
 1741 0a8c 0301D2E7 		ldrb	r0, [r2, r3, asl #2]	@ zero_extendqisi2
 1742 0a90 0030D4E5 		ldrb	r3, [r4, #0]	@ zero_extendqisi2
 1743 0a94 033080E0 		add	r3, r0, r3
 1744 0a98 0030C4E5 		strb	r3, [r4, #0]
 1745 0a9c 0030D5E5 		ldrb	r3, [r5, #0]	@ zero_extendqisi2
 1746 0aa0 0020D4E5 		ldrb	r2, [r4, #0]	@ zero_extendqisi2
 1747 0aa4 023083E0 		add	r3, r3, r2
 1748 0aa8 0030C5E5 		strb	r3, [r5, #0]
 1749 0aac FEFFFFEB 		bl	uart1_transmit
 1750 0ab0 8C339FE5 		ldr	r3, .L438+132
 1751 0ab4 0000D3E5 		ldrb	r0, [r3, #0]	@ zero_extendqisi2
 1752              	.L409:
 1753 0ab8 0030D4E5 		ldrb	r3, [r4, #0]	@ zero_extendqisi2
 1754 0abc 033080E0 		add	r3, r0, r3
 1755 0ac0 0030C4E5 		strb	r3, [r4, #0]
 1756 0ac4 0030D5E5 		ldrb	r3, [r5, #0]	@ zero_extendqisi2
 1757 0ac8 0020D4E5 		ldrb	r2, [r4, #0]	@ zero_extendqisi2
 1758 0acc 023083E0 		add	r3, r3, r2
 1759 0ad0 0030C5E5 		strb	r3, [r5, #0]
 1760 0ad4 FEFFFFEB 		bl	uart1_transmit
 1761 0ad8 0000D4E5 		ldrb	r0, [r4, #0]	@ zero_extendqisi2
 1762 0adc FEFFFFEB 		bl	uart1_transmit
 1763 0ae0 0000D5E5 		ldrb	r0, [r5, #0]	@ zero_extendqisi2
 1764 0ae4 FEFFFFEB 		bl	uart1_transmit
 1765 0ae8 BD0200EA 		b	.L74
 1766              	.L77:
 1767 0aec E0239FE5 		ldr	r2, .L438+276
 1768 0af0 0030D2E5 		ldrb	r3, [r2, #0]	@ zero_extendqisi2
 1769 0af4 013083E2 		add	r3, r3, #1
 1770 0af8 0030C2E5 		strb	r3, [r2, #0]
 1771              	.L74:
 1772 0afc 0030DAE5 		ldrb	r3, [sl, #0]	@ zero_extendqisi2
 1773 0b00 240053E3 		cmp	r3, #36
 1774 0b04 BC03001A 		bne	.L81
 1775 0b08 1600A0E3 		mov	r0, #22
 1776 0b0c FEFFFFEB 		bl	uart1_check_free_space
 1777 0b10 FF0010E3 		tst	r0, #255
 1778 0b14 A804000A 		beq	.L86
 1779 0b18 B8139FE5 		ldr	r1, .L438+280
 1780 0b1c B8C39FE5 		ldr	ip, .L438+284
 1781 0b20 B030D1E1 		ldrh	r3, [r1, #0]
 1782 0b24 B020DCE1 		ldrh	r2, [ip, #0]
 1783 0b28 163083E2 		add	r3, r3, #22
 1784 0b2c 012082E2 		add	r2, r2, #1
 1785 0b30 B030C1E1 		strh	r3, [r1, #0]	@ movhi 
 1786 0b34 B020CCE1 		strh	r2, [ip, #0]	@ movhi 
 1787 0b38 9900A0E3 		mov	r0, #153
 1788 0b3c 9C439FE5 		ldr	r4, .L438+288
 1789 0b40 9C539FE5 		ldr	r5, .L438+292
 1790 0b44 FEFFFFEB 		bl	uart1_transmit
 1791 0b48 1600A0E3 		mov	r0, #22
 1792 0b4c FEFFFFEB 		bl	uart1_transmit
 1793 0b50 3670A0E3 		mov	r7, #54
 1794 0b54 2030A0E3 		mov	r3, #32
 1795 0b58 0A00A0E3 		mov	r0, #10
 1796 0b5c 0030C4E5 		strb	r3, [r4, #0]
 1797 0b60 0070C5E5 		strb	r7, [r5, #0]
 1798 0b64 FEFFFFEB 		bl	uart1_transmit
 1799 0b68 0030D4E5 		ldrb	r3, [r4, #0]	@ zero_extendqisi2
 1800 0b6c 073083E0 		add	r3, r3, r7
 1801 0b70 0030C4E5 		strb	r3, [r4, #0]
 1802 0b74 0030D5E5 		ldrb	r3, [r5, #0]	@ zero_extendqisi2
 1803 0b78 0020D4E5 		ldrb	r2, [r4, #0]	@ zero_extendqisi2
 1804 0b7c C4629FE5 		ldr	r6, .L438+136
 1805 0b80 023083E0 		add	r3, r3, r2
 1806 0b84 0700A0E1 		mov	r0, r7
 1807 0b88 0030C5E5 		strb	r3, [r5, #0]
 1808 0b8c FEFFFFEB 		bl	uart1_transmit
 1809 0b90 0000D6E5 		ldrb	r0, [r6, #0]	@ zero_extendqisi2
 1810 0b94 0030D4E5 		ldrb	r3, [r4, #0]	@ zero_extendqisi2
 1811 0b98 033080E0 		add	r3, r0, r3
 1812 0b9c 0030C4E5 		strb	r3, [r4, #0]
 1813 0ba0 0030D5E5 		ldrb	r3, [r5, #0]	@ zero_extendqisi2
 1814 0ba4 0020D4E5 		ldrb	r2, [r4, #0]	@ zero_extendqisi2
 1815 0ba8 023083E0 		add	r3, r3, r2
 1816 0bac 0030C5E5 		strb	r3, [r5, #0]
 1817 0bb0 FEFFFFEB 		bl	uart1_transmit
 1818 0bb4 0100D6E5 		ldrb	r0, [r6, #1]	@ zero_extendqisi2
 1819 0bb8 0030D4E5 		ldrb	r3, [r4, #0]	@ zero_extendqisi2
 1820 0bbc 033080E0 		add	r3, r0, r3
 1821 0bc0 0030C4E5 		strb	r3, [r4, #0]
 1822 0bc4 0030D5E5 		ldrb	r3, [r5, #0]	@ zero_extendqisi2
 1823 0bc8 0020D4E5 		ldrb	r2, [r4, #0]	@ zero_extendqisi2
 1824 0bcc 023083E0 		add	r3, r3, r2
 1825 0bd0 0030C5E5 		strb	r3, [r5, #0]
 1826 0bd4 FEFFFFEB 		bl	uart1_transmit
 1827 0bd8 0200D6E5 		ldrb	r0, [r6, #2]	@ zero_extendqisi2
 1828 0bdc 0030D4E5 		ldrb	r3, [r4, #0]	@ zero_extendqisi2
 1829 0be0 033080E0 		add	r3, r0, r3
 1830 0be4 0030C4E5 		strb	r3, [r4, #0]
 1831 0be8 0030D5E5 		ldrb	r3, [r5, #0]	@ zero_extendqisi2
 1832 0bec 0020D4E5 		ldrb	r2, [r4, #0]	@ zero_extendqisi2
 1833 0bf0 023083E0 		add	r3, r3, r2
 1834 0bf4 0030C5E5 		strb	r3, [r5, #0]
 1835 0bf8 FEFFFFEB 		bl	uart1_transmit
 1836 0bfc 0300D6E5 		ldrb	r0, [r6, #3]	@ zero_extendqisi2
 1837 0c00 0030D4E5 		ldrb	r3, [r4, #0]	@ zero_extendqisi2
 1838 0c04 033080E0 		add	r3, r0, r3
 1839 0c08 0030C4E5 		strb	r3, [r4, #0]
 1840 0c0c 0030D5E5 		ldrb	r3, [r5, #0]	@ zero_extendqisi2
 1841 0c10 0020D4E5 		ldrb	r2, [r4, #0]	@ zero_extendqisi2
 1842 0c14 30629FE5 		ldr	r6, .L438+140
 1843 0c18 023083E0 		add	r3, r3, r2
 1844 0c1c 0030C5E5 		strb	r3, [r5, #0]
 1845 0c20 FEFFFFEB 		bl	uart1_transmit
 1846 0c24 0000D6E5 		ldrb	r0, [r6, #0]	@ zero_extendqisi2
 1847 0c28 0030D4E5 		ldrb	r3, [r4, #0]	@ zero_extendqisi2
 1848 0c2c 033080E0 		add	r3, r0, r3
 1849 0c30 0030C4E5 		strb	r3, [r4, #0]
 1850 0c34 0030D5E5 		ldrb	r3, [r5, #0]	@ zero_extendqisi2
 1851 0c38 0020D4E5 		ldrb	r2, [r4, #0]	@ zero_extendqisi2
 1852 0c3c 023083E0 		add	r3, r3, r2
 1853 0c40 0030C5E5 		strb	r3, [r5, #0]
 1854 0c44 FEFFFFEB 		bl	uart1_transmit
 1855 0c48 0100D6E5 		ldrb	r0, [r6, #1]	@ zero_extendqisi2
 1856 0c4c 0030D4E5 		ldrb	r3, [r4, #0]	@ zero_extendqisi2
 1857 0c50 033080E0 		add	r3, r0, r3
 1858 0c54 0030C4E5 		strb	r3, [r4, #0]
 1859 0c58 0030D5E5 		ldrb	r3, [r5, #0]	@ zero_extendqisi2
 1860 0c5c 0020D4E5 		ldrb	r2, [r4, #0]	@ zero_extendqisi2
 1861 0c60 023083E0 		add	r3, r3, r2
 1862 0c64 0030C5E5 		strb	r3, [r5, #0]
 1863 0c68 FEFFFFEB 		bl	uart1_transmit
 1864 0c6c 0200D6E5 		ldrb	r0, [r6, #2]	@ zero_extendqisi2
 1865 0c70 0030D4E5 		ldrb	r3, [r4, #0]	@ zero_extendqisi2
 1866 0c74 033080E0 		add	r3, r0, r3
 1867 0c78 0030C4E5 		strb	r3, [r4, #0]
 1868 0c7c 0030D5E5 		ldrb	r3, [r5, #0]	@ zero_extendqisi2
 1869 0c80 0020D4E5 		ldrb	r2, [r4, #0]	@ zero_extendqisi2
 1870 0c84 023083E0 		add	r3, r3, r2
 1871 0c88 0030C5E5 		strb	r3, [r5, #0]
 1872 0c8c FEFFFFEB 		bl	uart1_transmit
 1873 0c90 0300D6E5 		ldrb	r0, [r6, #3]	@ zero_extendqisi2
 1874 0c94 0030D4E5 		ldrb	r3, [r4, #0]	@ zero_extendqisi2
 1875 0c98 033080E0 		add	r3, r0, r3
 1876 0c9c 0030C4E5 		strb	r3, [r4, #0]
 1877 0ca0 0030D5E5 		ldrb	r3, [r5, #0]	@ zero_extendqisi2
 1878 0ca4 0020D4E5 		ldrb	r2, [r4, #0]	@ zero_extendqisi2
 1879 0ca8 A0619FE5 		ldr	r6, .L438+144
 1880 0cac 023083E0 		add	r3, r3, r2
 1881 0cb0 0030C5E5 		strb	r3, [r5, #0]
 1882 0cb4 FEFFFFEB 		bl	uart1_transmit
 1883 0cb8 0000D6E5 		ldrb	r0, [r6, #0]	@ zero_extendqisi2
 1884 0cbc 0030D4E5 		ldrb	r3, [r4, #0]	@ zero_extendqisi2
 1885 0cc0 033080E0 		add	r3, r0, r3
 1886 0cc4 0030C4E5 		strb	r3, [r4, #0]
 1887 0cc8 0030D5E5 		ldrb	r3, [r5, #0]	@ zero_extendqisi2
 1888 0ccc 0020D4E5 		ldrb	r2, [r4, #0]	@ zero_extendqisi2
 1889 0cd0 023083E0 		add	r3, r3, r2
 1890 0cd4 0030C5E5 		strb	r3, [r5, #0]
 1891 0cd8 FEFFFFEB 		bl	uart1_transmit
 1892 0cdc 0100D6E5 		ldrb	r0, [r6, #1]	@ zero_extendqisi2
 1893 0ce0 0030D4E5 		ldrb	r3, [r4, #0]	@ zero_extendqisi2
 1894 0ce4 033080E0 		add	r3, r0, r3
 1895 0ce8 0030C4E5 		strb	r3, [r4, #0]
 1896 0cec 0030D5E5 		ldrb	r3, [r5, #0]	@ zero_extendqisi2
 1897 0cf0 0020D4E5 		ldrb	r2, [r4, #0]	@ zero_extendqisi2
 1898 0cf4 023083E0 		add	r3, r3, r2
 1899 0cf8 0030C5E5 		strb	r3, [r5, #0]
 1900 0cfc FEFFFFEB 		bl	uart1_transmit
 1901 0d00 0200D6E5 		ldrb	r0, [r6, #2]	@ zero_extendqisi2
 1902 0d04 0030D4E5 		ldrb	r3, [r4, #0]	@ zero_extendqisi2
 1903 0d08 033080E0 		add	r3, r0, r3
 1904 0d0c 0030C4E5 		strb	r3, [r4, #0]
 1905 0d10 0030D5E5 		ldrb	r3, [r5, #0]	@ zero_extendqisi2
 1906 0d14 0020D4E5 		ldrb	r2, [r4, #0]	@ zero_extendqisi2
 1907 0d18 023083E0 		add	r3, r3, r2
 1908 0d1c 0030C5E5 		strb	r3, [r5, #0]
 1909 0d20 FEFFFFEB 		bl	uart1_transmit
 1910 0d24 0300D6E5 		ldrb	r0, [r6, #3]	@ zero_extendqisi2
 1911 0d28 0030D4E5 		ldrb	r3, [r4, #0]	@ zero_extendqisi2
 1912 0d2c 033080E0 		add	r3, r0, r3
 1913 0d30 0030C4E5 		strb	r3, [r4, #0]
 1914 0d34 0030D5E5 		ldrb	r3, [r5, #0]	@ zero_extendqisi2
 1915 0d38 0020D4E5 		ldrb	r2, [r4, #0]	@ zero_extendqisi2
 1916 0d3c 10619FE5 		ldr	r6, .L438+148
 1917 0d40 023083E0 		add	r3, r3, r2
 1918 0d44 0030C5E5 		strb	r3, [r5, #0]
 1919 0d48 FEFFFFEB 		bl	uart1_transmit
 1920 0d4c 0000D6E5 		ldrb	r0, [r6, #0]	@ zero_extendqisi2
 1921 0d50 0030D4E5 		ldrb	r3, [r4, #0]	@ zero_extendqisi2
 1922 0d54 033080E0 		add	r3, r0, r3
 1923 0d58 0030C4E5 		strb	r3, [r4, #0]
 1924 0d5c 0030D5E5 		ldrb	r3, [r5, #0]	@ zero_extendqisi2
 1925 0d60 0020D4E5 		ldrb	r2, [r4, #0]	@ zero_extendqisi2
 1926 0d64 023083E0 		add	r3, r3, r2
 1927 0d68 0030C5E5 		strb	r3, [r5, #0]
 1928 0d6c FEFFFFEB 		bl	uart1_transmit
 1929 0d70 0100D6E5 		ldrb	r0, [r6, #1]	@ zero_extendqisi2
 1930 0d74 0030D4E5 		ldrb	r3, [r4, #0]	@ zero_extendqisi2
 1931 0d78 033080E0 		add	r3, r0, r3
 1932 0d7c 0030C4E5 		strb	r3, [r4, #0]
 1933 0d80 0030D5E5 		ldrb	r3, [r5, #0]	@ zero_extendqisi2
 1934 0d84 0020D4E5 		ldrb	r2, [r4, #0]	@ zero_extendqisi2
 1935 0d88 023083E0 		add	r3, r3, r2
 1936 0d8c 0030C5E5 		strb	r3, [r5, #0]
 1937 0d90 FEFFFFEB 		bl	uart1_transmit
 1938 0d94 0200D6E5 		ldrb	r0, [r6, #2]	@ zero_extendqisi2
 1939 0d98 0030D4E5 		ldrb	r3, [r4, #0]	@ zero_extendqisi2
 1940 0d9c 033080E0 		add	r3, r0, r3
 1941 0da0 0030C4E5 		strb	r3, [r4, #0]
 1942 0da4 0030D5E5 		ldrb	r3, [r5, #0]	@ zero_extendqisi2
 1943 0da8 0020D4E5 		ldrb	r2, [r4, #0]	@ zero_extendqisi2
 1944 0dac 023083E0 		add	r3, r3, r2
 1945 0db0 0030C5E5 		strb	r3, [r5, #0]
 1946 0db4 FEFFFFEB 		bl	uart1_transmit
 1947 0db8 0300D6E5 		ldrb	r0, [r6, #3]	@ zero_extendqisi2
 1948 0dbc 9B0400EA 		b	.L410
 1949              	.L439:
 1950              		.align	2
 1951              	.L438:
 1952 0dc0 00000000 		.word	_60Hz.4
 1953 0dc4 00000000 		.word	_20Hz.5
 1954 0dc8 00000000 		.word	_10Hz.6
 1955 0dcc 00000000 		.word	_4Hz.7
 1956 0dd0 00000000 		.word	_1Hz.8
 1957 0dd4 00000000 		.word	boot.10
 1958 0dd8 00000000 		.word	version
 1959 0ddc 00000000 		.word	telemetry_mode_Ap_DefaultChannel
 1960 0de0 00000000 		.word	i6.11
 1961 0de4 00000000 		.word	i15.12
 1962 0de8 00000000 		.word	i30.13
 1963 0dec 00000000 		.word	i36.14
 1964 0df0 00000000 		.word	i48.15
 1965 0df4 00000000 		.word	i60.16
 1966 0df8 00000000 		.word	i63.17
 1967 0dfc 00000000 		.word	i90.20
 1968 0e00 00000000 		.word	i120.21
 1969 0e04 00000000 		.word	i126.22
 1970 0e08 00000000 		.word	i150.23
 1971 0e0c 00000000 		.word	i300.24
 1972 0e10 00000000 		.word	i306.25
 1973 0e14 31010000 		.word	305
 1974 0e18 00000000 		.word	i540.26
 1975 0e1c 00000000 		.word	estimator_phi
 1976 0e20 00000000 		.word	estimator_psi
 1977 0e24 00000000 		.word	estimator_theta
 1978 0e28 00000000 		.word	estimator_z
 1979 0e2c 00000000 		.word	estimator_z_dot
 1980 0e30 00000000 		.word	i.27
 1981 0e34 00000000 		.word	nb_waypoint
 1982 0e38 00000000 		.word	nav_utm_east0
 1983 0e3c 00000000 		.word	waypoints
 1984 0e40 00000000 		.word	nav_utm_north0
 1985 0e44 00000000 		.word	nav_utm_zone0
 1986 0e48 00000000 		.word	estimator_airspeed
 1987 0e4c 00000000 		.word	v_ctl_auto_airspeed_setpoint
 1988 0e50 00000000 		.word	v_ctl_auto_airspeed_controlled
 1989 0e54 00000000 		.word	v_ctl_auto_groundspeed_setpoint
 1990 0e58 00000000 		.word	nav_circle_radians
 1991 0e5c 00000000 		.word	nav_block
 1992 0e60 00000000 		.word	nav_stage
 1993 0e64 00000000 		.word	estimator_x
 1994 0e68 00000000 		.word	estimator_y
 1995 0e6c 00000000 		.word	dist2_to_wp
 1996 0e70 00000000 		.word	dist2_to_home
 1997 0e74 00000000 		.word	nav_oval_count
 1998 0e78 00000000 		.word	nav_in_circle
 1999 0e7c 00000000 		.word	nav_circle_x
 2000 0e80 00000000 		.word	nav_circle_y
 2001 0e84 00000000 		.word	nav_circle_radius
 2002 0e88 00000000 		.word	h_ctl_roll_setpoint
 2003 0e8c 00000000 		.word	h_ctl_pitch_loop_setpoint
 2004 0e90 00000000 		.word	h_ctl_course_setpoint
 2005 0e94 00000000 		.word	desired_x
 2006 0e98 00000000 		.word	desired_y
 2007 0e9c 00000000 		.word	v_ctl_altitude_setpoint
 2008 0ea0 00000000 		.word	v_ctl_climb_setpoint
 2009 0ea4 00000000 		.word	i66.18
 2010 0ea8 00000000 		.word	energy
 2011 0eac 00000000 		.word	v_ctl_throttle_slewed
 2012 0eb0 00000000 		.word	vsupply
 2013 0eb4 00000000 		.word	estimator_flight_time
 2014 0eb8 00000000 		.word	kill_throttle
 2015 0ebc FB211940 		.word	1075388923
 2016 0ec0 182D4454 		.word	1413754136
 2017 0ec4 00000000 		.word	block_time
 2018 0ec8 00000000 		.word	stage_time
 2019 0ecc 00000000 		.word	i72.19
 2020 0ed0 00000000 		.word	nav_in_segment
 2021 0ed4 00000000 		.word	downlink_nb_ovrn
 2022 0ed8 00000000 		.word	downlink_nb_bytes
 2023 0edc 00000000 		.word	downlink_nb_msgs
 2024 0ee0 00000000 		.word	ck_a
 2025 0ee4 00000000 		.word	ck_b
 2026 0ee8 00000000 		.word	nav_segment_x_1
 2027 0eec 00000000 		.word	nav_segment_y_1
 2028 0ef0 00000000 		.word	nav_segment_x_2
 2029 0ef4 00000000 		.word	nav_segment_y_2
 2030              	.L81:
 2031 0ef8 2A0053E3 		cmp	r3, #42
 2032 0efc AC04001A 		bne	.L84
 2033 0f00 B0301FE5 		ldr	r3, .L438+152
 2034 0f04 003093E5 		ldr	r3, [r3, #0]
 2035 0f08 0201C3E3 		bic	r0, r3, #-2147483648
 2036 0f0c FEFFFFEB 		bl	__extendsfdf2
 2037 0f10 5C204FE2 		adr	r2, .L438+252
 2038 0f14 0C0092E8 		ldmia	r2, {r2-r3}
 2039 0f18 FEFFFFEB 		bl	__divdf3
 2040 0f1c FEFFFFEB 		bl	__fixunsdfsi
 2041 0f20 29004BE5 		strb	r0, [fp, #-41]
 2042 0f24 1A00A0E3 		mov	r0, #26
 2043 0f28 FEFFFFEB 		bl	uart1_check_free_space
 2044 0f2c FF0010E3 		tst	r0, #255
 2045 0f30 A804000A 		beq	.L86
 2046 0f34 64101FE5 		ldr	r1, .L438+280
 2047 0f38 64C01FE5 		ldr	ip, .L438+284
 2048 0f3c B030D1E1 		ldrh	r3, [r1, #0]
 2049 0f40 B020DCE1 		ldrh	r2, [ip, #0]
 2050 0f44 1A3083E2 		add	r3, r3, #26
 2051 0f48 012082E2 		add	r2, r2, #1
 2052 0f4c B030C1E1 		strh	r3, [r1, #0]	@ movhi 
 2053 0f50 B020CCE1 		strh	r2, [ip, #0]	@ movhi 
 2054 0f54 9900A0E3 		mov	r0, #153
 2055 0f58 80401FE5 		ldr	r4, .L438+288
 2056 0f5c FEFFFFEB 		bl	uart1_transmit
 2057 0f60 1A00A0E3 		mov	r0, #26
 2058 0f64 88501FE5 		ldr	r5, .L438+292
 2059 0f68 FEFFFFEB 		bl	uart1_transmit
 2060 0f6c 2430A0E3 		mov	r3, #36
 2061 0f70 0030C4E5 		strb	r3, [r4, #0]
 2062 0f74 1A3083E2 		add	r3, r3, #26
 2063 0f78 0A00A0E3 		mov	r0, #10
 2064 0f7c 0030C5E5 		strb	r3, [r5, #0]
 2065 0f80 FEFFFFEB 		bl	uart1_transmit
 2066 0f84 0030D4E5 		ldrb	r3, [r4, #0]	@ zero_extendqisi2
 2067 0f88 0A3083E2 		add	r3, r3, #10
 2068 0f8c 0030C4E5 		strb	r3, [r4, #0]
 2069 0f90 0030D5E5 		ldrb	r3, [r5, #0]	@ zero_extendqisi2
 2070 0f94 0020D4E5 		ldrb	r2, [r4, #0]	@ zero_extendqisi2
 2071 0f98 023083E0 		add	r3, r3, r2
 2072 0f9c 0A00A0E3 		mov	r0, #10
 2073 0fa0 0030C5E5 		strb	r3, [r5, #0]
 2074 0fa4 FEFFFFEB 		bl	uart1_transmit
 2075 0fa8 54311FE5 		ldr	r3, .L438+156
 2076 0fac 0000D3E5 		ldrb	r0, [r3, #0]	@ zero_extendqisi2
 2077 0fb0 0030D4E5 		ldrb	r3, [r4, #0]	@ zero_extendqisi2
 2078 0fb4 033080E0 		add	r3, r0, r3
 2079 0fb8 0030C4E5 		strb	r3, [r4, #0]
 2080 0fbc 0030D5E5 		ldrb	r3, [r5, #0]	@ zero_extendqisi2
 2081 0fc0 0020D4E5 		ldrb	r2, [r4, #0]	@ zero_extendqisi2
 2082 0fc4 023083E0 		add	r3, r3, r2
 2083 0fc8 0030C5E5 		strb	r3, [r5, #0]
 2084 0fcc FEFFFFEB 		bl	uart1_transmit
 2085 0fd0 78311FE5 		ldr	r3, .L438+160
 2086 0fd4 0000D3E5 		ldrb	r0, [r3, #0]	@ zero_extendqisi2
 2087 0fd8 0030D4E5 		ldrb	r3, [r4, #0]	@ zero_extendqisi2
 2088 0fdc 033080E0 		add	r3, r0, r3
 2089 0fe0 0030C4E5 		strb	r3, [r4, #0]
 2090 0fe4 0030D5E5 		ldrb	r3, [r5, #0]	@ zero_extendqisi2
 2091 0fe8 0020D4E5 		ldrb	r2, [r4, #0]	@ zero_extendqisi2
 2092 0fec 90611FE5 		ldr	r6, .L438+164
 2093 0ff0 023083E0 		add	r3, r3, r2
 2094 0ff4 0030C5E5 		strb	r3, [r5, #0]
 2095 0ff8 FEFFFFEB 		bl	uart1_transmit
 2096 0ffc 0000D6E5 		ldrb	r0, [r6, #0]	@ zero_extendqisi2
 2097 1000 0030D4E5 		ldrb	r3, [r4, #0]	@ zero_extendqisi2
 2098 1004 033080E0 		add	r3, r0, r3
 2099 1008 0030C4E5 		strb	r3, [r4, #0]
 2100 100c 0030D5E5 		ldrb	r3, [r5, #0]	@ zero_extendqisi2
 2101 1010 0020D4E5 		ldrb	r2, [r4, #0]	@ zero_extendqisi2
 2102 1014 023083E0 		add	r3, r3, r2
 2103 1018 0030C5E5 		strb	r3, [r5, #0]
 2104 101c FEFFFFEB 		bl	uart1_transmit
 2105 1020 0100D6E5 		ldrb	r0, [r6, #1]	@ zero_extendqisi2
 2106 1024 0030D4E5 		ldrb	r3, [r4, #0]	@ zero_extendqisi2
 2107 1028 033080E0 		add	r3, r0, r3
 2108 102c 0030C4E5 		strb	r3, [r4, #0]
 2109 1030 0030D5E5 		ldrb	r3, [r5, #0]	@ zero_extendqisi2
 2110 1034 0020D4E5 		ldrb	r2, [r4, #0]	@ zero_extendqisi2
 2111 1038 023083E0 		add	r3, r3, r2
 2112 103c 0030C5E5 		strb	r3, [r5, #0]
 2113 1040 FEFFFFEB 		bl	uart1_transmit
 2114 1044 0200D6E5 		ldrb	r0, [r6, #2]	@ zero_extendqisi2
 2115 1048 0030D4E5 		ldrb	r3, [r4, #0]	@ zero_extendqisi2
 2116 104c 033080E0 		add	r3, r0, r3
 2117 1050 0030C4E5 		strb	r3, [r4, #0]
 2118 1054 0030D5E5 		ldrb	r3, [r5, #0]	@ zero_extendqisi2
 2119 1058 0020D4E5 		ldrb	r2, [r4, #0]	@ zero_extendqisi2
 2120 105c 023083E0 		add	r3, r3, r2
 2121 1060 0030C5E5 		strb	r3, [r5, #0]
 2122 1064 FEFFFFEB 		bl	uart1_transmit
 2123 1068 0300D6E5 		ldrb	r0, [r6, #3]	@ zero_extendqisi2
 2124 106c 0030D4E5 		ldrb	r3, [r4, #0]	@ zero_extendqisi2
 2125 1070 033080E0 		add	r3, r0, r3
 2126 1074 0030C4E5 		strb	r3, [r4, #0]
 2127 1078 0030D5E5 		ldrb	r3, [r5, #0]	@ zero_extendqisi2
 2128 107c 0020D4E5 		ldrb	r2, [r4, #0]	@ zero_extendqisi2
 2129 1080 20621FE5 		ldr	r6, .L438+168
 2130 1084 023083E0 		add	r3, r3, r2
 2131 1088 0030C5E5 		strb	r3, [r5, #0]
 2132 108c FEFFFFEB 		bl	uart1_transmit
 2133 1090 0000D6E5 		ldrb	r0, [r6, #0]	@ zero_extendqisi2
 2134 1094 0030D4E5 		ldrb	r3, [r4, #0]	@ zero_extendqisi2
 2135 1098 033080E0 		add	r3, r0, r3
 2136 109c 0030C4E5 		strb	r3, [r4, #0]
 2137 10a0 0030D5E5 		ldrb	r3, [r5, #0]	@ zero_extendqisi2
 2138 10a4 0020D4E5 		ldrb	r2, [r4, #0]	@ zero_extendqisi2
 2139 10a8 023083E0 		add	r3, r3, r2
 2140 10ac 0030C5E5 		strb	r3, [r5, #0]
 2141 10b0 FEFFFFEB 		bl	uart1_transmit
 2142 10b4 0100D6E5 		ldrb	r0, [r6, #1]	@ zero_extendqisi2
 2143 10b8 0030D4E5 		ldrb	r3, [r4, #0]	@ zero_extendqisi2
 2144 10bc 033080E0 		add	r3, r0, r3
 2145 10c0 0030C4E5 		strb	r3, [r4, #0]
 2146 10c4 0030D5E5 		ldrb	r3, [r5, #0]	@ zero_extendqisi2
 2147 10c8 0020D4E5 		ldrb	r2, [r4, #0]	@ zero_extendqisi2
 2148 10cc 023083E0 		add	r3, r3, r2
 2149 10d0 0030C5E5 		strb	r3, [r5, #0]
 2150 10d4 FEFFFFEB 		bl	uart1_transmit
 2151 10d8 0200D6E5 		ldrb	r0, [r6, #2]	@ zero_extendqisi2
 2152 10dc 0030D4E5 		ldrb	r3, [r4, #0]	@ zero_extendqisi2
 2153 10e0 033080E0 		add	r3, r0, r3
 2154 10e4 0030C4E5 		strb	r3, [r4, #0]
 2155 10e8 0030D5E5 		ldrb	r3, [r5, #0]	@ zero_extendqisi2
 2156 10ec 0020D4E5 		ldrb	r2, [r4, #0]	@ zero_extendqisi2
 2157 10f0 023083E0 		add	r3, r3, r2
 2158 10f4 0030C5E5 		strb	r3, [r5, #0]
 2159 10f8 FEFFFFEB 		bl	uart1_transmit
 2160 10fc 0300D6E5 		ldrb	r0, [r6, #3]	@ zero_extendqisi2
 2161 1100 0030D4E5 		ldrb	r3, [r4, #0]	@ zero_extendqisi2
 2162 1104 033080E0 		add	r3, r0, r3
 2163 1108 0030C4E5 		strb	r3, [r4, #0]
 2164 110c 0030D5E5 		ldrb	r3, [r5, #0]	@ zero_extendqisi2
 2165 1110 0020D4E5 		ldrb	r2, [r4, #0]	@ zero_extendqisi2
 2166 1114 B0621FE5 		ldr	r6, .L438+172
 2167 1118 023083E0 		add	r3, r3, r2
 2168 111c 0030C5E5 		strb	r3, [r5, #0]
 2169 1120 FEFFFFEB 		bl	uart1_transmit
 2170 1124 0000D6E5 		ldrb	r0, [r6, #0]	@ zero_extendqisi2
 2171 1128 0030D4E5 		ldrb	r3, [r4, #0]	@ zero_extendqisi2
 2172 112c 033080E0 		add	r3, r0, r3
 2173 1130 0030C4E5 		strb	r3, [r4, #0]
 2174 1134 0030D5E5 		ldrb	r3, [r5, #0]	@ zero_extendqisi2
 2175 1138 0020D4E5 		ldrb	r2, [r4, #0]	@ zero_extendqisi2
 2176 113c 023083E0 		add	r3, r3, r2
 2177 1140 0030C5E5 		strb	r3, [r5, #0]
 2178 1144 FEFFFFEB 		bl	uart1_transmit
 2179 1148 0100D6E5 		ldrb	r0, [r6, #1]	@ zero_extendqisi2
 2180 114c 0030D4E5 		ldrb	r3, [r4, #0]	@ zero_extendqisi2
 2181 1150 033080E0 		add	r3, r0, r3
 2182 1154 0030C4E5 		strb	r3, [r4, #0]
 2183 1158 0030D5E5 		ldrb	r3, [r5, #0]	@ zero_extendqisi2
 2184 115c 0020D4E5 		ldrb	r2, [r4, #0]	@ zero_extendqisi2
 2185 1160 023083E0 		add	r3, r3, r2
 2186 1164 0030C5E5 		strb	r3, [r5, #0]
 2187 1168 FEFFFFEB 		bl	uart1_transmit
 2188 116c 0200D6E5 		ldrb	r0, [r6, #2]	@ zero_extendqisi2
 2189 1170 0030D4E5 		ldrb	r3, [r4, #0]	@ zero_extendqisi2
 2190 1174 033080E0 		add	r3, r0, r3
 2191 1178 0030C4E5 		strb	r3, [r4, #0]
 2192 117c 0030D5E5 		ldrb	r3, [r5, #0]	@ zero_extendqisi2
 2193 1180 0020D4E5 		ldrb	r2, [r4, #0]	@ zero_extendqisi2
 2194 1184 023083E0 		add	r3, r3, r2
 2195 1188 0030C5E5 		strb	r3, [r5, #0]
 2196 118c FEFFFFEB 		bl	uart1_transmit
 2197 1190 0300D6E5 		ldrb	r0, [r6, #3]	@ zero_extendqisi2
 2198 1194 0030D4E5 		ldrb	r3, [r4, #0]	@ zero_extendqisi2
 2199 1198 033080E0 		add	r3, r0, r3
 2200 119c 0030C4E5 		strb	r3, [r4, #0]
 2201 11a0 0030D5E5 		ldrb	r3, [r5, #0]	@ zero_extendqisi2
 2202 11a4 0020D4E5 		ldrb	r2, [r4, #0]	@ zero_extendqisi2
 2203 11a8 40631FE5 		ldr	r6, .L438+176
 2204 11ac 023083E0 		add	r3, r3, r2
 2205 11b0 0030C5E5 		strb	r3, [r5, #0]
 2206 11b4 FEFFFFEB 		bl	uart1_transmit
 2207 11b8 0000D6E5 		ldrb	r0, [r6, #0]	@ zero_extendqisi2
 2208 11bc 0030D4E5 		ldrb	r3, [r4, #0]	@ zero_extendqisi2
 2209 11c0 033080E0 		add	r3, r0, r3
 2210 11c4 0030C4E5 		strb	r3, [r4, #0]
 2211 11c8 0030D5E5 		ldrb	r3, [r5, #0]	@ zero_extendqisi2
 2212 11cc 0020D4E5 		ldrb	r2, [r4, #0]	@ zero_extendqisi2
 2213 11d0 023083E0 		add	r3, r3, r2
 2214 11d4 0030C5E5 		strb	r3, [r5, #0]
 2215 11d8 FEFFFFEB 		bl	uart1_transmit
 2216 11dc 0100D6E5 		ldrb	r0, [r6, #1]	@ zero_extendqisi2
 2217 11e0 0030D4E5 		ldrb	r3, [r4, #0]	@ zero_extendqisi2
 2218 11e4 033080E0 		add	r3, r0, r3
 2219 11e8 0030C4E5 		strb	r3, [r4, #0]
 2220 11ec 0030D5E5 		ldrb	r3, [r5, #0]	@ zero_extendqisi2
 2221 11f0 0020D4E5 		ldrb	r2, [r4, #0]	@ zero_extendqisi2
 2222 11f4 023083E0 		add	r3, r3, r2
 2223 11f8 0030C5E5 		strb	r3, [r5, #0]
 2224 11fc FEFFFFEB 		bl	uart1_transmit
 2225 1200 0200D6E5 		ldrb	r0, [r6, #2]	@ zero_extendqisi2
 2226 1204 0030D4E5 		ldrb	r3, [r4, #0]	@ zero_extendqisi2
 2227 1208 033080E0 		add	r3, r0, r3
 2228 120c 0030C4E5 		strb	r3, [r4, #0]
 2229 1210 0030D5E5 		ldrb	r3, [r5, #0]	@ zero_extendqisi2
 2230 1214 0020D4E5 		ldrb	r2, [r4, #0]	@ zero_extendqisi2
 2231 1218 023083E0 		add	r3, r3, r2
 2232 121c 0030C5E5 		strb	r3, [r5, #0]
 2233 1220 FEFFFFEB 		bl	uart1_transmit
 2234 1224 0300D6E5 		ldrb	r0, [r6, #3]	@ zero_extendqisi2
 2235 1228 0030D4E5 		ldrb	r3, [r4, #0]	@ zero_extendqisi2
 2236 122c 033080E0 		add	r3, r0, r3
 2237 1230 0030C4E5 		strb	r3, [r4, #0]
 2238 1234 0030D5E5 		ldrb	r3, [r5, #0]	@ zero_extendqisi2
 2239 1238 0020D4E5 		ldrb	r2, [r4, #0]	@ zero_extendqisi2
 2240 123c 023083E0 		add	r3, r3, r2
 2241 1240 0030C5E5 		strb	r3, [r5, #0]
 2242 1244 FEFFFFEB 		bl	uart1_transmit
 2243 1248 29005BE5 		ldrb	r0, [fp, #-41]	@ zero_extendqisi2
 2244 124c 0030D4E5 		ldrb	r3, [r4, #0]	@ zero_extendqisi2
 2245 1250 033080E0 		add	r3, r0, r3
 2246 1254 0030C4E5 		strb	r3, [r4, #0]
 2247 1258 0030D5E5 		ldrb	r3, [r5, #0]	@ zero_extendqisi2
 2248 125c 0020D4E5 		ldrb	r2, [r4, #0]	@ zero_extendqisi2
 2249 1260 023083E0 		add	r3, r3, r2
 2250 1264 0030C5E5 		strb	r3, [r5, #0]
 2251 1268 FEFFFFEB 		bl	uart1_transmit
 2252 126c 00341FE5 		ldr	r3, .L438+180
 2253 1270 0000D3E5 		ldrb	r0, [r3, #0]	@ zero_extendqisi2
 2254              	.L410:
 2255 1274 0030D4E5 		ldrb	r3, [r4, #0]	@ zero_extendqisi2
 2256 1278 033080E0 		add	r3, r0, r3
 2257 127c 0030C4E5 		strb	r3, [r4, #0]
 2258 1280 0030D5E5 		ldrb	r3, [r5, #0]	@ zero_extendqisi2
 2259 1284 0020D4E5 		ldrb	r2, [r4, #0]	@ zero_extendqisi2
 2260 1288 023083E0 		add	r3, r3, r2
 2261 128c 0030C5E5 		strb	r3, [r5, #0]
 2262 1290 FEFFFFEB 		bl	uart1_transmit
 2263 1294 0000D4E5 		ldrb	r0, [r4, #0]	@ zero_extendqisi2
 2264 1298 FEFFFFEB 		bl	uart1_transmit
 2265 129c 0000D5E5 		ldrb	r0, [r5, #0]	@ zero_extendqisi2
 2266 12a0 FEFFFFEB 		bl	uart1_transmit
 2267 12a4 AC0400EA 		b	.L84
 2268              	.L86:
 2269 12a8 DC231FE5 		ldr	r2, .L438+276
 2270 12ac 0030D2E5 		ldrb	r3, [r2, #0]	@ zero_extendqisi2
 2271 12b0 013083E2 		add	r3, r3, #1
 2272 12b4 0030C2E5 		strb	r3, [r2, #0]
 2273              	.L84:
 2274 12b8 0030D9E5 		ldrb	r3, [r9, #0]	@ zero_extendqisi2
 2275 12bc 3C0053E3 		cmp	r3, #60
 2276 12c0 1D05001A 		bne	.L92
 2277 12c4 54341FE5 		ldr	r3, .L438+184
 2278 12c8 0030D3E5 		ldrb	r3, [r3, #0]	@ zero_extendqisi2
 2279 12cc 000053E3 		cmp	r3, #0
 2280 12d0 4C06000A 		beq	.L96
 2281 12d4 1200A0E3 		mov	r0, #18
 2282 12d8 FEFFFFEB 		bl	uart1_check_free_space
 2283 12dc FF0010E3 		tst	r0, #255
 2284 12e0 4806000A 		beq	.L98
 2285 12e4 14141FE5 		ldr	r1, .L438+280
 2286 12e8 14C41FE5 		ldr	ip, .L438+284
 2287 12ec B030D1E1 		ldrh	r3, [r1, #0]
 2288 12f0 B020DCE1 		ldrh	r2, [ip, #0]
 2289 12f4 123083E2 		add	r3, r3, #18
 2290 12f8 012082E2 		add	r2, r2, #1
 2291 12fc B030C1E1 		strh	r3, [r1, #0]	@ movhi 
 2292 1300 B020CCE1 		strh	r2, [ip, #0]	@ movhi 
 2293 1304 9900A0E3 		mov	r0, #153
 2294 1308 30441FE5 		ldr	r4, .L438+288
 2295 130c FEFFFFEB 		bl	uart1_transmit
 2296 1310 1200A0E3 		mov	r0, #18
 2297 1314 38541FE5 		ldr	r5, .L438+292
 2298 1318 FEFFFFEB 		bl	uart1_transmit
 2299 131c 1C30A0E3 		mov	r3, #28
 2300 1320 0030C4E5 		strb	r3, [r4, #0]
 2301 1324 123083E2 		add	r3, r3, #18
 2302 1328 0A00A0E3 		mov	r0, #10
 2303 132c 0030C5E5 		strb	r3, [r5, #0]
 2304 1330 FEFFFFEB 		bl	uart1_transmit
 2305 1334 0030D4E5 		ldrb	r3, [r4, #0]	@ zero_extendqisi2
 2306 1338 153083E2 		add	r3, r3, #21
 2307 133c 0030C4E5 		strb	r3, [r4, #0]
 2308 1340 0030D5E5 		ldrb	r3, [r5, #0]	@ zero_extendqisi2
 2309 1344 0020D4E5 		ldrb	r2, [r4, #0]	@ zero_extendqisi2
 2310 1348 D4641FE5 		ldr	r6, .L438+188
 2311 134c 023083E0 		add	r3, r3, r2
 2312 1350 1500A0E3 		mov	r0, #21
 2313 1354 0030C5E5 		strb	r3, [r5, #0]
 2314 1358 FEFFFFEB 		bl	uart1_transmit
 2315 135c 0000D6E5 		ldrb	r0, [r6, #0]	@ zero_extendqisi2
 2316 1360 0030D4E5 		ldrb	r3, [r4, #0]	@ zero_extendqisi2
 2317 1364 033080E0 		add	r3, r0, r3
 2318 1368 0030C4E5 		strb	r3, [r4, #0]
 2319 136c 0030D5E5 		ldrb	r3, [r5, #0]	@ zero_extendqisi2
 2320 1370 0020D4E5 		ldrb	r2, [r4, #0]	@ zero_extendqisi2
 2321 1374 023083E0 		add	r3, r3, r2
 2322 1378 0030C5E5 		strb	r3, [r5, #0]
 2323 137c FEFFFFEB 		bl	uart1_transmit
 2324 1380 0100D6E5 		ldrb	r0, [r6, #1]	@ zero_extendqisi2
 2325 1384 0030D4E5 		ldrb	r3, [r4, #0]	@ zero_extendqisi2
 2326 1388 033080E0 		add	r3, r0, r3
 2327 138c 0030C4E5 		strb	r3, [r4, #0]
 2328 1390 0030D5E5 		ldrb	r3, [r5, #0]	@ zero_extendqisi2
 2329 1394 0020D4E5 		ldrb	r2, [r4, #0]	@ zero_extendqisi2
 2330 1398 023083E0 		add	r3, r3, r2
 2331 139c 0030C5E5 		strb	r3, [r5, #0]
 2332 13a0 FEFFFFEB 		bl	uart1_transmit
 2333 13a4 0200D6E5 		ldrb	r0, [r6, #2]	@ zero_extendqisi2
 2334 13a8 0030D4E5 		ldrb	r3, [r4, #0]	@ zero_extendqisi2
 2335 13ac 033080E0 		add	r3, r0, r3
 2336 13b0 0030C4E5 		strb	r3, [r4, #0]
 2337 13b4 0030D5E5 		ldrb	r3, [r5, #0]	@ zero_extendqisi2
 2338 13b8 0020D4E5 		ldrb	r2, [r4, #0]	@ zero_extendqisi2
 2339 13bc 023083E0 		add	r3, r3, r2
 2340 13c0 0030C5E5 		strb	r3, [r5, #0]
 2341 13c4 FEFFFFEB 		bl	uart1_transmit
 2342 13c8 0300D6E5 		ldrb	r0, [r6, #3]	@ zero_extendqisi2
 2343 13cc 0030D4E5 		ldrb	r3, [r4, #0]	@ zero_extendqisi2
 2344 13d0 033080E0 		add	r3, r0, r3
 2345 13d4 0030C4E5 		strb	r3, [r4, #0]
 2346 13d8 0030D5E5 		ldrb	r3, [r5, #0]	@ zero_extendqisi2
 2347 13dc 0020D4E5 		ldrb	r2, [r4, #0]	@ zero_extendqisi2
 2348 13e0 68651FE5 		ldr	r6, .L438+192
 2349 13e4 023083E0 		add	r3, r3, r2
 2350 13e8 0030C5E5 		strb	r3, [r5, #0]
 2351 13ec FEFFFFEB 		bl	uart1_transmit
 2352 13f0 0000D6E5 		ldrb	r0, [r6, #0]	@ zero_extendqisi2
 2353 13f4 0030D4E5 		ldrb	r3, [r4, #0]	@ zero_extendqisi2
 2354 13f8 033080E0 		add	r3, r0, r3
 2355 13fc 0030C4E5 		strb	r3, [r4, #0]
 2356 1400 0030D5E5 		ldrb	r3, [r5, #0]	@ zero_extendqisi2
 2357 1404 0020D4E5 		ldrb	r2, [r4, #0]	@ zero_extendqisi2
 2358 1408 023083E0 		add	r3, r3, r2
 2359 140c 0030C5E5 		strb	r3, [r5, #0]
 2360 1410 FEFFFFEB 		bl	uart1_transmit
 2361 1414 0100D6E5 		ldrb	r0, [r6, #1]	@ zero_extendqisi2
 2362 1418 0030D4E5 		ldrb	r3, [r4, #0]	@ zero_extendqisi2
 2363 141c 033080E0 		add	r3, r0, r3
 2364 1420 0030C4E5 		strb	r3, [r4, #0]
 2365 1424 0030D5E5 		ldrb	r3, [r5, #0]	@ zero_extendqisi2
 2366 1428 0020D4E5 		ldrb	r2, [r4, #0]	@ zero_extendqisi2
 2367 142c 023083E0 		add	r3, r3, r2
 2368 1430 0030C5E5 		strb	r3, [r5, #0]
 2369 1434 FEFFFFEB 		bl	uart1_transmit
 2370 1438 0200D6E5 		ldrb	r0, [r6, #2]	@ zero_extendqisi2
 2371 143c 0030D4E5 		ldrb	r3, [r4, #0]	@ zero_extendqisi2
 2372 1440 033080E0 		add	r3, r0, r3
 2373 1444 0030C4E5 		strb	r3, [r4, #0]
 2374 1448 0030D5E5 		ldrb	r3, [r5, #0]	@ zero_extendqisi2
 2375 144c 0020D4E5 		ldrb	r2, [r4, #0]	@ zero_extendqisi2
 2376 1450 023083E0 		add	r3, r3, r2
 2377 1454 0030C5E5 		strb	r3, [r5, #0]
 2378 1458 FEFFFFEB 		bl	uart1_transmit
 2379 145c 0300D6E5 		ldrb	r0, [r6, #3]	@ zero_extendqisi2
 2380 1460 0030D4E5 		ldrb	r3, [r4, #0]	@ zero_extendqisi2
 2381 1464 033080E0 		add	r3, r0, r3
 2382 1468 0030C4E5 		strb	r3, [r4, #0]
 2383 146c F0651FE5 		ldr	r6, .L438+196
 2384 1470 0030D5E5 		ldrb	r3, [r5, #0]	@ zero_extendqisi2
 2385 1474 0020D4E5 		ldrb	r2, [r4, #0]	@ zero_extendqisi2
 2386 1478 1C0600EA 		b	.L411
 2387              	.L92:
 2388 147c 030053E3 		cmp	r3, #3
 2389 1480 4C06001A 		bne	.L96
 2390 1484 2200A0E3 		mov	r0, #34
 2391 1488 FEFFFFEB 		bl	uart1_check_free_space
 2392 148c FF0010E3 		tst	r0, #255
 2393 1490 4806000A 		beq	.L98
 2394 1494 C4151FE5 		ldr	r1, .L438+280
 2395 1498 C4C51FE5 		ldr	ip, .L438+284
 2396 149c B030D1E1 		ldrh	r3, [r1, #0]
 2397 14a0 B020DCE1 		ldrh	r2, [ip, #0]
 2398 14a4 223083E2 		add	r3, r3, #34
 2399 14a8 012082E2 		add	r2, r2, #1
 2400 14ac B030C1E1 		strh	r3, [r1, #0]	@ movhi 
 2401 14b0 B020CCE1 		strh	r2, [ip, #0]	@ movhi 
 2402 14b4 9900A0E3 		mov	r0, #153
 2403 14b8 E0451FE5 		ldr	r4, .L438+288
 2404 14bc FEFFFFEB 		bl	uart1_transmit
 2405 14c0 2200A0E3 		mov	r0, #34
 2406 14c4 E8551FE5 		ldr	r5, .L438+292
 2407 14c8 FEFFFFEB 		bl	uart1_transmit
 2408 14cc 2C30A0E3 		mov	r3, #44
 2409 14d0 0030C4E5 		strb	r3, [r4, #0]
 2410 14d4 223083E2 		add	r3, r3, #34
 2411 14d8 0A00A0E3 		mov	r0, #10
 2412 14dc 0030C5E5 		strb	r3, [r5, #0]
 2413 14e0 FEFFFFEB 		bl	uart1_transmit
 2414 14e4 0030D4E5 		ldrb	r3, [r4, #0]	@ zero_extendqisi2
 2415 14e8 103083E2 		add	r3, r3, #16
 2416 14ec 0030C4E5 		strb	r3, [r4, #0]
 2417 14f0 0030D5E5 		ldrb	r3, [r5, #0]	@ zero_extendqisi2
 2418 14f4 0020D4E5 		ldrb	r2, [r4, #0]	@ zero_extendqisi2
 2419 14f8 78661FE5 		ldr	r6, .L438+200
 2420 14fc 023083E0 		add	r3, r3, r2
 2421 1500 1000A0E3 		mov	r0, #16
 2422 1504 0030C5E5 		strb	r3, [r5, #0]
 2423 1508 FEFFFFEB 		bl	uart1_transmit
 2424 150c 0000D6E5 		ldrb	r0, [r6, #0]	@ zero_extendqisi2
 2425 1510 0030D4E5 		ldrb	r3, [r4, #0]	@ zero_extendqisi2
 2426 1514 033080E0 		add	r3, r0, r3
 2427 1518 0030C4E5 		strb	r3, [r4, #0]
 2428 151c 0030D5E5 		ldrb	r3, [r5, #0]	@ zero_extendqisi2
 2429 1520 0020D4E5 		ldrb	r2, [r4, #0]	@ zero_extendqisi2
 2430 1524 023083E0 		add	r3, r3, r2
 2431 1528 0030C5E5 		strb	r3, [r5, #0]
 2432 152c FEFFFFEB 		bl	uart1_transmit
 2433 1530 0100D6E5 		ldrb	r0, [r6, #1]	@ zero_extendqisi2
 2434 1534 0030D4E5 		ldrb	r3, [r4, #0]	@ zero_extendqisi2
 2435 1538 033080E0 		add	r3, r0, r3
 2436 153c 0030C4E5 		strb	r3, [r4, #0]
 2437 1540 0030D5E5 		ldrb	r3, [r5, #0]	@ zero_extendqisi2
 2438 1544 0020D4E5 		ldrb	r2, [r4, #0]	@ zero_extendqisi2
 2439 1548 023083E0 		add	r3, r3, r2
 2440 154c 0030C5E5 		strb	r3, [r5, #0]
 2441 1550 FEFFFFEB 		bl	uart1_transmit
 2442 1554 0200D6E5 		ldrb	r0, [r6, #2]	@ zero_extendqisi2
 2443 1558 0030D4E5 		ldrb	r3, [r4, #0]	@ zero_extendqisi2
 2444 155c 033080E0 		add	r3, r0, r3
 2445 1560 0030C4E5 		strb	r3, [r4, #0]
 2446 1564 0030D5E5 		ldrb	r3, [r5, #0]	@ zero_extendqisi2
 2447 1568 0020D4E5 		ldrb	r2, [r4, #0]	@ zero_extendqisi2
 2448 156c 023083E0 		add	r3, r3, r2
 2449 1570 0030C5E5 		strb	r3, [r5, #0]
 2450 1574 FEFFFFEB 		bl	uart1_transmit
 2451 1578 0300D6E5 		ldrb	r0, [r6, #3]	@ zero_extendqisi2
 2452 157c 0030D4E5 		ldrb	r3, [r4, #0]	@ zero_extendqisi2
 2453 1580 033080E0 		add	r3, r0, r3
 2454 1584 0030C4E5 		strb	r3, [r4, #0]
 2455 1588 0030D5E5 		ldrb	r3, [r5, #0]	@ zero_extendqisi2
 2456 158c 0020D4E5 		ldrb	r2, [r4, #0]	@ zero_extendqisi2
 2457 1590 0C671FE5 		ldr	r6, .L438+204
 2458 1594 023083E0 		add	r3, r3, r2
 2459 1598 0030C5E5 		strb	r3, [r5, #0]
 2460 159c FEFFFFEB 		bl	uart1_transmit
 2461 15a0 0000D6E5 		ldrb	r0, [r6, #0]	@ zero_extendqisi2
 2462 15a4 0030D4E5 		ldrb	r3, [r4, #0]	@ zero_extendqisi2
 2463 15a8 033080E0 		add	r3, r0, r3
 2464 15ac 0030C4E5 		strb	r3, [r4, #0]
 2465 15b0 0030D5E5 		ldrb	r3, [r5, #0]	@ zero_extendqisi2
 2466 15b4 0020D4E5 		ldrb	r2, [r4, #0]	@ zero_extendqisi2
 2467 15b8 023083E0 		add	r3, r3, r2
 2468 15bc 0030C5E5 		strb	r3, [r5, #0]
 2469 15c0 FEFFFFEB 		bl	uart1_transmit
 2470 15c4 0100D6E5 		ldrb	r0, [r6, #1]	@ zero_extendqisi2
 2471 15c8 0030D4E5 		ldrb	r3, [r4, #0]	@ zero_extendqisi2
 2472 15cc 033080E0 		add	r3, r0, r3
 2473 15d0 0030C4E5 		strb	r3, [r4, #0]
 2474 15d4 0030D5E5 		ldrb	r3, [r5, #0]	@ zero_extendqisi2
 2475 15d8 0020D4E5 		ldrb	r2, [r4, #0]	@ zero_extendqisi2
 2476 15dc 023083E0 		add	r3, r3, r2
 2477 15e0 0030C5E5 		strb	r3, [r5, #0]
 2478 15e4 FEFFFFEB 		bl	uart1_transmit
 2479 15e8 0200D6E5 		ldrb	r0, [r6, #2]	@ zero_extendqisi2
 2480 15ec 0030D4E5 		ldrb	r3, [r4, #0]	@ zero_extendqisi2
 2481 15f0 033080E0 		add	r3, r0, r3
 2482 15f4 0030C4E5 		strb	r3, [r4, #0]
 2483 15f8 0030D5E5 		ldrb	r3, [r5, #0]	@ zero_extendqisi2
 2484 15fc 0020D4E5 		ldrb	r2, [r4, #0]	@ zero_extendqisi2
 2485 1600 023083E0 		add	r3, r3, r2
 2486 1604 0030C5E5 		strb	r3, [r5, #0]
 2487 1608 FEFFFFEB 		bl	uart1_transmit
 2488 160c 0300D6E5 		ldrb	r0, [r6, #3]	@ zero_extendqisi2
 2489 1610 0030D4E5 		ldrb	r3, [r4, #0]	@ zero_extendqisi2
 2490 1614 033080E0 		add	r3, r0, r3
 2491 1618 0030C4E5 		strb	r3, [r4, #0]
 2492 161c 0030D5E5 		ldrb	r3, [r5, #0]	@ zero_extendqisi2
 2493 1620 0020D4E5 		ldrb	r2, [r4, #0]	@ zero_extendqisi2
 2494 1624 9C671FE5 		ldr	r6, .L438+208
 2495 1628 023083E0 		add	r3, r3, r2
 2496 162c 0030C5E5 		strb	r3, [r5, #0]
 2497 1630 FEFFFFEB 		bl	uart1_transmit
 2498 1634 0000D6E5 		ldrb	r0, [r6, #0]	@ zero_extendqisi2
 2499 1638 0030D4E5 		ldrb	r3, [r4, #0]	@ zero_extendqisi2
 2500 163c 033080E0 		add	r3, r0, r3
 2501 1640 0030C4E5 		strb	r3, [r4, #0]
 2502 1644 0030D5E5 		ldrb	r3, [r5, #0]	@ zero_extendqisi2
 2503 1648 0020D4E5 		ldrb	r2, [r4, #0]	@ zero_extendqisi2
 2504 164c 023083E0 		add	r3, r3, r2
 2505 1650 0030C5E5 		strb	r3, [r5, #0]
 2506 1654 FEFFFFEB 		bl	uart1_transmit
 2507 1658 0100D6E5 		ldrb	r0, [r6, #1]	@ zero_extendqisi2
 2508 165c 0030D4E5 		ldrb	r3, [r4, #0]	@ zero_extendqisi2
 2509 1660 033080E0 		add	r3, r0, r3
 2510 1664 0030C4E5 		strb	r3, [r4, #0]
 2511 1668 0030D5E5 		ldrb	r3, [r5, #0]	@ zero_extendqisi2
 2512 166c 0020D4E5 		ldrb	r2, [r4, #0]	@ zero_extendqisi2
 2513 1670 023083E0 		add	r3, r3, r2
 2514 1674 0030C5E5 		strb	r3, [r5, #0]
 2515 1678 FEFFFFEB 		bl	uart1_transmit
 2516 167c 0200D6E5 		ldrb	r0, [r6, #2]	@ zero_extendqisi2
 2517 1680 0030D4E5 		ldrb	r3, [r4, #0]	@ zero_extendqisi2
 2518 1684 033080E0 		add	r3, r0, r3
 2519 1688 0030C4E5 		strb	r3, [r4, #0]
 2520 168c 0030D5E5 		ldrb	r3, [r5, #0]	@ zero_extendqisi2
 2521 1690 0020D4E5 		ldrb	r2, [r4, #0]	@ zero_extendqisi2
 2522 1694 023083E0 		add	r3, r3, r2
 2523 1698 0030C5E5 		strb	r3, [r5, #0]
 2524 169c FEFFFFEB 		bl	uart1_transmit
 2525 16a0 0300D6E5 		ldrb	r0, [r6, #3]	@ zero_extendqisi2
 2526 16a4 0030D4E5 		ldrb	r3, [r4, #0]	@ zero_extendqisi2
 2527 16a8 033080E0 		add	r3, r0, r3
 2528 16ac 0030C4E5 		strb	r3, [r4, #0]
 2529 16b0 0030D5E5 		ldrb	r3, [r5, #0]	@ zero_extendqisi2
 2530 16b4 0020D4E5 		ldrb	r2, [r4, #0]	@ zero_extendqisi2
 2531 16b8 2C681FE5 		ldr	r6, .L438+212
 2532 16bc 023083E0 		add	r3, r3, r2
 2533 16c0 0030C5E5 		strb	r3, [r5, #0]
 2534 16c4 FEFFFFEB 		bl	uart1_transmit
 2535 16c8 0000D6E5 		ldrb	r0, [r6, #0]	@ zero_extendqisi2
 2536 16cc 0030D4E5 		ldrb	r3, [r4, #0]	@ zero_extendqisi2
 2537 16d0 033080E0 		add	r3, r0, r3
 2538 16d4 0030C4E5 		strb	r3, [r4, #0]
 2539 16d8 0030D5E5 		ldrb	r3, [r5, #0]	@ zero_extendqisi2
 2540 16dc 0020D4E5 		ldrb	r2, [r4, #0]	@ zero_extendqisi2
 2541 16e0 023083E0 		add	r3, r3, r2
 2542 16e4 0030C5E5 		strb	r3, [r5, #0]
 2543 16e8 FEFFFFEB 		bl	uart1_transmit
 2544 16ec 0100D6E5 		ldrb	r0, [r6, #1]	@ zero_extendqisi2
 2545 16f0 0030D4E5 		ldrb	r3, [r4, #0]	@ zero_extendqisi2
 2546 16f4 033080E0 		add	r3, r0, r3
 2547 16f8 0030C4E5 		strb	r3, [r4, #0]
 2548 16fc 0030D5E5 		ldrb	r3, [r5, #0]	@ zero_extendqisi2
 2549 1700 0020D4E5 		ldrb	r2, [r4, #0]	@ zero_extendqisi2
 2550 1704 023083E0 		add	r3, r3, r2
 2551 1708 0030C5E5 		strb	r3, [r5, #0]
 2552 170c FEFFFFEB 		bl	uart1_transmit
 2553 1710 0200D6E5 		ldrb	r0, [r6, #2]	@ zero_extendqisi2
 2554 1714 0030D4E5 		ldrb	r3, [r4, #0]	@ zero_extendqisi2
 2555 1718 033080E0 		add	r3, r0, r3
 2556 171c 0030C4E5 		strb	r3, [r4, #0]
 2557 1720 0030D5E5 		ldrb	r3, [r5, #0]	@ zero_extendqisi2
 2558 1724 0020D4E5 		ldrb	r2, [r4, #0]	@ zero_extendqisi2
 2559 1728 023083E0 		add	r3, r3, r2
 2560 172c 0030C5E5 		strb	r3, [r5, #0]
 2561 1730 FEFFFFEB 		bl	uart1_transmit
 2562 1734 0300D6E5 		ldrb	r0, [r6, #3]	@ zero_extendqisi2
 2563 1738 0030D4E5 		ldrb	r3, [r4, #0]	@ zero_extendqisi2
 2564 173c 033080E0 		add	r3, r0, r3
 2565 1740 0030C4E5 		strb	r3, [r4, #0]
 2566 1744 0030D5E5 		ldrb	r3, [r5, #0]	@ zero_extendqisi2
 2567 1748 0020D4E5 		ldrb	r2, [r4, #0]	@ zero_extendqisi2
 2568 174c BC681FE5 		ldr	r6, .L438+216
 2569 1750 023083E0 		add	r3, r3, r2
 2570 1754 0030C5E5 		strb	r3, [r5, #0]
 2571 1758 FEFFFFEB 		bl	uart1_transmit
 2572 175c 0000D6E5 		ldrb	r0, [r6, #0]	@ zero_extendqisi2
 2573 1760 0030D4E5 		ldrb	r3, [r4, #0]	@ zero_extendqisi2
 2574 1764 033080E0 		add	r3, r0, r3
 2575 1768 0030C4E5 		strb	r3, [r4, #0]
 2576 176c 0030D5E5 		ldrb	r3, [r5, #0]	@ zero_extendqisi2
 2577 1770 0020D4E5 		ldrb	r2, [r4, #0]	@ zero_extendqisi2
 2578 1774 023083E0 		add	r3, r3, r2
 2579 1778 0030C5E5 		strb	r3, [r5, #0]
 2580 177c FEFFFFEB 		bl	uart1_transmit
 2581 1780 0100D6E5 		ldrb	r0, [r6, #1]	@ zero_extendqisi2
 2582 1784 0030D4E5 		ldrb	r3, [r4, #0]	@ zero_extendqisi2
 2583 1788 033080E0 		add	r3, r0, r3
 2584 178c 0030C4E5 		strb	r3, [r4, #0]
 2585 1790 0030D5E5 		ldrb	r3, [r5, #0]	@ zero_extendqisi2
 2586 1794 0020D4E5 		ldrb	r2, [r4, #0]	@ zero_extendqisi2
 2587 1798 023083E0 		add	r3, r3, r2
 2588 179c 0030C5E5 		strb	r3, [r5, #0]
 2589 17a0 FEFFFFEB 		bl	uart1_transmit
 2590 17a4 0200D6E5 		ldrb	r0, [r6, #2]	@ zero_extendqisi2
 2591 17a8 0030D4E5 		ldrb	r3, [r4, #0]	@ zero_extendqisi2
 2592 17ac 033080E0 		add	r3, r0, r3
 2593 17b0 0030C4E5 		strb	r3, [r4, #0]
 2594 17b4 0030D5E5 		ldrb	r3, [r5, #0]	@ zero_extendqisi2
 2595 17b8 0020D4E5 		ldrb	r2, [r4, #0]	@ zero_extendqisi2
 2596 17bc 023083E0 		add	r3, r3, r2
 2597 17c0 0030C5E5 		strb	r3, [r5, #0]
 2598 17c4 FEFFFFEB 		bl	uart1_transmit
 2599 17c8 0300D6E5 		ldrb	r0, [r6, #3]	@ zero_extendqisi2
 2600 17cc 0030D4E5 		ldrb	r3, [r4, #0]	@ zero_extendqisi2
 2601 17d0 033080E0 		add	r3, r0, r3
 2602 17d4 0030C4E5 		strb	r3, [r4, #0]
 2603 17d8 0030D5E5 		ldrb	r3, [r5, #0]	@ zero_extendqisi2
 2604 17dc 0020D4E5 		ldrb	r2, [r4, #0]	@ zero_extendqisi2
 2605 17e0 4C691FE5 		ldr	r6, .L438+220
 2606 17e4 023083E0 		add	r3, r3, r2
 2607 17e8 0030C5E5 		strb	r3, [r5, #0]
 2608 17ec FEFFFFEB 		bl	uart1_transmit
 2609 17f0 0000D6E5 		ldrb	r0, [r6, #0]	@ zero_extendqisi2
 2610 17f4 0030D4E5 		ldrb	r3, [r4, #0]	@ zero_extendqisi2
 2611 17f8 033080E0 		add	r3, r0, r3
 2612 17fc 0030C4E5 		strb	r3, [r4, #0]
 2613 1800 0030D5E5 		ldrb	r3, [r5, #0]	@ zero_extendqisi2
 2614 1804 0020D4E5 		ldrb	r2, [r4, #0]	@ zero_extendqisi2
 2615 1808 023083E0 		add	r3, r3, r2
 2616 180c 0030C5E5 		strb	r3, [r5, #0]
 2617 1810 FEFFFFEB 		bl	uart1_transmit
 2618 1814 0100D6E5 		ldrb	r0, [r6, #1]	@ zero_extendqisi2
 2619 1818 0030D4E5 		ldrb	r3, [r4, #0]	@ zero_extendqisi2
 2620 181c 033080E0 		add	r3, r0, r3
 2621 1820 0030C4E5 		strb	r3, [r4, #0]
 2622 1824 0030D5E5 		ldrb	r3, [r5, #0]	@ zero_extendqisi2
 2623 1828 0020D4E5 		ldrb	r2, [r4, #0]	@ zero_extendqisi2
 2624 182c 023083E0 		add	r3, r3, r2
 2625 1830 0030C5E5 		strb	r3, [r5, #0]
 2626 1834 FEFFFFEB 		bl	uart1_transmit
 2627 1838 0200D6E5 		ldrb	r0, [r6, #2]	@ zero_extendqisi2
 2628 183c 0030D4E5 		ldrb	r3, [r4, #0]	@ zero_extendqisi2
 2629 1840 033080E0 		add	r3, r0, r3
 2630 1844 0030C4E5 		strb	r3, [r4, #0]
 2631 1848 0030D5E5 		ldrb	r3, [r5, #0]	@ zero_extendqisi2
 2632 184c 0020D4E5 		ldrb	r2, [r4, #0]	@ zero_extendqisi2
 2633 1850 023083E0 		add	r3, r3, r2
 2634 1854 0030C5E5 		strb	r3, [r5, #0]
 2635 1858 FEFFFFEB 		bl	uart1_transmit
 2636 185c 0300D6E5 		ldrb	r0, [r6, #3]	@ zero_extendqisi2
 2637 1860 0030D4E5 		ldrb	r3, [r4, #0]	@ zero_extendqisi2
 2638 1864 033080E0 		add	r3, r0, r3
 2639 1868 0030C4E5 		strb	r3, [r4, #0]
 2640 186c D4691FE5 		ldr	r6, .L438+224
 2641 1870 0030D5E5 		ldrb	r3, [r5, #0]	@ zero_extendqisi2
 2642 1874 0020D4E5 		ldrb	r2, [r4, #0]	@ zero_extendqisi2
 2643              	.L411:
 2644 1878 023083E0 		add	r3, r3, r2
 2645 187c 0030C5E5 		strb	r3, [r5, #0]
 2646 1880 FEFFFFEB 		bl	uart1_transmit
 2647 1884 0000D6E5 		ldrb	r0, [r6, #0]	@ zero_extendqisi2
 2648 1888 0030D4E5 		ldrb	r3, [r4, #0]	@ zero_extendqisi2
 2649 188c 033080E0 		add	r3, r0, r3
 2650 1890 0030C4E5 		strb	r3, [r4, #0]
 2651 1894 0030D5E5 		ldrb	r3, [r5, #0]	@ zero_extendqisi2
 2652 1898 0020D4E5 		ldrb	r2, [r4, #0]	@ zero_extendqisi2
 2653 189c 023083E0 		add	r3, r3, r2
 2654 18a0 0030C5E5 		strb	r3, [r5, #0]
 2655 18a4 FEFFFFEB 		bl	uart1_transmit
 2656 18a8 0100D6E5 		ldrb	r0, [r6, #1]	@ zero_extendqisi2
 2657 18ac 0030D4E5 		ldrb	r3, [r4, #0]	@ zero_extendqisi2
 2658 18b0 033080E0 		add	r3, r0, r3
 2659 18b4 0030C4E5 		strb	r3, [r4, #0]
 2660 18b8 0030D5E5 		ldrb	r3, [r5, #0]	@ zero_extendqisi2
 2661 18bc 0020D4E5 		ldrb	r2, [r4, #0]	@ zero_extendqisi2
 2662 18c0 023083E0 		add	r3, r3, r2
 2663 18c4 0030C5E5 		strb	r3, [r5, #0]
 2664 18c8 FEFFFFEB 		bl	uart1_transmit
 2665 18cc 0200D6E5 		ldrb	r0, [r6, #2]	@ zero_extendqisi2
 2666 18d0 0030D4E5 		ldrb	r3, [r4, #0]	@ zero_extendqisi2
 2667 18d4 033080E0 		add	r3, r0, r3
 2668 18d8 0030C4E5 		strb	r3, [r4, #0]
 2669 18dc 0030D5E5 		ldrb	r3, [r5, #0]	@ zero_extendqisi2
 2670 18e0 0020D4E5 		ldrb	r2, [r4, #0]	@ zero_extendqisi2
 2671 18e4 023083E0 		add	r3, r3, r2
 2672 18e8 0030C5E5 		strb	r3, [r5, #0]
 2673 18ec FEFFFFEB 		bl	uart1_transmit
 2674 18f0 0300D6E5 		ldrb	r0, [r6, #3]	@ zero_extendqisi2
 2675 18f4 0030D4E5 		ldrb	r3, [r4, #0]	@ zero_extendqisi2
 2676 18f8 033080E0 		add	r3, r0, r3
 2677 18fc 0030C4E5 		strb	r3, [r4, #0]
 2678 1900 0030D5E5 		ldrb	r3, [r5, #0]	@ zero_extendqisi2
 2679 1904 0020D4E5 		ldrb	r2, [r4, #0]	@ zero_extendqisi2
 2680 1908 023083E0 		add	r3, r3, r2
 2681 190c 0030C5E5 		strb	r3, [r5, #0]
 2682 1910 FEFFFFEB 		bl	uart1_transmit
 2683 1914 0000D4E5 		ldrb	r0, [r4, #0]	@ zero_extendqisi2
 2684 1918 FEFFFFEB 		bl	uart1_transmit
 2685 191c 0000D5E5 		ldrb	r0, [r5, #0]	@ zero_extendqisi2
 2686 1920 FEFFFFEB 		bl	uart1_transmit
 2687 1924 4C0600EA 		b	.L96
 2688              	.L98:
 2689 1928 5C2A1FE5 		ldr	r2, .L438+276
 2690 192c 0030D2E5 		ldrb	r3, [r2, #0]	@ zero_extendqisi2
 2691 1930 013083E2 		add	r3, r3, #1
 2692 1934 0030C2E5 		strb	r3, [r2, #0]
 2693              	.L96:
 2694 1938 9C2A1FE5 		ldr	r2, .L438+228
 2695 193c 0030D2E5 		ldrb	r3, [r2, #0]	@ zero_extendqisi2
 2696 1940 090053E3 		cmp	r3, #9
 2697 1944 0307001A 		bne	.L103
 2698 1948 A83A1FE5 		ldr	r3, .L438+232
 2699 194c 000093E5 		ldr	r0, [r3, #0]	@ float
 2700 1950 0030A0E3 		mov	r3, #0	@ movhi
 2701 1954 BC324BE1 		strh	r3, [fp, #-44]	@ movhi 
 2702 1958 FEFFFFEB 		bl	__fixsfsi
 2703 195c BE024BE1 		strh	r0, [fp, #-46]	@ movhi 
 2704 1960 1400A0E3 		mov	r0, #20
 2705 1964 FEFFFFEB 		bl	uart1_check_free_space
 2706 1968 FF0010E3 		tst	r0, #255
 2707 196c A02A1F05 		ldreq	r2, .L438+276
 2708 1970 0030D205 		ldreqb	r3, [r2, #0]	@ zero_extendqisi2
 2709 1974 01308302 		addeq	r3, r3, #1
 2710 1978 0030C205 		streqb	r3, [r2, #0]
 2711 197c 0307000A 		beq	.L103
 2712 1980 B01A1FE5 		ldr	r1, .L438+280
 2713 1984 B0CA1FE5 		ldr	ip, .L438+284
 2714 1988 B030D1E1 		ldrh	r3, [r1, #0]
 2715 198c B020DCE1 		ldrh	r2, [ip, #0]
 2716 1990 143083E2 		add	r3, r3, #20
 2717 1994 012082E2 		add	r2, r2, #1
 2718 1998 B030C1E1 		strh	r3, [r1, #0]	@ movhi 
 2719 199c B020CCE1 		strh	r2, [ip, #0]	@ movhi 
 2720 19a0 9900A0E3 		mov	r0, #153
 2721 19a4 CC4A1FE5 		ldr	r4, .L438+288
 2722 19a8 FEFFFFEB 		bl	uart1_transmit
 2723 19ac 1400A0E3 		mov	r0, #20
 2724 19b0 D45A1FE5 		ldr	r5, .L438+292
 2725 19b4 FEFFFFEB 		bl	uart1_transmit
 2726 19b8 1E30A0E3 		mov	r3, #30
 2727 19bc 0030C4E5 		strb	r3, [r4, #0]
 2728 19c0 143083E2 		add	r3, r3, #20
 2729 19c4 0A00A0E3 		mov	r0, #10
 2730 19c8 0030C5E5 		strb	r3, [r5, #0]
 2731 19cc FEFFFFEB 		bl	uart1_transmit
 2732 19d0 0030D4E5 		ldrb	r3, [r4, #0]	@ zero_extendqisi2
 2733 19d4 0C3083E2 		add	r3, r3, #12
 2734 19d8 0030C4E5 		strb	r3, [r4, #0]
 2735 19dc 0030D5E5 		ldrb	r3, [r5, #0]	@ zero_extendqisi2
 2736 19e0 0020D4E5 		ldrb	r2, [r4, #0]	@ zero_extendqisi2
 2737 19e4 406B1FE5 		ldr	r6, .L438+236
 2738 19e8 023083E0 		add	r3, r3, r2
 2739 19ec 0C00A0E3 		mov	r0, #12
 2740 19f0 0030C5E5 		strb	r3, [r5, #0]
 2741 19f4 FEFFFFEB 		bl	uart1_transmit
 2742 19f8 0000D6E5 		ldrb	r0, [r6, #0]	@ zero_extendqisi2
 2743 19fc 0030D4E5 		ldrb	r3, [r4, #0]	@ zero_extendqisi2
 2744 1a00 033080E0 		add	r3, r0, r3
 2745 1a04 0030C4E5 		strb	r3, [r4, #0]
 2746 1a08 0030D5E5 		ldrb	r3, [r5, #0]	@ zero_extendqisi2
 2747 1a0c 0020D4E5 		ldrb	r2, [r4, #0]	@ zero_extendqisi2
 2748 1a10 023083E0 		add	r3, r3, r2
 2749 1a14 0030C5E5 		strb	r3, [r5, #0]
 2750 1a18 FEFFFFEB 		bl	uart1_transmit
 2751 1a1c 0100D6E5 		ldrb	r0, [r6, #1]	@ zero_extendqisi2
 2752 1a20 0030D4E5 		ldrb	r3, [r4, #0]	@ zero_extendqisi2
 2753 1a24 033080E0 		add	r3, r0, r3
 2754 1a28 0030C4E5 		strb	r3, [r4, #0]
 2755 1a2c 0030D5E5 		ldrb	r3, [r5, #0]	@ zero_extendqisi2
 2756 1a30 0020D4E5 		ldrb	r2, [r4, #0]	@ zero_extendqisi2
 2757 1a34 023083E0 		add	r3, r3, r2
 2758 1a38 0030C5E5 		strb	r3, [r5, #0]
 2759 1a3c FEFFFFEB 		bl	uart1_transmit
 2760 1a40 983B1FE5 		ldr	r3, .L438+240
 2761 1a44 0000D3E5 		ldrb	r0, [r3, #0]	@ zero_extendqisi2
 2762 1a48 0030D4E5 		ldrb	r3, [r4, #0]	@ zero_extendqisi2
 2763 1a4c 033080E0 		add	r3, r0, r3
 2764 1a50 0030C4E5 		strb	r3, [r4, #0]
 2765 1a54 0030D5E5 		ldrb	r3, [r5, #0]	@ zero_extendqisi2
 2766 1a58 0020D4E5 		ldrb	r2, [r4, #0]	@ zero_extendqisi2
 2767 1a5c 023083E0 		add	r3, r3, r2
 2768 1a60 0030C5E5 		strb	r3, [r5, #0]
 2769 1a64 FEFFFFEB 		bl	uart1_transmit
 2770 1a68 2C005BE5 		ldrb	r0, [fp, #-44]	@ zero_extendqisi2
 2771 1a6c 0030D4E5 		ldrb	r3, [r4, #0]	@ zero_extendqisi2
 2772 1a70 033080E0 		add	r3, r0, r3
 2773 1a74 0030C4E5 		strb	r3, [r4, #0]
 2774 1a78 0030D5E5 		ldrb	r3, [r5, #0]	@ zero_extendqisi2
 2775 1a7c 0020D4E5 		ldrb	r2, [r4, #0]	@ zero_extendqisi2
 2776 1a80 023083E0 		add	r3, r3, r2
 2777 1a84 0030C5E5 		strb	r3, [r5, #0]
 2778 1a88 FEFFFFEB 		bl	uart1_transmit
 2779 1a8c 2B005BE5 		ldrb	r0, [fp, #-43]	@ zero_extendqisi2
 2780 1a90 0030D4E5 		ldrb	r3, [r4, #0]	@ zero_extendqisi2
 2781 1a94 033080E0 		add	r3, r0, r3
 2782 1a98 0030C4E5 		strb	r3, [r4, #0]
 2783 1a9c 0030D5E5 		ldrb	r3, [r5, #0]	@ zero_extendqisi2
 2784 1aa0 0020D4E5 		ldrb	r2, [r4, #0]	@ zero_extendqisi2
 2785 1aa4 F86B1FE5 		ldr	r6, .L438+244
 2786 1aa8 023083E0 		add	r3, r3, r2
 2787 1aac 0030C5E5 		strb	r3, [r5, #0]
 2788 1ab0 FEFFFFEB 		bl	uart1_transmit
 2789 1ab4 0000D6E5 		ldrb	r0, [r6, #0]	@ zero_extendqisi2
 2790 1ab8 0030D4E5 		ldrb	r3, [r4, #0]	@ zero_extendqisi2
 2791 1abc 033080E0 		add	r3, r0, r3
 2792 1ac0 0030C4E5 		strb	r3, [r4, #0]
 2793 1ac4 0030D5E5 		ldrb	r3, [r5, #0]	@ zero_extendqisi2
 2794 1ac8 0020D4E5 		ldrb	r2, [r4, #0]	@ zero_extendqisi2
 2795 1acc 023083E0 		add	r3, r3, r2
 2796 1ad0 0030C5E5 		strb	r3, [r5, #0]
 2797 1ad4 FEFFFFEB 		bl	uart1_transmit
 2798 1ad8 0100D6E5 		ldrb	r0, [r6, #1]	@ zero_extendqisi2
 2799 1adc 0030D4E5 		ldrb	r3, [r4, #0]	@ zero_extendqisi2
 2800 1ae0 033080E0 		add	r3, r0, r3
 2801 1ae4 0030C4E5 		strb	r3, [r4, #0]
 2802 1ae8 0030D5E5 		ldrb	r3, [r5, #0]	@ zero_extendqisi2
 2803 1aec 0020D4E5 		ldrb	r2, [r4, #0]	@ zero_extendqisi2
 2804 1af0 023083E0 		add	r3, r3, r2
 2805 1af4 0030C5E5 		strb	r3, [r5, #0]
 2806 1af8 FEFFFFEB 		bl	uart1_transmit
 2807 1afc 4C3C1FE5 		ldr	r3, .L438+248
 2808 1b00 0000D3E5 		ldrb	r0, [r3, #0]	@ zero_extendqisi2
 2809 1b04 0030D4E5 		ldrb	r3, [r4, #0]	@ zero_extendqisi2
 2810 1b08 033080E0 		add	r3, r0, r3
 2811 1b0c 0030C4E5 		strb	r3, [r4, #0]
 2812 1b10 0030D5E5 		ldrb	r3, [r5, #0]	@ zero_extendqisi2
 2813 1b14 0020D4E5 		ldrb	r2, [r4, #0]	@ zero_extendqisi2
 2814 1b18 5C6C1FE5 		ldr	r6, .L438+260
 2815 1b1c 023083E0 		add	r3, r3, r2
 2816 1b20 0030C5E5 		strb	r3, [r5, #0]
 2817 1b24 FEFFFFEB 		bl	uart1_transmit
 2818 1b28 0000D6E5 		ldrb	r0, [r6, #0]	@ zero_extendqisi2
 2819 1b2c 0030D4E5 		ldrb	r3, [r4, #0]	@ zero_extendqisi2
 2820 1b30 033080E0 		add	r3, r0, r3
 2821 1b34 0030C4E5 		strb	r3, [r4, #0]
 2822 1b38 0030D5E5 		ldrb	r3, [r5, #0]	@ zero_extendqisi2
 2823 1b3c 0020D4E5 		ldrb	r2, [r4, #0]	@ zero_extendqisi2
 2824 1b40 023083E0 		add	r3, r3, r2
 2825 1b44 0030C5E5 		strb	r3, [r5, #0]
 2826 1b48 FEFFFFEB 		bl	uart1_transmit
 2827 1b4c 0100D6E5 		ldrb	r0, [r6, #1]	@ zero_extendqisi2
 2828 1b50 0030D4E5 		ldrb	r3, [r4, #0]	@ zero_extendqisi2
 2829 1b54 033080E0 		add	r3, r0, r3
 2830 1b58 0030C4E5 		strb	r3, [r4, #0]
 2831 1b5c 0030D5E5 		ldrb	r3, [r5, #0]	@ zero_extendqisi2
 2832 1b60 0020D4E5 		ldrb	r2, [r4, #0]	@ zero_extendqisi2
 2833 1b64 A46C1FE5 		ldr	r6, .L438+264
 2834 1b68 023083E0 		add	r3, r3, r2
 2835 1b6c 0030C5E5 		strb	r3, [r5, #0]
 2836 1b70 FEFFFFEB 		bl	uart1_transmit
 2837 1b74 0000D6E5 		ldrb	r0, [r6, #0]	@ zero_extendqisi2
 2838 1b78 0030D4E5 		ldrb	r3, [r4, #0]	@ zero_extendqisi2
 2839 1b7c 033080E0 		add	r3, r0, r3
 2840 1b80 0030C4E5 		strb	r3, [r4, #0]
 2841 1b84 0030D5E5 		ldrb	r3, [r5, #0]	@ zero_extendqisi2
 2842 1b88 0020D4E5 		ldrb	r2, [r4, #0]	@ zero_extendqisi2
 2843 1b8c 023083E0 		add	r3, r3, r2
 2844 1b90 0030C5E5 		strb	r3, [r5, #0]
 2845 1b94 FEFFFFEB 		bl	uart1_transmit
 2846 1b98 0100D6E5 		ldrb	r0, [r6, #1]	@ zero_extendqisi2
 2847 1b9c 0030D4E5 		ldrb	r3, [r4, #0]	@ zero_extendqisi2
 2848 1ba0 033080E0 		add	r3, r0, r3
 2849 1ba4 0030C4E5 		strb	r3, [r4, #0]
 2850 1ba8 0030D5E5 		ldrb	r3, [r5, #0]	@ zero_extendqisi2
 2851 1bac 0020D4E5 		ldrb	r2, [r4, #0]	@ zero_extendqisi2
 2852 1bb0 023083E0 		add	r3, r3, r2
 2853 1bb4 0030C5E5 		strb	r3, [r5, #0]
 2854 1bb8 FEFFFFEB 		bl	uart1_transmit
 2855 1bbc 2E005BE5 		ldrb	r0, [fp, #-46]	@ zero_extendqisi2
 2856 1bc0 0030D4E5 		ldrb	r3, [r4, #0]	@ zero_extendqisi2
 2857 1bc4 033080E0 		add	r3, r0, r3
 2858 1bc8 0030C4E5 		strb	r3, [r4, #0]
 2859 1bcc 0030D5E5 		ldrb	r3, [r5, #0]	@ zero_extendqisi2
 2860 1bd0 0020D4E5 		ldrb	r2, [r4, #0]	@ zero_extendqisi2
 2861 1bd4 023083E0 		add	r3, r3, r2
 2862 1bd8 0030C5E5 		strb	r3, [r5, #0]
 2863 1bdc FEFFFFEB 		bl	uart1_transmit
 2864 1be0 2D005BE5 		ldrb	r0, [fp, #-45]	@ zero_extendqisi2
 2865 1be4 0030D4E5 		ldrb	r3, [r4, #0]	@ zero_extendqisi2
 2866 1be8 033080E0 		add	r3, r0, r3
 2867 1bec 0030C4E5 		strb	r3, [r4, #0]
 2868 1bf0 0030D5E5 		ldrb	r3, [r5, #0]	@ zero_extendqisi2
 2869 1bf4 0020D4E5 		ldrb	r2, [r4, #0]	@ zero_extendqisi2
 2870 1bf8 023083E0 		add	r3, r3, r2
 2871 1bfc 0030C5E5 		strb	r3, [r5, #0]
 2872 1c00 FEFFFFEB 		bl	uart1_transmit
 2873 1c04 0000D4E5 		ldrb	r0, [r4, #0]	@ zero_extendqisi2
 2874 1c08 FEFFFFEB 		bl	uart1_transmit
 2875 1c0c 0000D5E5 		ldrb	r0, [r5, #0]	@ zero_extendqisi2
 2876 1c10 FEFFFFEB 		bl	uart1_transmit
 2877              	.L103:
 2878 1c14 502D1FE5 		ldr	r2, .L438+268
 2879 1c18 0030D2E5 		ldrb	r3, [r2, #0]	@ zero_extendqisi2
 2880 1c1c 150053E3 		cmp	r3, #21
 2881 1c20 C907001A 		bne	.L109
 2882 1c24 5C3D1FE5 		ldr	r3, .L438+272
 2883 1c28 0030D3E5 		ldrb	r3, [r3, #0]	@ zero_extendqisi2
 2884 1c2c 000053E3 		cmp	r3, #0
 2885 1c30 C907000A 		beq	.L109
 2886 1c34 1600A0E3 		mov	r0, #22
 2887 1c38 FEFFFFEB 		bl	uart1_check_free_space
 2888 1c3c FF0010E3 		tst	r0, #255
 2889 1c40 742D1F05 		ldreq	r2, .L438+276
 2890 1c44 0030D205 		ldreqb	r3, [r2, #0]	@ zero_extendqisi2
 2891 1c48 01308302 		addeq	r3, r3, #1
 2892 1c4c 0030C205 		streqb	r3, [r2, #0]
 2893 1c50 C907000A 		beq	.L109
 2894 1c54 841D1FE5 		ldr	r1, .L438+280
 2895 1c58 84CD1FE5 		ldr	ip, .L438+284
 2896 1c5c B030D1E1 		ldrh	r3, [r1, #0]
 2897 1c60 B020DCE1 		ldrh	r2, [ip, #0]
 2898 1c64 163083E2 		add	r3, r3, #22
 2899 1c68 012082E2 		add	r2, r2, #1
 2900 1c6c B030C1E1 		strh	r3, [r1, #0]	@ movhi 
 2901 1c70 B020CCE1 		strh	r2, [ip, #0]	@ movhi 
 2902 1c74 1670A0E3 		mov	r7, #22
 2903 1c78 9900A0E3 		mov	r0, #153
 2904 1c7c A44D1FE5 		ldr	r4, .L438+288
 2905 1c80 FEFFFFEB 		bl	uart1_transmit
 2906 1c84 0700A0E1 		mov	r0, r7
 2907 1c88 AC5D1FE5 		ldr	r5, .L438+292
 2908 1c8c FEFFFFEB 		bl	uart1_transmit
 2909 1c90 2030A0E3 		mov	r3, #32
 2910 1c94 0030C4E5 		strb	r3, [r4, #0]
 2911 1c98 073083E0 		add	r3, r3, r7
 2912 1c9c 0A00A0E3 		mov	r0, #10
 2913 1ca0 0030C5E5 		strb	r3, [r5, #0]
 2914 1ca4 FEFFFFEB 		bl	uart1_transmit
 2915 1ca8 0030D4E5 		ldrb	r3, [r4, #0]	@ zero_extendqisi2
 2916 1cac 073083E0 		add	r3, r3, r7
 2917 1cb0 0030C4E5 		strb	r3, [r4, #0]
 2918 1cb4 0030D5E5 		ldrb	r3, [r5, #0]	@ zero_extendqisi2
 2919 1cb8 0020D4E5 		ldrb	r2, [r4, #0]	@ zero_extendqisi2
 2920 1cbc DC6D1FE5 		ldr	r6, .L438+296
 2921 1cc0 023083E0 		add	r3, r3, r2
 2922 1cc4 0700A0E1 		mov	r0, r7
 2923 1cc8 0030C5E5 		strb	r3, [r5, #0]
 2924 1ccc FEFFFFEB 		bl	uart1_transmit
 2925 1cd0 0000D6E5 		ldrb	r0, [r6, #0]	@ zero_extendqisi2
 2926 1cd4 0030D4E5 		ldrb	r3, [r4, #0]	@ zero_extendqisi2
 2927 1cd8 033080E0 		add	r3, r0, r3
 2928 1cdc 0030C4E5 		strb	r3, [r4, #0]
 2929 1ce0 0030D5E5 		ldrb	r3, [r5, #0]	@ zero_extendqisi2
 2930 1ce4 0020D4E5 		ldrb	r2, [r4, #0]	@ zero_extendqisi2
 2931 1ce8 023083E0 		add	r3, r3, r2
 2932 1cec 0030C5E5 		strb	r3, [r5, #0]
 2933 1cf0 FEFFFFEB 		bl	uart1_transmit
 2934 1cf4 0100D6E5 		ldrb	r0, [r6, #1]	@ zero_extendqisi2
 2935 1cf8 0030D4E5 		ldrb	r3, [r4, #0]	@ zero_extendqisi2
 2936 1cfc 033080E0 		add	r3, r0, r3
 2937 1d00 0030C4E5 		strb	r3, [r4, #0]
 2938 1d04 0030D5E5 		ldrb	r3, [r5, #0]	@ zero_extendqisi2
 2939 1d08 0020D4E5 		ldrb	r2, [r4, #0]	@ zero_extendqisi2
 2940 1d0c 023083E0 		add	r3, r3, r2
 2941 1d10 0030C5E5 		strb	r3, [r5, #0]
 2942 1d14 FEFFFFEB 		bl	uart1_transmit
 2943 1d18 0200D6E5 		ldrb	r0, [r6, #2]	@ zero_extendqisi2
 2944 1d1c 0030D4E5 		ldrb	r3, [r4, #0]	@ zero_extendqisi2
 2945 1d20 033080E0 		add	r3, r0, r3
 2946 1d24 0030C4E5 		strb	r3, [r4, #0]
 2947 1d28 0030D5E5 		ldrb	r3, [r5, #0]	@ zero_extendqisi2
 2948 1d2c 0020D4E5 		ldrb	r2, [r4, #0]	@ zero_extendqisi2
 2949 1d30 023083E0 		add	r3, r3, r2
 2950 1d34 0030C5E5 		strb	r3, [r5, #0]
 2951 1d38 FEFFFFEB 		bl	uart1_transmit
 2952 1d3c 0300D6E5 		ldrb	r0, [r6, #3]	@ zero_extendqisi2
 2953 1d40 0030D4E5 		ldrb	r3, [r4, #0]	@ zero_extendqisi2
 2954 1d44 033080E0 		add	r3, r0, r3
 2955 1d48 0030C4E5 		strb	r3, [r4, #0]
 2956 1d4c 0030D5E5 		ldrb	r3, [r5, #0]	@ zero_extendqisi2
 2957 1d50 0020D4E5 		ldrb	r2, [r4, #0]	@ zero_extendqisi2
 2958 1d54 706E1FE5 		ldr	r6, .L438+300
 2959 1d58 023083E0 		add	r3, r3, r2
 2960 1d5c 0030C5E5 		strb	r3, [r5, #0]
 2961 1d60 FEFFFFEB 		bl	uart1_transmit
 2962 1d64 0000D6E5 		ldrb	r0, [r6, #0]	@ zero_extendqisi2
 2963 1d68 0030D4E5 		ldrb	r3, [r4, #0]	@ zero_extendqisi2
 2964 1d6c 033080E0 		add	r3, r0, r3
 2965 1d70 0030C4E5 		strb	r3, [r4, #0]
 2966 1d74 0030D5E5 		ldrb	r3, [r5, #0]	@ zero_extendqisi2
 2967 1d78 0020D4E5 		ldrb	r2, [r4, #0]	@ zero_extendqisi2
 2968 1d7c 023083E0 		add	r3, r3, r2
 2969 1d80 0030C5E5 		strb	r3, [r5, #0]
 2970 1d84 FEFFFFEB 		bl	uart1_transmit
 2971 1d88 0100D6E5 		ldrb	r0, [r6, #1]	@ zero_extendqisi2
 2972 1d8c 0030D4E5 		ldrb	r3, [r4, #0]	@ zero_extendqisi2
 2973 1d90 033080E0 		add	r3, r0, r3
 2974 1d94 0030C4E5 		strb	r3, [r4, #0]
 2975 1d98 0030D5E5 		ldrb	r3, [r5, #0]	@ zero_extendqisi2
 2976 1d9c 0020D4E5 		ldrb	r2, [r4, #0]	@ zero_extendqisi2
 2977 1da0 023083E0 		add	r3, r3, r2
 2978 1da4 0030C5E5 		strb	r3, [r5, #0]
 2979 1da8 FEFFFFEB 		bl	uart1_transmit
 2980 1dac 0200D6E5 		ldrb	r0, [r6, #2]	@ zero_extendqisi2
 2981 1db0 0030D4E5 		ldrb	r3, [r4, #0]	@ zero_extendqisi2
 2982 1db4 033080E0 		add	r3, r0, r3
 2983 1db8 0030C4E5 		strb	r3, [r4, #0]
 2984 1dbc 0030D5E5 		ldrb	r3, [r5, #0]	@ zero_extendqisi2
 2985 1dc0 0020D4E5 		ldrb	r2, [r4, #0]	@ zero_extendqisi2
 2986 1dc4 023083E0 		add	r3, r3, r2
 2987 1dc8 0030C5E5 		strb	r3, [r5, #0]
 2988 1dcc FEFFFFEB 		bl	uart1_transmit
 2989 1dd0 0300D6E5 		ldrb	r0, [r6, #3]	@ zero_extendqisi2
 2990 1dd4 0030D4E5 		ldrb	r3, [r4, #0]	@ zero_extendqisi2
 2991 1dd8 033080E0 		add	r3, r0, r3
 2992 1ddc 0030C4E5 		strb	r3, [r4, #0]
 2993 1de0 0030D5E5 		ldrb	r3, [r5, #0]	@ zero_extendqisi2
 2994 1de4 0020D4E5 		ldrb	r2, [r4, #0]	@ zero_extendqisi2
 2995 1de8 006F1FE5 		ldr	r6, .L438+304
 2996 1dec 023083E0 		add	r3, r3, r2
 2997 1df0 0030C5E5 		strb	r3, [r5, #0]
 2998 1df4 FEFFFFEB 		bl	uart1_transmit
 2999 1df8 0000D6E5 		ldrb	r0, [r6, #0]	@ zero_extendqisi2
 3000 1dfc 0030D4E5 		ldrb	r3, [r4, #0]	@ zero_extendqisi2
 3001 1e00 033080E0 		add	r3, r0, r3
 3002 1e04 0030C4E5 		strb	r3, [r4, #0]
 3003 1e08 0030D5E5 		ldrb	r3, [r5, #0]	@ zero_extendqisi2
 3004 1e0c 0020D4E5 		ldrb	r2, [r4, #0]	@ zero_extendqisi2
 3005 1e10 023083E0 		add	r3, r3, r2
 3006 1e14 0030C5E5 		strb	r3, [r5, #0]
 3007 1e18 FEFFFFEB 		bl	uart1_transmit
 3008 1e1c 0100D6E5 		ldrb	r0, [r6, #1]	@ zero_extendqisi2
 3009 1e20 0030D4E5 		ldrb	r3, [r4, #0]	@ zero_extendqisi2
 3010 1e24 033080E0 		add	r3, r0, r3
 3011 1e28 0030C4E5 		strb	r3, [r4, #0]
 3012 1e2c 0030D5E5 		ldrb	r3, [r5, #0]	@ zero_extendqisi2
 3013 1e30 0020D4E5 		ldrb	r2, [r4, #0]	@ zero_extendqisi2
 3014 1e34 023083E0 		add	r3, r3, r2
 3015 1e38 0030C5E5 		strb	r3, [r5, #0]
 3016 1e3c FEFFFFEB 		bl	uart1_transmit
 3017 1e40 0200D6E5 		ldrb	r0, [r6, #2]	@ zero_extendqisi2
 3018 1e44 0030D4E5 		ldrb	r3, [r4, #0]	@ zero_extendqisi2
 3019 1e48 033080E0 		add	r3, r0, r3
 3020 1e4c 0030C4E5 		strb	r3, [r4, #0]
 3021 1e50 0030D5E5 		ldrb	r3, [r5, #0]	@ zero_extendqisi2
 3022 1e54 0020D4E5 		ldrb	r2, [r4, #0]	@ zero_extendqisi2
 3023 1e58 023083E0 		add	r3, r3, r2
 3024 1e5c 0030C5E5 		strb	r3, [r5, #0]
 3025 1e60 FEFFFFEB 		bl	uart1_transmit
 3026 1e64 0300D6E5 		ldrb	r0, [r6, #3]	@ zero_extendqisi2
 3027 1e68 0030D4E5 		ldrb	r3, [r4, #0]	@ zero_extendqisi2
 3028 1e6c 033080E0 		add	r3, r0, r3
 3029 1e70 0030C4E5 		strb	r3, [r4, #0]
 3030 1e74 0030D5E5 		ldrb	r3, [r5, #0]	@ zero_extendqisi2
 3031 1e78 0020D4E5 		ldrb	r2, [r4, #0]	@ zero_extendqisi2
 3032 1e7c 906F1FE5 		ldr	r6, .L438+308
 3033 1e80 023083E0 		add	r3, r3, r2
 3034 1e84 0030C5E5 		strb	r3, [r5, #0]
 3035 1e88 FEFFFFEB 		bl	uart1_transmit
 3036 1e8c 0000D6E5 		ldrb	r0, [r6, #0]	@ zero_extendqisi2
 3037 1e90 0030D4E5 		ldrb	r3, [r4, #0]	@ zero_extendqisi2
 3038 1e94 033080E0 		add	r3, r0, r3
 3039 1e98 0030C4E5 		strb	r3, [r4, #0]
 3040 1e9c 0030D5E5 		ldrb	r3, [r5, #0]	@ zero_extendqisi2
 3041 1ea0 0020D4E5 		ldrb	r2, [r4, #0]	@ zero_extendqisi2
 3042 1ea4 023083E0 		add	r3, r3, r2
 3043 1ea8 0030C5E5 		strb	r3, [r5, #0]
 3044 1eac FEFFFFEB 		bl	uart1_transmit
 3045 1eb0 0100D6E5 		ldrb	r0, [r6, #1]	@ zero_extendqisi2
 3046 1eb4 0030D4E5 		ldrb	r3, [r4, #0]	@ zero_extendqisi2
 3047 1eb8 033080E0 		add	r3, r0, r3
 3048 1ebc 0030C4E5 		strb	r3, [r4, #0]
 3049 1ec0 0030D5E5 		ldrb	r3, [r5, #0]	@ zero_extendqisi2
 3050 1ec4 0020D4E5 		ldrb	r2, [r4, #0]	@ zero_extendqisi2
 3051 1ec8 023083E0 		add	r3, r3, r2
 3052 1ecc 0030C5E5 		strb	r3, [r5, #0]
 3053 1ed0 FEFFFFEB 		bl	uart1_transmit
 3054 1ed4 0200D6E5 		ldrb	r0, [r6, #2]	@ zero_extendqisi2
 3055 1ed8 0030D4E5 		ldrb	r3, [r4, #0]	@ zero_extendqisi2
 3056 1edc 033080E0 		add	r3, r0, r3
 3057 1ee0 0030C4E5 		strb	r3, [r4, #0]
 3058 1ee4 0030D5E5 		ldrb	r3, [r5, #0]	@ zero_extendqisi2
 3059 1ee8 0020D4E5 		ldrb	r2, [r4, #0]	@ zero_extendqisi2
 3060 1eec 023083E0 		add	r3, r3, r2
 3061 1ef0 0030C5E5 		strb	r3, [r5, #0]
 3062 1ef4 FEFFFFEB 		bl	uart1_transmit
 3063 1ef8 0300D6E5 		ldrb	r0, [r6, #3]	@ zero_extendqisi2
 3064 1efc 0030D4E5 		ldrb	r3, [r4, #0]	@ zero_extendqisi2
 3065 1f00 033080E0 		add	r3, r0, r3
 3066 1f04 0030C4E5 		strb	r3, [r4, #0]
 3067 1f08 0030D5E5 		ldrb	r3, [r5, #0]	@ zero_extendqisi2
 3068 1f0c 0020D4E5 		ldrb	r2, [r4, #0]	@ zero_extendqisi2
 3069 1f10 023083E0 		add	r3, r3, r2
 3070 1f14 0030C5E5 		strb	r3, [r5, #0]
 3071 1f18 FEFFFFEB 		bl	uart1_transmit
 3072 1f1c 0000D4E5 		ldrb	r0, [r4, #0]	@ zero_extendqisi2
 3073 1f20 FEFFFFEB 		bl	uart1_transmit
 3074 1f24 0000D5E5 		ldrb	r0, [r5, #0]	@ zero_extendqisi2
 3075 1f28 FEFFFFEB 		bl	uart1_transmit
 3076              	.L109:
 3077 1f2c BC2E9FE5 		ldr	r2, .L440
 3078 1f30 0030D2E5 		ldrb	r3, [r2, #0]	@ zero_extendqisi2
 3079 1f34 210053E3 		cmp	r3, #33
 3080 1f38 CE08001A 		bne	.L111
 3081 1f3c B06E9FE5 		ldr	r6, .L440+4
 3082 1f40 0030D6E5 		ldrb	r3, [r6, #0]	@ zero_extendqisi2
 3083 1f44 2E0053E3 		cmp	r3, #46
 3084 1f48 0030A083 		movhi	r3, #0
 3085 1f4c 0030C685 		strhib	r3, [r6, #0]
 3086 1f50 0030D6E5 		ldrb	r3, [r6, #0]	@ zero_extendqisi2
 3087 1f54 2E0053E3 		cmp	r3, #46
 3088 1f58 03F19F97 		ldrls	pc, [pc, r3, asl #2]
 3089 1f5c 720800EA 		b	.L170
 3090              		.p2align 2
 3091              	.L171:
 3092 1f60 1C200000 		.word	.L114
 3093 1f64 24200000 		.word	.L115
 3094 1f68 30200000 		.word	.L116
 3095 1f6c 38200000 		.word	.L117
 3096 1f70 40200000 		.word	.L119
 3097 1f74 48200000 		.word	.L121
 3098 1f78 6C200000 		.word	.L123
 3099 1f7c 74200000 		.word	.L125
 3100 1f80 7C200000 		.word	.L127
 3101 1f84 84200000 		.word	.L129
 3102 1f88 8C200000 		.word	.L131
 3103 1f8c AC200000 		.word	.L133
 3104 1f90 7C210000 		.word	.L161
 3105 1f94 B4200000 		.word	.L136
 3106 1f98 BC200000 		.word	.L137
 3107 1f9c C4200000 		.word	.L138
 3108 1fa0 CC200000 		.word	.L139
 3109 1fa4 D4200000 		.word	.L140
 3110 1fa8 DC200000 		.word	.L141
 3111 1fac E4200000 		.word	.L142
 3112 1fb0 EC200000 		.word	.L143
 3113 1fb4 F4200000 		.word	.L144
 3114 1fb8 FC200000 		.word	.L145
 3115 1fbc 04210000 		.word	.L146
 3116 1fc0 0C210000 		.word	.L147
 3117 1fc4 14210000 		.word	.L148
 3118 1fc8 1C210000 		.word	.L149
 3119 1fcc 24210000 		.word	.L150
 3120 1fd0 2C210000 		.word	.L151
 3121 1fd4 34210000 		.word	.L152
 3122 1fd8 3C210000 		.word	.L153
 3123 1fdc 44210000 		.word	.L154
 3124 1fe0 4C210000 		.word	.L155
 3125 1fe4 54210000 		.word	.L156
 3126 1fe8 5C210000 		.word	.L157
 3127 1fec 64210000 		.word	.L158
 3128 1ff0 6C210000 		.word	.L159
 3129 1ff4 74210000 		.word	.L160
 3130 1ff8 7C210000 		.word	.L161
 3131 1ffc 84210000 		.word	.L162
 3132 2000 8C210000 		.word	.L163
 3133 2004 A0210000 		.word	.L164
 3134 2008 A8210000 		.word	.L165
 3135 200c B0210000 		.word	.L166
 3136 2010 B8210000 		.word	.L167
 3137 2014 C0210000 		.word	.L168
 3138 2018 C8210000 		.word	.L169
 3139              	.L114:
 3140 201c D43D9FE5 		ldr	r3, .L440+8
 3141 2020 080800EA 		b	.L423
 3142              	.L115:
 3143 2024 D03D9FE5 		ldr	r3, .L440+12
 3144              	.L423:
 3145 2028 003093E5 		ldr	r3, [r3, #0]	@ float
 3146 202c 730800EA 		b	.L412
 3147              	.L116:
 3148 2030 C83D9FE5 		ldr	r3, .L440+16
 3149 2034 080800EA 		b	.L423
 3150              	.L117:
 3151 2038 B03E9FE5 		ldr	r3, .L440+256
 3152 203c 220800EA 		b	.L430
 3153              	.L119:
 3154 2040 BC3D9FE5 		ldr	r3, .L440+20
 3155 2044 220800EA 		b	.L430
 3156              	.L121:
 3157 2048 1C3F9FE5 		ldr	r3, .L440+380
 3158              	.L436:
 3159 204c F040D3E1 		ldrsh	r4, [r3, #0]
 3160 2050 0400A0E1 		mov	r0, r4
 3161 2054 FEFFFFEB 		bl	__floatsisf
 3162 2058 000054E3 		cmp	r4, #0
 3163 205c 640800AA 		bge	.L413
 3164 2060 A01D9FE5 		ldr	r1, .L440+24
 3165              	.L422:
 3166 2064 FEFFFFEB 		bl	__addsf3
 3167 2068 640800EA 		b	.L413
 3168              	.L123:
 3169 206c 043F9FE5 		ldr	r3, .L440+392
 3170 2070 110800EA 		b	.L436
 3171              	.L125:
 3172 2074 903D9FE5 		ldr	r3, .L440+28
 3173 2078 220800EA 		b	.L430
 3174              	.L127:
 3175 207c EC3E9FE5 		ldr	r3, .L440+384
 3176 2080 220800EA 		b	.L430
 3177              	.L129:
 3178 2084 883E9FE5 		ldr	r3, .L440+292
 3179 2088 220800EA 		b	.L430
 3180              	.L131:
 3181 208c 7C3D9FE5 		ldr	r3, .L440+32
 3182              	.L430:
 3183 2090 D040D3E1 		ldrsb	r4, [r3, #0]
 3184 2094 0400A0E1 		mov	r0, r4
 3185 2098 FEFFFFEB 		bl	__floatsisf
 3186 209c 000054E3 		cmp	r4, #0
 3187 20a0 6C1D9FB5 		ldrlt	r1, .L440+36
 3188 20a4 170800BA 		blt	.L422
 3189 20a8 640800EA 		b	.L413
 3190              	.L133:
 3191 20ac 643D9FE5 		ldr	r3, .L440+40
 3192 20b0 110800EA 		b	.L436
 3193              	.L136:
 3194 20b4 603D9FE5 		ldr	r3, .L440+44
 3195 20b8 080800EA 		b	.L423
 3196              	.L137:
 3197 20bc 5C3D9FE5 		ldr	r3, .L440+48
 3198 20c0 080800EA 		b	.L423
 3199              	.L138:
 3200 20c4 583D9FE5 		ldr	r3, .L440+52
 3201 20c8 080800EA 		b	.L423
 3202              	.L139:
 3203 20cc 543D9FE5 		ldr	r3, .L440+56
 3204 20d0 080800EA 		b	.L423
 3205              	.L140:
 3206 20d4 503D9FE5 		ldr	r3, .L440+60
 3207 20d8 080800EA 		b	.L423
 3208              	.L141:
 3209 20dc 4C3D9FE5 		ldr	r3, .L440+64
 3210 20e0 080800EA 		b	.L423
 3211              	.L142:
 3212 20e4 483D9FE5 		ldr	r3, .L440+68
 3213 20e8 080800EA 		b	.L423
 3214              	.L143:
 3215 20ec 443D9FE5 		ldr	r3, .L440+72
 3216 20f0 080800EA 		b	.L423
 3217              	.L144:
 3218 20f4 403D9FE5 		ldr	r3, .L440+76
 3219 20f8 080800EA 		b	.L423
 3220              	.L145:
 3221 20fc 3C3D9FE5 		ldr	r3, .L440+80
 3222 2100 080800EA 		b	.L423
 3223              	.L146:
 3224 2104 383D9FE5 		ldr	r3, .L440+84
 3225 2108 080800EA 		b	.L423
 3226              	.L147:
 3227 210c 343D9FE5 		ldr	r3, .L440+88
 3228 2110 080800EA 		b	.L423
 3229              	.L148:
 3230 2114 303D9FE5 		ldr	r3, .L440+92
 3231 2118 080800EA 		b	.L423
 3232              	.L149:
 3233 211c 2C3D9FE5 		ldr	r3, .L440+96
 3234 2120 080800EA 		b	.L423
 3235              	.L150:
 3236 2124 283D9FE5 		ldr	r3, .L440+100
 3237 2128 080800EA 		b	.L423
 3238              	.L151:
 3239 212c 243D9FE5 		ldr	r3, .L440+104
 3240 2130 080800EA 		b	.L423
 3241              	.L152:
 3242 2134 203D9FE5 		ldr	r3, .L440+108
 3243 2138 080800EA 		b	.L423
 3244              	.L153:
 3245 213c 1C3D9FE5 		ldr	r3, .L440+112
 3246 2140 080800EA 		b	.L423
 3247              	.L154:
 3248 2144 183D9FE5 		ldr	r3, .L440+116
 3249 2148 080800EA 		b	.L423
 3250              	.L155:
 3251 214c 143D9FE5 		ldr	r3, .L440+120
 3252 2150 080800EA 		b	.L423
 3253              	.L156:
 3254 2154 103D9FE5 		ldr	r3, .L440+124
 3255 2158 080800EA 		b	.L423
 3256              	.L157:
 3257 215c 0C3D9FE5 		ldr	r3, .L440+128
 3258 2160 080800EA 		b	.L423
 3259              	.L158:
 3260 2164 083D9FE5 		ldr	r3, .L440+132
 3261 2168 080800EA 		b	.L423
 3262              	.L159:
 3263 216c 043D9FE5 		ldr	r3, .L440+136
 3264 2170 080800EA 		b	.L423
 3265              	.L160:
 3266 2174 003D9FE5 		ldr	r3, .L440+140
 3267 2178 080800EA 		b	.L423
 3268              	.L161:
 3269 217c FC3C9FE5 		ldr	r3, .L440+144
 3270 2180 080800EA 		b	.L423
 3271              	.L162:
 3272 2184 F83C9FE5 		ldr	r3, .L440+148
 3273 2188 080800EA 		b	.L423
 3274              	.L163:
 3275 218c F43C9FE5 		ldr	r3, .L440+152
 3276 2190 000093E5 		ldr	r0, [r3, #0]
 3277 2194 FEFFFFEB 		bl	__floatsisf
 3278              	.L413:
 3279 2198 50000BE5 		str	r0, [fp, #-80]	@ float
 3280 219c 740800EA 		b	.L113
 3281              	.L164:
 3282 21a0 E43C9FE5 		ldr	r3, .L440+156
 3283 21a4 080800EA 		b	.L423
 3284              	.L165:
 3285 21a8 E03C9FE5 		ldr	r3, .L440+160
 3286 21ac 080800EA 		b	.L423
 3287              	.L166:
 3288 21b0 DC3C9FE5 		ldr	r3, .L440+164
 3289 21b4 080800EA 		b	.L423
 3290              	.L167:
 3291 21b8 D83C9FE5 		ldr	r3, .L440+168
 3292 21bc 080800EA 		b	.L423
 3293              	.L168:
 3294 21c0 D43C9FE5 		ldr	r3, .L440+172
 3295 21c4 080800EA 		b	.L423
 3296              	.L169:
 3297 21c8 D03C9FE5 		ldr	r3, .L440+176
 3298 21cc 080800EA 		b	.L423
 3299              	.L170:
 3300 21d0 0030A0E3 		mov	r3, #0
 3301              	.L412:
 3302 21d4 50300BE5 		str	r3, [fp, #-80]	@ float
 3303              	.L113:
 3304 21d8 0B00A0E3 		mov	r0, #11
 3305 21dc FEFFFFEB 		bl	uart1_check_free_space
 3306 21e0 FF0010E3 		tst	r0, #255
 3307 21e4 AC2D9F05 		ldreq	r2, .L440+424
 3308 21e8 0030D205 		ldreqb	r3, [r2, #0]	@ zero_extendqisi2
 3309 21ec 01308302 		addeq	r3, r3, #1
 3310 21f0 0030C205 		streqb	r3, [r2, #0]
 3311 21f4 CA08000A 		beq	.L173
 3312 21f8 9C1D9FE5 		ldr	r1, .L440+428
 3313 21fc 9CCD9FE5 		ldr	ip, .L440+432
 3314 2200 B030D1E1 		ldrh	r3, [r1, #0]
 3315 2204 B020DCE1 		ldrh	r2, [ip, #0]
 3316 2208 0B3083E2 		add	r3, r3, #11
 3317 220c 012082E2 		add	r2, r2, #1
 3318 2210 B030C1E1 		strh	r3, [r1, #0]	@ movhi 
 3319 2214 B020CCE1 		strh	r2, [ip, #0]	@ movhi 
 3320 2218 9900A0E3 		mov	r0, #153
 3321 221c 804D9FE5 		ldr	r4, .L440+436
 3322 2220 FEFFFFEB 		bl	uart1_transmit
 3323 2224 0B00A0E3 		mov	r0, #11
 3324 2228 785D9FE5 		ldr	r5, .L440+440
 3325 222c FEFFFFEB 		bl	uart1_transmit
 3326 2230 1530A0E3 		mov	r3, #21
 3327 2234 0030C4E5 		strb	r3, [r4, #0]
 3328 2238 0B3083E2 		add	r3, r3, #11
 3329 223c 0A00A0E3 		mov	r0, #10
 3330 2240 0030C5E5 		strb	r3, [r5, #0]
 3331 2244 FEFFFFEB 		bl	uart1_transmit
 3332 2248 0030D4E5 		ldrb	r3, [r4, #0]	@ zero_extendqisi2
 3333 224c 1F3083E2 		add	r3, r3, #31
 3334 2250 0030C4E5 		strb	r3, [r4, #0]
 3335 2254 0030D5E5 		ldrb	r3, [r5, #0]	@ zero_extendqisi2
 3336 2258 0020D4E5 		ldrb	r2, [r4, #0]	@ zero_extendqisi2
 3337 225c 023083E0 		add	r3, r3, r2
 3338 2260 1F00A0E3 		mov	r0, #31
 3339 2264 0030C5E5 		strb	r3, [r5, #0]
 3340 2268 FEFFFFEB 		bl	uart1_transmit
 3341 226c 0000D6E5 		ldrb	r0, [r6, #0]	@ zero_extendqisi2
 3342 2270 0030D4E5 		ldrb	r3, [r4, #0]	@ zero_extendqisi2
 3343 2274 033080E0 		add	r3, r0, r3
 3344 2278 0030C4E5 		strb	r3, [r4, #0]
 3345 227c 0030D5E5 		ldrb	r3, [r5, #0]	@ zero_extendqisi2
 3346 2280 0020D4E5 		ldrb	r2, [r4, #0]	@ zero_extendqisi2
 3347 2284 023083E0 		add	r3, r3, r2
 3348 2288 0030C5E5 		strb	r3, [r5, #0]
 3349 228c FEFFFFEB 		bl	uart1_transmit
 3350 2290 50005BE5 		ldrb	r0, [fp, #-80]	@ zero_extendqisi2
 3351 2294 0030D4E5 		ldrb	r3, [r4, #0]	@ zero_extendqisi2
 3352 2298 033080E0 		add	r3, r0, r3
 3353 229c 0030C4E5 		strb	r3, [r4, #0]
 3354 22a0 0030D5E5 		ldrb	r3, [r5, #0]	@ zero_extendqisi2
 3355 22a4 0020D4E5 		ldrb	r2, [r4, #0]	@ zero_extendqisi2
 3356 22a8 023083E0 		add	r3, r3, r2
 3357 22ac 0030C5E5 		strb	r3, [r5, #0]
 3358 22b0 FEFFFFEB 		bl	uart1_transmit
 3359 22b4 4F005BE5 		ldrb	r0, [fp, #-79]	@ zero_extendqisi2
 3360 22b8 0030D4E5 		ldrb	r3, [r4, #0]	@ zero_extendqisi2
 3361 22bc 033080E0 		add	r3, r0, r3
 3362 22c0 0030C4E5 		strb	r3, [r4, #0]
 3363 22c4 0030D5E5 		ldrb	r3, [r5, #0]	@ zero_extendqisi2
 3364 22c8 0020D4E5 		ldrb	r2, [r4, #0]	@ zero_extendqisi2
 3365 22cc 023083E0 		add	r3, r3, r2
 3366 22d0 0030C5E5 		strb	r3, [r5, #0]
 3367 22d4 FEFFFFEB 		bl	uart1_transmit
 3368 22d8 4E005BE5 		ldrb	r0, [fp, #-78]	@ zero_extendqisi2
 3369 22dc 0030D4E5 		ldrb	r3, [r4, #0]	@ zero_extendqisi2
 3370 22e0 033080E0 		add	r3, r0, r3
 3371 22e4 0030C4E5 		strb	r3, [r4, #0]
 3372 22e8 0030D5E5 		ldrb	r3, [r5, #0]	@ zero_extendqisi2
 3373 22ec 0020D4E5 		ldrb	r2, [r4, #0]	@ zero_extendqisi2
 3374 22f0 023083E0 		add	r3, r3, r2
 3375 22f4 0030C5E5 		strb	r3, [r5, #0]
 3376 22f8 FEFFFFEB 		bl	uart1_transmit
 3377 22fc 4D005BE5 		ldrb	r0, [fp, #-77]	@ zero_extendqisi2
 3378 2300 0030D4E5 		ldrb	r3, [r4, #0]	@ zero_extendqisi2
 3379 2304 033080E0 		add	r3, r0, r3
 3380 2308 0030C4E5 		strb	r3, [r4, #0]
 3381 230c 0030D5E5 		ldrb	r3, [r5, #0]	@ zero_extendqisi2
 3382 2310 0020D4E5 		ldrb	r2, [r4, #0]	@ zero_extendqisi2
 3383 2314 023083E0 		add	r3, r3, r2
 3384 2318 0030C5E5 		strb	r3, [r5, #0]
 3385 231c FEFFFFEB 		bl	uart1_transmit
 3386 2320 0000D4E5 		ldrb	r0, [r4, #0]	@ zero_extendqisi2
 3387 2324 FEFFFFEB 		bl	uart1_transmit
 3388 2328 0000D5E5 		ldrb	r0, [r5, #0]	@ zero_extendqisi2
 3389 232c FEFFFFEB 		bl	uart1_transmit
 3390              	.L173:
 3391 2330 BC2A9FE5 		ldr	r2, .L440+4
 3392 2334 0030D2E5 		ldrb	r3, [r2, #0]	@ zero_extendqisi2
 3393 2338 013083E2 		add	r3, r3, #1
 3394 233c 0030C2E5 		strb	r3, [r2, #0]
 3395              	.L111:
 3396 2340 5C2B9FE5 		ldr	r2, .L440+180
 3397 2344 0030D2E5 		ldrb	r3, [r2, #0]	@ zero_extendqisi2
 3398 2348 270053E3 		cmp	r3, #39
 3399 234c 6309001A 		bne	.L174
 3400 2350 1100A0E3 		mov	r0, #17
 3401 2354 FEFFFFEB 		bl	uart1_check_free_space
 3402 2358 FF0010E3 		tst	r0, #255
 3403 235c 342C9F05 		ldreq	r2, .L440+424
 3404 2360 0030D205 		ldreqb	r3, [r2, #0]	@ zero_extendqisi2
 3405 2364 01308302 		addeq	r3, r3, #1
 3406 2368 0030C205 		streqb	r3, [r2, #0]
 3407 236c 6309000A 		beq	.L174
 3408 2370 241C9FE5 		ldr	r1, .L440+428
 3409 2374 24CC9FE5 		ldr	ip, .L440+432
 3410 2378 B030D1E1 		ldrh	r3, [r1, #0]
 3411 237c B020DCE1 		ldrh	r2, [ip, #0]
 3412 2380 113083E2 		add	r3, r3, #17
 3413 2384 012082E2 		add	r2, r2, #1
 3414 2388 B030C1E1 		strh	r3, [r1, #0]	@ movhi 
 3415 238c B020CCE1 		strh	r2, [ip, #0]	@ movhi 
 3416 2390 1170A0E3 		mov	r7, #17
 3417 2394 9900A0E3 		mov	r0, #153
 3418 2398 044C9FE5 		ldr	r4, .L440+436
 3419 239c FEFFFFEB 		bl	uart1_transmit
 3420 23a0 0700A0E1 		mov	r0, r7
 3421 23a4 FC5B9FE5 		ldr	r5, .L440+440
 3422 23a8 FEFFFFEB 		bl	uart1_transmit
 3423 23ac 1B30A0E3 		mov	r3, #27
 3424 23b0 0030C4E5 		strb	r3, [r4, #0]
 3425 23b4 073083E0 		add	r3, r3, r7
 3426 23b8 0A00A0E3 		mov	r0, #10
 3427 23bc 0030C5E5 		strb	r3, [r5, #0]
 3428 23c0 FEFFFFEB 		bl	uart1_transmit
 3429 23c4 0030D4E5 		ldrb	r3, [r4, #0]	@ zero_extendqisi2
 3430 23c8 073083E0 		add	r3, r3, r7
 3431 23cc 0030C4E5 		strb	r3, [r4, #0]
 3432 23d0 0030D5E5 		ldrb	r3, [r5, #0]	@ zero_extendqisi2
 3433 23d4 0020D4E5 		ldrb	r2, [r4, #0]	@ zero_extendqisi2
 3434 23d8 C86A9FE5 		ldr	r6, .L440+184
 3435 23dc 023083E0 		add	r3, r3, r2
 3436 23e0 0700A0E1 		mov	r0, r7
 3437 23e4 0030C5E5 		strb	r3, [r5, #0]
 3438 23e8 FEFFFFEB 		bl	uart1_transmit
 3439 23ec 0000D6E5 		ldrb	r0, [r6, #0]	@ zero_extendqisi2
 3440 23f0 0030D4E5 		ldrb	r3, [r4, #0]	@ zero_extendqisi2
 3441 23f4 033080E0 		add	r3, r0, r3
 3442 23f8 0030C4E5 		strb	r3, [r4, #0]
 3443 23fc 0030D5E5 		ldrb	r3, [r5, #0]	@ zero_extendqisi2
 3444 2400 0020D4E5 		ldrb	r2, [r4, #0]	@ zero_extendqisi2
 3445 2404 023083E0 		add	r3, r3, r2
 3446 2408 0030C5E5 		strb	r3, [r5, #0]
 3447 240c FEFFFFEB 		bl	uart1_transmit
 3448 2410 0100D6E5 		ldrb	r0, [r6, #1]	@ zero_extendqisi2
 3449 2414 0030D4E5 		ldrb	r3, [r4, #0]	@ zero_extendqisi2
 3450 2418 033080E0 		add	r3, r0, r3
 3451 241c 0030C4E5 		strb	r3, [r4, #0]
 3452 2420 0030D5E5 		ldrb	r3, [r5, #0]	@ zero_extendqisi2
 3453 2424 0020D4E5 		ldrb	r2, [r4, #0]	@ zero_extendqisi2
 3454 2428 023083E0 		add	r3, r3, r2
 3455 242c 0030C5E5 		strb	r3, [r5, #0]
 3456 2430 FEFFFFEB 		bl	uart1_transmit
 3457 2434 0200D6E5 		ldrb	r0, [r6, #2]	@ zero_extendqisi2
 3458 2438 0030D4E5 		ldrb	r3, [r4, #0]	@ zero_extendqisi2
 3459 243c 033080E0 		add	r3, r0, r3
 3460 2440 0030C4E5 		strb	r3, [r4, #0]
 3461 2444 0030D5E5 		ldrb	r3, [r5, #0]	@ zero_extendqisi2
 3462 2448 0020D4E5 		ldrb	r2, [r4, #0]	@ zero_extendqisi2
 3463 244c 023083E0 		add	r3, r3, r2
 3464 2450 0030C5E5 		strb	r3, [r5, #0]
 3465 2454 FEFFFFEB 		bl	uart1_transmit
 3466 2458 0300D6E5 		ldrb	r0, [r6, #3]	@ zero_extendqisi2
 3467 245c 0030D4E5 		ldrb	r3, [r4, #0]	@ zero_extendqisi2
 3468 2460 033080E0 		add	r3, r0, r3
 3469 2464 0030C4E5 		strb	r3, [r4, #0]
 3470 2468 0030D5E5 		ldrb	r3, [r5, #0]	@ zero_extendqisi2
 3471 246c 0020D4E5 		ldrb	r2, [r4, #0]	@ zero_extendqisi2
 3472 2470 346A9FE5 		ldr	r6, .L440+188
 3473 2474 023083E0 		add	r3, r3, r2
 3474 2478 0030C5E5 		strb	r3, [r5, #0]
 3475 247c FEFFFFEB 		bl	uart1_transmit
 3476 2480 0000D6E5 		ldrb	r0, [r6, #0]	@ zero_extendqisi2
 3477 2484 0030D4E5 		ldrb	r3, [r4, #0]	@ zero_extendqisi2
 3478 2488 033080E0 		add	r3, r0, r3
 3479 248c 0030C4E5 		strb	r3, [r4, #0]
 3480 2490 0030D5E5 		ldrb	r3, [r5, #0]	@ zero_extendqisi2
 3481 2494 0020D4E5 		ldrb	r2, [r4, #0]	@ zero_extendqisi2
 3482 2498 023083E0 		add	r3, r3, r2
 3483 249c 0030C5E5 		strb	r3, [r5, #0]
 3484 24a0 FEFFFFEB 		bl	uart1_transmit
 3485 24a4 0100D6E5 		ldrb	r0, [r6, #1]	@ zero_extendqisi2
 3486 24a8 0030D4E5 		ldrb	r3, [r4, #0]	@ zero_extendqisi2
 3487 24ac 033080E0 		add	r3, r0, r3
 3488 24b0 0030C4E5 		strb	r3, [r4, #0]
 3489 24b4 0030D5E5 		ldrb	r3, [r5, #0]	@ zero_extendqisi2
 3490 24b8 0020D4E5 		ldrb	r2, [r4, #0]	@ zero_extendqisi2
 3491 24bc 023083E0 		add	r3, r3, r2
 3492 24c0 0030C5E5 		strb	r3, [r5, #0]
 3493 24c4 FEFFFFEB 		bl	uart1_transmit
 3494 24c8 0200D6E5 		ldrb	r0, [r6, #2]	@ zero_extendqisi2
 3495 24cc 0030D4E5 		ldrb	r3, [r4, #0]	@ zero_extendqisi2
 3496 24d0 033080E0 		add	r3, r0, r3
 3497 24d4 0030C4E5 		strb	r3, [r4, #0]
 3498 24d8 0030D5E5 		ldrb	r3, [r5, #0]	@ zero_extendqisi2
 3499 24dc 0020D4E5 		ldrb	r2, [r4, #0]	@ zero_extendqisi2
 3500 24e0 023083E0 		add	r3, r3, r2
 3501 24e4 0030C5E5 		strb	r3, [r5, #0]
 3502 24e8 FEFFFFEB 		bl	uart1_transmit
 3503 24ec 0300D6E5 		ldrb	r0, [r6, #3]	@ zero_extendqisi2
 3504 24f0 0030D4E5 		ldrb	r3, [r4, #0]	@ zero_extendqisi2
 3505 24f4 033080E0 		add	r3, r0, r3
 3506 24f8 0030C4E5 		strb	r3, [r4, #0]
 3507 24fc 0030D5E5 		ldrb	r3, [r5, #0]	@ zero_extendqisi2
 3508 2500 0020D4E5 		ldrb	r2, [r4, #0]	@ zero_extendqisi2
 3509 2504 A4699FE5 		ldr	r6, .L440+192
 3510 2508 023083E0 		add	r3, r3, r2
 3511 250c 0030C5E5 		strb	r3, [r5, #0]
 3512 2510 FEFFFFEB 		bl	uart1_transmit
 3513 2514 0000D6E5 		ldrb	r0, [r6, #0]	@ zero_extendqisi2
 3514 2518 0030D4E5 		ldrb	r3, [r4, #0]	@ zero_extendqisi2
 3515 251c 033080E0 		add	r3, r0, r3
 3516 2520 0030C4E5 		strb	r3, [r4, #0]
 3517 2524 0030D5E5 		ldrb	r3, [r5, #0]	@ zero_extendqisi2
 3518 2528 0020D4E5 		ldrb	r2, [r4, #0]	@ zero_extendqisi2
 3519 252c 023083E0 		add	r3, r3, r2
 3520 2530 0030C5E5 		strb	r3, [r5, #0]
 3521 2534 FEFFFFEB 		bl	uart1_transmit
 3522 2538 0100D6E5 		ldrb	r0, [r6, #1]	@ zero_extendqisi2
 3523 253c 0030D4E5 		ldrb	r3, [r4, #0]	@ zero_extendqisi2
 3524 2540 033080E0 		add	r3, r0, r3
 3525 2544 0030C4E5 		strb	r3, [r4, #0]
 3526 2548 0030D5E5 		ldrb	r3, [r5, #0]	@ zero_extendqisi2
 3527 254c 0020D4E5 		ldrb	r2, [r4, #0]	@ zero_extendqisi2
 3528 2550 023083E0 		add	r3, r3, r2
 3529 2554 0030C5E5 		strb	r3, [r5, #0]
 3530 2558 FEFFFFEB 		bl	uart1_transmit
 3531 255c 50399FE5 		ldr	r3, .L440+196
 3532 2560 0000D3E5 		ldrb	r0, [r3, #0]	@ zero_extendqisi2
 3533 2564 0030D4E5 		ldrb	r3, [r4, #0]	@ zero_extendqisi2
 3534 2568 033080E0 		add	r3, r0, r3
 3535 256c 0030C4E5 		strb	r3, [r4, #0]
 3536 2570 0030D5E5 		ldrb	r3, [r5, #0]	@ zero_extendqisi2
 3537 2574 0020D4E5 		ldrb	r2, [r4, #0]	@ zero_extendqisi2
 3538 2578 023083E0 		add	r3, r3, r2
 3539 257c 0030C5E5 		strb	r3, [r5, #0]
 3540 2580 FEFFFFEB 		bl	uart1_transmit
 3541 2584 0000D4E5 		ldrb	r0, [r4, #0]	@ zero_extendqisi2
 3542 2588 FEFFFFEB 		bl	uart1_transmit
 3543 258c 0000D5E5 		ldrb	r0, [r5, #0]	@ zero_extendqisi2
 3544 2590 FEFFFFEB 		bl	uart1_transmit
 3545              	.L174:
 3546 2594 1C299FE5 		ldr	r2, .L440+200
 3547 2598 0030D2E5 		ldrb	r3, [r2, #0]	@ zero_extendqisi2
 3548 259c 2D0053E3 		cmp	r3, #45
 3549 25a0 B009001A 		bne	.L177
 3550 25a4 0B00A0E3 		mov	r0, #11
 3551 25a8 FEFFFFEB 		bl	uart1_check_free_space
 3552 25ac FF0010E3 		tst	r0, #255
 3553 25b0 700A000A 		beq	.L183
 3554 25b4 E0199FE5 		ldr	r1, .L440+428
 3555 25b8 E0C99FE5 		ldr	ip, .L440+432
 3556 25bc B030D1E1 		ldrh	r3, [r1, #0]
 3557 25c0 B020DCE1 		ldrh	r2, [ip, #0]
 3558 25c4 0B3083E2 		add	r3, r3, #11
 3559 25c8 012082E2 		add	r2, r2, #1
 3560 25cc B030C1E1 		strh	r3, [r1, #0]	@ movhi 
 3561 25d0 B020CCE1 		strh	r2, [ip, #0]	@ movhi 
 3562 25d4 9900A0E3 		mov	r0, #153
 3563 25d8 C4499FE5 		ldr	r4, .L440+436
 3564 25dc FEFFFFEB 		bl	uart1_transmit
 3565 25e0 0B00A0E3 		mov	r0, #11
 3566 25e4 BC599FE5 		ldr	r5, .L440+440
 3567 25e8 FEFFFFEB 		bl	uart1_transmit
 3568 25ec 1530A0E3 		mov	r3, #21
 3569 25f0 0030C4E5 		strb	r3, [r4, #0]
 3570 25f4 0B3083E2 		add	r3, r3, #11
 3571 25f8 0A00A0E3 		mov	r0, #10
 3572 25fc 0030C5E5 		strb	r3, [r5, #0]
 3573 2600 FEFFFFEB 		bl	uart1_transmit
 3574 2604 0030D4E5 		ldrb	r3, [r4, #0]	@ zero_extendqisi2
 3575 2608 0E3083E2 		add	r3, r3, #14
 3576 260c 0030C4E5 		strb	r3, [r4, #0]
 3577 2610 0030D5E5 		ldrb	r3, [r5, #0]	@ zero_extendqisi2
 3578 2614 0020D4E5 		ldrb	r2, [r4, #0]	@ zero_extendqisi2
 3579 2618 9C689FE5 		ldr	r6, .L440+204
 3580 261c 023083E0 		add	r3, r3, r2
 3581 2620 0E00A0E3 		mov	r0, #14
 3582 2624 0030C5E5 		strb	r3, [r5, #0]
 3583 2628 FEFFFFEB 		bl	uart1_transmit
 3584 262c 0000D6E5 		ldrb	r0, [r6, #0]	@ zero_extendqisi2
 3585 2630 0030D4E5 		ldrb	r3, [r4, #0]	@ zero_extendqisi2
 3586 2634 033080E0 		add	r3, r0, r3
 3587 2638 0030C4E5 		strb	r3, [r4, #0]
 3588 263c 0030D5E5 		ldrb	r3, [r5, #0]	@ zero_extendqisi2
 3589 2640 0020D4E5 		ldrb	r2, [r4, #0]	@ zero_extendqisi2
 3590 2644 023083E0 		add	r3, r3, r2
 3591 2648 0030C5E5 		strb	r3, [r5, #0]
 3592 264c FEFFFFEB 		bl	uart1_transmit
 3593 2650 0100D6E5 		ldrb	r0, [r6, #1]	@ zero_extendqisi2
 3594 2654 0030D4E5 		ldrb	r3, [r4, #0]	@ zero_extendqisi2
 3595 2658 033080E0 		add	r3, r0, r3
 3596 265c 0030C4E5 		strb	r3, [r4, #0]
 3597 2660 0030D5E5 		ldrb	r3, [r5, #0]	@ zero_extendqisi2
 3598 2664 0020D4E5 		ldrb	r2, [r4, #0]	@ zero_extendqisi2
 3599 2668 023083E0 		add	r3, r3, r2
 3600 266c 0030C5E5 		strb	r3, [r5, #0]
 3601 2670 FEFFFFEB 		bl	uart1_transmit
 3602 2674 0200D6E5 		ldrb	r0, [r6, #2]	@ zero_extendqisi2
 3603 2678 0030D4E5 		ldrb	r3, [r4, #0]	@ zero_extendqisi2
 3604 267c 033080E0 		add	r3, r0, r3
 3605 2680 0030C4E5 		strb	r3, [r4, #0]
 3606 2684 0030D5E5 		ldrb	r3, [r5, #0]	@ zero_extendqisi2
 3607 2688 0020D4E5 		ldrb	r2, [r4, #0]	@ zero_extendqisi2
 3608 268c 023083E0 		add	r3, r3, r2
 3609 2690 0030C5E5 		strb	r3, [r5, #0]
 3610 2694 FEFFFFEB 		bl	uart1_transmit
 3611 2698 0300D6E5 		ldrb	r0, [r6, #3]	@ zero_extendqisi2
 3612 269c 0030D4E5 		ldrb	r3, [r4, #0]	@ zero_extendqisi2
 3613 26a0 033080E0 		add	r3, r0, r3
 3614 26a4 0030C4E5 		strb	r3, [r4, #0]
 3615 26a8 0030D5E5 		ldrb	r3, [r5, #0]	@ zero_extendqisi2
 3616 26ac 0020D4E5 		ldrb	r2, [r4, #0]	@ zero_extendqisi2
 3617 26b0 023083E0 		add	r3, r3, r2
 3618 26b4 0030C5E5 		strb	r3, [r5, #0]
 3619 26b8 FEFFFFEB 		bl	uart1_transmit
 3620 26bc FC379FE5 		ldr	r3, .L440+208
 3621 26c0 0000D3E5 		ldrb	r0, [r3, #0]	@ zero_extendqisi2
 3622 26c4 630A00EA 		b	.L414
 3623              	.L177:
 3624 26c8 330053E3 		cmp	r3, #51
 3625 26cc 740A001A 		bne	.L180
 3626 26d0 EC379FE5 		ldr	r3, .L440+212
 3627 26d4 0030D3E5 		ldrb	r3, [r3, #0]	@ zero_extendqisi2
 3628 26d8 000053E3 		cmp	r3, #0
 3629 26dc 740A000A 		beq	.L180
 3630 26e0 1600A0E3 		mov	r0, #22
 3631 26e4 FEFFFFEB 		bl	uart1_check_free_space
 3632 26e8 FF0010E3 		tst	r0, #255
 3633 26ec 700A000A 		beq	.L183
 3634 26f0 A4189FE5 		ldr	r1, .L440+428
 3635 26f4 A4C89FE5 		ldr	ip, .L440+432
 3636 26f8 B030D1E1 		ldrh	r3, [r1, #0]
 3637 26fc B020DCE1 		ldrh	r2, [ip, #0]
 3638 2700 163083E2 		add	r3, r3, #22
 3639 2704 012082E2 		add	r2, r2, #1
 3640 2708 B030C1E1 		strh	r3, [r1, #0]	@ movhi 
 3641 270c B020CCE1 		strh	r2, [ip, #0]	@ movhi 
 3642 2710 9900A0E3 		mov	r0, #153
 3643 2714 88489FE5 		ldr	r4, .L440+436
 3644 2718 FEFFFFEB 		bl	uart1_transmit
 3645 271c 1600A0E3 		mov	r0, #22
 3646 2720 80589FE5 		ldr	r5, .L440+440
 3647 2724 FEFFFFEB 		bl	uart1_transmit
 3648 2728 2030A0E3 		mov	r3, #32
 3649 272c 0030C4E5 		strb	r3, [r4, #0]
 3650 2730 163083E2 		add	r3, r3, #22
 3651 2734 0A00A0E3 		mov	r0, #10
 3652 2738 0030C5E5 		strb	r3, [r5, #0]
 3653 273c FEFFFFEB 		bl	uart1_transmit
 3654 2740 0030D4E5 		ldrb	r3, [r4, #0]	@ zero_extendqisi2
 3655 2744 1B3083E2 		add	r3, r3, #27
 3656 2748 0030C4E5 		strb	r3, [r4, #0]
 3657 274c 0030D5E5 		ldrb	r3, [r5, #0]	@ zero_extendqisi2
 3658 2750 0020D4E5 		ldrb	r2, [r4, #0]	@ zero_extendqisi2
 3659 2754 6C679FE5 		ldr	r6, .L440+216
 3660 2758 023083E0 		add	r3, r3, r2
 3661 275c 1B00A0E3 		mov	r0, #27
 3662 2760 0030C5E5 		strb	r3, [r5, #0]
 3663 2764 FEFFFFEB 		bl	uart1_transmit
 3664 2768 0000D6E5 		ldrb	r0, [r6, #0]	@ zero_extendqisi2
 3665 276c 0030D4E5 		ldrb	r3, [r4, #0]	@ zero_extendqisi2
 3666 2770 033080E0 		add	r3, r0, r3
 3667 2774 0030C4E5 		strb	r3, [r4, #0]
 3668 2778 0030D5E5 		ldrb	r3, [r5, #0]	@ zero_extendqisi2
 3669 277c 0020D4E5 		ldrb	r2, [r4, #0]	@ zero_extendqisi2
 3670 2780 023083E0 		add	r3, r3, r2
 3671 2784 0030C5E5 		strb	r3, [r5, #0]
 3672 2788 FEFFFFEB 		bl	uart1_transmit
 3673 278c 0100D6E5 		ldrb	r0, [r6, #1]	@ zero_extendqisi2
 3674 2790 0030D4E5 		ldrb	r3, [r4, #0]	@ zero_extendqisi2
 3675 2794 033080E0 		add	r3, r0, r3
 3676 2798 0030C4E5 		strb	r3, [r4, #0]
 3677 279c 0030D5E5 		ldrb	r3, [r5, #0]	@ zero_extendqisi2
 3678 27a0 0020D4E5 		ldrb	r2, [r4, #0]	@ zero_extendqisi2
 3679 27a4 023083E0 		add	r3, r3, r2
 3680 27a8 0030C5E5 		strb	r3, [r5, #0]
 3681 27ac FEFFFFEB 		bl	uart1_transmit
 3682 27b0 0200D6E5 		ldrb	r0, [r6, #2]	@ zero_extendqisi2
 3683 27b4 0030D4E5 		ldrb	r3, [r4, #0]	@ zero_extendqisi2
 3684 27b8 033080E0 		add	r3, r0, r3
 3685 27bc 0030C4E5 		strb	r3, [r4, #0]
 3686 27c0 0030D5E5 		ldrb	r3, [r5, #0]	@ zero_extendqisi2
 3687 27c4 0020D4E5 		ldrb	r2, [r4, #0]	@ zero_extendqisi2
 3688 27c8 023083E0 		add	r3, r3, r2
 3689 27cc 0030C5E5 		strb	r3, [r5, #0]
 3690 27d0 FEFFFFEB 		bl	uart1_transmit
 3691 27d4 0300D6E5 		ldrb	r0, [r6, #3]	@ zero_extendqisi2
 3692 27d8 0030D4E5 		ldrb	r3, [r4, #0]	@ zero_extendqisi2
 3693 27dc 033080E0 		add	r3, r0, r3
 3694 27e0 0030C4E5 		strb	r3, [r4, #0]
 3695 27e4 0030D5E5 		ldrb	r3, [r5, #0]	@ zero_extendqisi2
 3696 27e8 0020D4E5 		ldrb	r2, [r4, #0]	@ zero_extendqisi2
 3697 27ec D8669FE5 		ldr	r6, .L440+220
 3698 27f0 023083E0 		add	r3, r3, r2
 3699 27f4 0030C5E5 		strb	r3, [r5, #0]
 3700 27f8 FEFFFFEB 		bl	uart1_transmit
 3701 27fc 0000D6E5 		ldrb	r0, [r6, #0]	@ zero_extendqisi2
 3702 2800 0030D4E5 		ldrb	r3, [r4, #0]	@ zero_extendqisi2
 3703 2804 033080E0 		add	r3, r0, r3
 3704 2808 0030C4E5 		strb	r3, [r4, #0]
 3705 280c 0030D5E5 		ldrb	r3, [r5, #0]	@ zero_extendqisi2
 3706 2810 0020D4E5 		ldrb	r2, [r4, #0]	@ zero_extendqisi2
 3707 2814 023083E0 		add	r3, r3, r2
 3708 2818 0030C5E5 		strb	r3, [r5, #0]
 3709 281c FEFFFFEB 		bl	uart1_transmit
 3710 2820 0100D6E5 		ldrb	r0, [r6, #1]	@ zero_extendqisi2
 3711 2824 0030D4E5 		ldrb	r3, [r4, #0]	@ zero_extendqisi2
 3712 2828 033080E0 		add	r3, r0, r3
 3713 282c 0030C4E5 		strb	r3, [r4, #0]
 3714 2830 0030D5E5 		ldrb	r3, [r5, #0]	@ zero_extendqisi2
 3715 2834 0020D4E5 		ldrb	r2, [r4, #0]	@ zero_extendqisi2
 3716 2838 023083E0 		add	r3, r3, r2
 3717 283c 0030C5E5 		strb	r3, [r5, #0]
 3718 2840 FEFFFFEB 		bl	uart1_transmit
 3719 2844 0200D6E5 		ldrb	r0, [r6, #2]	@ zero_extendqisi2
 3720 2848 0030D4E5 		ldrb	r3, [r4, #0]	@ zero_extendqisi2
 3721 284c 033080E0 		add	r3, r0, r3
 3722 2850 0030C4E5 		strb	r3, [r4, #0]
 3723 2854 0030D5E5 		ldrb	r3, [r5, #0]	@ zero_extendqisi2
 3724 2858 0020D4E5 		ldrb	r2, [r4, #0]	@ zero_extendqisi2
 3725 285c 023083E0 		add	r3, r3, r2
 3726 2860 0030C5E5 		strb	r3, [r5, #0]
 3727 2864 FEFFFFEB 		bl	uart1_transmit
 3728 2868 0300D6E5 		ldrb	r0, [r6, #3]	@ zero_extendqisi2
 3729 286c 0030D4E5 		ldrb	r3, [r4, #0]	@ zero_extendqisi2
 3730 2870 033080E0 		add	r3, r0, r3
 3731 2874 0030C4E5 		strb	r3, [r4, #0]
 3732 2878 0030D5E5 		ldrb	r3, [r5, #0]	@ zero_extendqisi2
 3733 287c 0020D4E5 		ldrb	r2, [r4, #0]	@ zero_extendqisi2
 3734 2880 48669FE5 		ldr	r6, .L440+224
 3735 2884 023083E0 		add	r3, r3, r2
 3736 2888 0030C5E5 		strb	r3, [r5, #0]
 3737 288c FEFFFFEB 		bl	uart1_transmit
 3738 2890 0000D6E5 		ldrb	r0, [r6, #0]	@ zero_extendqisi2
 3739 2894 0030D4E5 		ldrb	r3, [r4, #0]	@ zero_extendqisi2
 3740 2898 033080E0 		add	r3, r0, r3
 3741 289c 0030C4E5 		strb	r3, [r4, #0]
 3742 28a0 0030D5E5 		ldrb	r3, [r5, #0]	@ zero_extendqisi2
 3743 28a4 0020D4E5 		ldrb	r2, [r4, #0]	@ zero_extendqisi2
 3744 28a8 023083E0 		add	r3, r3, r2
 3745 28ac 0030C5E5 		strb	r3, [r5, #0]
 3746 28b0 FEFFFFEB 		bl	uart1_transmit
 3747 28b4 0100D6E5 		ldrb	r0, [r6, #1]	@ zero_extendqisi2
 3748 28b8 0030D4E5 		ldrb	r3, [r4, #0]	@ zero_extendqisi2
 3749 28bc 033080E0 		add	r3, r0, r3
 3750 28c0 0030C4E5 		strb	r3, [r4, #0]
 3751 28c4 0030D5E5 		ldrb	r3, [r5, #0]	@ zero_extendqisi2
 3752 28c8 0020D4E5 		ldrb	r2, [r4, #0]	@ zero_extendqisi2
 3753 28cc 023083E0 		add	r3, r3, r2
 3754 28d0 0030C5E5 		strb	r3, [r5, #0]
 3755 28d4 FEFFFFEB 		bl	uart1_transmit
 3756 28d8 0200D6E5 		ldrb	r0, [r6, #2]	@ zero_extendqisi2
 3757 28dc 0030D4E5 		ldrb	r3, [r4, #0]	@ zero_extendqisi2
 3758 28e0 033080E0 		add	r3, r0, r3
 3759 28e4 0030C4E5 		strb	r3, [r4, #0]
 3760 28e8 0030D5E5 		ldrb	r3, [r5, #0]	@ zero_extendqisi2
 3761 28ec 0020D4E5 		ldrb	r2, [r4, #0]	@ zero_extendqisi2
 3762 28f0 023083E0 		add	r3, r3, r2
 3763 28f4 0030C5E5 		strb	r3, [r5, #0]
 3764 28f8 FEFFFFEB 		bl	uart1_transmit
 3765 28fc 0300D6E5 		ldrb	r0, [r6, #3]	@ zero_extendqisi2
 3766 2900 0030D4E5 		ldrb	r3, [r4, #0]	@ zero_extendqisi2
 3767 2904 033080E0 		add	r3, r0, r3
 3768 2908 0030C4E5 		strb	r3, [r4, #0]
 3769 290c 0030D5E5 		ldrb	r3, [r5, #0]	@ zero_extendqisi2
 3770 2910 0020D4E5 		ldrb	r2, [r4, #0]	@ zero_extendqisi2
 3771 2914 B8659FE5 		ldr	r6, .L440+228
 3772 2918 023083E0 		add	r3, r3, r2
 3773 291c 0030C5E5 		strb	r3, [r5, #0]
 3774 2920 FEFFFFEB 		bl	uart1_transmit
 3775 2924 0000D6E5 		ldrb	r0, [r6, #0]	@ zero_extendqisi2
 3776 2928 0030D4E5 		ldrb	r3, [r4, #0]	@ zero_extendqisi2
 3777 292c 033080E0 		add	r3, r0, r3
 3778 2930 0030C4E5 		strb	r3, [r4, #0]
 3779 2934 0030D5E5 		ldrb	r3, [r5, #0]	@ zero_extendqisi2
 3780 2938 0020D4E5 		ldrb	r2, [r4, #0]	@ zero_extendqisi2
 3781 293c 023083E0 		add	r3, r3, r2
 3782 2940 0030C5E5 		strb	r3, [r5, #0]
 3783 2944 FEFFFFEB 		bl	uart1_transmit
 3784 2948 0100D6E5 		ldrb	r0, [r6, #1]	@ zero_extendqisi2
 3785 294c 0030D4E5 		ldrb	r3, [r4, #0]	@ zero_extendqisi2
 3786 2950 033080E0 		add	r3, r0, r3
 3787 2954 0030C4E5 		strb	r3, [r4, #0]
 3788 2958 0030D5E5 		ldrb	r3, [r5, #0]	@ zero_extendqisi2
 3789 295c 0020D4E5 		ldrb	r2, [r4, #0]	@ zero_extendqisi2
 3790 2960 023083E0 		add	r3, r3, r2
 3791 2964 0030C5E5 		strb	r3, [r5, #0]
 3792 2968 FEFFFFEB 		bl	uart1_transmit
 3793 296c 0200D6E5 		ldrb	r0, [r6, #2]	@ zero_extendqisi2
 3794 2970 0030D4E5 		ldrb	r3, [r4, #0]	@ zero_extendqisi2
 3795 2974 033080E0 		add	r3, r0, r3
 3796 2978 0030C4E5 		strb	r3, [r4, #0]
 3797 297c 0030D5E5 		ldrb	r3, [r5, #0]	@ zero_extendqisi2
 3798 2980 0020D4E5 		ldrb	r2, [r4, #0]	@ zero_extendqisi2
 3799 2984 023083E0 		add	r3, r3, r2
 3800 2988 0030C5E5 		strb	r3, [r5, #0]
 3801 298c FEFFFFEB 		bl	uart1_transmit
 3802 2990 0300D6E5 		ldrb	r0, [r6, #3]	@ zero_extendqisi2
 3803              	.L414:
 3804 2994 0030D4E5 		ldrb	r3, [r4, #0]	@ zero_extendqisi2
 3805 2998 033080E0 		add	r3, r0, r3
 3806 299c 0030C4E5 		strb	r3, [r4, #0]
 3807 29a0 0030D5E5 		ldrb	r3, [r5, #0]	@ zero_extendqisi2
 3808 29a4 0020D4E5 		ldrb	r2, [r4, #0]	@ zero_extendqisi2
 3809 29a8 023083E0 		add	r3, r3, r2
 3810 29ac 0030C5E5 		strb	r3, [r5, #0]
 3811 29b0 FEFFFFEB 		bl	uart1_transmit
 3812 29b4 0000D4E5 		ldrb	r0, [r4, #0]	@ zero_extendqisi2
 3813 29b8 FEFFFFEB 		bl	uart1_transmit
 3814 29bc 0000D5E5 		ldrb	r0, [r5, #0]	@ zero_extendqisi2
 3815 29c0 FEFFFFEB 		bl	uart1_transmit
 3816 29c4 740A00EA 		b	.L180
 3817              	.L183:
 3818 29c8 C8259FE5 		ldr	r2, .L440+424
 3819 29cc 0030D2E5 		ldrb	r3, [r2, #0]	@ zero_extendqisi2
 3820 29d0 013083E2 		add	r3, r3, #1
 3821 29d4 0030C2E5 		strb	r3, [r2, #0]
 3822              	.L180:
 3823 29d8 F8249FE5 		ldr	r2, .L440+232
 3824 29dc 0030D2E5 		ldrb	r3, [r2, #0]	@ zero_extendqisi2
 3825 29e0 390053E3 		cmp	r3, #57
 3826 29e4 390B001A 		bne	.L185
 3827 29e8 70359FE5 		ldr	r3, .L440+368
 3828 29ec 000093E5 		ldr	r0, [r3, #0]	@ float
 3829 29f0 FEFFFFEB 		bl	__fixsfsi
 3830 29f4 6C359FE5 		ldr	r3, .L440+376
 3831 29f8 D040D3E1 		ldrsb	r4, [r3, #0]
 3832 29fc B0034BE1 		strh	r0, [fp, #-48]	@ movhi 
 3833 2a00 0400A0E1 		mov	r0, r4
 3834 2a04 FEFFFFEB 		bl	__floatsisf
 3835 2a08 000054E3 		cmp	r4, #0
 3836 2a0c 00149FB5 		ldrlt	r1, .L440+36
 3837 2a10 FEFFFFBB 		bllt	__addsf3
 3838              	.L186:
 3839 2a14 C0149FE5 		ldr	r1, .L440+236
 3840 2a18 FEFFFFEB 		bl	__divsf3
 3841 2a1c BC349FE5 		ldr	r3, .L440+240
 3842 2a20 0040A0E1 		mov	r4, r0
 3843 2a24 000093E5 		ldr	r0, [r3, #0]
 3844 2a28 54400BE5 		str	r4, [fp, #-84]	@ float
 3845 2a2c FEFFFFEB 		bl	__floatsisf
 3846 2a30 AC149FE5 		ldr	r1, .L440+244
 3847 2a34 FEFFFFEB 		bl	__divsf3
 3848 2a38 0030A0E1 		mov	r3, r0
 3849 2a3c 0010A0E1 		mov	r1, r0
 3850 2a40 0400A0E1 		mov	r0, r4
 3851 2a44 58300BE5 		str	r3, [fp, #-88]	@ float
 3852 2a48 FEFFFFEB 		bl	__mulsf3
 3853 2a4c 5C000BE5 		str	r0, [fp, #-92]	@ float
 3854 2a50 1400A0E3 		mov	r0, #20
 3855 2a54 FEFFFFEB 		bl	uart1_check_free_space
 3856 2a58 FF0010E3 		tst	r0, #255
 3857 2a5c 34259F05 		ldreq	r2, .L440+424
 3858 2a60 0030D205 		ldreqb	r3, [r2, #0]	@ zero_extendqisi2
 3859 2a64 01308302 		addeq	r3, r3, #1
 3860 2a68 0030C205 		streqb	r3, [r2, #0]
 3861 2a6c 390B000A 		beq	.L185
 3862 2a70 24159FE5 		ldr	r1, .L440+428
 3863 2a74 24C59FE5 		ldr	ip, .L440+432
 3864 2a78 B030D1E1 		ldrh	r3, [r1, #0]
 3865 2a7c B020DCE1 		ldrh	r2, [ip, #0]
 3866 2a80 143083E2 		add	r3, r3, #20
 3867 2a84 012082E2 		add	r2, r2, #1
 3868 2a88 B030C1E1 		strh	r3, [r1, #0]	@ movhi 
 3869 2a8c B020CCE1 		strh	r2, [ip, #0]	@ movhi 
 3870 2a90 9900A0E3 		mov	r0, #153
 3871 2a94 08459FE5 		ldr	r4, .L440+436
 3872 2a98 FEFFFFEB 		bl	uart1_transmit
 3873 2a9c 1400A0E3 		mov	r0, #20
 3874 2aa0 00559FE5 		ldr	r5, .L440+440
 3875 2aa4 FEFFFFEB 		bl	uart1_transmit
 3876 2aa8 1E30A0E3 		mov	r3, #30
 3877 2aac 0030C4E5 		strb	r3, [r4, #0]
 3878 2ab0 143083E2 		add	r3, r3, #20
 3879 2ab4 0A00A0E3 		mov	r0, #10
 3880 2ab8 0030C5E5 		strb	r3, [r5, #0]
 3881 2abc FEFFFFEB 		bl	uart1_transmit
 3882 2ac0 0030D4E5 		ldrb	r3, [r4, #0]	@ zero_extendqisi2
 3883 2ac4 253083E2 		add	r3, r3, #37
 3884 2ac8 0030C4E5 		strb	r3, [r4, #0]
 3885 2acc 0030D5E5 		ldrb	r3, [r5, #0]	@ zero_extendqisi2
 3886 2ad0 0020D4E5 		ldrb	r2, [r4, #0]	@ zero_extendqisi2
 3887 2ad4 023083E0 		add	r3, r3, r2
 3888 2ad8 2500A0E3 		mov	r0, #37
 3889 2adc 0030C5E5 		strb	r3, [r5, #0]
 3890 2ae0 FEFFFFEB 		bl	uart1_transmit
 3891 2ae4 54005BE5 		ldrb	r0, [fp, #-84]	@ zero_extendqisi2
 3892 2ae8 0030D4E5 		ldrb	r3, [r4, #0]	@ zero_extendqisi2
 3893 2aec 033080E0 		add	r3, r0, r3
 3894 2af0 0030C4E5 		strb	r3, [r4, #0]
 3895 2af4 0030D5E5 		ldrb	r3, [r5, #0]	@ zero_extendqisi2
 3896 2af8 0020D4E5 		ldrb	r2, [r4, #0]	@ zero_extendqisi2
 3897 2afc 023083E0 		add	r3, r3, r2
 3898 2b00 0030C5E5 		strb	r3, [r5, #0]
 3899 2b04 FEFFFFEB 		bl	uart1_transmit
 3900 2b08 53005BE5 		ldrb	r0, [fp, #-83]	@ zero_extendqisi2
 3901 2b0c 0030D4E5 		ldrb	r3, [r4, #0]	@ zero_extendqisi2
 3902 2b10 033080E0 		add	r3, r0, r3
 3903 2b14 0030C4E5 		strb	r3, [r4, #0]
 3904 2b18 0030D5E5 		ldrb	r3, [r5, #0]	@ zero_extendqisi2
 3905 2b1c 0020D4E5 		ldrb	r2, [r4, #0]	@ zero_extendqisi2
 3906 2b20 023083E0 		add	r3, r3, r2
 3907 2b24 0030C5E5 		strb	r3, [r5, #0]
 3908 2b28 FEFFFFEB 		bl	uart1_transmit
 3909 2b2c 52005BE5 		ldrb	r0, [fp, #-82]	@ zero_extendqisi2
 3910 2b30 0030D4E5 		ldrb	r3, [r4, #0]	@ zero_extendqisi2
 3911 2b34 033080E0 		add	r3, r0, r3
 3912 2b38 0030C4E5 		strb	r3, [r4, #0]
 3913 2b3c 0030D5E5 		ldrb	r3, [r5, #0]	@ zero_extendqisi2
 3914 2b40 0020D4E5 		ldrb	r2, [r4, #0]	@ zero_extendqisi2
 3915 2b44 023083E0 		add	r3, r3, r2
 3916 2b48 0030C5E5 		strb	r3, [r5, #0]
 3917 2b4c FEFFFFEB 		bl	uart1_transmit
 3918 2b50 51005BE5 		ldrb	r0, [fp, #-81]	@ zero_extendqisi2
 3919 2b54 0030D4E5 		ldrb	r3, [r4, #0]	@ zero_extendqisi2
 3920 2b58 033080E0 		add	r3, r0, r3
 3921 2b5c 0030C4E5 		strb	r3, [r4, #0]
 3922 2b60 0030D5E5 		ldrb	r3, [r5, #0]	@ zero_extendqisi2
 3923 2b64 0020D4E5 		ldrb	r2, [r4, #0]	@ zero_extendqisi2
 3924 2b68 023083E0 		add	r3, r3, r2
 3925 2b6c 0030C5E5 		strb	r3, [r5, #0]
 3926 2b70 FEFFFFEB 		bl	uart1_transmit
 3927 2b74 58005BE5 		ldrb	r0, [fp, #-88]	@ zero_extendqisi2
 3928 2b78 0030D4E5 		ldrb	r3, [r4, #0]	@ zero_extendqisi2
 3929 2b7c 033080E0 		add	r3, r0, r3
 3930 2b80 0030C4E5 		strb	r3, [r4, #0]
 3931 2b84 0030D5E5 		ldrb	r3, [r5, #0]	@ zero_extendqisi2
 3932 2b88 0020D4E5 		ldrb	r2, [r4, #0]	@ zero_extendqisi2
 3933 2b8c 023083E0 		add	r3, r3, r2
 3934 2b90 0030C5E5 		strb	r3, [r5, #0]
 3935 2b94 FEFFFFEB 		bl	uart1_transmit
 3936 2b98 57005BE5 		ldrb	r0, [fp, #-87]	@ zero_extendqisi2
 3937 2b9c 0030D4E5 		ldrb	r3, [r4, #0]	@ zero_extendqisi2
 3938 2ba0 033080E0 		add	r3, r0, r3
 3939 2ba4 0030C4E5 		strb	r3, [r4, #0]
 3940 2ba8 0030D5E5 		ldrb	r3, [r5, #0]	@ zero_extendqisi2
 3941 2bac 0020D4E5 		ldrb	r2, [r4, #0]	@ zero_extendqisi2
 3942 2bb0 023083E0 		add	r3, r3, r2
 3943 2bb4 0030C5E5 		strb	r3, [r5, #0]
 3944 2bb8 FEFFFFEB 		bl	uart1_transmit
 3945 2bbc 56005BE5 		ldrb	r0, [fp, #-86]	@ zero_extendqisi2
 3946 2bc0 0030D4E5 		ldrb	r3, [r4, #0]	@ zero_extendqisi2
 3947 2bc4 033080E0 		add	r3, r0, r3
 3948 2bc8 0030C4E5 		strb	r3, [r4, #0]
 3949 2bcc 0030D5E5 		ldrb	r3, [r5, #0]	@ zero_extendqisi2
 3950 2bd0 0020D4E5 		ldrb	r2, [r4, #0]	@ zero_extendqisi2
 3951 2bd4 023083E0 		add	r3, r3, r2
 3952 2bd8 0030C5E5 		strb	r3, [r5, #0]
 3953 2bdc FEFFFFEB 		bl	uart1_transmit
 3954 2be0 55005BE5 		ldrb	r0, [fp, #-85]	@ zero_extendqisi2
 3955 2be4 0030D4E5 		ldrb	r3, [r4, #0]	@ zero_extendqisi2
 3956 2be8 033080E0 		add	r3, r0, r3
 3957 2bec 0030C4E5 		strb	r3, [r4, #0]
 3958 2bf0 0030D5E5 		ldrb	r3, [r5, #0]	@ zero_extendqisi2
 3959 2bf4 0020D4E5 		ldrb	r2, [r4, #0]	@ zero_extendqisi2
 3960 2bf8 023083E0 		add	r3, r3, r2
 3961 2bfc 0030C5E5 		strb	r3, [r5, #0]
 3962 2c00 FEFFFFEB 		bl	uart1_transmit
 3963 2c04 30005BE5 		ldrb	r0, [fp, #-48]	@ zero_extendqisi2
 3964 2c08 0030D4E5 		ldrb	r3, [r4, #0]	@ zero_extendqisi2
 3965 2c0c 033080E0 		add	r3, r0, r3
 3966 2c10 0030C4E5 		strb	r3, [r4, #0]
 3967 2c14 0030D5E5 		ldrb	r3, [r5, #0]	@ zero_extendqisi2
 3968 2c18 0020D4E5 		ldrb	r2, [r4, #0]	@ zero_extendqisi2
 3969 2c1c 023083E0 		add	r3, r3, r2
 3970 2c20 0030C5E5 		strb	r3, [r5, #0]
 3971 2c24 FEFFFFEB 		bl	uart1_transmit
 3972 2c28 2F005BE5 		ldrb	r0, [fp, #-47]	@ zero_extendqisi2
 3973 2c2c 0030D4E5 		ldrb	r3, [r4, #0]	@ zero_extendqisi2
 3974 2c30 033080E0 		add	r3, r0, r3
 3975 2c34 0030C4E5 		strb	r3, [r4, #0]
 3976 2c38 0030D5E5 		ldrb	r3, [r5, #0]	@ zero_extendqisi2
 3977 2c3c 0020D4E5 		ldrb	r2, [r4, #0]	@ zero_extendqisi2
 3978 2c40 023083E0 		add	r3, r3, r2
 3979 2c44 0030C5E5 		strb	r3, [r5, #0]
 3980 2c48 FEFFFFEB 		bl	uart1_transmit
 3981 2c4c 5C005BE5 		ldrb	r0, [fp, #-92]	@ zero_extendqisi2
 3982 2c50 0030D4E5 		ldrb	r3, [r4, #0]	@ zero_extendqisi2
 3983 2c54 033080E0 		add	r3, r0, r3
 3984 2c58 0030C4E5 		strb	r3, [r4, #0]
 3985 2c5c 0030D5E5 		ldrb	r3, [r5, #0]	@ zero_extendqisi2
 3986 2c60 0020D4E5 		ldrb	r2, [r4, #0]	@ zero_extendqisi2
 3987 2c64 023083E0 		add	r3, r3, r2
 3988 2c68 0030C5E5 		strb	r3, [r5, #0]
 3989 2c6c FEFFFFEB 		bl	uart1_transmit
 3990 2c70 5B005BE5 		ldrb	r0, [fp, #-91]	@ zero_extendqisi2
 3991 2c74 0030D4E5 		ldrb	r3, [r4, #0]	@ zero_extendqisi2
 3992 2c78 033080E0 		add	r3, r0, r3
 3993 2c7c 0030C4E5 		strb	r3, [r4, #0]
 3994 2c80 0030D5E5 		ldrb	r3, [r5, #0]	@ zero_extendqisi2
 3995 2c84 0020D4E5 		ldrb	r2, [r4, #0]	@ zero_extendqisi2
 3996 2c88 023083E0 		add	r3, r3, r2
 3997 2c8c 0030C5E5 		strb	r3, [r5, #0]
 3998 2c90 FEFFFFEB 		bl	uart1_transmit
 3999 2c94 5A005BE5 		ldrb	r0, [fp, #-90]	@ zero_extendqisi2
 4000 2c98 0030D4E5 		ldrb	r3, [r4, #0]	@ zero_extendqisi2
 4001 2c9c 033080E0 		add	r3, r0, r3
 4002 2ca0 0030C4E5 		strb	r3, [r4, #0]
 4003 2ca4 0030D5E5 		ldrb	r3, [r5, #0]	@ zero_extendqisi2
 4004 2ca8 0020D4E5 		ldrb	r2, [r4, #0]	@ zero_extendqisi2
 4005 2cac 023083E0 		add	r3, r3, r2
 4006 2cb0 0030C5E5 		strb	r3, [r5, #0]
 4007 2cb4 FEFFFFEB 		bl	uart1_transmit
 4008 2cb8 59005BE5 		ldrb	r0, [fp, #-89]	@ zero_extendqisi2
 4009 2cbc 0030D4E5 		ldrb	r3, [r4, #0]	@ zero_extendqisi2
 4010 2cc0 033080E0 		add	r3, r0, r3
 4011 2cc4 0030C4E5 		strb	r3, [r4, #0]
 4012 2cc8 0030D5E5 		ldrb	r3, [r5, #0]	@ zero_extendqisi2
 4013 2ccc 0020D4E5 		ldrb	r2, [r4, #0]	@ zero_extendqisi2
 4014 2cd0 023083E0 		add	r3, r3, r2
 4015 2cd4 0030C5E5 		strb	r3, [r5, #0]
 4016 2cd8 FEFFFFEB 		bl	uart1_transmit
 4017 2cdc 0000D4E5 		ldrb	r0, [r4, #0]	@ zero_extendqisi2
 4018 2ce0 FEFFFFEB 		bl	uart1_transmit
 4019 2ce4 0000D5E5 		ldrb	r0, [r5, #0]	@ zero_extendqisi2
 4020 2ce8 FEFFFFEB 		bl	uart1_transmit
 4021              	.L185:
 4022 2cec F4219FE5 		ldr	r2, .L440+248
 4023 2cf0 B030D2E1 		ldrh	r3, [r2, #0]
 4024 2cf4 3F0053E3 		cmp	r3, #63
 4025 2cf8 ED0B001A 		bne	.L189
 4026 2cfc 1700A0E3 		mov	r0, #23
 4027 2d00 FEFFFFEB 		bl	uart1_check_free_space
 4028 2d04 FF0010E3 		tst	r0, #255
 4029 2d08 510C000A 		beq	.L198
 4030 2d0c 88129FE5 		ldr	r1, .L440+428
 4031 2d10 88C29FE5 		ldr	ip, .L440+432
 4032 2d14 B030D1E1 		ldrh	r3, [r1, #0]
 4033 2d18 B020DCE1 		ldrh	r2, [ip, #0]
 4034 2d1c 173083E2 		add	r3, r3, #23
 4035 2d20 012082E2 		add	r2, r2, #1
 4036 2d24 B030C1E1 		strh	r3, [r1, #0]	@ movhi 
 4037 2d28 B020CCE1 		strh	r2, [ip, #0]	@ movhi 
 4038 2d2c 9900A0E3 		mov	r0, #153
 4039 2d30 6C429FE5 		ldr	r4, .L440+436
 4040 2d34 FEFFFFEB 		bl	uart1_transmit
 4041 2d38 1700A0E3 		mov	r0, #23
 4042 2d3c FEFFFFEB 		bl	uart1_transmit
 4043 2d40 60629FE5 		ldr	r6, .L440+440
 4044 2d44 2130A0E3 		mov	r3, #33
 4045 2d48 0030C4E5 		strb	r3, [r4, #0]
 4046 2d4c 173083E2 		add	r3, r3, #23
 4047 2d50 0A00A0E3 		mov	r0, #10
 4048 2d54 0030C6E5 		strb	r3, [r6, #0]
 4049 2d58 FEFFFFEB 		bl	uart1_transmit
 4050 2d5c 0030D4E5 		ldrb	r3, [r4, #0]	@ zero_extendqisi2
 4051 2d60 023083E2 		add	r3, r3, #2
 4052 2d64 0030C4E5 		strb	r3, [r4, #0]
 4053 2d68 0030D6E5 		ldrb	r3, [r6, #0]	@ zero_extendqisi2
 4054 2d6c 0020D4E5 		ldrb	r2, [r4, #0]	@ zero_extendqisi2
 4055 2d70 023083E0 		add	r3, r3, r2
 4056 2d74 0200A0E3 		mov	r0, #2
 4057 2d78 0030C6E5 		strb	r3, [r6, #0]
 4058 2d7c FEFFFFEB 		bl	uart1_transmit
 4059 2d80 0030D4E5 		ldrb	r3, [r4, #0]	@ zero_extendqisi2
 4060 2d84 103083E2 		add	r3, r3, #16
 4061 2d88 0030C4E5 		strb	r3, [r4, #0]
 4062 2d8c 0030D6E5 		ldrb	r3, [r6, #0]	@ zero_extendqisi2
 4063 2d90 0020D4E5 		ldrb	r2, [r4, #0]	@ zero_extendqisi2
 4064 2d94 023083E0 		add	r3, r3, r2
 4065 2d98 1000A0E3 		mov	r0, #16
 4066 2d9c 0030C6E5 		strb	r3, [r6, #0]
 4067 2da0 FEFFFFEB 		bl	uart1_transmit
 4068 2da4 0050A0E3 		mov	r5, #0
 4069              	.L194:
 4070 2da8 3C319FE5 		ldr	r3, .L440+252
 4071 2dac 0300D5E7 		ldrb	r0, [r5, r3]	@ zero_extendqisi2
 4072 2db0 0030D4E5 		ldrb	r3, [r4, #0]	@ zero_extendqisi2
 4073 2db4 033080E0 		add	r3, r0, r3
 4074 2db8 0030C4E5 		strb	r3, [r4, #0]
 4075 2dbc 0030D6E5 		ldrb	r3, [r6, #0]	@ zero_extendqisi2
 4076 2dc0 0020D4E5 		ldrb	r2, [r4, #0]	@ zero_extendqisi2
 4077 2dc4 023083E0 		add	r3, r3, r2
 4078 2dc8 0030C6E5 		strb	r3, [r6, #0]
 4079 2dcc FEFFFFEB 		bl	uart1_transmit
 4080 2dd0 013085E2 		add	r3, r5, #1
 4081 2dd4 FF5003E2 		and	r5, r3, #255
 4082 2dd8 0F0055E3 		cmp	r5, #15
 4083 2ddc 680B009A 		bls	.L194
 4084 2de0 0000D4E5 		ldrb	r0, [r4, #0]	@ zero_extendqisi2
 4085 2de4 FEFFFFEB 		bl	uart1_transmit
 4086 2de8 0000D6E5 		ldrb	r0, [r6, #0]	@ zero_extendqisi2
 4087 2dec 4F0C00EA 		b	.L415
 4088              	.L441:
 4089              		.align	2
 4090              	.L440:
 4091 2df0 00000000 		.word	i90.20
 4092 2df4 00000000 		.word	i.28
 4093 2df8 00000000 		.word	flight_altitude
 4094 2dfc 00000000 		.word	wind_east
 4095 2e00 00000000 		.word	wind_north
 4096 2e04 00000000 		.word	alt_kalman_enabled
 4097 2e08 00008047 		.word	1199570944
 4098 2e0c 00000000 		.word	launch
 4099 2e10 00000000 		.word	telemetry_mode_Fbw_DefaultChannel
 4100 2e14 00008043 		.word	1132462080
 4101 2e18 00000000 		.word	gps_reset
 4102 2e1c 00000000 		.word	ins_roll_neutral
 4103 2e20 00000000 		.word	ins_pitch_neutral
 4104 2e24 00000000 		.word	h_ctl_roll_pgain
 4105 2e28 00000000 		.word	h_ctl_roll_max_setpoint
 4106 2e2c 00000000 		.word	h_ctl_pitch_pgain
 4107 2e30 00000000 		.word	h_ctl_pitch_dgain
 4108 2e34 00000000 		.word	h_ctl_elevator_of_roll
 4109 2e38 00000000 		.word	h_ctl_aileron_of_throttle
 4110 2e3c 00000000 		.word	h_ctl_roll_attitude_gain
 4111 2e40 00000000 		.word	h_ctl_roll_rate_gain
 4112 2e44 00000000 		.word	v_ctl_altitude_pgain
 4113 2e48 00000000 		.word	v_ctl_auto_throttle_cruise_throttle
 4114 2e4c 00000000 		.word	v_ctl_auto_throttle_pgain
 4115 2e50 00000000 		.word	v_ctl_auto_throttle_igain
 4116 2e54 00000000 		.word	v_ctl_auto_throttle_dgain
 4117 2e58 00000000 		.word	v_ctl_auto_throttle_climb_throttle_increment
 4118 2e5c 00000000 		.word	v_ctl_auto_throttle_pitch_of_vz_pgain
 4119 2e60 00000000 		.word	v_ctl_auto_throttle_pitch_of_vz_dgain
 4120 2e64 00000000 		.word	v_ctl_auto_pitch_pgain
 4121 2e68 00000000 		.word	v_ctl_auto_pitch_igain
 4122 2e6c 00000000 		.word	h_ctl_course_pgain
 4123 2e70 00000000 		.word	h_ctl_course_dgain
 4124 2e74 00000000 		.word	h_ctl_course_pre_bank_correction
 4125 2e78 00000000 		.word	nav_glide_pitch_trim
 4126 2e7c 00000000 		.word	h_ctl_roll_slew
 4127 2e80 00000000 		.word	nav_radius
 4128 2e84 00000000 		.word	nav_course
 4129 2e88 00000000 		.word	nav_mode
 4130 2e8c 00000000 		.word	nav_climb
 4131 2e90 00000000 		.word	fp_pitch
 4132 2e94 00000000 		.word	nav_shift
 4133 2e98 00000000 		.word	nav_ground_speed_setpoint
 4134 2e9c 00000000 		.word	nav_ground_speed_pgain
 4135 2ea0 00000000 		.word	nav_survey_shift
 4136 2ea4 00000000 		.word	i120.21
 4137 2ea8 00000000 		.word	gps_Pacc
 4138 2eac 00000000 		.word	gps_Sacc
 4139 2eb0 00000000 		.word	gps_PDOP
 4140 2eb4 00000000 		.word	gps_numSV
 4141 2eb8 00000000 		.word	i126.22
 4142 2ebc 00000000 		.word	v_ctl_auto_throttle_sum_err
 4143 2ec0 00000000 		.word	v_ctl_auto_throttle_submode
 4144 2ec4 00000000 		.word	nav_survey_active
 4145 2ec8 00000000 		.word	nav_survey_east
 4146 2ecc 00000000 		.word	nav_survey_north
 4147 2ed0 00000000 		.word	nav_survey_west
 4148 2ed4 00000000 		.word	nav_survey_south
 4149 2ed8 00000000 		.word	i150.23
 4150 2edc 00002041 		.word	1092616192
 4151 2ee0 00000000 		.word	current
 4152 2ee4 00007A44 		.word	1148846080
 4153 2ee8 00000000 		.word	i300.24
 4154 2eec 00000000 		.word	.LC0
 4155 2ef0 00000000 		.word	pprz_mode
 4156 2ef4 00000000 		.word	v_ctl_mode
 4157 2ef8 00000000 		.word	lateral_mode
 4158 2efc 00000000 		.word	horizontal_mode
 4159 2f00 00000000 		.word	rc_settings_mode
 4160 2f04 00000000 		.word	mcu1_status
 4161 2f08 00000000 		.word	i306.25
 4162 2f0c 00000000 		.word	last.29
 4163 2f10 00000000 		.word	i540.26
 4164 2f14 00000000 		.word	telemetry_mode_Ap_DefaultChannel
 4165 2f18 00000000 		.word	i63.30
 4166 2f1c 00000000 		.word	i66.31
 4167 2f20 00000000 		.word	i78.32
 4168 2f24 00000000 		.word	i84.33
 4169 2f28 00000000 		.word	i90.34
 4170 2f2c 00000000 		.word	i126.35
 4171 2f30 00000000 		.word	i180.36
 4172 2f34 00000000 		.word	i183.37
 4173 2f38 00000000 		.word	i192.38
 4174 2f3c 00000000 		.word	i240.39
 4175 2f40 00000000 		.word	i243.40
 4176 2f44 00000000 		.word	i300.41
 4177 2f48 31010000 		.word	305
 4178 2f4c 00000000 		.word	i306.42
 4179 2f50 00000000 		.word	i312.43
 4180 2f54 00000000 		.word	i540.44
 4181 2f58 00000000 		.word	i606.45
 4182 2f5c 5D020000 		.word	605
 4183 2f60 00000000 		.word	energy
 4184 2f64 00000000 		.word	v_ctl_throttle_slewed
 4185 2f68 00000000 		.word	vsupply
 4186 2f6c 00000000 		.word	estimator_flight_time
 4187 2f70 00000000 		.word	kill_throttle
 4188 2f74 00000000 		.word	block_time
 4189 2f78 00000000 		.word	stage_time
 4190 2f7c 00000000 		.word	estimator_z
 4191 2f80 00000000 		.word	estimator_z_dot
 4192 2f84 00000000 		.word	i.46
 4193 2f88 00000000 		.word	nb_waypoint
 4194 2f8c 00000000 		.word	nav_utm_east0
 4195 2f90 00000000 		.word	waypoints
 4196 2f94 00000000 		.word	nav_utm_north0
 4197 2f98 00000000 		.word	downlink_nb_ovrn
 4198 2f9c 00000000 		.word	downlink_nb_bytes
 4199 2fa0 00000000 		.word	downlink_nb_msgs
 4200 2fa4 00000000 		.word	ck_a
 4201 2fa8 00000000 		.word	ck_b
 4202 2fac 66661440 		.word	1075078758
 4203 2fb0 66666666 		.word	1717986918
 4204 2fb4 00000000 		.word	nav_utm_zone0
 4205 2fb8 00000000 		.word	i.47
 4206              	.L189:
 4207 2fbc 450053E3 		cmp	r3, #69
 4208 2fc0 550C001A 		bne	.L196
 4209 2fc4 0C00A0E3 		mov	r0, #12
 4210 2fc8 FEFFFFEB 		bl	uart1_check_free_space
 4211 2fcc FF0010E3 		tst	r0, #255
 4212 2fd0 510C000A 		beq	.L198
 4213 2fd4 40101FE5 		ldr	r1, .L440+428
 4214 2fd8 40C01FE5 		ldr	ip, .L440+432
 4215 2fdc B030D1E1 		ldrh	r3, [r1, #0]
 4216 2fe0 B020DCE1 		ldrh	r2, [ip, #0]
 4217 2fe4 0C3083E2 		add	r3, r3, #12
 4218 2fe8 012082E2 		add	r2, r2, #1
 4219 2fec B030C1E1 		strh	r3, [r1, #0]	@ movhi 
 4220 2ff0 B020CCE1 		strh	r2, [ip, #0]	@ movhi 
 4221 2ff4 9900A0E3 		mov	r0, #153
 4222 2ff8 5C401FE5 		ldr	r4, .L440+436
 4223 2ffc FEFFFFEB 		bl	uart1_transmit
 4224 3000 0C00A0E3 		mov	r0, #12
 4225 3004 64501FE5 		ldr	r5, .L440+440
 4226 3008 FEFFFFEB 		bl	uart1_transmit
 4227 300c 1630A0E3 		mov	r3, #22
 4228 3010 0030C4E5 		strb	r3, [r4, #0]
 4229 3014 0C3083E2 		add	r3, r3, #12
 4230 3018 0A00A0E3 		mov	r0, #10
 4231 301c 0030C5E5 		strb	r3, [r5, #0]
 4232 3020 FEFFFFEB 		bl	uart1_transmit
 4233 3024 0030D4E5 		ldrb	r3, [r4, #0]	@ zero_extendqisi2
 4234 3028 0B3083E2 		add	r3, r3, #11
 4235 302c 0030C4E5 		strb	r3, [r4, #0]
 4236 3030 0030D5E5 		ldrb	r3, [r5, #0]	@ zero_extendqisi2
 4237 3034 0020D4E5 		ldrb	r2, [r4, #0]	@ zero_extendqisi2
 4238 3038 023083E0 		add	r3, r3, r2
 4239 303c 0B00A0E3 		mov	r0, #11
 4240 3040 0030C5E5 		strb	r3, [r5, #0]
 4241 3044 FEFFFFEB 		bl	uart1_transmit
 4242 3048 60311FE5 		ldr	r3, .L440+256
 4243 304c 0000D3E5 		ldrb	r0, [r3, #0]	@ zero_extendqisi2
 4244 3050 0030D4E5 		ldrb	r3, [r4, #0]	@ zero_extendqisi2
 4245 3054 033080E0 		add	r3, r0, r3
 4246 3058 0030C4E5 		strb	r3, [r4, #0]
 4247 305c 0030D5E5 		ldrb	r3, [r5, #0]	@ zero_extendqisi2
 4248 3060 0020D4E5 		ldrb	r2, [r4, #0]	@ zero_extendqisi2
 4249 3064 023083E0 		add	r3, r3, r2
 4250 3068 0030C5E5 		strb	r3, [r5, #0]
 4251 306c FEFFFFEB 		bl	uart1_transmit
 4252 3070 84311FE5 		ldr	r3, .L440+260
 4253 3074 0000D3E5 		ldrb	r0, [r3, #0]	@ zero_extendqisi2
 4254 3078 0030D4E5 		ldrb	r3, [r4, #0]	@ zero_extendqisi2
 4255 307c 033080E0 		add	r3, r0, r3
 4256 3080 0030C4E5 		strb	r3, [r4, #0]
 4257 3084 0030D5E5 		ldrb	r3, [r5, #0]	@ zero_extendqisi2
 4258 3088 0020D4E5 		ldrb	r2, [r4, #0]	@ zero_extendqisi2
 4259 308c 023083E0 		add	r3, r3, r2
 4260 3090 0030C5E5 		strb	r3, [r5, #0]
 4261 3094 FEFFFFEB 		bl	uart1_transmit
 4262 3098 A8311FE5 		ldr	r3, .L440+264
 4263 309c 0000D3E5 		ldrb	r0, [r3, #0]	@ zero_extendqisi2
 4264 30a0 0030D4E5 		ldrb	r3, [r4, #0]	@ zero_extendqisi2
 4265 30a4 033080E0 		add	r3, r0, r3
 4266 30a8 0030C4E5 		strb	r3, [r4, #0]
 4267 30ac 0030D5E5 		ldrb	r3, [r5, #0]	@ zero_extendqisi2
 4268 30b0 0020D4E5 		ldrb	r2, [r4, #0]	@ zero_extendqisi2
 4269 30b4 023083E0 		add	r3, r3, r2
 4270 30b8 0030C5E5 		strb	r3, [r5, #0]
 4271 30bc FEFFFFEB 		bl	uart1_transmit
 4272 30c0 CC311FE5 		ldr	r3, .L440+268
 4273 30c4 0000D3E5 		ldrb	r0, [r3, #0]	@ zero_extendqisi2
 4274 30c8 0030D4E5 		ldrb	r3, [r4, #0]	@ zero_extendqisi2
 4275 30cc 033080E0 		add	r3, r0, r3
 4276 30d0 0030C4E5 		strb	r3, [r4, #0]
 4277 30d4 0030D5E5 		ldrb	r3, [r5, #0]	@ zero_extendqisi2
 4278 30d8 0020D4E5 		ldrb	r2, [r4, #0]	@ zero_extendqisi2
 4279 30dc 023083E0 		add	r3, r3, r2
 4280 30e0 0030C5E5 		strb	r3, [r5, #0]
 4281 30e4 FEFFFFEB 		bl	uart1_transmit
 4282 30e8 F0311FE5 		ldr	r3, .L440+272
 4283 30ec 0000D3E5 		ldrb	r0, [r3, #0]	@ zero_extendqisi2
 4284 30f0 0030D4E5 		ldrb	r3, [r4, #0]	@ zero_extendqisi2
 4285 30f4 033080E0 		add	r3, r0, r3
 4286 30f8 0030C4E5 		strb	r3, [r4, #0]
 4287 30fc 0030D5E5 		ldrb	r3, [r5, #0]	@ zero_extendqisi2
 4288 3100 0020D4E5 		ldrb	r2, [r4, #0]	@ zero_extendqisi2
 4289 3104 023083E0 		add	r3, r3, r2
 4290 3108 0030C5E5 		strb	r3, [r5, #0]
 4291 310c FEFFFFEB 		bl	uart1_transmit
 4292 3110 14321FE5 		ldr	r3, .L440+276
 4293 3114 0000D3E5 		ldrb	r0, [r3, #0]	@ zero_extendqisi2
 4294 3118 0030D4E5 		ldrb	r3, [r4, #0]	@ zero_extendqisi2
 4295 311c 033080E0 		add	r3, r0, r3
 4296 3120 0030C4E5 		strb	r3, [r4, #0]
 4297 3124 0030D5E5 		ldrb	r3, [r5, #0]	@ zero_extendqisi2
 4298 3128 0020D4E5 		ldrb	r2, [r4, #0]	@ zero_extendqisi2
 4299 312c 023083E0 		add	r3, r3, r2
 4300 3130 0030C5E5 		strb	r3, [r5, #0]
 4301 3134 FEFFFFEB 		bl	uart1_transmit
 4302 3138 0000D4E5 		ldrb	r0, [r4, #0]	@ zero_extendqisi2
 4303 313c FEFFFFEB 		bl	uart1_transmit
 4304 3140 0000D5E5 		ldrb	r0, [r5, #0]	@ zero_extendqisi2
 4305              	.L415:
 4306 3144 FEFFFFEB 		bl	uart1_transmit
 4307 3148 550C00EA 		b	.L196
 4308              	.L198:
 4309 314c BC211FE5 		ldr	r2, .L440+424
 4310 3150 0030D2E5 		ldrb	r3, [r2, #0]	@ zero_extendqisi2
 4311 3154 013083E2 		add	r3, r3, #1
 4312 3158 0030C2E5 		strb	r3, [r2, #0]
 4313              	.L196:
 4314 315c 5C221FE5 		ldr	r2, .L440+280
 4315 3160 B030D2E1 		ldrh	r3, [r2, #0]
 4316 3164 4B0053E3 		cmp	r3, #75
 4317 3168 BA0C001A 		bne	.L200
 4318 316c 68421FE5 		ldr	r4, .L440+284
 4319 3170 DC711FE5 		ldr	r7, .L440+428
 4320 3174 B000D4E1 		ldrh	r0, [r4, #0]
 4321 3178 B050D7E1 		ldrh	r5, [r7, #0]
 4322 317c 050060E0 		rsb	r0, r0, r5
 4323 3180 FEFFFFEB 		bl	__floatsidf
 4324 3184 1E2E4FE2 		adr	r2, .L440+444
 4325 3188 0C0092E8 		ldmia	r2, {r2-r3}
 4326 318c FEFFFFEB 		bl	__divdf3
 4327 3190 FEFFFFEB 		bl	__fixunsdfsi
 4328 3194 B2034BE1 		strh	r0, [fp, #-50]	@ movhi 
 4329 3198 0B00A0E3 		mov	r0, #11
 4330 319c B050C4E1 		strh	r5, [r4, #0]	@ movhi 
 4331 31a0 FEFFFFEB 		bl	uart1_check_free_space
 4332 31a4 14A21FE5 		ldr	sl, .L440+424
 4333 31a8 FF0010E3 		tst	r0, #255
 4334 31ac 0030DA05 		ldreqb	r3, [sl, #0]	@ zero_extendqisi2
 4335 31b0 01308302 		addeq	r3, r3, #1
 4336 31b4 0030CA05 		streqb	r3, [sl, #0]
 4337 31b8 BA0C000A 		beq	.L200
 4338 31bc 24621FE5 		ldr	r6, .L440+432
 4339 31c0 B030D7E1 		ldrh	r3, [r7, #0]
 4340 31c4 B020D6E1 		ldrh	r2, [r6, #0]
 4341 31c8 0B3083E2 		add	r3, r3, #11
 4342 31cc 012082E2 		add	r2, r2, #1
 4343 31d0 B020C6E1 		strh	r2, [r6, #0]	@ movhi 
 4344 31d4 B030C7E1 		strh	r3, [r7, #0]	@ movhi 
 4345 31d8 9900A0E3 		mov	r0, #153
 4346 31dc 40421FE5 		ldr	r4, .L440+436
 4347 31e0 FEFFFFEB 		bl	uart1_transmit
 4348 31e4 0B00A0E3 		mov	r0, #11
 4349 31e8 48521FE5 		ldr	r5, .L440+440
 4350 31ec FEFFFFEB 		bl	uart1_transmit
 4351 31f0 1530A0E3 		mov	r3, #21
 4352 31f4 0030C4E5 		strb	r3, [r4, #0]
 4353 31f8 0B3083E2 		add	r3, r3, #11
 4354 31fc 0A00A0E3 		mov	r0, #10
 4355 3200 0030C5E5 		strb	r3, [r5, #0]
 4356 3204 FEFFFFEB 		bl	uart1_transmit
 4357 3208 0030D4E5 		ldrb	r3, [r4, #0]	@ zero_extendqisi2
 4358 320c 1E3083E2 		add	r3, r3, #30
 4359 3210 0030C4E5 		strb	r3, [r4, #0]
 4360 3214 0030D5E5 		ldrb	r3, [r5, #0]	@ zero_extendqisi2
 4361 3218 0020D4E5 		ldrb	r2, [r4, #0]	@ zero_extendqisi2
 4362 321c 023083E0 		add	r3, r3, r2
 4363 3220 1E00A0E3 		mov	r0, #30
 4364 3224 0030C5E5 		strb	r3, [r5, #0]
 4365 3228 FEFFFFEB 		bl	uart1_transmit
 4366 322c 0000DAE5 		ldrb	r0, [sl, #0]	@ zero_extendqisi2
 4367 3230 0030D4E5 		ldrb	r3, [r4, #0]	@ zero_extendqisi2
 4368 3234 033080E0 		add	r3, r0, r3
 4369 3238 0030C4E5 		strb	r3, [r4, #0]
 4370 323c 0030D5E5 		ldrb	r3, [r5, #0]	@ zero_extendqisi2
 4371 3240 0020D4E5 		ldrb	r2, [r4, #0]	@ zero_extendqisi2
 4372 3244 023083E0 		add	r3, r3, r2
 4373 3248 0030C5E5 		strb	r3, [r5, #0]
 4374 324c FEFFFFEB 		bl	uart1_transmit
 4375 3250 32005BE5 		ldrb	r0, [fp, #-50]	@ zero_extendqisi2
 4376 3254 0030D4E5 		ldrb	r3, [r4, #0]	@ zero_extendqisi2
 4377 3258 033080E0 		add	r3, r0, r3
 4378 325c 0030C4E5 		strb	r3, [r4, #0]
 4379 3260 0030D5E5 		ldrb	r3, [r5, #0]	@ zero_extendqisi2
 4380 3264 0020D4E5 		ldrb	r2, [r4, #0]	@ zero_extendqisi2
 4381 3268 023083E0 		add	r3, r3, r2
 4382 326c 0030C5E5 		strb	r3, [r5, #0]
 4383 3270 FEFFFFEB 		bl	uart1_transmit
 4384 3274 31005BE5 		ldrb	r0, [fp, #-49]	@ zero_extendqisi2
 4385 3278 0030D4E5 		ldrb	r3, [r4, #0]	@ zero_extendqisi2
 4386 327c 033080E0 		add	r3, r0, r3
 4387 3280 0030C4E5 		strb	r3, [r4, #0]
 4388 3284 0030D5E5 		ldrb	r3, [r5, #0]	@ zero_extendqisi2
 4389 3288 0020D4E5 		ldrb	r2, [r4, #0]	@ zero_extendqisi2
 4390 328c 023083E0 		add	r3, r3, r2
 4391 3290 0030C5E5 		strb	r3, [r5, #0]
 4392 3294 FEFFFFEB 		bl	uart1_transmit
 4393 3298 0000D6E5 		ldrb	r0, [r6, #0]	@ zero_extendqisi2
 4394 329c 0030D4E5 		ldrb	r3, [r4, #0]	@ zero_extendqisi2
 4395 32a0 033080E0 		add	r3, r0, r3
 4396 32a4 0030C4E5 		strb	r3, [r4, #0]
 4397 32a8 0030D5E5 		ldrb	r3, [r5, #0]	@ zero_extendqisi2
 4398 32ac 0020D4E5 		ldrb	r2, [r4, #0]	@ zero_extendqisi2
 4399 32b0 023083E0 		add	r3, r3, r2
 4400 32b4 0030C5E5 		strb	r3, [r5, #0]
 4401 32b8 FEFFFFEB 		bl	uart1_transmit
 4402 32bc 0100D6E5 		ldrb	r0, [r6, #1]	@ zero_extendqisi2
 4403 32c0 0030D4E5 		ldrb	r3, [r4, #0]	@ zero_extendqisi2
 4404 32c4 033080E0 		add	r3, r0, r3
 4405 32c8 0030C4E5 		strb	r3, [r4, #0]
 4406 32cc 0030D5E5 		ldrb	r3, [r5, #0]	@ zero_extendqisi2
 4407 32d0 0020D4E5 		ldrb	r2, [r4, #0]	@ zero_extendqisi2
 4408 32d4 023083E0 		add	r3, r3, r2
 4409 32d8 0030C5E5 		strb	r3, [r5, #0]
 4410 32dc FEFFFFEB 		bl	uart1_transmit
 4411 32e0 0000D4E5 		ldrb	r0, [r4, #0]	@ zero_extendqisi2
 4412 32e4 FEFFFFEB 		bl	uart1_transmit
 4413 32e8 0000D5E5 		ldrb	r0, [r5, #0]	@ zero_extendqisi2
 4414 32ec FEFFFFEB 		bl	uart1_transmit
 4415              	.L200:
 4416 32f0 E8231FE5 		ldr	r2, .L440+288
 4417 32f4 B030D2E1 		ldrh	r3, [r2, #0]
 4418 32f8 510053E3 		cmp	r3, #81
 4419 32fc 3B0D001A 		bne	.L50
 4420 3300 0F00A0E3 		mov	r0, #15
 4421 3304 FEFFFFEB 		bl	uart1_check_free_space
 4422 3308 FF0010E3 		tst	r0, #255
 4423 330c 7C231F05 		ldreq	r2, .L440+424
 4424 3310 0030D205 		ldreqb	r3, [r2, #0]	@ zero_extendqisi2
 4425 3314 01308302 		addeq	r3, r3, #1
 4426 3318 0030C205 		streqb	r3, [r2, #0]
 4427 331c 3B0D000A 		beq	.L50
 4428 3320 8C131FE5 		ldr	r1, .L440+428
 4429 3324 8CC31FE5 		ldr	ip, .L440+432
 4430 3328 B030D1E1 		ldrh	r3, [r1, #0]
 4431 332c B020DCE1 		ldrh	r2, [ip, #0]
 4432 3330 0F3083E2 		add	r3, r3, #15
 4433 3334 012082E2 		add	r2, r2, #1
 4434 3338 B030C1E1 		strh	r3, [r1, #0]	@ movhi 
 4435 333c B020CCE1 		strh	r2, [ip, #0]	@ movhi 
 4436 3340 9900A0E3 		mov	r0, #153
 4437 3344 A8431FE5 		ldr	r4, .L440+436
 4438 3348 FEFFFFEB 		bl	uart1_transmit
 4439 334c 0F00A0E3 		mov	r0, #15
 4440 3350 B0531FE5 		ldr	r5, .L440+440
 4441 3354 FEFFFFEB 		bl	uart1_transmit
 4442 3358 1930A0E3 		mov	r3, #25
 4443 335c 0030C4E5 		strb	r3, [r4, #0]
 4444 3360 0F3083E2 		add	r3, r3, #15
 4445 3364 0A00A0E3 		mov	r0, #10
 4446 3368 0030C5E5 		strb	r3, [r5, #0]
 4447 336c FEFFFFEB 		bl	uart1_transmit
 4448 3370 0030D4E5 		ldrb	r3, [r4, #0]	@ zero_extendqisi2
 4449 3374 093083E2 		add	r3, r3, #9
 4450 3378 0030C4E5 		strb	r3, [r4, #0]
 4451 337c 0030D5E5 		ldrb	r3, [r5, #0]	@ zero_extendqisi2
 4452 3380 0020D4E5 		ldrb	r2, [r4, #0]	@ zero_extendqisi2
 4453 3384 00641FE5 		ldr	r6, .L440+412
 4454 3388 023083E0 		add	r3, r3, r2
 4455 338c 0900A0E3 		mov	r0, #9
 4456 3390 0030C5E5 		strb	r3, [r5, #0]
 4457 3394 FEFFFFEB 		bl	uart1_transmit
 4458 3398 0000D6E5 		ldrb	r0, [r6, #0]	@ zero_extendqisi2
 4459 339c 0030D4E5 		ldrb	r3, [r4, #0]	@ zero_extendqisi2
 4460 33a0 033080E0 		add	r3, r0, r3
 4461 33a4 0030C4E5 		strb	r3, [r4, #0]
 4462 33a8 0030D5E5 		ldrb	r3, [r5, #0]	@ zero_extendqisi2
 4463 33ac 0020D4E5 		ldrb	r2, [r4, #0]	@ zero_extendqisi2
 4464 33b0 023083E0 		add	r3, r3, r2
 4465 33b4 0030C5E5 		strb	r3, [r5, #0]
 4466 33b8 FEFFFFEB 		bl	uart1_transmit
 4467 33bc 0100D6E5 		ldrb	r0, [r6, #1]	@ zero_extendqisi2
 4468 33c0 0030D4E5 		ldrb	r3, [r4, #0]	@ zero_extendqisi2
 4469 33c4 033080E0 		add	r3, r0, r3
 4470 33c8 0030C4E5 		strb	r3, [r4, #0]
 4471 33cc 0030D5E5 		ldrb	r3, [r5, #0]	@ zero_extendqisi2
 4472 33d0 0020D4E5 		ldrb	r2, [r4, #0]	@ zero_extendqisi2
 4473 33d4 023083E0 		add	r3, r3, r2
 4474 33d8 0030C5E5 		strb	r3, [r5, #0]
 4475 33dc FEFFFFEB 		bl	uart1_transmit
 4476 33e0 0200D6E5 		ldrb	r0, [r6, #2]	@ zero_extendqisi2
 4477 33e4 0030D4E5 		ldrb	r3, [r4, #0]	@ zero_extendqisi2
 4478 33e8 033080E0 		add	r3, r0, r3
 4479 33ec 0030C4E5 		strb	r3, [r4, #0]
 4480 33f0 0030D5E5 		ldrb	r3, [r5, #0]	@ zero_extendqisi2
 4481 33f4 0020D4E5 		ldrb	r2, [r4, #0]	@ zero_extendqisi2
 4482 33f8 023083E0 		add	r3, r3, r2
 4483 33fc 0030C5E5 		strb	r3, [r5, #0]
 4484 3400 FEFFFFEB 		bl	uart1_transmit
 4485 3404 0300D6E5 		ldrb	r0, [r6, #3]	@ zero_extendqisi2
 4486 3408 0030D4E5 		ldrb	r3, [r4, #0]	@ zero_extendqisi2
 4487 340c 033080E0 		add	r3, r0, r3
 4488 3410 0030C4E5 		strb	r3, [r4, #0]
 4489 3414 0030D5E5 		ldrb	r3, [r5, #0]	@ zero_extendqisi2
 4490 3418 0020D4E5 		ldrb	r2, [r4, #0]	@ zero_extendqisi2
 4491 341c 90641FE5 		ldr	r6, .L440+420
 4492 3420 023083E0 		add	r3, r3, r2
 4493 3424 0030C5E5 		strb	r3, [r5, #0]
 4494 3428 FEFFFFEB 		bl	uart1_transmit
 4495 342c 0000D6E5 		ldrb	r0, [r6, #0]	@ zero_extendqisi2
 4496 3430 0030D4E5 		ldrb	r3, [r4, #0]	@ zero_extendqisi2
 4497 3434 033080E0 		add	r3, r0, r3
 4498 3438 0030C4E5 		strb	r3, [r4, #0]
 4499 343c 0030D5E5 		ldrb	r3, [r5, #0]	@ zero_extendqisi2
 4500 3440 0020D4E5 		ldrb	r2, [r4, #0]	@ zero_extendqisi2
 4501 3444 023083E0 		add	r3, r3, r2
 4502 3448 0030C5E5 		strb	r3, [r5, #0]
 4503 344c FEFFFFEB 		bl	uart1_transmit
 4504 3450 0100D6E5 		ldrb	r0, [r6, #1]	@ zero_extendqisi2
 4505 3454 0030D4E5 		ldrb	r3, [r4, #0]	@ zero_extendqisi2
 4506 3458 033080E0 		add	r3, r0, r3
 4507 345c 0030C4E5 		strb	r3, [r4, #0]
 4508 3460 0030D5E5 		ldrb	r3, [r5, #0]	@ zero_extendqisi2
 4509 3464 0020D4E5 		ldrb	r2, [r4, #0]	@ zero_extendqisi2
 4510 3468 023083E0 		add	r3, r3, r2
 4511 346c 0030C5E5 		strb	r3, [r5, #0]
 4512 3470 FEFFFFEB 		bl	uart1_transmit
 4513 3474 0200D6E5 		ldrb	r0, [r6, #2]	@ zero_extendqisi2
 4514 3478 0030D4E5 		ldrb	r3, [r4, #0]	@ zero_extendqisi2
 4515 347c 033080E0 		add	r3, r0, r3
 4516 3480 0030C4E5 		strb	r3, [r4, #0]
 4517 3484 0030D5E5 		ldrb	r3, [r5, #0]	@ zero_extendqisi2
 4518 3488 0020D4E5 		ldrb	r2, [r4, #0]	@ zero_extendqisi2
 4519 348c 023083E0 		add	r3, r3, r2
 4520 3490 0030C5E5 		strb	r3, [r5, #0]
 4521 3494 FEFFFFEB 		bl	uart1_transmit
 4522 3498 0300D6E5 		ldrb	r0, [r6, #3]	@ zero_extendqisi2
 4523 349c 0030D4E5 		ldrb	r3, [r4, #0]	@ zero_extendqisi2
 4524 34a0 033080E0 		add	r3, r0, r3
 4525 34a4 0030C4E5 		strb	r3, [r4, #0]
 4526 34a8 0030D5E5 		ldrb	r3, [r5, #0]	@ zero_extendqisi2
 4527 34ac 0020D4E5 		ldrb	r2, [r4, #0]	@ zero_extendqisi2
 4528 34b0 023083E0 		add	r3, r3, r2
 4529 34b4 0030C5E5 		strb	r3, [r5, #0]
 4530 34b8 FEFFFFEB 		bl	uart1_transmit
 4531 34bc 10351FE5 		ldr	r3, .L440+452
 4532 34c0 0000D3E5 		ldrb	r0, [r3, #0]	@ zero_extendqisi2
 4533 34c4 0030D4E5 		ldrb	r3, [r4, #0]	@ zero_extendqisi2
 4534 34c8 033080E0 		add	r3, r0, r3
 4535 34cc 0030C4E5 		strb	r3, [r4, #0]
 4536 34d0 0030D5E5 		ldrb	r3, [r5, #0]	@ zero_extendqisi2
 4537 34d4 0020D4E5 		ldrb	r2, [r4, #0]	@ zero_extendqisi2
 4538 34d8 023083E0 		add	r3, r3, r2
 4539 34dc 0030C5E5 		strb	r3, [r5, #0]
 4540 34e0 FEFFFFEB 		bl	uart1_transmit
 4541 34e4 0000D4E5 		ldrb	r0, [r4, #0]	@ zero_extendqisi2
 4542 34e8 FEFFFFEB 		bl	uart1_transmit
 4543 34ec 0000D5E5 		ldrb	r0, [r5, #0]	@ zero_extendqisi2
 4544 34f0 FEFFFFEB 		bl	uart1_transmit
 4545              	.L50:
 4546 34f4 E8251FE5 		ldr	r2, .L440+292
 4547 34f8 0030D2E5 		ldrb	r3, [r2, #0]	@ zero_extendqisi2
 4548 34fc 010053E3 		cmp	r3, #1
 4549 3500 9F18001A 		bne	.L206
 4550 3504 F4051FE5 		ldr	r0, .L440+296
 4551 3508 0030D0E5 		ldrb	r3, [r0, #0]	@ zero_extendqisi2
 4552 350c 013083E2 		add	r3, r3, #1
 4553 3510 0030C0E5 		strb	r3, [r0, #0]
 4554 3514 0030D0E5 		ldrb	r3, [r0, #0]	@ zero_extendqisi2
 4555 3518 04461FE5 		ldr	r4, .L440+300
 4556 351c 3E0053E3 		cmp	r3, #62
 4557 3520 0030A083 		movhi	r3, #0
 4558 3524 0030C085 		strhib	r3, [r0, #0]
 4559 3528 0030D4E5 		ldrb	r3, [r4, #0]	@ zero_extendqisi2
 4560 352c 013083E2 		add	r3, r3, #1
 4561 3530 0030C4E5 		strb	r3, [r4, #0]
 4562 3534 0030D4E5 		ldrb	r3, [r4, #0]	@ zero_extendqisi2
 4563 3538 20761FE5 		ldr	r7, .L440+304
 4564 353c 410053E3 		cmp	r3, #65
 4565 3540 0030A083 		movhi	r3, #0
 4566 3544 0030C485 		strhib	r3, [r4, #0]
 4567 3548 0030D7E5 		ldrb	r3, [r7, #0]	@ zero_extendqisi2
 4568 354c 013083E2 		add	r3, r3, #1
 4569 3550 0030C7E5 		strb	r3, [r7, #0]
 4570 3554 0030D7E5 		ldrb	r3, [r7, #0]	@ zero_extendqisi2
 4571 3558 3C861FE5 		ldr	r8, .L440+308
 4572 355c 4D0053E3 		cmp	r3, #77
 4573 3560 0030A083 		movhi	r3, #0
 4574 3564 0030C785 		strhib	r3, [r7, #0]
 4575 3568 0030D8E5 		ldrb	r3, [r8, #0]	@ zero_extendqisi2
 4576 356c 013083E2 		add	r3, r3, #1
 4577 3570 0030C8E5 		strb	r3, [r8, #0]
 4578 3574 0030D8E5 		ldrb	r3, [r8, #0]	@ zero_extendqisi2
 4579 3578 58A61FE5 		ldr	sl, .L440+312
 4580 357c 530053E3 		cmp	r3, #83
 4581 3580 0030A083 		movhi	r3, #0
 4582 3584 0030C885 		strhib	r3, [r8, #0]
 4583 3588 0030DAE5 		ldrb	r3, [sl, #0]	@ zero_extendqisi2
 4584 358c 013083E2 		add	r3, r3, #1
 4585 3590 0030CAE5 		strb	r3, [sl, #0]
 4586 3594 0030DAE5 		ldrb	r3, [sl, #0]	@ zero_extendqisi2
 4587 3598 74961FE5 		ldr	r9, .L440+316
 4588 359c 590053E3 		cmp	r3, #89
 4589 35a0 0030A083 		movhi	r3, #0
 4590 35a4 0030CA85 		strhib	r3, [sl, #0]
 4591 35a8 0030D9E5 		ldrb	r3, [r9, #0]	@ zero_extendqisi2
 4592 35ac 013083E2 		add	r3, r3, #1
 4593 35b0 0030C9E5 		strb	r3, [r9, #0]
 4594 35b4 0030D9E5 		ldrb	r3, [r9, #0]	@ zero_extendqisi2
 4595 35b8 90261FE5 		ldr	r2, .L440+320
 4596 35bc 7D0053E3 		cmp	r3, #125
 4597 35c0 0030A083 		movhi	r3, #0
 4598 35c4 0030C985 		strhib	r3, [r9, #0]
 4599 35c8 0030D2E5 		ldrb	r3, [r2, #0]	@ zero_extendqisi2
 4600 35cc 013083E2 		add	r3, r3, #1
 4601 35d0 0030C2E5 		strb	r3, [r2, #0]
 4602 35d4 0030D2E5 		ldrb	r3, [r2, #0]	@ zero_extendqisi2
 4603 35d8 B30053E3 		cmp	r3, #179
 4604 35dc 0030A083 		movhi	r3, #0
 4605 35e0 0030C285 		strhib	r3, [r2, #0]
 4606 35e4 B8261FE5 		ldr	r2, .L440+324
 4607 35e8 0030D2E5 		ldrb	r3, [r2, #0]	@ zero_extendqisi2
 4608 35ec 013083E2 		add	r3, r3, #1
 4609 35f0 0030C2E5 		strb	r3, [r2, #0]
 4610 35f4 0030D2E5 		ldrb	r3, [r2, #0]	@ zero_extendqisi2
 4611 35f8 B60053E3 		cmp	r3, #182
 4612 35fc 0030A083 		movhi	r3, #0
 4613 3600 0030C285 		strhib	r3, [r2, #0]
 4614 3604 D4261FE5 		ldr	r2, .L440+328
 4615 3608 0030D2E5 		ldrb	r3, [r2, #0]	@ zero_extendqisi2
 4616 360c 013083E2 		add	r3, r3, #1
 4617 3610 0030C2E5 		strb	r3, [r2, #0]
 4618 3614 0030D2E5 		ldrb	r3, [r2, #0]	@ zero_extendqisi2
 4619 3618 BF0053E3 		cmp	r3, #191
 4620 361c 0030A083 		movhi	r3, #0
 4621 3620 0030C285 		strhib	r3, [r2, #0]
 4622 3624 F0261FE5 		ldr	r2, .L440+332
 4623 3628 0030D2E5 		ldrb	r3, [r2, #0]	@ zero_extendqisi2
 4624 362c 013083E2 		add	r3, r3, #1
 4625 3630 0030C2E5 		strb	r3, [r2, #0]
 4626 3634 0030D2E5 		ldrb	r3, [r2, #0]	@ zero_extendqisi2
 4627 3638 EF0053E3 		cmp	r3, #239
 4628 363c 0030A083 		movhi	r3, #0
 4629 3640 0030C285 		strhib	r3, [r2, #0]
 4630 3644 0C271FE5 		ldr	r2, .L440+336
 4631 3648 0030D2E5 		ldrb	r3, [r2, #0]	@ zero_extendqisi2
 4632 364c 013083E2 		add	r3, r3, #1
 4633 3650 0030C2E5 		strb	r3, [r2, #0]
 4634 3654 0030D2E5 		ldrb	r3, [r2, #0]	@ zero_extendqisi2
 4635 3658 F20053E3 		cmp	r3, #242
 4636 365c 0030A083 		movhi	r3, #0
 4637 3660 0030C285 		strhib	r3, [r2, #0]
 4638 3664 28271FE5 		ldr	r2, .L440+340
 4639 3668 B030D2E1 		ldrh	r3, [r2, #0]
 4640 366c 013083E2 		add	r3, r3, #1
 4641 3670 B030C2E1 		strh	r3, [r2, #0]	@ movhi 
 4642 3674 B030D2E1 		ldrh	r3, [r2, #0]
 4643 3678 4B0F53E3 		cmp	r3, #300
 4644 367c 0030A023 		movcs	r3, #0	@ movhi
 4645 3680 B030C221 		strcsh	r3, [r2, #0]	@ movhi 
 4646 3684 40271FE5 		ldr	r2, .L440+348
 4647 3688 B030D2E1 		ldrh	r3, [r2, #0]
 4648 368c 013083E2 		add	r3, r3, #1
 4649 3690 B030C2E1 		strh	r3, [r2, #0]	@ movhi 
 4650 3694 54371FE5 		ldr	r3, .L440+344
 4651 3698 B020D2E1 		ldrh	r2, [r2, #0]
 4652 369c 030052E1 		cmp	r2, r3
 4653 36a0 5C371F85 		ldrhi	r3, .L440+348
 4654 36a4 0020A083 		movhi	r2, #0	@ movhi
 4655 36a8 B020C381 		strhih	r2, [r3, #0]	@ movhi 
 4656 36ac 64271FE5 		ldr	r2, .L440+352
 4657 36b0 B030D2E1 		ldrh	r3, [r2, #0]
 4658 36b4 013083E2 		add	r3, r3, #1
 4659 36b8 B030C2E1 		strh	r3, [r2, #0]	@ movhi 
 4660 36bc B030D2E1 		ldrh	r3, [r2, #0]
 4661 36c0 4E0F53E3 		cmp	r3, #312
 4662 36c4 0030A023 		movcs	r3, #0	@ movhi
 4663 36c8 B030C221 		strcsh	r3, [r2, #0]	@ movhi 
 4664 36cc 80271FE5 		ldr	r2, .L440+356
 4665 36d0 B030D2E1 		ldrh	r3, [r2, #0]
 4666 36d4 013083E2 		add	r3, r3, #1
 4667 36d8 B030C2E1 		strh	r3, [r2, #0]	@ movhi 
 4668 36dc B030D2E1 		ldrh	r3, [r2, #0]
 4669 36e0 90171FE5 		ldr	r1, .L440+360
 4670 36e4 870F53E3 		cmp	r3, #540
 4671 36e8 0030A023 		movcs	r3, #0	@ movhi
 4672 36ec B030C221 		strcsh	r3, [r2, #0]	@ movhi 
 4673 36f0 B030D1E1 		ldrh	r3, [r1, #0]
 4674 36f4 013083E2 		add	r3, r3, #1
 4675 36f8 B030C1E1 		strh	r3, [r1, #0]	@ movhi 
 4676 36fc A8371FE5 		ldr	r3, .L440+364
 4677 3700 B020D1E1 		ldrh	r2, [r1, #0]
 4678 3704 030052E1 		cmp	r2, r3
 4679 3708 0030D0E5 		ldrb	r3, [r0, #0]	@ zero_extendqisi2
 4680 370c 0020A083 		movhi	r2, #0	@ movhi
 4681 3710 B020C181 		strhih	r2, [r1, #0]	@ movhi 
 4682 3714 000053E3 		cmp	r3, #0
 4683 3718 FEFFFF0B 		bleq	gps_send
 4684              	.L223:
 4685 371c 0030D4E5 		ldrb	r3, [r4, #0]	@ zero_extendqisi2
 4686 3720 060053E3 		cmp	r3, #6
 4687 3724 7B0E001A 		bne	.L224
 4688 3728 D0371FE5 		ldr	r3, .L440+368
 4689 372c 000093E5 		ldr	r0, [r3, #0]	@ float
 4690 3730 0030A0E3 		mov	r3, #0	@ movhi
 4691 3734 B4334BE1 		strh	r3, [fp, #-52]	@ movhi 
 4692 3738 FEFFFFEB 		bl	__fixsfsi
 4693 373c B6034BE1 		strh	r0, [fp, #-54]	@ movhi 
 4694 3740 1400A0E3 		mov	r0, #20
 4695 3744 FEFFFFEB 		bl	uart1_check_free_space
 4696 3748 FF0010E3 		tst	r0, #255
 4697 374c BC271F05 		ldreq	r2, .L440+424
 4698 3750 0030D205 		ldreqb	r3, [r2, #0]	@ zero_extendqisi2
 4699 3754 01308302 		addeq	r3, r3, #1
 4700 3758 0030C205 		streqb	r3, [r2, #0]
 4701 375c 7B0E000A 		beq	.L224
 4702 3760 CC171FE5 		ldr	r1, .L440+428
 4703 3764 CCC71FE5 		ldr	ip, .L440+432
 4704 3768 B030D1E1 		ldrh	r3, [r1, #0]
 4705 376c B020DCE1 		ldrh	r2, [ip, #0]
 4706 3770 143083E2 		add	r3, r3, #20
 4707 3774 012082E2 		add	r2, r2, #1
 4708 3778 B030C1E1 		strh	r3, [r1, #0]	@ movhi 
 4709 377c B020CCE1 		strh	r2, [ip, #0]	@ movhi 
 4710 3780 9900A0E3 		mov	r0, #153
 4711 3784 E8471FE5 		ldr	r4, .L440+436
 4712 3788 FEFFFFEB 		bl	uart1_transmit
 4713 378c 1400A0E3 		mov	r0, #20
 4714 3790 F0571FE5 		ldr	r5, .L440+440
 4715 3794 FEFFFFEB 		bl	uart1_transmit
 4716 3798 1E30A0E3 		mov	r3, #30
 4717 379c 0030C4E5 		strb	r3, [r4, #0]
 4718 37a0 143083E2 		add	r3, r3, #20
 4719 37a4 0A00A0E3 		mov	r0, #10
 4720 37a8 0030C5E5 		strb	r3, [r5, #0]
 4721 37ac FEFFFFEB 		bl	uart1_transmit
 4722 37b0 0030D4E5 		ldrb	r3, [r4, #0]	@ zero_extendqisi2
 4723 37b4 0C3083E2 		add	r3, r3, #12
 4724 37b8 0030C4E5 		strb	r3, [r4, #0]
 4725 37bc 0030D5E5 		ldrb	r3, [r5, #0]	@ zero_extendqisi2
 4726 37c0 0020D4E5 		ldrb	r2, [r4, #0]	@ zero_extendqisi2
 4727 37c4 68681FE5 		ldr	r6, .L440+372
 4728 37c8 023083E0 		add	r3, r3, r2
 4729 37cc 0C00A0E3 		mov	r0, #12
 4730 37d0 0030C5E5 		strb	r3, [r5, #0]
 4731 37d4 FEFFFFEB 		bl	uart1_transmit
 4732 37d8 0000D6E5 		ldrb	r0, [r6, #0]	@ zero_extendqisi2
 4733 37dc 0030D4E5 		ldrb	r3, [r4, #0]	@ zero_extendqisi2
 4734 37e0 033080E0 		add	r3, r0, r3
 4735 37e4 0030C4E5 		strb	r3, [r4, #0]
 4736 37e8 0030D5E5 		ldrb	r3, [r5, #0]	@ zero_extendqisi2
 4737 37ec 0020D4E5 		ldrb	r2, [r4, #0]	@ zero_extendqisi2
 4738 37f0 023083E0 		add	r3, r3, r2
 4739 37f4 0030C5E5 		strb	r3, [r5, #0]
 4740 37f8 FEFFFFEB 		bl	uart1_transmit
 4741 37fc 0100D6E5 		ldrb	r0, [r6, #1]	@ zero_extendqisi2
 4742 3800 0030D4E5 		ldrb	r3, [r4, #0]	@ zero_extendqisi2
 4743 3804 033080E0 		add	r3, r0, r3
 4744 3808 0030C4E5 		strb	r3, [r4, #0]
 4745 380c 0030D5E5 		ldrb	r3, [r5, #0]	@ zero_extendqisi2
 4746 3810 0020D4E5 		ldrb	r2, [r4, #0]	@ zero_extendqisi2
 4747 3814 023083E0 		add	r3, r3, r2
 4748 3818 0030C5E5 		strb	r3, [r5, #0]
 4749 381c FEFFFFEB 		bl	uart1_transmit
 4750 3820 C0381FE5 		ldr	r3, .L440+376
 4751 3824 0000D3E5 		ldrb	r0, [r3, #0]	@ zero_extendqisi2
 4752 3828 0030D4E5 		ldrb	r3, [r4, #0]	@ zero_extendqisi2
 4753 382c 033080E0 		add	r3, r0, r3
 4754 3830 0030C4E5 		strb	r3, [r4, #0]
 4755 3834 0030D5E5 		ldrb	r3, [r5, #0]	@ zero_extendqisi2
 4756 3838 0020D4E5 		ldrb	r2, [r4, #0]	@ zero_extendqisi2
 4757 383c 023083E0 		add	r3, r3, r2
 4758 3840 0030C5E5 		strb	r3, [r5, #0]
 4759 3844 FEFFFFEB 		bl	uart1_transmit
 4760 3848 34005BE5 		ldrb	r0, [fp, #-52]	@ zero_extendqisi2
 4761 384c 0030D4E5 		ldrb	r3, [r4, #0]	@ zero_extendqisi2
 4762 3850 033080E0 		add	r3, r0, r3
 4763 3854 0030C4E5 		strb	r3, [r4, #0]
 4764 3858 0030D5E5 		ldrb	r3, [r5, #0]	@ zero_extendqisi2
 4765 385c 0020D4E5 		ldrb	r2, [r4, #0]	@ zero_extendqisi2
 4766 3860 023083E0 		add	r3, r3, r2
 4767 3864 0030C5E5 		strb	r3, [r5, #0]
 4768 3868 FEFFFFEB 		bl	uart1_transmit
 4769 386c 33005BE5 		ldrb	r0, [fp, #-51]	@ zero_extendqisi2
 4770 3870 0030D4E5 		ldrb	r3, [r4, #0]	@ zero_extendqisi2
 4771 3874 033080E0 		add	r3, r0, r3
 4772 3878 0030C4E5 		strb	r3, [r4, #0]
 4773 387c 0030D5E5 		ldrb	r3, [r5, #0]	@ zero_extendqisi2
 4774 3880 0020D4E5 		ldrb	r2, [r4, #0]	@ zero_extendqisi2
 4775 3884 20691FE5 		ldr	r6, .L440+380
 4776 3888 023083E0 		add	r3, r3, r2
 4777 388c 0030C5E5 		strb	r3, [r5, #0]
 4778 3890 FEFFFFEB 		bl	uart1_transmit
 4779 3894 0000D6E5 		ldrb	r0, [r6, #0]	@ zero_extendqisi2
 4780 3898 0030D4E5 		ldrb	r3, [r4, #0]	@ zero_extendqisi2
 4781 389c 033080E0 		add	r3, r0, r3
 4782 38a0 0030C4E5 		strb	r3, [r4, #0]
 4783 38a4 0030D5E5 		ldrb	r3, [r5, #0]	@ zero_extendqisi2
 4784 38a8 0020D4E5 		ldrb	r2, [r4, #0]	@ zero_extendqisi2
 4785 38ac 023083E0 		add	r3, r3, r2
 4786 38b0 0030C5E5 		strb	r3, [r5, #0]
 4787 38b4 FEFFFFEB 		bl	uart1_transmit
 4788 38b8 0100D6E5 		ldrb	r0, [r6, #1]	@ zero_extendqisi2
 4789 38bc 0030D4E5 		ldrb	r3, [r4, #0]	@ zero_extendqisi2
 4790 38c0 033080E0 		add	r3, r0, r3
 4791 38c4 0030C4E5 		strb	r3, [r4, #0]
 4792 38c8 0030D5E5 		ldrb	r3, [r5, #0]	@ zero_extendqisi2
 4793 38cc 0020D4E5 		ldrb	r2, [r4, #0]	@ zero_extendqisi2
 4794 38d0 023083E0 		add	r3, r3, r2
 4795 38d4 0030C5E5 		strb	r3, [r5, #0]
 4796 38d8 FEFFFFEB 		bl	uart1_transmit
 4797 38dc 74391FE5 		ldr	r3, .L440+384
 4798 38e0 0000D3E5 		ldrb	r0, [r3, #0]	@ zero_extendqisi2
 4799 38e4 0030D4E5 		ldrb	r3, [r4, #0]	@ zero_extendqisi2
 4800 38e8 033080E0 		add	r3, r0, r3
 4801 38ec 0030C4E5 		strb	r3, [r4, #0]
 4802 38f0 0030D5E5 		ldrb	r3, [r5, #0]	@ zero_extendqisi2
 4803 38f4 0020D4E5 		ldrb	r2, [r4, #0]	@ zero_extendqisi2
 4804 38f8 8C691FE5 		ldr	r6, .L440+388
 4805 38fc 023083E0 		add	r3, r3, r2
 4806 3900 0030C5E5 		strb	r3, [r5, #0]
 4807 3904 FEFFFFEB 		bl	uart1_transmit
 4808 3908 0000D6E5 		ldrb	r0, [r6, #0]	@ zero_extendqisi2
 4809 390c 0030D4E5 		ldrb	r3, [r4, #0]	@ zero_extendqisi2
 4810 3910 033080E0 		add	r3, r0, r3
 4811 3914 0030C4E5 		strb	r3, [r4, #0]
 4812 3918 0030D5E5 		ldrb	r3, [r5, #0]	@ zero_extendqisi2
 4813 391c 0020D4E5 		ldrb	r2, [r4, #0]	@ zero_extendqisi2
 4814 3920 023083E0 		add	r3, r3, r2
 4815 3924 0030C5E5 		strb	r3, [r5, #0]
 4816 3928 FEFFFFEB 		bl	uart1_transmit
 4817 392c 0100D6E5 		ldrb	r0, [r6, #1]	@ zero_extendqisi2
 4818 3930 0030D4E5 		ldrb	r3, [r4, #0]	@ zero_extendqisi2
 4819 3934 033080E0 		add	r3, r0, r3
 4820 3938 0030C4E5 		strb	r3, [r4, #0]
 4821 393c 0030D5E5 		ldrb	r3, [r5, #0]	@ zero_extendqisi2
 4822 3940 0020D4E5 		ldrb	r2, [r4, #0]	@ zero_extendqisi2
 4823 3944 D4691FE5 		ldr	r6, .L440+392
 4824 3948 023083E0 		add	r3, r3, r2
 4825 394c 0030C5E5 		strb	r3, [r5, #0]
 4826 3950 FEFFFFEB 		bl	uart1_transmit
 4827 3954 0000D6E5 		ldrb	r0, [r6, #0]	@ zero_extendqisi2
 4828 3958 0030D4E5 		ldrb	r3, [r4, #0]	@ zero_extendqisi2
 4829 395c 033080E0 		add	r3, r0, r3
 4830 3960 0030C4E5 		strb	r3, [r4, #0]
 4831 3964 0030D5E5 		ldrb	r3, [r5, #0]	@ zero_extendqisi2
 4832 3968 0020D4E5 		ldrb	r2, [r4, #0]	@ zero_extendqisi2
 4833 396c 023083E0 		add	r3, r3, r2
 4834 3970 0030C5E5 		strb	r3, [r5, #0]
 4835 3974 FEFFFFEB 		bl	uart1_transmit
 4836 3978 0100D6E5 		ldrb	r0, [r6, #1]	@ zero_extendqisi2
 4837 397c 0030D4E5 		ldrb	r3, [r4, #0]	@ zero_extendqisi2
 4838 3980 033080E0 		add	r3, r0, r3
 4839 3984 0030C4E5 		strb	r3, [r4, #0]
 4840 3988 0030D5E5 		ldrb	r3, [r5, #0]	@ zero_extendqisi2
 4841 398c 0020D4E5 		ldrb	r2, [r4, #0]	@ zero_extendqisi2
 4842 3990 023083E0 		add	r3, r3, r2
 4843 3994 0030C5E5 		strb	r3, [r5, #0]
 4844 3998 FEFFFFEB 		bl	uart1_transmit
 4845 399c 36005BE5 		ldrb	r0, [fp, #-54]	@ zero_extendqisi2
 4846 39a0 0030D4E5 		ldrb	r3, [r4, #0]	@ zero_extendqisi2
 4847 39a4 033080E0 		add	r3, r0, r3
 4848 39a8 0030C4E5 		strb	r3, [r4, #0]
 4849 39ac 0030D5E5 		ldrb	r3, [r5, #0]	@ zero_extendqisi2
 4850 39b0 0020D4E5 		ldrb	r2, [r4, #0]	@ zero_extendqisi2
 4851 39b4 023083E0 		add	r3, r3, r2
 4852 39b8 0030C5E5 		strb	r3, [r5, #0]
 4853 39bc FEFFFFEB 		bl	uart1_transmit
 4854 39c0 35005BE5 		ldrb	r0, [fp, #-53]	@ zero_extendqisi2
 4855 39c4 0030D4E5 		ldrb	r3, [r4, #0]	@ zero_extendqisi2
 4856 39c8 033080E0 		add	r3, r0, r3
 4857 39cc 0030C4E5 		strb	r3, [r4, #0]
 4858 39d0 0030D5E5 		ldrb	r3, [r5, #0]	@ zero_extendqisi2
 4859 39d4 0020D4E5 		ldrb	r2, [r4, #0]	@ zero_extendqisi2
 4860 39d8 023083E0 		add	r3, r3, r2
 4861 39dc 0030C5E5 		strb	r3, [r5, #0]
 4862 39e0 FEFFFFEB 		bl	uart1_transmit
 4863 39e4 0000D4E5 		ldrb	r0, [r4, #0]	@ zero_extendqisi2
 4864 39e8 FEFFFFEB 		bl	uart1_transmit
 4865 39ec 0000D5E5 		ldrb	r0, [r5, #0]	@ zero_extendqisi2
 4866 39f0 FEFFFFEB 		bl	uart1_transmit
 4867              	.L224:
 4868 39f4 0030D7E5 		ldrb	r3, [r7, #0]	@ zero_extendqisi2
 4869 39f8 0C0053E3 		cmp	r3, #12
 4870 39fc F10E001A 		bne	.L227
 4871 3a00 0E00A0E3 		mov	r0, #14
 4872 3a04 FEFFFFEB 		bl	uart1_check_free_space
 4873 3a08 FF0010E3 		tst	r0, #255
 4874 3a0c 7C2A1F05 		ldreq	r2, .L440+424
 4875 3a10 0030D205 		ldreqb	r3, [r2, #0]	@ zero_extendqisi2
 4876 3a14 01308302 		addeq	r3, r3, #1
 4877 3a18 0030C205 		streqb	r3, [r2, #0]
 4878 3a1c F10E000A 		beq	.L227
 4879 3a20 8C1A1FE5 		ldr	r1, .L440+428
 4880 3a24 8CCA1FE5 		ldr	ip, .L440+432
 4881 3a28 B030D1E1 		ldrh	r3, [r1, #0]
 4882 3a2c B020DCE1 		ldrh	r2, [ip, #0]
 4883 3a30 0E3083E2 		add	r3, r3, #14
 4884 3a34 012082E2 		add	r2, r2, #1
 4885 3a38 B030C1E1 		strh	r3, [r1, #0]	@ movhi 
 4886 3a3c B020CCE1 		strh	r2, [ip, #0]	@ movhi 
 4887 3a40 9900A0E3 		mov	r0, #153
 4888 3a44 A84A1FE5 		ldr	r4, .L440+436
 4889 3a48 FEFFFFEB 		bl	uart1_transmit
 4890 3a4c 0E00A0E3 		mov	r0, #14
 4891 3a50 B05A1FE5 		ldr	r5, .L440+440
 4892 3a54 FEFFFFEB 		bl	uart1_transmit
 4893 3a58 1830A0E3 		mov	r3, #24
 4894 3a5c 0030C4E5 		strb	r3, [r4, #0]
 4895 3a60 0E3083E2 		add	r3, r3, #14
 4896 3a64 0A00A0E3 		mov	r0, #10
 4897 3a68 0030C5E5 		strb	r3, [r5, #0]
 4898 3a6c FEFFFFEB 		bl	uart1_transmit
 4899 3a70 0030D4E5 		ldrb	r3, [r4, #0]	@ zero_extendqisi2
 4900 3a74 2A3083E2 		add	r3, r3, #42
 4901 3a78 0030C4E5 		strb	r3, [r4, #0]
 4902 3a7c 0030D5E5 		ldrb	r3, [r5, #0]	@ zero_extendqisi2
 4903 3a80 0020D4E5 		ldrb	r2, [r4, #0]	@ zero_extendqisi2
 4904 3a84 106B1FE5 		ldr	r6, .L440+396
 4905 3a88 023083E0 		add	r3, r3, r2
 4906 3a8c 2A00A0E3 		mov	r0, #42
 4907 3a90 0030C5E5 		strb	r3, [r5, #0]
 4908 3a94 FEFFFFEB 		bl	uart1_transmit
 4909 3a98 0000D6E5 		ldrb	r0, [r6, #0]	@ zero_extendqisi2
 4910 3a9c 0030D4E5 		ldrb	r3, [r4, #0]	@ zero_extendqisi2
 4911 3aa0 033080E0 		add	r3, r0, r3
 4912 3aa4 0030C4E5 		strb	r3, [r4, #0]
 4913 3aa8 0030D5E5 		ldrb	r3, [r5, #0]	@ zero_extendqisi2
 4914 3aac 0020D4E5 		ldrb	r2, [r4, #0]	@ zero_extendqisi2
 4915 3ab0 023083E0 		add	r3, r3, r2
 4916 3ab4 0030C5E5 		strb	r3, [r5, #0]
 4917 3ab8 FEFFFFEB 		bl	uart1_transmit
 4918 3abc 0100D6E5 		ldrb	r0, [r6, #1]	@ zero_extendqisi2
 4919 3ac0 0030D4E5 		ldrb	r3, [r4, #0]	@ zero_extendqisi2
 4920 3ac4 033080E0 		add	r3, r0, r3
 4921 3ac8 0030C4E5 		strb	r3, [r4, #0]
 4922 3acc 0030D5E5 		ldrb	r3, [r5, #0]	@ zero_extendqisi2
 4923 3ad0 0020D4E5 		ldrb	r2, [r4, #0]	@ zero_extendqisi2
 4924 3ad4 023083E0 		add	r3, r3, r2
 4925 3ad8 0030C5E5 		strb	r3, [r5, #0]
 4926 3adc FEFFFFEB 		bl	uart1_transmit
 4927 3ae0 0200D6E5 		ldrb	r0, [r6, #2]	@ zero_extendqisi2
 4928 3ae4 0030D4E5 		ldrb	r3, [r4, #0]	@ zero_extendqisi2
 4929 3ae8 033080E0 		add	r3, r0, r3
 4930 3aec 0030C4E5 		strb	r3, [r4, #0]
 4931 3af0 0030D5E5 		ldrb	r3, [r5, #0]	@ zero_extendqisi2
 4932 3af4 0020D4E5 		ldrb	r2, [r4, #0]	@ zero_extendqisi2
 4933 3af8 023083E0 		add	r3, r3, r2
 4934 3afc 0030C5E5 		strb	r3, [r5, #0]
 4935 3b00 FEFFFFEB 		bl	uart1_transmit
 4936 3b04 0300D6E5 		ldrb	r0, [r6, #3]	@ zero_extendqisi2
 4937 3b08 0030D4E5 		ldrb	r3, [r4, #0]	@ zero_extendqisi2
 4938 3b0c 033080E0 		add	r3, r0, r3
 4939 3b10 0030C4E5 		strb	r3, [r4, #0]
 4940 3b14 0030D5E5 		ldrb	r3, [r5, #0]	@ zero_extendqisi2
 4941 3b18 0020D4E5 		ldrb	r2, [r4, #0]	@ zero_extendqisi2
 4942 3b1c A46B1FE5 		ldr	r6, .L440+400
 4943 3b20 023083E0 		add	r3, r3, r2
 4944 3b24 0030C5E5 		strb	r3, [r5, #0]
 4945 3b28 FEFFFFEB 		bl	uart1_transmit
 4946 3b2c 0000D6E5 		ldrb	r0, [r6, #0]	@ zero_extendqisi2
 4947 3b30 0030D4E5 		ldrb	r3, [r4, #0]	@ zero_extendqisi2
 4948 3b34 033080E0 		add	r3, r0, r3
 4949 3b38 0030C4E5 		strb	r3, [r4, #0]
 4950 3b3c 0030D5E5 		ldrb	r3, [r5, #0]	@ zero_extendqisi2
 4951 3b40 0020D4E5 		ldrb	r2, [r4, #0]	@ zero_extendqisi2
 4952 3b44 023083E0 		add	r3, r3, r2
 4953 3b48 0030C5E5 		strb	r3, [r5, #0]
 4954 3b4c FEFFFFEB 		bl	uart1_transmit
 4955 3b50 0100D6E5 		ldrb	r0, [r6, #1]	@ zero_extendqisi2
 4956 3b54 0030D4E5 		ldrb	r3, [r4, #0]	@ zero_extendqisi2
 4957 3b58 033080E0 		add	r3, r0, r3
 4958 3b5c 0030C4E5 		strb	r3, [r4, #0]
 4959 3b60 0030D5E5 		ldrb	r3, [r5, #0]	@ zero_extendqisi2
 4960 3b64 0020D4E5 		ldrb	r2, [r4, #0]	@ zero_extendqisi2
 4961 3b68 023083E0 		add	r3, r3, r2
 4962 3b6c 0030C5E5 		strb	r3, [r5, #0]
 4963 3b70 FEFFFFEB 		bl	uart1_transmit
 4964 3b74 0200D6E5 		ldrb	r0, [r6, #2]	@ zero_extendqisi2
 4965 3b78 0030D4E5 		ldrb	r3, [r4, #0]	@ zero_extendqisi2
 4966 3b7c 033080E0 		add	r3, r0, r3
 4967 3b80 0030C4E5 		strb	r3, [r4, #0]
 4968 3b84 0030D5E5 		ldrb	r3, [r5, #0]	@ zero_extendqisi2
 4969 3b88 0020D4E5 		ldrb	r2, [r4, #0]	@ zero_extendqisi2
 4970 3b8c 023083E0 		add	r3, r3, r2
 4971 3b90 0030C5E5 		strb	r3, [r5, #0]
 4972 3b94 FEFFFFEB 		bl	uart1_transmit
 4973 3b98 0300D6E5 		ldrb	r0, [r6, #3]	@ zero_extendqisi2
 4974 3b9c 0030D4E5 		ldrb	r3, [r4, #0]	@ zero_extendqisi2
 4975 3ba0 033080E0 		add	r3, r0, r3
 4976 3ba4 0030C4E5 		strb	r3, [r4, #0]
 4977 3ba8 0030D5E5 		ldrb	r3, [r5, #0]	@ zero_extendqisi2
 4978 3bac 0020D4E5 		ldrb	r2, [r4, #0]	@ zero_extendqisi2
 4979 3bb0 023083E0 		add	r3, r3, r2
 4980 3bb4 0030C5E5 		strb	r3, [r5, #0]
 4981 3bb8 FEFFFFEB 		bl	uart1_transmit
 4982 3bbc 0000D4E5 		ldrb	r0, [r4, #0]	@ zero_extendqisi2
 4983 3bc0 FEFFFFEB 		bl	uart1_transmit
 4984 3bc4 0000D5E5 		ldrb	r0, [r5, #0]	@ zero_extendqisi2
 4985 3bc8 FEFFFFEB 		bl	uart1_transmit
 4986              	.L227:
 4987 3bcc 0030D8E5 		ldrb	r3, [r8, #0]	@ zero_extendqisi2
 4988 3bd0 120053E3 		cmp	r3, #18
 4989 3bd4 C30F001A 		bne	.L230
 4990 3bd8 5C6C1FE5 		ldr	r6, .L440+404
 4991 3bdc 0030D6E5 		ldrb	r3, [r6, #0]	@ zero_extendqisi2
 4992 3be0 013083E2 		add	r3, r3, #1
 4993 3be4 0030C6E5 		strb	r3, [r6, #0]
 4994 3be8 683C1FE5 		ldr	r3, .L440+408
 4995 3bec 0020D3E5 		ldrb	r2, [r3, #0]	@ zero_extendqisi2
 4996 3bf0 0030D6E5 		ldrb	r3, [r6, #0]	@ zero_extendqisi2
 4997 3bf4 020053E1 		cmp	r3, r2
 4998 3bf8 0030A023 		movcs	r3, #0
 4999 3bfc 0030C625 		strcsb	r3, [r6, #0]
 5000 3c00 7C3C1FE5 		ldr	r3, .L440+412
 5001 3c04 000093E5 		ldr	r0, [r3, #0]
 5002 3c08 FEFFFFEB 		bl	__floatsisf
 5003 3c0c 0040D6E5 		ldrb	r4, [r6, #0]	@ zero_extendqisi2
 5004 3c10 887C1FE5 		ldr	r7, .L440+416
 5005 3c14 844084E0 		add	r4, r4, r4, asl #1
 5006 3c18 0441A0E1 		mov	r4, r4, asl #2
 5007 3c1c 071094E7 		ldr	r1, [r4, r7]	@ float
 5008 3c20 FEFFFFEB 		bl	__addsf3
 5009 3c24 983C1FE5 		ldr	r3, .L440+420
 5010 3c28 60000BE5 		str	r0, [fp, #-96]	@ float
 5011 3c2c 074084E0 		add	r4, r4, r7
 5012 3c30 000093E5 		ldr	r0, [r3, #0]
 5013 3c34 FEFFFFEB 		bl	__floatsisf
 5014 3c38 041094E5 		ldr	r1, [r4, #4]	@ float
 5015 3c3c FEFFFFEB 		bl	__addsf3
 5016 3c40 64000BE5 		str	r0, [fp, #-100]	@ float
 5017 3c44 1400A0E3 		mov	r0, #20
 5018 3c48 FEFFFFEB 		bl	uart1_check_free_space
 5019 3c4c FF0010E3 		tst	r0, #255
 5020 3c50 C02C1F05 		ldreq	r2, .L440+424
 5021 3c54 0030D205 		ldreqb	r3, [r2, #0]	@ zero_extendqisi2
 5022 3c58 01308302 		addeq	r3, r3, #1
 5023 3c5c 0030C205 		streqb	r3, [r2, #0]
 5024 3c60 C30F000A 		beq	.L230
 5025 3c64 D01C1FE5 		ldr	r1, .L440+428
 5026 3c68 D0CC1FE5 		ldr	ip, .L440+432
 5027 3c6c B030D1E1 		ldrh	r3, [r1, #0]
 5028 3c70 B020DCE1 		ldrh	r2, [ip, #0]
 5029 3c74 143083E2 		add	r3, r3, #20
 5030 3c78 012082E2 		add	r2, r2, #1
 5031 3c7c B030C1E1 		strh	r3, [r1, #0]	@ movhi 
 5032 3c80 B020CCE1 		strh	r2, [ip, #0]	@ movhi 
 5033 3c84 9900A0E3 		mov	r0, #153
 5034 3c88 EC4C1FE5 		ldr	r4, .L440+436
 5035 3c8c FEFFFFEB 		bl	uart1_transmit
 5036 3c90 1400A0E3 		mov	r0, #20
 5037 3c94 F45C1FE5 		ldr	r5, .L440+440
 5038 3c98 FEFFFFEB 		bl	uart1_transmit
 5039 3c9c 1E30A0E3 		mov	r3, #30
 5040 3ca0 0030C4E5 		strb	r3, [r4, #0]
 5041 3ca4 143083E2 		add	r3, r3, #20
 5042 3ca8 0A00A0E3 		mov	r0, #10
 5043 3cac 0030C5E5 		strb	r3, [r5, #0]
 5044 3cb0 FEFFFFEB 		bl	uart1_transmit
 5045 3cb4 0030D4E5 		ldrb	r3, [r4, #0]	@ zero_extendqisi2
 5046 3cb8 233083E2 		add	r3, r3, #35
 5047 3cbc 0030C4E5 		strb	r3, [r4, #0]
 5048 3cc0 0030D5E5 		ldrb	r3, [r5, #0]	@ zero_extendqisi2
 5049 3cc4 0020D4E5 		ldrb	r2, [r4, #0]	@ zero_extendqisi2
 5050 3cc8 023083E0 		add	r3, r3, r2
 5051 3ccc 2300A0E3 		mov	r0, #35
 5052 3cd0 0030C5E5 		strb	r3, [r5, #0]
 5053 3cd4 FEFFFFEB 		bl	uart1_transmit
 5054 3cd8 0000D6E5 		ldrb	r0, [r6, #0]	@ zero_extendqisi2
 5055 3cdc 0030D4E5 		ldrb	r3, [r4, #0]	@ zero_extendqisi2
 5056 3ce0 033080E0 		add	r3, r0, r3
 5057 3ce4 0030C4E5 		strb	r3, [r4, #0]
 5058 3ce8 0030D5E5 		ldrb	r3, [r5, #0]	@ zero_extendqisi2
 5059 3cec 0020D4E5 		ldrb	r2, [r4, #0]	@ zero_extendqisi2
 5060 3cf0 023083E0 		add	r3, r3, r2
 5061 3cf4 0030C5E5 		strb	r3, [r5, #0]
 5062 3cf8 FEFFFFEB 		bl	uart1_transmit
 5063 3cfc 60005BE5 		ldrb	r0, [fp, #-96]	@ zero_extendqisi2
 5064 3d00 0030D4E5 		ldrb	r3, [r4, #0]	@ zero_extendqisi2
 5065 3d04 033080E0 		add	r3, r0, r3
 5066 3d08 0030C4E5 		strb	r3, [r4, #0]
 5067 3d0c 0030D5E5 		ldrb	r3, [r5, #0]	@ zero_extendqisi2
 5068 3d10 0020D4E5 		ldrb	r2, [r4, #0]	@ zero_extendqisi2
 5069 3d14 023083E0 		add	r3, r3, r2
 5070 3d18 0030C5E5 		strb	r3, [r5, #0]
 5071 3d1c FEFFFFEB 		bl	uart1_transmit
 5072 3d20 5F005BE5 		ldrb	r0, [fp, #-95]	@ zero_extendqisi2
 5073 3d24 0030D4E5 		ldrb	r3, [r4, #0]	@ zero_extendqisi2
 5074 3d28 033080E0 		add	r3, r0, r3
 5075 3d2c 0030C4E5 		strb	r3, [r4, #0]
 5076 3d30 0030D5E5 		ldrb	r3, [r5, #0]	@ zero_extendqisi2
 5077 3d34 0020D4E5 		ldrb	r2, [r4, #0]	@ zero_extendqisi2
 5078 3d38 023083E0 		add	r3, r3, r2
 5079 3d3c 0030C5E5 		strb	r3, [r5, #0]
 5080 3d40 FEFFFFEB 		bl	uart1_transmit
 5081 3d44 5E005BE5 		ldrb	r0, [fp, #-94]	@ zero_extendqisi2
 5082 3d48 0030D4E5 		ldrb	r3, [r4, #0]	@ zero_extendqisi2
 5083 3d4c 033080E0 		add	r3, r0, r3
 5084 3d50 0030C4E5 		strb	r3, [r4, #0]
 5085 3d54 0030D5E5 		ldrb	r3, [r5, #0]	@ zero_extendqisi2
 5086 3d58 0020D4E5 		ldrb	r2, [r4, #0]	@ zero_extendqisi2
 5087 3d5c 023083E0 		add	r3, r3, r2
 5088 3d60 0030C5E5 		strb	r3, [r5, #0]
 5089 3d64 FEFFFFEB 		bl	uart1_transmit
 5090 3d68 5D005BE5 		ldrb	r0, [fp, #-93]	@ zero_extendqisi2
 5091 3d6c 0030D4E5 		ldrb	r3, [r4, #0]	@ zero_extendqisi2
 5092 3d70 033080E0 		add	r3, r0, r3
 5093 3d74 0030C4E5 		strb	r3, [r4, #0]
 5094 3d78 0030D5E5 		ldrb	r3, [r5, #0]	@ zero_extendqisi2
 5095 3d7c 0020D4E5 		ldrb	r2, [r4, #0]	@ zero_extendqisi2
 5096 3d80 023083E0 		add	r3, r3, r2
 5097 3d84 0030C5E5 		strb	r3, [r5, #0]
 5098 3d88 FEFFFFEB 		bl	uart1_transmit
 5099 3d8c 64005BE5 		ldrb	r0, [fp, #-100]	@ zero_extendqisi2
 5100 3d90 0030D4E5 		ldrb	r3, [r4, #0]	@ zero_extendqisi2
 5101 3d94 033080E0 		add	r3, r0, r3
 5102 3d98 0030C4E5 		strb	r3, [r4, #0]
 5103 3d9c 0030D5E5 		ldrb	r3, [r5, #0]	@ zero_extendqisi2
 5104 3da0 0020D4E5 		ldrb	r2, [r4, #0]	@ zero_extendqisi2
 5105 3da4 023083E0 		add	r3, r3, r2
 5106 3da8 0030C5E5 		strb	r3, [r5, #0]
 5107 3dac FEFFFFEB 		bl	uart1_transmit
 5108 3db0 63005BE5 		ldrb	r0, [fp, #-99]	@ zero_extendqisi2
 5109 3db4 0030D4E5 		ldrb	r3, [r4, #0]	@ zero_extendqisi2
 5110 3db8 033080E0 		add	r3, r0, r3
 5111 3dbc 0030C4E5 		strb	r3, [r4, #0]
 5112 3dc0 0030D5E5 		ldrb	r3, [r5, #0]	@ zero_extendqisi2
 5113 3dc4 0020D4E5 		ldrb	r2, [r4, #0]	@ zero_extendqisi2
 5114 3dc8 023083E0 		add	r3, r3, r2
 5115 3dcc 0030C5E5 		strb	r3, [r5, #0]
 5116 3dd0 FEFFFFEB 		bl	uart1_transmit
 5117 3dd4 62005BE5 		ldrb	r0, [fp, #-98]	@ zero_extendqisi2
 5118 3dd8 0030D4E5 		ldrb	r3, [r4, #0]	@ zero_extendqisi2
 5119 3ddc 033080E0 		add	r3, r0, r3
 5120 3de0 0030C4E5 		strb	r3, [r4, #0]
 5121 3de4 0030D5E5 		ldrb	r3, [r5, #0]	@ zero_extendqisi2
 5122 3de8 0020D4E5 		ldrb	r2, [r4, #0]	@ zero_extendqisi2
 5123 3dec 023083E0 		add	r3, r3, r2
 5124 3df0 0030C5E5 		strb	r3, [r5, #0]
 5125 3df4 FEFFFFEB 		bl	uart1_transmit
 5126 3df8 61005BE5 		ldrb	r0, [fp, #-97]	@ zero_extendqisi2
 5127 3dfc 0030D4E5 		ldrb	r3, [r4, #0]	@ zero_extendqisi2
 5128 3e00 033080E0 		add	r3, r0, r3
 5129 3e04 0030C4E5 		strb	r3, [r4, #0]
 5130 3e08 0030D5E5 		ldrb	r3, [r5, #0]	@ zero_extendqisi2
 5131 3e0c 0020D4E5 		ldrb	r2, [r4, #0]	@ zero_extendqisi2
 5132 3e10 023083E0 		add	r3, r3, r2
 5133 3e14 0030C5E5 		strb	r3, [r5, #0]
 5134 3e18 FEFFFFEB 		bl	uart1_transmit
 5135 3e1c 0030D6E5 		ldrb	r3, [r6, #0]	@ zero_extendqisi2
 5136 3e20 082087E2 		add	r2, r7, #8
 5137 3e24 833083E0 		add	r3, r3, r3, asl #1
 5138 3e28 0301D2E7 		ldrb	r0, [r2, r3, asl #2]	@ zero_extendqisi2
 5139 3e2c 0030D4E5 		ldrb	r3, [r4, #0]	@ zero_extendqisi2
 5140 3e30 033080E0 		add	r3, r0, r3
 5141 3e34 0030C4E5 		strb	r3, [r4, #0]
 5142 3e38 0030D5E5 		ldrb	r3, [r5, #0]	@ zero_extendqisi2
 5143 3e3c 0020D4E5 		ldrb	r2, [r4, #0]	@ zero_extendqisi2
 5144 3e40 023083E0 		add	r3, r3, r2
 5145 3e44 0030C5E5 		strb	r3, [r5, #0]
 5146 3e48 FEFFFFEB 		bl	uart1_transmit
 5147 3e4c 0030D6E5 		ldrb	r3, [r6, #0]	@ zero_extendqisi2
 5148 3e50 092087E2 		add	r2, r7, #9
 5149 3e54 833083E0 		add	r3, r3, r3, asl #1
 5150 3e58 0301D2E7 		ldrb	r0, [r2, r3, asl #2]	@ zero_extendqisi2
 5151 3e5c 0030D4E5 		ldrb	r3, [r4, #0]	@ zero_extendqisi2
 5152 3e60 033080E0 		add	r3, r0, r3
 5153 3e64 0030C4E5 		strb	r3, [r4, #0]
 5154 3e68 0030D5E5 		ldrb	r3, [r5, #0]	@ zero_extendqisi2
 5155 3e6c 0020D4E5 		ldrb	r2, [r4, #0]	@ zero_extendqisi2
 5156 3e70 023083E0 		add	r3, r3, r2
 5157 3e74 0030C5E5 		strb	r3, [r5, #0]
 5158 3e78 FEFFFFEB 		bl	uart1_transmit
 5159 3e7c 0030D6E5 		ldrb	r3, [r6, #0]	@ zero_extendqisi2
 5160 3e80 0A2087E2 		add	r2, r7, #10
 5161 3e84 833083E0 		add	r3, r3, r3, asl #1
 5162 3e88 0301D2E7 		ldrb	r0, [r2, r3, asl #2]	@ zero_extendqisi2
 5163 3e8c 0030D4E5 		ldrb	r3, [r4, #0]	@ zero_extendqisi2
 5164 3e90 033080E0 		add	r3, r0, r3
 5165 3e94 0030C4E5 		strb	r3, [r4, #0]
 5166 3e98 0030D5E5 		ldrb	r3, [r5, #0]	@ zero_extendqisi2
 5167 3e9c 0020D4E5 		ldrb	r2, [r4, #0]	@ zero_extendqisi2
 5168 3ea0 023083E0 		add	r3, r3, r2
 5169 3ea4 0030C5E5 		strb	r3, [r5, #0]
 5170 3ea8 FEFFFFEB 		bl	uart1_transmit
 5171 3eac 0030D6E5 		ldrb	r3, [r6, #0]	@ zero_extendqisi2
 5172 3eb0 0B2087E2 		add	r2, r7, #11
 5173 3eb4 833083E0 		add	r3, r3, r3, asl #1
 5174 3eb8 0301D2E7 		ldrb	r0, [r2, r3, asl #2]	@ zero_extendqisi2
 5175 3ebc 0030D4E5 		ldrb	r3, [r4, #0]	@ zero_extendqisi2
 5176 3ec0 033080E0 		add	r3, r0, r3
 5177 3ec4 0030C4E5 		strb	r3, [r4, #0]
 5178 3ec8 0030D5E5 		ldrb	r3, [r5, #0]	@ zero_extendqisi2
 5179 3ecc 0020D4E5 		ldrb	r2, [r4, #0]	@ zero_extendqisi2
 5180 3ed0 023083E0 		add	r3, r3, r2
 5181 3ed4 0030C5E5 		strb	r3, [r5, #0]
 5182 3ed8 FEFFFFEB 		bl	uart1_transmit
 5183 3edc 303F1FE5 		ldr	r3, .L440+452
 5184 3ee0 0000D3E5 		ldrb	r0, [r3, #0]	@ zero_extendqisi2
 5185 3ee4 0030D4E5 		ldrb	r3, [r4, #0]	@ zero_extendqisi2
 5186 3ee8 033080E0 		add	r3, r0, r3
 5187 3eec 0030C4E5 		strb	r3, [r4, #0]
 5188 3ef0 0030D5E5 		ldrb	r3, [r5, #0]	@ zero_extendqisi2
 5189 3ef4 0020D4E5 		ldrb	r2, [r4, #0]	@ zero_extendqisi2
 5190 3ef8 023083E0 		add	r3, r3, r2
 5191 3efc 0030C5E5 		strb	r3, [r5, #0]
 5192 3f00 FEFFFFEB 		bl	uart1_transmit
 5193 3f04 0000D4E5 		ldrb	r0, [r4, #0]	@ zero_extendqisi2
 5194 3f08 FEFFFFEB 		bl	uart1_transmit
 5195 3f0c 0000D5E5 		ldrb	r0, [r5, #0]	@ zero_extendqisi2
 5196 3f10 FEFFFFEB 		bl	uart1_transmit
 5197              	.L230:
 5198 3f14 0030DAE5 		ldrb	r3, [sl, #0]	@ zero_extendqisi2
 5199 3f18 180053E3 		cmp	r3, #24
 5200 3f1c 0511001A 		bne	.L234
 5201 3f20 706F1FE5 		ldr	r6, .L440+456
 5202 3f24 0030D6E5 		ldrb	r3, [r6, #0]	@ zero_extendqisi2
 5203 3f28 2E0053E3 		cmp	r3, #46
 5204 3f2c 0030A083 		movhi	r3, #0
 5205 3f30 0030C685 		strhib	r3, [r6, #0]
 5206 3f34 0030D6E5 		ldrb	r3, [r6, #0]	@ zero_extendqisi2
 5207 3f38 2E0053E3 		cmp	r3, #46
 5208 3f3c 03F19F97 		ldrls	pc, [pc, r3, asl #2]
 5209 3f40 A91000EA 		b	.L293
 5210              		.p2align 2
 5211              	.L294:
 5212 3f44 00400000 		.word	.L237
 5213 3f48 08400000 		.word	.L238
 5214 3f4c 14400000 		.word	.L239
 5215 3f50 1C400000 		.word	.L240
 5216 3f54 24400000 		.word	.L242
 5217 3f58 2C400000 		.word	.L244
 5218 3f5c 50400000 		.word	.L246
 5219 3f60 58400000 		.word	.L248
 5220 3f64 60400000 		.word	.L250
 5221 3f68 68400000 		.word	.L252
 5222 3f6c 74400000 		.word	.L254
 5223 3f70 94400000 		.word	.L256
 5224 3f74 64410000 		.word	.L284
 5225 3f78 9C400000 		.word	.L259
 5226 3f7c A4400000 		.word	.L260
 5227 3f80 AC400000 		.word	.L261
 5228 3f84 B4400000 		.word	.L262
 5229 3f88 BC400000 		.word	.L263
 5230 3f8c C4400000 		.word	.L264
 5231 3f90 CC400000 		.word	.L265
 5232 3f94 D4400000 		.word	.L266
 5233 3f98 DC400000 		.word	.L267
 5234 3f9c E4400000 		.word	.L268
 5235 3fa0 EC400000 		.word	.L269
 5236 3fa4 F4400000 		.word	.L270
 5237 3fa8 FC400000 		.word	.L271
 5238 3fac 04410000 		.word	.L272
 5239 3fb0 0C410000 		.word	.L273
 5240 3fb4 14410000 		.word	.L274
 5241 3fb8 1C410000 		.word	.L275
 5242 3fbc 24410000 		.word	.L276
 5243 3fc0 2C410000 		.word	.L277
 5244 3fc4 34410000 		.word	.L278
 5245 3fc8 3C410000 		.word	.L279
 5246 3fcc 44410000 		.word	.L280
 5247 3fd0 4C410000 		.word	.L281
 5248 3fd4 54410000 		.word	.L282
 5249 3fd8 5C410000 		.word	.L283
 5250 3fdc 64410000 		.word	.L284
 5251 3fe0 6C410000 		.word	.L285
 5252 3fe4 74410000 		.word	.L286
 5253 3fe8 88410000 		.word	.L287
 5254 3fec 90410000 		.word	.L288
 5255 3ff0 98410000 		.word	.L289
 5256 3ff4 A0410000 		.word	.L290
 5257 3ff8 A8410000 		.word	.L291
 5258 3ffc B0410000 		.word	.L292
 5259              	.L237:
 5260 4000 B0319FE5 		ldr	r3, .L442
 5261 4004 011000EA 		b	.L426
 5262              	.L238:
 5263 4008 AC319FE5 		ldr	r3, .L442+4
 5264              	.L426:
 5265 400c 003093E5 		ldr	r3, [r3, #0]	@ float
 5266 4010 AA1000EA 		b	.L416
 5267              	.L239:
 5268 4014 A4319FE5 		ldr	r3, .L442+8
 5269 4018 011000EA 		b	.L426
 5270              	.L240:
 5271 401c A0319FE5 		ldr	r3, .L442+12
 5272 4020 1C1000EA 		b	.L434
 5273              	.L242:
 5274 4024 9C319FE5 		ldr	r3, .L442+16
 5275 4028 1C1000EA 		b	.L434
 5276              	.L244:
 5277 402c 98319FE5 		ldr	r3, .L442+20
 5278              	.L437:
 5279 4030 F040D3E1 		ldrsh	r4, [r3, #0]
 5280 4034 0400A0E1 		mov	r0, r4
 5281 4038 FEFFFFEB 		bl	__floatsisf
 5282 403c 000054E3 		cmp	r4, #0
 5283 4040 5E1000AA 		bge	.L417
 5284 4044 84119FE5 		ldr	r1, .L442+24
 5285              	.L425:
 5286 4048 FEFFFFEB 		bl	__addsf3
 5287 404c 5E1000EA 		b	.L417
 5288              	.L246:
 5289 4050 7C319FE5 		ldr	r3, .L442+28
 5290 4054 0A1000EA 		b	.L437
 5291              	.L248:
 5292 4058 78319FE5 		ldr	r3, .L442+32
 5293 405c 1C1000EA 		b	.L434
 5294              	.L250:
 5295 4060 74319FE5 		ldr	r3, .L442+36
 5296 4064 1C1000EA 		b	.L434
 5297              	.L252:
 5298 4068 70219FE5 		ldr	r2, .L442+40
 5299 406c D040D2E1 		ldrsb	r4, [r2, #0]
 5300 4070 1D1000EA 		b	.L435
 5301              	.L254:
 5302 4074 68319FE5 		ldr	r3, .L442+44
 5303              	.L434:
 5304 4078 D040D3E1 		ldrsb	r4, [r3, #0]
 5305              	.L435:
 5306 407c 0400A0E1 		mov	r0, r4
 5307 4080 FEFFFFEB 		bl	__floatsisf
 5308 4084 000054E3 		cmp	r4, #0
 5309 4088 58119FB5 		ldrlt	r1, .L442+48
 5310 408c 101000BA 		blt	.L425
 5311 4090 5E1000EA 		b	.L417
 5312              	.L256:
 5313 4094 50319FE5 		ldr	r3, .L442+52
 5314 4098 0A1000EA 		b	.L437
 5315              	.L259:
 5316 409c 4C319FE5 		ldr	r3, .L442+56
 5317 40a0 011000EA 		b	.L426
 5318              	.L260:
 5319 40a4 48319FE5 		ldr	r3, .L442+60
 5320 40a8 011000EA 		b	.L426
 5321              	.L261:
 5322 40ac 44319FE5 		ldr	r3, .L442+64
 5323 40b0 011000EA 		b	.L426
 5324              	.L262:
 5325 40b4 40319FE5 		ldr	r3, .L442+68
 5326 40b8 011000EA 		b	.L426
 5327              	.L263:
 5328 40bc 3C319FE5 		ldr	r3, .L442+72
 5329 40c0 011000EA 		b	.L426
 5330              	.L264:
 5331 40c4 38319FE5 		ldr	r3, .L442+76
 5332 40c8 011000EA 		b	.L426
 5333              	.L265:
 5334 40cc 34319FE5 		ldr	r3, .L442+80
 5335 40d0 011000EA 		b	.L426
 5336              	.L266:
 5337 40d4 30319FE5 		ldr	r3, .L442+84
 5338 40d8 011000EA 		b	.L426
 5339              	.L267:
 5340 40dc 2C319FE5 		ldr	r3, .L442+88
 5341 40e0 011000EA 		b	.L426
 5342              	.L268:
 5343 40e4 28319FE5 		ldr	r3, .L442+92
 5344 40e8 011000EA 		b	.L426
 5345              	.L269:
 5346 40ec 24319FE5 		ldr	r3, .L442+96
 5347 40f0 011000EA 		b	.L426
 5348              	.L270:
 5349 40f4 20319FE5 		ldr	r3, .L442+100
 5350 40f8 011000EA 		b	.L426
 5351              	.L271:
 5352 40fc 1C319FE5 		ldr	r3, .L442+104
 5353 4100 011000EA 		b	.L426
 5354              	.L272:
 5355 4104 18319FE5 		ldr	r3, .L442+108
 5356 4108 011000EA 		b	.L426
 5357              	.L273:
 5358 410c 14319FE5 		ldr	r3, .L442+112
 5359 4110 011000EA 		b	.L426
 5360              	.L274:
 5361 4114 10319FE5 		ldr	r3, .L442+116
 5362 4118 011000EA 		b	.L426
 5363              	.L275:
 5364 411c 0C319FE5 		ldr	r3, .L442+120
 5365 4120 011000EA 		b	.L426
 5366              	.L276:
 5367 4124 08319FE5 		ldr	r3, .L442+124
 5368 4128 011000EA 		b	.L426
 5369              	.L277:
 5370 412c 04319FE5 		ldr	r3, .L442+128
 5371 4130 011000EA 		b	.L426
 5372              	.L278:
 5373 4134 00319FE5 		ldr	r3, .L442+132
 5374 4138 011000EA 		b	.L426
 5375              	.L279:
 5376 413c FC309FE5 		ldr	r3, .L442+136
 5377 4140 011000EA 		b	.L426
 5378              	.L280:
 5379 4144 F8309FE5 		ldr	r3, .L442+140
 5380 4148 011000EA 		b	.L426
 5381              	.L281:
 5382 414c F4309FE5 		ldr	r3, .L442+144
 5383 4150 011000EA 		b	.L426
 5384              	.L282:
 5385 4154 F0309FE5 		ldr	r3, .L442+148
 5386 4158 011000EA 		b	.L426
 5387              	.L283:
 5388 415c EC309FE5 		ldr	r3, .L442+152
 5389 4160 011000EA 		b	.L426
 5390              	.L284:
 5391 4164 E8309FE5 		ldr	r3, .L442+156
 5392 4168 011000EA 		b	.L426
 5393              	.L285:
 5394 416c E4309FE5 		ldr	r3, .L442+160
 5395 4170 011000EA 		b	.L426
 5396              	.L286:
 5397 4174 E0309FE5 		ldr	r3, .L442+164
 5398 4178 000093E5 		ldr	r0, [r3, #0]
 5399 417c FEFFFFEB 		bl	__floatsisf
 5400              	.L417:
 5401 4180 68000BE5 		str	r0, [fp, #-104]	@ float
 5402 4184 AB1000EA 		b	.L236
 5403              	.L287:
 5404 4188 D0309FE5 		ldr	r3, .L442+168
 5405 418c 011000EA 		b	.L426
 5406              	.L288:
 5407 4190 CC309FE5 		ldr	r3, .L442+172
 5408 4194 011000EA 		b	.L426
 5409              	.L289:
 5410 4198 C8309FE5 		ldr	r3, .L442+176
 5411 419c 011000EA 		b	.L426
 5412              	.L290:
 5413 41a0 C4309FE5 		ldr	r3, .L442+180
 5414 41a4 011000EA 		b	.L426
 5415              	.L291:
 5416 41a8 C0309FE5 		ldr	r3, .L442+184
 5417 41ac 011000EA 		b	.L426
 5418              	.L292:
 5419 41b0 BC309FE5 		ldr	r3, .L442+188
 5420 41b4 011000EA 		b	.L426
 5421              	.L443:
 5422              		.align	2
 5423              	.L442:
 5424 41b8 00000000 		.word	flight_altitude
 5425 41bc 00000000 		.word	wind_east
 5426 41c0 00000000 		.word	wind_north
 5427 41c4 00000000 		.word	pprz_mode
 5428 41c8 00000000 		.word	alt_kalman_enabled
 5429 41cc 00000000 		.word	estimator_flight_time
 5430 41d0 00008047 		.word	1199570944
 5431 41d4 00000000 		.word	stage_time
 5432 41d8 00000000 		.word	launch
 5433 41dc 00000000 		.word	kill_throttle
 5434 41e0 00000000 		.word	telemetry_mode_Ap_DefaultChannel
 5435 41e4 00000000 		.word	telemetry_mode_Fbw_DefaultChannel
 5436 41e8 00008043 		.word	1132462080
 5437 41ec 00000000 		.word	gps_reset
 5438 41f0 00000000 		.word	ins_roll_neutral
 5439 41f4 00000000 		.word	ins_pitch_neutral
 5440 41f8 00000000 		.word	h_ctl_roll_pgain
 5441 41fc 00000000 		.word	h_ctl_roll_max_setpoint
 5442 4200 00000000 		.word	h_ctl_pitch_pgain
 5443 4204 00000000 		.word	h_ctl_pitch_dgain
 5444 4208 00000000 		.word	h_ctl_elevator_of_roll
 5445 420c 00000000 		.word	h_ctl_aileron_of_throttle
 5446 4210 00000000 		.word	h_ctl_roll_attitude_gain
 5447 4214 00000000 		.word	h_ctl_roll_rate_gain
 5448 4218 00000000 		.word	v_ctl_altitude_pgain
 5449 421c 00000000 		.word	v_ctl_auto_throttle_cruise_throttle
 5450 4220 00000000 		.word	v_ctl_auto_throttle_pgain
 5451 4224 00000000 		.word	v_ctl_auto_throttle_igain
 5452 4228 00000000 		.word	v_ctl_auto_throttle_dgain
 5453 422c 00000000 		.word	v_ctl_auto_throttle_climb_throttle_increment
 5454 4230 00000000 		.word	v_ctl_auto_throttle_pitch_of_vz_pgain
 5455 4234 00000000 		.word	v_ctl_auto_throttle_pitch_of_vz_dgain
 5456 4238 00000000 		.word	v_ctl_auto_pitch_pgain
 5457 423c 00000000 		.word	v_ctl_auto_pitch_igain
 5458 4240 00000000 		.word	h_ctl_course_pgain
 5459 4244 00000000 		.word	h_ctl_course_dgain
 5460 4248 00000000 		.word	h_ctl_course_pre_bank_correction
 5461 424c 00000000 		.word	nav_glide_pitch_trim
 5462 4250 00000000 		.word	h_ctl_roll_slew
 5463 4254 00000000 		.word	nav_radius
 5464 4258 00000000 		.word	nav_course
 5465 425c 00000000 		.word	nav_mode
 5466 4260 00000000 		.word	nav_climb
 5467 4264 00000000 		.word	fp_pitch
 5468 4268 00000000 		.word	nav_shift
 5469 426c 00000000 		.word	nav_ground_speed_setpoint
 5470 4270 00000000 		.word	nav_ground_speed_pgain
 5471 4274 00000000 		.word	nav_survey_shift
 5472 4278 00000000 		.word	i.47
 5473 427c 00000000 		.word	nav_survey_active
 5474 4280 00000000 		.word	downlink_nb_ovrn
 5475 4284 00000000 		.word	downlink_nb_bytes
 5476 4288 00000000 		.word	downlink_nb_msgs
 5477 428c 00000000 		.word	ck_a
 5478 4290 00000000 		.word	ck_b
 5479 4294 00000000 		.word	nav_survey_east
 5480 4298 00000000 		.word	nav_survey_north
 5481 429c 00000000 		.word	nav_survey_west
 5482 42a0 00000000 		.word	nav_survey_south
 5483 42a4 00000000 		.word	i180.36
 5484 42a8 00000000 		.word	nav_circle_radians
 5485              	.L293:
 5486 42ac 0030A0E3 		mov	r3, #0
 5487              	.L416:
 5488 42b0 68300BE5 		str	r3, [fp, #-104]	@ float
 5489              	.L236:
 5490 42b4 0B00A0E3 		mov	r0, #11
 5491 42b8 FEFFFFEB 		bl	uart1_check_free_space
 5492 42bc FF0010E3 		tst	r0, #255
 5493 42c0 48201F05 		ldreq	r2, .L442+200
 5494 42c4 0030D205 		ldreqb	r3, [r2, #0]	@ zero_extendqisi2
 5495 42c8 01308302 		addeq	r3, r3, #1
 5496 42cc 0030C205 		streqb	r3, [r2, #0]
 5497 42d0 0111000A 		beq	.L296
 5498 42d4 58101FE5 		ldr	r1, .L442+204
 5499 42d8 58C01FE5 		ldr	ip, .L442+208
 5500 42dc B030D1E1 		ldrh	r3, [r1, #0]
 5501 42e0 B020DCE1 		ldrh	r2, [ip, #0]
 5502 42e4 0B3083E2 		add	r3, r3, #11
 5503 42e8 012082E2 		add	r2, r2, #1
 5504 42ec B030C1E1 		strh	r3, [r1, #0]	@ movhi 
 5505 42f0 B020CCE1 		strh	r2, [ip, #0]	@ movhi 
 5506 42f4 9900A0E3 		mov	r0, #153
 5507 42f8 74401FE5 		ldr	r4, .L442+212
 5508 42fc FEFFFFEB 		bl	uart1_transmit
 5509 4300 0B00A0E3 		mov	r0, #11
 5510 4304 7C501FE5 		ldr	r5, .L442+216
 5511 4308 FEFFFFEB 		bl	uart1_transmit
 5512 430c 1530A0E3 		mov	r3, #21
 5513 4310 0030C4E5 		strb	r3, [r4, #0]
 5514 4314 0B3083E2 		add	r3, r3, #11
 5515 4318 0A00A0E3 		mov	r0, #10
 5516 431c 0030C5E5 		strb	r3, [r5, #0]
 5517 4320 FEFFFFEB 		bl	uart1_transmit
 5518 4324 0030D4E5 		ldrb	r3, [r4, #0]	@ zero_extendqisi2
 5519 4328 1F3083E2 		add	r3, r3, #31
 5520 432c 0030C4E5 		strb	r3, [r4, #0]
 5521 4330 0030D5E5 		ldrb	r3, [r5, #0]	@ zero_extendqisi2
 5522 4334 0020D4E5 		ldrb	r2, [r4, #0]	@ zero_extendqisi2
 5523 4338 023083E0 		add	r3, r3, r2
 5524 433c 1F00A0E3 		mov	r0, #31
 5525 4340 0030C5E5 		strb	r3, [r5, #0]
 5526 4344 FEFFFFEB 		bl	uart1_transmit
 5527 4348 0000D6E5 		ldrb	r0, [r6, #0]	@ zero_extendqisi2
 5528 434c 0030D4E5 		ldrb	r3, [r4, #0]	@ zero_extendqisi2
 5529 4350 033080E0 		add	r3, r0, r3
 5530 4354 0030C4E5 		strb	r3, [r4, #0]
 5531 4358 0030D5E5 		ldrb	r3, [r5, #0]	@ zero_extendqisi2
 5532 435c 0020D4E5 		ldrb	r2, [r4, #0]	@ zero_extendqisi2
 5533 4360 023083E0 		add	r3, r3, r2
 5534 4364 0030C5E5 		strb	r3, [r5, #0]
 5535 4368 FEFFFFEB 		bl	uart1_transmit
 5536 436c 68005BE5 		ldrb	r0, [fp, #-104]	@ zero_extendqisi2
 5537 4370 0030D4E5 		ldrb	r3, [r4, #0]	@ zero_extendqisi2
 5538 4374 033080E0 		add	r3, r0, r3
 5539 4378 0030C4E5 		strb	r3, [r4, #0]
 5540 437c 0030D5E5 		ldrb	r3, [r5, #0]	@ zero_extendqisi2
 5541 4380 0020D4E5 		ldrb	r2, [r4, #0]	@ zero_extendqisi2
 5542 4384 023083E0 		add	r3, r3, r2
 5543 4388 0030C5E5 		strb	r3, [r5, #0]
 5544 438c FEFFFFEB 		bl	uart1_transmit
 5545 4390 67005BE5 		ldrb	r0, [fp, #-103]	@ zero_extendqisi2
 5546 4394 0030D4E5 		ldrb	r3, [r4, #0]	@ zero_extendqisi2
 5547 4398 033080E0 		add	r3, r0, r3
 5548 439c 0030C4E5 		strb	r3, [r4, #0]
 5549 43a0 0030D5E5 		ldrb	r3, [r5, #0]	@ zero_extendqisi2
 5550 43a4 0020D4E5 		ldrb	r2, [r4, #0]	@ zero_extendqisi2
 5551 43a8 023083E0 		add	r3, r3, r2
 5552 43ac 0030C5E5 		strb	r3, [r5, #0]
 5553 43b0 FEFFFFEB 		bl	uart1_transmit
 5554 43b4 66005BE5 		ldrb	r0, [fp, #-102]	@ zero_extendqisi2
 5555 43b8 0030D4E5 		ldrb	r3, [r4, #0]	@ zero_extendqisi2
 5556 43bc 033080E0 		add	r3, r0, r3
 5557 43c0 0030C4E5 		strb	r3, [r4, #0]
 5558 43c4 0030D5E5 		ldrb	r3, [r5, #0]	@ zero_extendqisi2
 5559 43c8 0020D4E5 		ldrb	r2, [r4, #0]	@ zero_extendqisi2
 5560 43cc 023083E0 		add	r3, r3, r2
 5561 43d0 0030C5E5 		strb	r3, [r5, #0]
 5562 43d4 FEFFFFEB 		bl	uart1_transmit
 5563 43d8 65005BE5 		ldrb	r0, [fp, #-101]	@ zero_extendqisi2
 5564 43dc 0030D4E5 		ldrb	r3, [r4, #0]	@ zero_extendqisi2
 5565 43e0 033080E0 		add	r3, r0, r3
 5566 43e4 0030C4E5 		strb	r3, [r4, #0]
 5567 43e8 0030D5E5 		ldrb	r3, [r5, #0]	@ zero_extendqisi2
 5568 43ec 0020D4E5 		ldrb	r2, [r4, #0]	@ zero_extendqisi2
 5569 43f0 023083E0 		add	r3, r3, r2
 5570 43f4 0030C5E5 		strb	r3, [r5, #0]
 5571 43f8 FEFFFFEB 		bl	uart1_transmit
 5572 43fc 0000D4E5 		ldrb	r0, [r4, #0]	@ zero_extendqisi2
 5573 4400 FEFFFFEB 		bl	uart1_transmit
 5574 4404 0000D5E5 		ldrb	r0, [r5, #0]	@ zero_extendqisi2
 5575 4408 FEFFFFEB 		bl	uart1_transmit
 5576              	.L296:
 5577 440c 9C211FE5 		ldr	r2, .L442+192
 5578 4410 0030D2E5 		ldrb	r3, [r2, #0]	@ zero_extendqisi2
 5579 4414 013083E2 		add	r3, r3, #1
 5580 4418 0030C2E5 		strb	r3, [r2, #0]
 5581              	.L234:
 5582 441c 0030D9E5 		ldrb	r3, [r9, #0]	@ zero_extendqisi2
 5583 4420 1E0053E3 		cmp	r3, #30
 5584 4424 C911001A 		bne	.L297
 5585 4428 B4311FE5 		ldr	r3, .L442+196
 5586 442c 0030D3E5 		ldrb	r3, [r3, #0]	@ zero_extendqisi2
 5587 4430 000053E3 		cmp	r3, #0
 5588 4434 C911000A 		beq	.L297
 5589 4438 1600A0E3 		mov	r0, #22
 5590 443c FEFFFFEB 		bl	uart1_check_free_space
 5591 4440 FF0010E3 		tst	r0, #255
 5592 4444 CC211F05 		ldreq	r2, .L442+200
 5593 4448 0030D205 		ldreqb	r3, [r2, #0]	@ zero_extendqisi2
 5594 444c 01308302 		addeq	r3, r3, #1
 5595 4450 0030C205 		streqb	r3, [r2, #0]
 5596 4454 C911000A 		beq	.L297
 5597 4458 DC111FE5 		ldr	r1, .L442+204
 5598 445c DCC11FE5 		ldr	ip, .L442+208
 5599 4460 B030D1E1 		ldrh	r3, [r1, #0]
 5600 4464 B020DCE1 		ldrh	r2, [ip, #0]
 5601 4468 163083E2 		add	r3, r3, #22
 5602 446c 012082E2 		add	r2, r2, #1
 5603 4470 B030C1E1 		strh	r3, [r1, #0]	@ movhi 
 5604 4474 B020CCE1 		strh	r2, [ip, #0]	@ movhi 
 5605 4478 9900A0E3 		mov	r0, #153
 5606 447c F8411FE5 		ldr	r4, .L442+212
 5607 4480 FEFFFFEB 		bl	uart1_transmit
 5608 4484 1600A0E3 		mov	r0, #22
 5609 4488 00521FE5 		ldr	r5, .L442+216
 5610 448c FEFFFFEB 		bl	uart1_transmit
 5611 4490 2030A0E3 		mov	r3, #32
 5612 4494 0030C4E5 		strb	r3, [r4, #0]
 5613 4498 163083E2 		add	r3, r3, #22
 5614 449c 0A00A0E3 		mov	r0, #10
 5615 44a0 0030C5E5 		strb	r3, [r5, #0]
 5616 44a4 FEFFFFEB 		bl	uart1_transmit
 5617 44a8 0030D4E5 		ldrb	r3, [r4, #0]	@ zero_extendqisi2
 5618 44ac 1B3083E2 		add	r3, r3, #27
 5619 44b0 0030C4E5 		strb	r3, [r4, #0]
 5620 44b4 0030D5E5 		ldrb	r3, [r5, #0]	@ zero_extendqisi2
 5621 44b8 0020D4E5 		ldrb	r2, [r4, #0]	@ zero_extendqisi2
 5622 44bc 30621FE5 		ldr	r6, .L442+220
 5623 44c0 023083E0 		add	r3, r3, r2
 5624 44c4 1B00A0E3 		mov	r0, #27
 5625 44c8 0030C5E5 		strb	r3, [r5, #0]
 5626 44cc FEFFFFEB 		bl	uart1_transmit
 5627 44d0 0000D6E5 		ldrb	r0, [r6, #0]	@ zero_extendqisi2
 5628 44d4 0030D4E5 		ldrb	r3, [r4, #0]	@ zero_extendqisi2
 5629 44d8 033080E0 		add	r3, r0, r3
 5630 44dc 0030C4E5 		strb	r3, [r4, #0]
 5631 44e0 0030D5E5 		ldrb	r3, [r5, #0]	@ zero_extendqisi2
 5632 44e4 0020D4E5 		ldrb	r2, [r4, #0]	@ zero_extendqisi2
 5633 44e8 023083E0 		add	r3, r3, r2
 5634 44ec 0030C5E5 		strb	r3, [r5, #0]
 5635 44f0 FEFFFFEB 		bl	uart1_transmit
 5636 44f4 0100D6E5 		ldrb	r0, [r6, #1]	@ zero_extendqisi2
 5637 44f8 0030D4E5 		ldrb	r3, [r4, #0]	@ zero_extendqisi2
 5638 44fc 033080E0 		add	r3, r0, r3
 5639 4500 0030C4E5 		strb	r3, [r4, #0]
 5640 4504 0030D5E5 		ldrb	r3, [r5, #0]	@ zero_extendqisi2
 5641 4508 0020D4E5 		ldrb	r2, [r4, #0]	@ zero_extendqisi2
 5642 450c 023083E0 		add	r3, r3, r2
 5643 4510 0030C5E5 		strb	r3, [r5, #0]
 5644 4514 FEFFFFEB 		bl	uart1_transmit
 5645 4518 0200D6E5 		ldrb	r0, [r6, #2]	@ zero_extendqisi2
 5646 451c 0030D4E5 		ldrb	r3, [r4, #0]	@ zero_extendqisi2
 5647 4520 033080E0 		add	r3, r0, r3
 5648 4524 0030C4E5 		strb	r3, [r4, #0]
 5649 4528 0030D5E5 		ldrb	r3, [r5, #0]	@ zero_extendqisi2
 5650 452c 0020D4E5 		ldrb	r2, [r4, #0]	@ zero_extendqisi2
 5651 4530 023083E0 		add	r3, r3, r2
 5652 4534 0030C5E5 		strb	r3, [r5, #0]
 5653 4538 FEFFFFEB 		bl	uart1_transmit
 5654 453c 0300D6E5 		ldrb	r0, [r6, #3]	@ zero_extendqisi2
 5655 4540 0030D4E5 		ldrb	r3, [r4, #0]	@ zero_extendqisi2
 5656 4544 033080E0 		add	r3, r0, r3
 5657 4548 0030C4E5 		strb	r3, [r4, #0]
 5658 454c 0030D5E5 		ldrb	r3, [r5, #0]	@ zero_extendqisi2
 5659 4550 0020D4E5 		ldrb	r2, [r4, #0]	@ zero_extendqisi2
 5660 4554 C4621FE5 		ldr	r6, .L442+224
 5661 4558 023083E0 		add	r3, r3, r2
 5662 455c 0030C5E5 		strb	r3, [r5, #0]
 5663 4560 FEFFFFEB 		bl	uart1_transmit
 5664 4564 0000D6E5 		ldrb	r0, [r6, #0]	@ zero_extendqisi2
 5665 4568 0030D4E5 		ldrb	r3, [r4, #0]	@ zero_extendqisi2
 5666 456c 033080E0 		add	r3, r0, r3
 5667 4570 0030C4E5 		strb	r3, [r4, #0]
 5668 4574 0030D5E5 		ldrb	r3, [r5, #0]	@ zero_extendqisi2
 5669 4578 0020D4E5 		ldrb	r2, [r4, #0]	@ zero_extendqisi2
 5670 457c 023083E0 		add	r3, r3, r2
 5671 4580 0030C5E5 		strb	r3, [r5, #0]
 5672 4584 FEFFFFEB 		bl	uart1_transmit
 5673 4588 0100D6E5 		ldrb	r0, [r6, #1]	@ zero_extendqisi2
 5674 458c 0030D4E5 		ldrb	r3, [r4, #0]	@ zero_extendqisi2
 5675 4590 033080E0 		add	r3, r0, r3
 5676 4594 0030C4E5 		strb	r3, [r4, #0]
 5677 4598 0030D5E5 		ldrb	r3, [r5, #0]	@ zero_extendqisi2
 5678 459c 0020D4E5 		ldrb	r2, [r4, #0]	@ zero_extendqisi2
 5679 45a0 023083E0 		add	r3, r3, r2
 5680 45a4 0030C5E5 		strb	r3, [r5, #0]
 5681 45a8 FEFFFFEB 		bl	uart1_transmit
 5682 45ac 0200D6E5 		ldrb	r0, [r6, #2]	@ zero_extendqisi2
 5683 45b0 0030D4E5 		ldrb	r3, [r4, #0]	@ zero_extendqisi2
 5684 45b4 033080E0 		add	r3, r0, r3
 5685 45b8 0030C4E5 		strb	r3, [r4, #0]
 5686 45bc 0030D5E5 		ldrb	r3, [r5, #0]	@ zero_extendqisi2
 5687 45c0 0020D4E5 		ldrb	r2, [r4, #0]	@ zero_extendqisi2
 5688 45c4 023083E0 		add	r3, r3, r2
 5689 45c8 0030C5E5 		strb	r3, [r5, #0]
 5690 45cc FEFFFFEB 		bl	uart1_transmit
 5691 45d0 0300D6E5 		ldrb	r0, [r6, #3]	@ zero_extendqisi2
 5692 45d4 0030D4E5 		ldrb	r3, [r4, #0]	@ zero_extendqisi2
 5693 45d8 033080E0 		add	r3, r0, r3
 5694 45dc 0030C4E5 		strb	r3, [r4, #0]
 5695 45e0 0030D5E5 		ldrb	r3, [r5, #0]	@ zero_extendqisi2
 5696 45e4 0020D4E5 		ldrb	r2, [r4, #0]	@ zero_extendqisi2
 5697 45e8 54631FE5 		ldr	r6, .L442+228
 5698 45ec 023083E0 		add	r3, r3, r2
 5699 45f0 0030C5E5 		strb	r3, [r5, #0]
 5700 45f4 FEFFFFEB 		bl	uart1_transmit
 5701 45f8 0000D6E5 		ldrb	r0, [r6, #0]	@ zero_extendqisi2
 5702 45fc 0030D4E5 		ldrb	r3, [r4, #0]	@ zero_extendqisi2
 5703 4600 033080E0 		add	r3, r0, r3
 5704 4604 0030C4E5 		strb	r3, [r4, #0]
 5705 4608 0030D5E5 		ldrb	r3, [r5, #0]	@ zero_extendqisi2
 5706 460c 0020D4E5 		ldrb	r2, [r4, #0]	@ zero_extendqisi2
 5707 4610 023083E0 		add	r3, r3, r2
 5708 4614 0030C5E5 		strb	r3, [r5, #0]
 5709 4618 FEFFFFEB 		bl	uart1_transmit
 5710 461c 0100D6E5 		ldrb	r0, [r6, #1]	@ zero_extendqisi2
 5711 4620 0030D4E5 		ldrb	r3, [r4, #0]	@ zero_extendqisi2
 5712 4624 033080E0 		add	r3, r0, r3
 5713 4628 0030C4E5 		strb	r3, [r4, #0]
 5714 462c 0030D5E5 		ldrb	r3, [r5, #0]	@ zero_extendqisi2
 5715 4630 0020D4E5 		ldrb	r2, [r4, #0]	@ zero_extendqisi2
 5716 4634 023083E0 		add	r3, r3, r2
 5717 4638 0030C5E5 		strb	r3, [r5, #0]
 5718 463c FEFFFFEB 		bl	uart1_transmit
 5719 4640 0200D6E5 		ldrb	r0, [r6, #2]	@ zero_extendqisi2
 5720 4644 0030D4E5 		ldrb	r3, [r4, #0]	@ zero_extendqisi2
 5721 4648 033080E0 		add	r3, r0, r3
 5722 464c 0030C4E5 		strb	r3, [r4, #0]
 5723 4650 0030D5E5 		ldrb	r3, [r5, #0]	@ zero_extendqisi2
 5724 4654 0020D4E5 		ldrb	r2, [r4, #0]	@ zero_extendqisi2
 5725 4658 023083E0 		add	r3, r3, r2
 5726 465c 0030C5E5 		strb	r3, [r5, #0]
 5727 4660 FEFFFFEB 		bl	uart1_transmit
 5728 4664 0300D6E5 		ldrb	r0, [r6, #3]	@ zero_extendqisi2
 5729 4668 0030D4E5 		ldrb	r3, [r4, #0]	@ zero_extendqisi2
 5730 466c 033080E0 		add	r3, r0, r3
 5731 4670 0030C4E5 		strb	r3, [r4, #0]
 5732 4674 0030D5E5 		ldrb	r3, [r5, #0]	@ zero_extendqisi2
 5733 4678 0020D4E5 		ldrb	r2, [r4, #0]	@ zero_extendqisi2
 5734 467c E4631FE5 		ldr	r6, .L442+232
 5735 4680 023083E0 		add	r3, r3, r2
 5736 4684 0030C5E5 		strb	r3, [r5, #0]
 5737 4688 FEFFFFEB 		bl	uart1_transmit
 5738 468c 0000D6E5 		ldrb	r0, [r6, #0]	@ zero_extendqisi2
 5739 4690 0030D4E5 		ldrb	r3, [r4, #0]	@ zero_extendqisi2
 5740 4694 033080E0 		add	r3, r0, r3
 5741 4698 0030C4E5 		strb	r3, [r4, #0]
 5742 469c 0030D5E5 		ldrb	r3, [r5, #0]	@ zero_extendqisi2
 5743 46a0 0020D4E5 		ldrb	r2, [r4, #0]	@ zero_extendqisi2
 5744 46a4 023083E0 		add	r3, r3, r2
 5745 46a8 0030C5E5 		strb	r3, [r5, #0]
 5746 46ac FEFFFFEB 		bl	uart1_transmit
 5747 46b0 0100D6E5 		ldrb	r0, [r6, #1]	@ zero_extendqisi2
 5748 46b4 0030D4E5 		ldrb	r3, [r4, #0]	@ zero_extendqisi2
 5749 46b8 033080E0 		add	r3, r0, r3
 5750 46bc 0030C4E5 		strb	r3, [r4, #0]
 5751 46c0 0030D5E5 		ldrb	r3, [r5, #0]	@ zero_extendqisi2
 5752 46c4 0020D4E5 		ldrb	r2, [r4, #0]	@ zero_extendqisi2
 5753 46c8 023083E0 		add	r3, r3, r2
 5754 46cc 0030C5E5 		strb	r3, [r5, #0]
 5755 46d0 FEFFFFEB 		bl	uart1_transmit
 5756 46d4 0200D6E5 		ldrb	r0, [r6, #2]	@ zero_extendqisi2
 5757 46d8 0030D4E5 		ldrb	r3, [r4, #0]	@ zero_extendqisi2
 5758 46dc 033080E0 		add	r3, r0, r3
 5759 46e0 0030C4E5 		strb	r3, [r4, #0]
 5760 46e4 0030D5E5 		ldrb	r3, [r5, #0]	@ zero_extendqisi2
 5761 46e8 0020D4E5 		ldrb	r2, [r4, #0]	@ zero_extendqisi2
 5762 46ec 023083E0 		add	r3, r3, r2
 5763 46f0 0030C5E5 		strb	r3, [r5, #0]
 5764 46f4 FEFFFFEB 		bl	uart1_transmit
 5765 46f8 0300D6E5 		ldrb	r0, [r6, #3]	@ zero_extendqisi2
 5766 46fc 0030D4E5 		ldrb	r3, [r4, #0]	@ zero_extendqisi2
 5767 4700 033080E0 		add	r3, r0, r3
 5768 4704 0030C4E5 		strb	r3, [r4, #0]
 5769 4708 0030D5E5 		ldrb	r3, [r5, #0]	@ zero_extendqisi2
 5770 470c 0020D4E5 		ldrb	r2, [r4, #0]	@ zero_extendqisi2
 5771 4710 023083E0 		add	r3, r3, r2
 5772 4714 0030C5E5 		strb	r3, [r5, #0]
 5773 4718 FEFFFFEB 		bl	uart1_transmit
 5774 471c 0000D4E5 		ldrb	r0, [r4, #0]	@ zero_extendqisi2
 5775 4720 FEFFFFEB 		bl	uart1_transmit
 5776 4724 0000D5E5 		ldrb	r0, [r5, #0]	@ zero_extendqisi2
 5777 4728 FEFFFFEB 		bl	uart1_transmit
 5778              	.L297:
 5779 472c 90341FE5 		ldr	r3, .L442+236
 5780 4730 0060D3E5 		ldrb	r6, [r3, #0]	@ zero_extendqisi2
 5781 4734 240056E3 		cmp	r6, #36
 5782 4738 B912001A 		bne	.L301
 5783 473c 9C341FE5 		ldr	r3, .L442+240
 5784 4740 003093E5 		ldr	r3, [r3, #0]
 5785 4744 0201C3E3 		bic	r0, r3, #-2147483648
 5786 4748 FEFFFFEB 		bl	__extendsfdf2
 5787 474c FD2F8FE2 		adr	r2, .L444
 5788 4750 0C0092E8 		ldmia	r2, {r2-r3}
 5789 4754 FEFFFFEB 		bl	__divdf3
 5790 4758 FEFFFFEB 		bl	__fixunsdfsi
 5791 475c 37004BE5 		strb	r0, [fp, #-55]
 5792 4760 1A00A0E3 		mov	r0, #26
 5793 4764 FEFFFFEB 		bl	uart1_check_free_space
 5794 4768 FF0010E3 		tst	r0, #255
 5795 476c 38249F05 		ldreq	r2, .L444+100
 5796 4770 0030D205 		ldreqb	r3, [r2, #0]	@ zero_extendqisi2
 5797 4774 01308302 		addeq	r3, r3, #1
 5798 4778 0030C205 		streqb	r3, [r2, #0]
 5799 477c B912000A 		beq	.L301
 5800 4780 64149FE5 		ldr	r1, .L444+164
 5801 4784 64C49FE5 		ldr	ip, .L444+168
 5802 4788 B030D1E1 		ldrh	r3, [r1, #0]
 5803 478c B020DCE1 		ldrh	r2, [ip, #0]
 5804 4790 1A3083E2 		add	r3, r3, #26
 5805 4794 012082E2 		add	r2, r2, #1
 5806 4798 B030C1E1 		strh	r3, [r1, #0]	@ movhi 
 5807 479c B020CCE1 		strh	r2, [ip, #0]	@ movhi 
 5808 47a0 9900A0E3 		mov	r0, #153
 5809 47a4 48449FE5 		ldr	r4, .L444+172
 5810 47a8 48549FE5 		ldr	r5, .L444+176
 5811 47ac FEFFFFEB 		bl	uart1_transmit
 5812 47b0 1A00A0E3 		mov	r0, #26
 5813 47b4 FEFFFFEB 		bl	uart1_transmit
 5814 47b8 3E30A0E3 		mov	r3, #62
 5815 47bc 0A00A0E3 		mov	r0, #10
 5816 47c0 0060C4E5 		strb	r6, [r4, #0]
 5817 47c4 0030C5E5 		strb	r3, [r5, #0]
 5818 47c8 FEFFFFEB 		bl	uart1_transmit
 5819 47cc 0030D4E5 		ldrb	r3, [r4, #0]	@ zero_extendqisi2
 5820 47d0 0A3083E2 		add	r3, r3, #10
 5821 47d4 0030C4E5 		strb	r3, [r4, #0]
 5822 47d8 0030D5E5 		ldrb	r3, [r5, #0]	@ zero_extendqisi2
 5823 47dc 0020D4E5 		ldrb	r2, [r4, #0]	@ zero_extendqisi2
 5824 47e0 023083E0 		add	r3, r3, r2
 5825 47e4 0A00A0E3 		mov	r0, #10
 5826 47e8 0030C5E5 		strb	r3, [r5, #0]
 5827 47ec FEFFFFEB 		bl	uart1_transmit
 5828 47f0 58339FE5 		ldr	r3, .L444+8
 5829 47f4 0000D3E5 		ldrb	r0, [r3, #0]	@ zero_extendqisi2
 5830 47f8 0030D4E5 		ldrb	r3, [r4, #0]	@ zero_extendqisi2
 5831 47fc 033080E0 		add	r3, r0, r3
 5832 4800 0030C4E5 		strb	r3, [r4, #0]
 5833 4804 0030D5E5 		ldrb	r3, [r5, #0]	@ zero_extendqisi2
 5834 4808 0020D4E5 		ldrb	r2, [r4, #0]	@ zero_extendqisi2
 5835 480c 023083E0 		add	r3, r3, r2
 5836 4810 0030C5E5 		strb	r3, [r5, #0]
 5837 4814 FEFFFFEB 		bl	uart1_transmit
 5838 4818 34339FE5 		ldr	r3, .L444+12
 5839 481c 0000D3E5 		ldrb	r0, [r3, #0]	@ zero_extendqisi2
 5840 4820 0030D4E5 		ldrb	r3, [r4, #0]	@ zero_extendqisi2
 5841 4824 033080E0 		add	r3, r0, r3
 5842 4828 0030C4E5 		strb	r3, [r4, #0]
 5843 482c 0030D5E5 		ldrb	r3, [r5, #0]	@ zero_extendqisi2
 5844 4830 0020D4E5 		ldrb	r2, [r4, #0]	@ zero_extendqisi2
 5845 4834 1C639FE5 		ldr	r6, .L444+16
 5846 4838 023083E0 		add	r3, r3, r2
 5847 483c 0030C5E5 		strb	r3, [r5, #0]
 5848 4840 FEFFFFEB 		bl	uart1_transmit
 5849 4844 0000D6E5 		ldrb	r0, [r6, #0]	@ zero_extendqisi2
 5850 4848 0030D4E5 		ldrb	r3, [r4, #0]	@ zero_extendqisi2
 5851 484c 033080E0 		add	r3, r0, r3
 5852 4850 0030C4E5 		strb	r3, [r4, #0]
 5853 4854 0030D5E5 		ldrb	r3, [r5, #0]	@ zero_extendqisi2
 5854 4858 0020D4E5 		ldrb	r2, [r4, #0]	@ zero_extendqisi2
 5855 485c 023083E0 		add	r3, r3, r2
 5856 4860 0030C5E5 		strb	r3, [r5, #0]
 5857 4864 FEFFFFEB 		bl	uart1_transmit
 5858 4868 0100D6E5 		ldrb	r0, [r6, #1]	@ zero_extendqisi2
 5859 486c 0030D4E5 		ldrb	r3, [r4, #0]	@ zero_extendqisi2
 5860 4870 033080E0 		add	r3, r0, r3
 5861 4874 0030C4E5 		strb	r3, [r4, #0]
 5862 4878 0030D5E5 		ldrb	r3, [r5, #0]	@ zero_extendqisi2
 5863 487c 0020D4E5 		ldrb	r2, [r4, #0]	@ zero_extendqisi2
 5864 4880 023083E0 		add	r3, r3, r2
 5865 4884 0030C5E5 		strb	r3, [r5, #0]
 5866 4888 FEFFFFEB 		bl	uart1_transmit
 5867 488c 0200D6E5 		ldrb	r0, [r6, #2]	@ zero_extendqisi2
 5868 4890 0030D4E5 		ldrb	r3, [r4, #0]	@ zero_extendqisi2
 5869 4894 033080E0 		add	r3, r0, r3
 5870 4898 0030C4E5 		strb	r3, [r4, #0]
 5871 489c 0030D5E5 		ldrb	r3, [r5, #0]	@ zero_extendqisi2
 5872 48a0 0020D4E5 		ldrb	r2, [r4, #0]	@ zero_extendqisi2
 5873 48a4 023083E0 		add	r3, r3, r2
 5874 48a8 0030C5E5 		strb	r3, [r5, #0]
 5875 48ac FEFFFFEB 		bl	uart1_transmit
 5876 48b0 0300D6E5 		ldrb	r0, [r6, #3]	@ zero_extendqisi2
 5877 48b4 0030D4E5 		ldrb	r3, [r4, #0]	@ zero_extendqisi2
 5878 48b8 033080E0 		add	r3, r0, r3
 5879 48bc 0030C4E5 		strb	r3, [r4, #0]
 5880 48c0 0030D5E5 		ldrb	r3, [r5, #0]	@ zero_extendqisi2
 5881 48c4 0020D4E5 		ldrb	r2, [r4, #0]	@ zero_extendqisi2
 5882 48c8 8C629FE5 		ldr	r6, .L444+20
 5883 48cc 023083E0 		add	r3, r3, r2
 5884 48d0 0030C5E5 		strb	r3, [r5, #0]
 5885 48d4 FEFFFFEB 		bl	uart1_transmit
 5886 48d8 0000D6E5 		ldrb	r0, [r6, #0]	@ zero_extendqisi2
 5887 48dc 0030D4E5 		ldrb	r3, [r4, #0]	@ zero_extendqisi2
 5888 48e0 033080E0 		add	r3, r0, r3
 5889 48e4 0030C4E5 		strb	r3, [r4, #0]
 5890 48e8 0030D5E5 		ldrb	r3, [r5, #0]	@ zero_extendqisi2
 5891 48ec 0020D4E5 		ldrb	r2, [r4, #0]	@ zero_extendqisi2
 5892 48f0 023083E0 		add	r3, r3, r2
 5893 48f4 0030C5E5 		strb	r3, [r5, #0]
 5894 48f8 FEFFFFEB 		bl	uart1_transmit
 5895 48fc 0100D6E5 		ldrb	r0, [r6, #1]	@ zero_extendqisi2
 5896 4900 0030D4E5 		ldrb	r3, [r4, #0]	@ zero_extendqisi2
 5897 4904 033080E0 		add	r3, r0, r3
 5898 4908 0030C4E5 		strb	r3, [r4, #0]
 5899 490c 0030D5E5 		ldrb	r3, [r5, #0]	@ zero_extendqisi2
 5900 4910 0020D4E5 		ldrb	r2, [r4, #0]	@ zero_extendqisi2
 5901 4914 023083E0 		add	r3, r3, r2
 5902 4918 0030C5E5 		strb	r3, [r5, #0]
 5903 491c FEFFFFEB 		bl	uart1_transmit
 5904 4920 0200D6E5 		ldrb	r0, [r6, #2]	@ zero_extendqisi2
 5905 4924 0030D4E5 		ldrb	r3, [r4, #0]	@ zero_extendqisi2
 5906 4928 033080E0 		add	r3, r0, r3
 5907 492c 0030C4E5 		strb	r3, [r4, #0]
 5908 4930 0030D5E5 		ldrb	r3, [r5, #0]	@ zero_extendqisi2
 5909 4934 0020D4E5 		ldrb	r2, [r4, #0]	@ zero_extendqisi2
 5910 4938 023083E0 		add	r3, r3, r2
 5911 493c 0030C5E5 		strb	r3, [r5, #0]
 5912 4940 FEFFFFEB 		bl	uart1_transmit
 5913 4944 0300D6E5 		ldrb	r0, [r6, #3]	@ zero_extendqisi2
 5914 4948 0030D4E5 		ldrb	r3, [r4, #0]	@ zero_extendqisi2
 5915 494c 033080E0 		add	r3, r0, r3
 5916 4950 0030C4E5 		strb	r3, [r4, #0]
 5917 4954 0030D5E5 		ldrb	r3, [r5, #0]	@ zero_extendqisi2
 5918 4958 0020D4E5 		ldrb	r2, [r4, #0]	@ zero_extendqisi2
 5919 495c FC619FE5 		ldr	r6, .L444+24
 5920 4960 023083E0 		add	r3, r3, r2
 5921 4964 0030C5E5 		strb	r3, [r5, #0]
 5922 4968 FEFFFFEB 		bl	uart1_transmit
 5923 496c 0000D6E5 		ldrb	r0, [r6, #0]	@ zero_extendqisi2
 5924 4970 0030D4E5 		ldrb	r3, [r4, #0]	@ zero_extendqisi2
 5925 4974 033080E0 		add	r3, r0, r3
 5926 4978 0030C4E5 		strb	r3, [r4, #0]
 5927 497c 0030D5E5 		ldrb	r3, [r5, #0]	@ zero_extendqisi2
 5928 4980 0020D4E5 		ldrb	r2, [r4, #0]	@ zero_extendqisi2
 5929 4984 023083E0 		add	r3, r3, r2
 5930 4988 0030C5E5 		strb	r3, [r5, #0]
 5931 498c FEFFFFEB 		bl	uart1_transmit
 5932 4990 0100D6E5 		ldrb	r0, [r6, #1]	@ zero_extendqisi2
 5933 4994 0030D4E5 		ldrb	r3, [r4, #0]	@ zero_extendqisi2
 5934 4998 033080E0 		add	r3, r0, r3
 5935 499c 0030C4E5 		strb	r3, [r4, #0]
 5936 49a0 0030D5E5 		ldrb	r3, [r5, #0]	@ zero_extendqisi2
 5937 49a4 0020D4E5 		ldrb	r2, [r4, #0]	@ zero_extendqisi2
 5938 49a8 023083E0 		add	r3, r3, r2
 5939 49ac 0030C5E5 		strb	r3, [r5, #0]
 5940 49b0 FEFFFFEB 		bl	uart1_transmit
 5941 49b4 0200D6E5 		ldrb	r0, [r6, #2]	@ zero_extendqisi2
 5942 49b8 0030D4E5 		ldrb	r3, [r4, #0]	@ zero_extendqisi2
 5943 49bc 033080E0 		add	r3, r0, r3
 5944 49c0 0030C4E5 		strb	r3, [r4, #0]
 5945 49c4 0030D5E5 		ldrb	r3, [r5, #0]	@ zero_extendqisi2
 5946 49c8 0020D4E5 		ldrb	r2, [r4, #0]	@ zero_extendqisi2
 5947 49cc 023083E0 		add	r3, r3, r2
 5948 49d0 0030C5E5 		strb	r3, [r5, #0]
 5949 49d4 FEFFFFEB 		bl	uart1_transmit
 5950 49d8 0300D6E5 		ldrb	r0, [r6, #3]	@ zero_extendqisi2
 5951 49dc 0030D4E5 		ldrb	r3, [r4, #0]	@ zero_extendqisi2
 5952 49e0 033080E0 		add	r3, r0, r3
 5953 49e4 0030C4E5 		strb	r3, [r4, #0]
 5954 49e8 0030D5E5 		ldrb	r3, [r5, #0]	@ zero_extendqisi2
 5955 49ec 0020D4E5 		ldrb	r2, [r4, #0]	@ zero_extendqisi2
 5956 49f0 6C619FE5 		ldr	r6, .L444+28
 5957 49f4 023083E0 		add	r3, r3, r2
 5958 49f8 0030C5E5 		strb	r3, [r5, #0]
 5959 49fc FEFFFFEB 		bl	uart1_transmit
 5960 4a00 0000D6E5 		ldrb	r0, [r6, #0]	@ zero_extendqisi2
 5961 4a04 0030D4E5 		ldrb	r3, [r4, #0]	@ zero_extendqisi2
 5962 4a08 033080E0 		add	r3, r0, r3
 5963 4a0c 0030C4E5 		strb	r3, [r4, #0]
 5964 4a10 0030D5E5 		ldrb	r3, [r5, #0]	@ zero_extendqisi2
 5965 4a14 0020D4E5 		ldrb	r2, [r4, #0]	@ zero_extendqisi2
 5966 4a18 023083E0 		add	r3, r3, r2
 5967 4a1c 0030C5E5 		strb	r3, [r5, #0]
 5968 4a20 FEFFFFEB 		bl	uart1_transmit
 5969 4a24 0100D6E5 		ldrb	r0, [r6, #1]	@ zero_extendqisi2
 5970 4a28 0030D4E5 		ldrb	r3, [r4, #0]	@ zero_extendqisi2
 5971 4a2c 033080E0 		add	r3, r0, r3
 5972 4a30 0030C4E5 		strb	r3, [r4, #0]
 5973 4a34 0030D5E5 		ldrb	r3, [r5, #0]	@ zero_extendqisi2
 5974 4a38 0020D4E5 		ldrb	r2, [r4, #0]	@ zero_extendqisi2
 5975 4a3c 023083E0 		add	r3, r3, r2
 5976 4a40 0030C5E5 		strb	r3, [r5, #0]
 5977 4a44 FEFFFFEB 		bl	uart1_transmit
 5978 4a48 0200D6E5 		ldrb	r0, [r6, #2]	@ zero_extendqisi2
 5979 4a4c 0030D4E5 		ldrb	r3, [r4, #0]	@ zero_extendqisi2
 5980 4a50 033080E0 		add	r3, r0, r3
 5981 4a54 0030C4E5 		strb	r3, [r4, #0]
 5982 4a58 0030D5E5 		ldrb	r3, [r5, #0]	@ zero_extendqisi2
 5983 4a5c 0020D4E5 		ldrb	r2, [r4, #0]	@ zero_extendqisi2
 5984 4a60 023083E0 		add	r3, r3, r2
 5985 4a64 0030C5E5 		strb	r3, [r5, #0]
 5986 4a68 FEFFFFEB 		bl	uart1_transmit
 5987 4a6c 0300D6E5 		ldrb	r0, [r6, #3]	@ zero_extendqisi2
 5988 4a70 0030D4E5 		ldrb	r3, [r4, #0]	@ zero_extendqisi2
 5989 4a74 033080E0 		add	r3, r0, r3
 5990 4a78 0030C4E5 		strb	r3, [r4, #0]
 5991 4a7c 0030D5E5 		ldrb	r3, [r5, #0]	@ zero_extendqisi2
 5992 4a80 0020D4E5 		ldrb	r2, [r4, #0]	@ zero_extendqisi2
 5993 4a84 023083E0 		add	r3, r3, r2
 5994 4a88 0030C5E5 		strb	r3, [r5, #0]
 5995 4a8c FEFFFFEB 		bl	uart1_transmit
 5996 4a90 37005BE5 		ldrb	r0, [fp, #-55]	@ zero_extendqisi2
 5997 4a94 0030D4E5 		ldrb	r3, [r4, #0]	@ zero_extendqisi2
 5998 4a98 033080E0 		add	r3, r0, r3
 5999 4a9c 0030C4E5 		strb	r3, [r4, #0]
 6000 4aa0 0030D5E5 		ldrb	r3, [r5, #0]	@ zero_extendqisi2
 6001 4aa4 0020D4E5 		ldrb	r2, [r4, #0]	@ zero_extendqisi2
 6002 4aa8 023083E0 		add	r3, r3, r2
 6003 4aac 0030C5E5 		strb	r3, [r5, #0]
 6004 4ab0 FEFFFFEB 		bl	uart1_transmit
 6005 4ab4 AC309FE5 		ldr	r3, .L444+32
 6006 4ab8 0000D3E5 		ldrb	r0, [r3, #0]	@ zero_extendqisi2
 6007 4abc 0030D4E5 		ldrb	r3, [r4, #0]	@ zero_extendqisi2
 6008 4ac0 033080E0 		add	r3, r0, r3
 6009 4ac4 0030C4E5 		strb	r3, [r4, #0]
 6010 4ac8 0030D5E5 		ldrb	r3, [r5, #0]	@ zero_extendqisi2
 6011 4acc 0020D4E5 		ldrb	r2, [r4, #0]	@ zero_extendqisi2
 6012 4ad0 023083E0 		add	r3, r3, r2
 6013 4ad4 0030C5E5 		strb	r3, [r5, #0]
 6014 4ad8 FEFFFFEB 		bl	uart1_transmit
 6015 4adc 0000D4E5 		ldrb	r0, [r4, #0]	@ zero_extendqisi2
 6016 4ae0 FEFFFFEB 		bl	uart1_transmit
 6017 4ae4 0000D5E5 		ldrb	r0, [r5, #0]	@ zero_extendqisi2
 6018 4ae8 FEFFFFEB 		bl	uart1_transmit
 6019              	.L301:
 6020 4aec 78209FE5 		ldr	r2, .L444+36
 6021 4af0 0030D2E5 		ldrb	r3, [r2, #0]	@ zero_extendqisi2
 6022 4af4 2A0053E3 		cmp	r3, #42
 6023 4af8 8913001A 		bne	.L304
 6024 4afc 6C309FE5 		ldr	r3, .L444+40
 6025 4b00 0030D3E5 		ldrb	r3, [r3, #0]	@ zero_extendqisi2
 6026 4b04 000053E3 		cmp	r3, #0
 6027 4b08 8913000A 		beq	.L304
 6028 4b0c 1200A0E3 		mov	r0, #18
 6029 4b10 FEFFFFEB 		bl	uart1_check_free_space
 6030 4b14 FF0010E3 		tst	r0, #255
 6031 4b18 8C209F05 		ldreq	r2, .L444+100
 6032 4b1c 0030D205 		ldreqb	r3, [r2, #0]	@ zero_extendqisi2
 6033 4b20 01308302 		addeq	r3, r3, #1
 6034 4b24 0030C205 		streqb	r3, [r2, #0]
 6035 4b28 8913000A 		beq	.L304
 6036 4b2c B8109FE5 		ldr	r1, .L444+164
 6037 4b30 B8C09FE5 		ldr	ip, .L444+168
 6038 4b34 B030D1E1 		ldrh	r3, [r1, #0]
 6039 4b38 B020DCE1 		ldrh	r2, [ip, #0]
 6040 4b3c 123083E2 		add	r3, r3, #18
 6041 4b40 012082E2 		add	r2, r2, #1
 6042 4b44 FF1200EA 		b	.L445
 6043              	.L446:
 6044              		.align	2
 6045              	.L444:
 6046 4b48 FB211940 		.word	1075388923
 6047 4b4c 182D4454 		.word	1413754136
 6048 4b50 00000000 		.word	nav_block
 6049 4b54 00000000 		.word	nav_stage
 6050 4b58 00000000 		.word	estimator_x
 6051 4b5c 00000000 		.word	estimator_y
 6052 4b60 00000000 		.word	dist2_to_wp
 6053 4b64 00000000 		.word	dist2_to_home
 6054 4b68 00000000 		.word	nav_oval_count
 6055 4b6c 00000000 		.word	i183.37
 6056 4b70 00000000 		.word	nav_in_circle
 6057 4b74 00000000 		.word	nav_circle_x
 6058 4b78 00000000 		.word	nav_circle_y
 6059 4b7c 00000000 		.word	nav_circle_radius
 6060 4b80 00000000 		.word	i192.38
 6061 4b84 00000000 		.word	nav_in_segment
 6062 4b88 00000000 		.word	nav_segment_x_1
 6063 4b8c 00000000 		.word	nav_segment_y_1
 6064 4b90 00000000 		.word	nav_segment_x_2
 6065 4b94 00000000 		.word	nav_segment_y_2
 6066 4b98 00000000 		.word	i240.39
 6067 4b9c 00000000 		.word	estimator_phi
 6068 4ba0 00000000 		.word	estimator_psi
 6069 4ba4 00000000 		.word	estimator_theta
 6070 4ba8 00000000 		.word	i243.40
 6071 4bac 00000000 		.word	downlink_nb_ovrn
 6072 4bb0 00000000 		.word	h_ctl_roll_setpoint
 6073 4bb4 00000000 		.word	h_ctl_pitch_loop_setpoint
 6074 4bb8 00000000 		.word	h_ctl_course_setpoint
 6075 4bbc 00000000 		.word	desired_x
 6076 4bc0 00000000 		.word	desired_y
 6077 4bc4 00000000 		.word	v_ctl_altitude_setpoint
 6078 4bc8 00000000 		.word	v_ctl_climb_setpoint
 6079 4bcc 00000000 		.word	i300.41
 6080 4bd0 00000000 		.word	.LC0
 6081 4bd4 00000000 		.word	pprz_mode
 6082 4bd8 00000000 		.word	v_ctl_mode
 6083 4bdc 00000000 		.word	lateral_mode
 6084 4be0 00000000 		.word	horizontal_mode
 6085 4be4 00000000 		.word	rc_settings_mode
 6086 4be8 00000000 		.word	mcu1_status
 6087 4bec 00000000 		.word	downlink_nb_bytes
 6088 4bf0 00000000 		.word	downlink_nb_msgs
 6089 4bf4 00000000 		.word	ck_a
 6090 4bf8 00000000 		.word	ck_b
 6091 4bfc 00000000 		.word	gps_Pacc
 6092 4c00 00000000 		.word	gps_Sacc
 6093              	.L445:
 6094 4c04 B030C1E1 		strh	r3, [r1, #0]	@ movhi 
 6095 4c08 B020CCE1 		strh	r2, [ip, #0]	@ movhi 
 6096 4c0c 9900A0E3 		mov	r0, #153
 6097 4c10 24401FE5 		ldr	r4, .L444+172
 6098 4c14 FEFFFFEB 		bl	uart1_transmit
 6099 4c18 1200A0E3 		mov	r0, #18
 6100 4c1c 2C501FE5 		ldr	r5, .L444+176
 6101 4c20 FEFFFFEB 		bl	uart1_transmit
 6102 4c24 1C30A0E3 		mov	r3, #28
 6103 4c28 0030C4E5 		strb	r3, [r4, #0]
 6104 4c2c 123083E2 		add	r3, r3, #18
 6105 4c30 0A00A0E3 		mov	r0, #10
 6106 4c34 0030C5E5 		strb	r3, [r5, #0]
 6107 4c38 FEFFFFEB 		bl	uart1_transmit
 6108 4c3c 0030D4E5 		ldrb	r3, [r4, #0]	@ zero_extendqisi2
 6109 4c40 153083E2 		add	r3, r3, #21
 6110 4c44 0030C4E5 		strb	r3, [r4, #0]
 6111 4c48 0030D5E5 		ldrb	r3, [r5, #0]	@ zero_extendqisi2
 6112 4c4c 0020D4E5 		ldrb	r2, [r4, #0]	@ zero_extendqisi2
 6113 4c50 E4601FE5 		ldr	r6, .L444+44
 6114 4c54 023083E0 		add	r3, r3, r2
 6115 4c58 1500A0E3 		mov	r0, #21
 6116 4c5c 0030C5E5 		strb	r3, [r5, #0]
 6117 4c60 FEFFFFEB 		bl	uart1_transmit
 6118 4c64 0000D6E5 		ldrb	r0, [r6, #0]	@ zero_extendqisi2
 6119 4c68 0030D4E5 		ldrb	r3, [r4, #0]	@ zero_extendqisi2
 6120 4c6c 033080E0 		add	r3, r0, r3
 6121 4c70 0030C4E5 		strb	r3, [r4, #0]
 6122 4c74 0030D5E5 		ldrb	r3, [r5, #0]	@ zero_extendqisi2
 6123 4c78 0020D4E5 		ldrb	r2, [r4, #0]	@ zero_extendqisi2
 6124 4c7c 023083E0 		add	r3, r3, r2
 6125 4c80 0030C5E5 		strb	r3, [r5, #0]
 6126 4c84 FEFFFFEB 		bl	uart1_transmit
 6127 4c88 0100D6E5 		ldrb	r0, [r6, #1]	@ zero_extendqisi2
 6128 4c8c 0030D4E5 		ldrb	r3, [r4, #0]	@ zero_extendqisi2
 6129 4c90 033080E0 		add	r3, r0, r3
 6130 4c94 0030C4E5 		strb	r3, [r4, #0]
 6131 4c98 0030D5E5 		ldrb	r3, [r5, #0]	@ zero_extendqisi2
 6132 4c9c 0020D4E5 		ldrb	r2, [r4, #0]	@ zero_extendqisi2
 6133 4ca0 023083E0 		add	r3, r3, r2
 6134 4ca4 0030C5E5 		strb	r3, [r5, #0]
 6135 4ca8 FEFFFFEB 		bl	uart1_transmit
 6136 4cac 0200D6E5 		ldrb	r0, [r6, #2]	@ zero_extendqisi2
 6137 4cb0 0030D4E5 		ldrb	r3, [r4, #0]	@ zero_extendqisi2
 6138 4cb4 033080E0 		add	r3, r0, r3
 6139 4cb8 0030C4E5 		strb	r3, [r4, #0]
 6140 4cbc 0030D5E5 		ldrb	r3, [r5, #0]	@ zero_extendqisi2
 6141 4cc0 0020D4E5 		ldrb	r2, [r4, #0]	@ zero_extendqisi2
 6142 4cc4 023083E0 		add	r3, r3, r2
 6143 4cc8 0030C5E5 		strb	r3, [r5, #0]
 6144 4ccc FEFFFFEB 		bl	uart1_transmit
 6145 4cd0 0300D6E5 		ldrb	r0, [r6, #3]	@ zero_extendqisi2
 6146 4cd4 0030D4E5 		ldrb	r3, [r4, #0]	@ zero_extendqisi2
 6147 4cd8 033080E0 		add	r3, r0, r3
 6148 4cdc 0030C4E5 		strb	r3, [r4, #0]
 6149 4ce0 0030D5E5 		ldrb	r3, [r5, #0]	@ zero_extendqisi2
 6150 4ce4 0020D4E5 		ldrb	r2, [r4, #0]	@ zero_extendqisi2
 6151 4ce8 78611FE5 		ldr	r6, .L444+48
 6152 4cec 023083E0 		add	r3, r3, r2
 6153 4cf0 0030C5E5 		strb	r3, [r5, #0]
 6154 4cf4 FEFFFFEB 		bl	uart1_transmit
 6155 4cf8 0000D6E5 		ldrb	r0, [r6, #0]	@ zero_extendqisi2
 6156 4cfc 0030D4E5 		ldrb	r3, [r4, #0]	@ zero_extendqisi2
 6157 4d00 033080E0 		add	r3, r0, r3
 6158 4d04 0030C4E5 		strb	r3, [r4, #0]
 6159 4d08 0030D5E5 		ldrb	r3, [r5, #0]	@ zero_extendqisi2
 6160 4d0c 0020D4E5 		ldrb	r2, [r4, #0]	@ zero_extendqisi2
 6161 4d10 023083E0 		add	r3, r3, r2
 6162 4d14 0030C5E5 		strb	r3, [r5, #0]
 6163 4d18 FEFFFFEB 		bl	uart1_transmit
 6164 4d1c 0100D6E5 		ldrb	r0, [r6, #1]	@ zero_extendqisi2
 6165 4d20 0030D4E5 		ldrb	r3, [r4, #0]	@ zero_extendqisi2
 6166 4d24 033080E0 		add	r3, r0, r3
 6167 4d28 0030C4E5 		strb	r3, [r4, #0]
 6168 4d2c 0030D5E5 		ldrb	r3, [r5, #0]	@ zero_extendqisi2
 6169 4d30 0020D4E5 		ldrb	r2, [r4, #0]	@ zero_extendqisi2
 6170 4d34 023083E0 		add	r3, r3, r2
 6171 4d38 0030C5E5 		strb	r3, [r5, #0]
 6172 4d3c FEFFFFEB 		bl	uart1_transmit
 6173 4d40 0200D6E5 		ldrb	r0, [r6, #2]	@ zero_extendqisi2
 6174 4d44 0030D4E5 		ldrb	r3, [r4, #0]	@ zero_extendqisi2
 6175 4d48 033080E0 		add	r3, r0, r3
 6176 4d4c 0030C4E5 		strb	r3, [r4, #0]
 6177 4d50 0030D5E5 		ldrb	r3, [r5, #0]	@ zero_extendqisi2
 6178 4d54 0020D4E5 		ldrb	r2, [r4, #0]	@ zero_extendqisi2
 6179 4d58 023083E0 		add	r3, r3, r2
 6180 4d5c 0030C5E5 		strb	r3, [r5, #0]
 6181 4d60 FEFFFFEB 		bl	uart1_transmit
 6182 4d64 0300D6E5 		ldrb	r0, [r6, #3]	@ zero_extendqisi2
 6183 4d68 0030D4E5 		ldrb	r3, [r4, #0]	@ zero_extendqisi2
 6184 4d6c 033080E0 		add	r3, r0, r3
 6185 4d70 0030C4E5 		strb	r3, [r4, #0]
 6186 4d74 0030D5E5 		ldrb	r3, [r5, #0]	@ zero_extendqisi2
 6187 4d78 0020D4E5 		ldrb	r2, [r4, #0]	@ zero_extendqisi2
 6188 4d7c 08621FE5 		ldr	r6, .L444+52
 6189 4d80 023083E0 		add	r3, r3, r2
 6190 4d84 0030C5E5 		strb	r3, [r5, #0]
 6191 4d88 FEFFFFEB 		bl	uart1_transmit
 6192 4d8c 0000D6E5 		ldrb	r0, [r6, #0]	@ zero_extendqisi2
 6193 4d90 0030D4E5 		ldrb	r3, [r4, #0]	@ zero_extendqisi2
 6194 4d94 033080E0 		add	r3, r0, r3
 6195 4d98 0030C4E5 		strb	r3, [r4, #0]
 6196 4d9c 0030D5E5 		ldrb	r3, [r5, #0]	@ zero_extendqisi2
 6197 4da0 0020D4E5 		ldrb	r2, [r4, #0]	@ zero_extendqisi2
 6198 4da4 023083E0 		add	r3, r3, r2
 6199 4da8 0030C5E5 		strb	r3, [r5, #0]
 6200 4dac FEFFFFEB 		bl	uart1_transmit
 6201 4db0 0100D6E5 		ldrb	r0, [r6, #1]	@ zero_extendqisi2
 6202 4db4 0030D4E5 		ldrb	r3, [r4, #0]	@ zero_extendqisi2
 6203 4db8 033080E0 		add	r3, r0, r3
 6204 4dbc 0030C4E5 		strb	r3, [r4, #0]
 6205 4dc0 0030D5E5 		ldrb	r3, [r5, #0]	@ zero_extendqisi2
 6206 4dc4 0020D4E5 		ldrb	r2, [r4, #0]	@ zero_extendqisi2
 6207 4dc8 023083E0 		add	r3, r3, r2
 6208 4dcc 0030C5E5 		strb	r3, [r5, #0]
 6209 4dd0 FEFFFFEB 		bl	uart1_transmit
 6210 4dd4 0200D6E5 		ldrb	r0, [r6, #2]	@ zero_extendqisi2
 6211 4dd8 0030D4E5 		ldrb	r3, [r4, #0]	@ zero_extendqisi2
 6212 4ddc 033080E0 		add	r3, r0, r3
 6213 4de0 0030C4E5 		strb	r3, [r4, #0]
 6214 4de4 0030D5E5 		ldrb	r3, [r5, #0]	@ zero_extendqisi2
 6215 4de8 0020D4E5 		ldrb	r2, [r4, #0]	@ zero_extendqisi2
 6216 4dec 023083E0 		add	r3, r3, r2
 6217 4df0 0030C5E5 		strb	r3, [r5, #0]
 6218 4df4 FEFFFFEB 		bl	uart1_transmit
 6219 4df8 0300D6E5 		ldrb	r0, [r6, #3]	@ zero_extendqisi2
 6220 4dfc 0030D4E5 		ldrb	r3, [r4, #0]	@ zero_extendqisi2
 6221 4e00 033080E0 		add	r3, r0, r3
 6222 4e04 0030C4E5 		strb	r3, [r4, #0]
 6223 4e08 0030D5E5 		ldrb	r3, [r5, #0]	@ zero_extendqisi2
 6224 4e0c 0020D4E5 		ldrb	r2, [r4, #0]	@ zero_extendqisi2
 6225 4e10 023083E0 		add	r3, r3, r2
 6226 4e14 0030C5E5 		strb	r3, [r5, #0]
 6227 4e18 FEFFFFEB 		bl	uart1_transmit
 6228 4e1c 0000D4E5 		ldrb	r0, [r4, #0]	@ zero_extendqisi2
 6229 4e20 FEFFFFEB 		bl	uart1_transmit
 6230 4e24 0000D5E5 		ldrb	r0, [r5, #0]	@ zero_extendqisi2
 6231 4e28 FEFFFFEB 		bl	uart1_transmit
 6232              	.L304:
 6233 4e2c B4221FE5 		ldr	r2, .L444+56
 6234 4e30 0030D2E5 		ldrb	r3, [r2, #0]	@ zero_extendqisi2
 6235 4e34 300053E3 		cmp	r3, #48
 6236 4e38 4F14001A 		bne	.L308
 6237 4e3c C0321FE5 		ldr	r3, .L444+60
 6238 4e40 0030D3E5 		ldrb	r3, [r3, #0]	@ zero_extendqisi2
 6239 4e44 000053E3 		cmp	r3, #0
 6240 4e48 4F14000A 		beq	.L308
 6241 4e4c 1600A0E3 		mov	r0, #22
 6242 4e50 FEFFFFEB 		bl	uart1_check_free_space
 6243 4e54 FF0010E3 		tst	r0, #255
 6244 4e58 B4221F05 		ldreq	r2, .L444+100
 6245 4e5c 0030D205 		ldreqb	r3, [r2, #0]	@ zero_extendqisi2
 6246 4e60 01308302 		addeq	r3, r3, #1
 6247 4e64 0030C205 		streqb	r3, [r2, #0]
 6248 4e68 4F14000A 		beq	.L308
 6249 4e6c 88121FE5 		ldr	r1, .L444+164
 6250 4e70 88C21FE5 		ldr	ip, .L444+168
 6251 4e74 B030D1E1 		ldrh	r3, [r1, #0]
 6252 4e78 B020DCE1 		ldrh	r2, [ip, #0]
 6253 4e7c 163083E2 		add	r3, r3, #22
 6254 4e80 012082E2 		add	r2, r2, #1
 6255 4e84 B030C1E1 		strh	r3, [r1, #0]	@ movhi 
 6256 4e88 B020CCE1 		strh	r2, [ip, #0]	@ movhi 
 6257 4e8c 1670A0E3 		mov	r7, #22
 6258 4e90 9900A0E3 		mov	r0, #153
 6259 4e94 A8421FE5 		ldr	r4, .L444+172
 6260 4e98 FEFFFFEB 		bl	uart1_transmit
 6261 4e9c 0700A0E1 		mov	r0, r7
 6262 4ea0 B0521FE5 		ldr	r5, .L444+176
 6263 4ea4 FEFFFFEB 		bl	uart1_transmit
 6264 4ea8 2030A0E3 		mov	r3, #32
 6265 4eac 0030C4E5 		strb	r3, [r4, #0]
 6266 4eb0 073083E0 		add	r3, r3, r7
 6267 4eb4 0A00A0E3 		mov	r0, #10
 6268 4eb8 0030C5E5 		strb	r3, [r5, #0]
 6269 4ebc FEFFFFEB 		bl	uart1_transmit
 6270 4ec0 0030D4E5 		ldrb	r3, [r4, #0]	@ zero_extendqisi2
 6271 4ec4 073083E0 		add	r3, r3, r7
 6272 4ec8 0030C4E5 		strb	r3, [r4, #0]
 6273 4ecc 0030D5E5 		ldrb	r3, [r5, #0]	@ zero_extendqisi2
 6274 4ed0 0020D4E5 		ldrb	r2, [r4, #0]	@ zero_extendqisi2
 6275 4ed4 54631FE5 		ldr	r6, .L444+64
 6276 4ed8 023083E0 		add	r3, r3, r2
 6277 4edc 0700A0E1 		mov	r0, r7
 6278 4ee0 0030C5E5 		strb	r3, [r5, #0]
 6279 4ee4 FEFFFFEB 		bl	uart1_transmit
 6280 4ee8 0000D6E5 		ldrb	r0, [r6, #0]	@ zero_extendqisi2
 6281 4eec 0030D4E5 		ldrb	r3, [r4, #0]	@ zero_extendqisi2
 6282 4ef0 033080E0 		add	r3, r0, r3
 6283 4ef4 0030C4E5 		strb	r3, [r4, #0]
 6284 4ef8 0030D5E5 		ldrb	r3, [r5, #0]	@ zero_extendqisi2
 6285 4efc 0020D4E5 		ldrb	r2, [r4, #0]	@ zero_extendqisi2
 6286 4f00 023083E0 		add	r3, r3, r2
 6287 4f04 0030C5E5 		strb	r3, [r5, #0]
 6288 4f08 FEFFFFEB 		bl	uart1_transmit
 6289 4f0c 0100D6E5 		ldrb	r0, [r6, #1]	@ zero_extendqisi2
 6290 4f10 0030D4E5 		ldrb	r3, [r4, #0]	@ zero_extendqisi2
 6291 4f14 033080E0 		add	r3, r0, r3
 6292 4f18 0030C4E5 		strb	r3, [r4, #0]
 6293 4f1c 0030D5E5 		ldrb	r3, [r5, #0]	@ zero_extendqisi2
 6294 4f20 0020D4E5 		ldrb	r2, [r4, #0]	@ zero_extendqisi2
 6295 4f24 023083E0 		add	r3, r3, r2
 6296 4f28 0030C5E5 		strb	r3, [r5, #0]
 6297 4f2c FEFFFFEB 		bl	uart1_transmit
 6298 4f30 0200D6E5 		ldrb	r0, [r6, #2]	@ zero_extendqisi2
 6299 4f34 0030D4E5 		ldrb	r3, [r4, #0]	@ zero_extendqisi2
 6300 4f38 033080E0 		add	r3, r0, r3
 6301 4f3c 0030C4E5 		strb	r3, [r4, #0]
 6302 4f40 0030D5E5 		ldrb	r3, [r5, #0]	@ zero_extendqisi2
 6303 4f44 0020D4E5 		ldrb	r2, [r4, #0]	@ zero_extendqisi2
 6304 4f48 023083E0 		add	r3, r3, r2
 6305 4f4c 0030C5E5 		strb	r3, [r5, #0]
 6306 4f50 FEFFFFEB 		bl	uart1_transmit
 6307 4f54 0300D6E5 		ldrb	r0, [r6, #3]	@ zero_extendqisi2
 6308 4f58 0030D4E5 		ldrb	r3, [r4, #0]	@ zero_extendqisi2
 6309 4f5c 033080E0 		add	r3, r0, r3
 6310 4f60 0030C4E5 		strb	r3, [r4, #0]
 6311 4f64 0030D5E5 		ldrb	r3, [r5, #0]	@ zero_extendqisi2
 6312 4f68 0020D4E5 		ldrb	r2, [r4, #0]	@ zero_extendqisi2
 6313 4f6c E8631FE5 		ldr	r6, .L444+68
 6314 4f70 023083E0 		add	r3, r3, r2
 6315 4f74 0030C5E5 		strb	r3, [r5, #0]
 6316 4f78 FEFFFFEB 		bl	uart1_transmit
 6317 4f7c 0000D6E5 		ldrb	r0, [r6, #0]	@ zero_extendqisi2
 6318 4f80 0030D4E5 		ldrb	r3, [r4, #0]	@ zero_extendqisi2
 6319 4f84 033080E0 		add	r3, r0, r3
 6320 4f88 0030C4E5 		strb	r3, [r4, #0]
 6321 4f8c 0030D5E5 		ldrb	r3, [r5, #0]	@ zero_extendqisi2
 6322 4f90 0020D4E5 		ldrb	r2, [r4, #0]	@ zero_extendqisi2
 6323 4f94 023083E0 		add	r3, r3, r2
 6324 4f98 0030C5E5 		strb	r3, [r5, #0]
 6325 4f9c FEFFFFEB 		bl	uart1_transmit
 6326 4fa0 0100D6E5 		ldrb	r0, [r6, #1]	@ zero_extendqisi2
 6327 4fa4 0030D4E5 		ldrb	r3, [r4, #0]	@ zero_extendqisi2
 6328 4fa8 033080E0 		add	r3, r0, r3
 6329 4fac 0030C4E5 		strb	r3, [r4, #0]
 6330 4fb0 0030D5E5 		ldrb	r3, [r5, #0]	@ zero_extendqisi2
 6331 4fb4 0020D4E5 		ldrb	r2, [r4, #0]	@ zero_extendqisi2
 6332 4fb8 023083E0 		add	r3, r3, r2
 6333 4fbc 0030C5E5 		strb	r3, [r5, #0]
 6334 4fc0 FEFFFFEB 		bl	uart1_transmit
 6335 4fc4 0200D6E5 		ldrb	r0, [r6, #2]	@ zero_extendqisi2
 6336 4fc8 0030D4E5 		ldrb	r3, [r4, #0]	@ zero_extendqisi2
 6337 4fcc 033080E0 		add	r3, r0, r3
 6338 4fd0 0030C4E5 		strb	r3, [r4, #0]
 6339 4fd4 0030D5E5 		ldrb	r3, [r5, #0]	@ zero_extendqisi2
 6340 4fd8 0020D4E5 		ldrb	r2, [r4, #0]	@ zero_extendqisi2
 6341 4fdc 023083E0 		add	r3, r3, r2
 6342 4fe0 0030C5E5 		strb	r3, [r5, #0]
 6343 4fe4 FEFFFFEB 		bl	uart1_transmit
 6344 4fe8 0300D6E5 		ldrb	r0, [r6, #3]	@ zero_extendqisi2
 6345 4fec 0030D4E5 		ldrb	r3, [r4, #0]	@ zero_extendqisi2
 6346 4ff0 033080E0 		add	r3, r0, r3
 6347 4ff4 0030C4E5 		strb	r3, [r4, #0]
 6348 4ff8 0030D5E5 		ldrb	r3, [r5, #0]	@ zero_extendqisi2
 6349 4ffc 0020D4E5 		ldrb	r2, [r4, #0]	@ zero_extendqisi2
 6350 5000 78641FE5 		ldr	r6, .L444+72
 6351 5004 023083E0 		add	r3, r3, r2
 6352 5008 0030C5E5 		strb	r3, [r5, #0]
 6353 500c FEFFFFEB 		bl	uart1_transmit
 6354 5010 0000D6E5 		ldrb	r0, [r6, #0]	@ zero_extendqisi2
 6355 5014 0030D4E5 		ldrb	r3, [r4, #0]	@ zero_extendqisi2
 6356 5018 033080E0 		add	r3, r0, r3
 6357 501c 0030C4E5 		strb	r3, [r4, #0]
 6358 5020 0030D5E5 		ldrb	r3, [r5, #0]	@ zero_extendqisi2
 6359 5024 0020D4E5 		ldrb	r2, [r4, #0]	@ zero_extendqisi2
 6360 5028 023083E0 		add	r3, r3, r2
 6361 502c 0030C5E5 		strb	r3, [r5, #0]
 6362 5030 FEFFFFEB 		bl	uart1_transmit
 6363 5034 0100D6E5 		ldrb	r0, [r6, #1]	@ zero_extendqisi2
 6364 5038 0030D4E5 		ldrb	r3, [r4, #0]	@ zero_extendqisi2
 6365 503c 033080E0 		add	r3, r0, r3
 6366 5040 0030C4E5 		strb	r3, [r4, #0]
 6367 5044 0030D5E5 		ldrb	r3, [r5, #0]	@ zero_extendqisi2
 6368 5048 0020D4E5 		ldrb	r2, [r4, #0]	@ zero_extendqisi2
 6369 504c 023083E0 		add	r3, r3, r2
 6370 5050 0030C5E5 		strb	r3, [r5, #0]
 6371 5054 FEFFFFEB 		bl	uart1_transmit
 6372 5058 0200D6E5 		ldrb	r0, [r6, #2]	@ zero_extendqisi2
 6373 505c 0030D4E5 		ldrb	r3, [r4, #0]	@ zero_extendqisi2
 6374 5060 033080E0 		add	r3, r0, r3
 6375 5064 0030C4E5 		strb	r3, [r4, #0]
 6376 5068 0030D5E5 		ldrb	r3, [r5, #0]	@ zero_extendqisi2
 6377 506c 0020D4E5 		ldrb	r2, [r4, #0]	@ zero_extendqisi2
 6378 5070 023083E0 		add	r3, r3, r2
 6379 5074 0030C5E5 		strb	r3, [r5, #0]
 6380 5078 FEFFFFEB 		bl	uart1_transmit
 6381 507c 0300D6E5 		ldrb	r0, [r6, #3]	@ zero_extendqisi2
 6382 5080 0030D4E5 		ldrb	r3, [r4, #0]	@ zero_extendqisi2
 6383 5084 033080E0 		add	r3, r0, r3
 6384 5088 0030C4E5 		strb	r3, [r4, #0]
 6385 508c 0030D5E5 		ldrb	r3, [r5, #0]	@ zero_extendqisi2
 6386 5090 0020D4E5 		ldrb	r2, [r4, #0]	@ zero_extendqisi2
 6387 5094 08651FE5 		ldr	r6, .L444+76
 6388 5098 023083E0 		add	r3, r3, r2
 6389 509c 0030C5E5 		strb	r3, [r5, #0]
 6390 50a0 FEFFFFEB 		bl	uart1_transmit
 6391 50a4 0000D6E5 		ldrb	r0, [r6, #0]	@ zero_extendqisi2
 6392 50a8 0030D4E5 		ldrb	r3, [r4, #0]	@ zero_extendqisi2
 6393 50ac 033080E0 		add	r3, r0, r3
 6394 50b0 0030C4E5 		strb	r3, [r4, #0]
 6395 50b4 0030D5E5 		ldrb	r3, [r5, #0]	@ zero_extendqisi2
 6396 50b8 0020D4E5 		ldrb	r2, [r4, #0]	@ zero_extendqisi2
 6397 50bc 023083E0 		add	r3, r3, r2
 6398 50c0 0030C5E5 		strb	r3, [r5, #0]
 6399 50c4 FEFFFFEB 		bl	uart1_transmit
 6400 50c8 0100D6E5 		ldrb	r0, [r6, #1]	@ zero_extendqisi2
 6401 50cc 0030D4E5 		ldrb	r3, [r4, #0]	@ zero_extendqisi2
 6402 50d0 033080E0 		add	r3, r0, r3
 6403 50d4 0030C4E5 		strb	r3, [r4, #0]
 6404 50d8 0030D5E5 		ldrb	r3, [r5, #0]	@ zero_extendqisi2
 6405 50dc 0020D4E5 		ldrb	r2, [r4, #0]	@ zero_extendqisi2
 6406 50e0 023083E0 		add	r3, r3, r2
 6407 50e4 0030C5E5 		strb	r3, [r5, #0]
 6408 50e8 FEFFFFEB 		bl	uart1_transmit
 6409 50ec 0200D6E5 		ldrb	r0, [r6, #2]	@ zero_extendqisi2
 6410 50f0 0030D4E5 		ldrb	r3, [r4, #0]	@ zero_extendqisi2
 6411 50f4 033080E0 		add	r3, r0, r3
 6412 50f8 0030C4E5 		strb	r3, [r4, #0]
 6413 50fc 0030D5E5 		ldrb	r3, [r5, #0]	@ zero_extendqisi2
 6414 5100 0020D4E5 		ldrb	r2, [r4, #0]	@ zero_extendqisi2
 6415 5104 023083E0 		add	r3, r3, r2
 6416 5108 0030C5E5 		strb	r3, [r5, #0]
 6417 510c FEFFFFEB 		bl	uart1_transmit
 6418 5110 0300D6E5 		ldrb	r0, [r6, #3]	@ zero_extendqisi2
 6419 5114 0030D4E5 		ldrb	r3, [r4, #0]	@ zero_extendqisi2
 6420 5118 033080E0 		add	r3, r0, r3
 6421 511c 0030C4E5 		strb	r3, [r4, #0]
 6422 5120 0030D5E5 		ldrb	r3, [r5, #0]	@ zero_extendqisi2
 6423 5124 0020D4E5 		ldrb	r2, [r4, #0]	@ zero_extendqisi2
 6424 5128 023083E0 		add	r3, r3, r2
 6425 512c 0030C5E5 		strb	r3, [r5, #0]
 6426 5130 FEFFFFEB 		bl	uart1_transmit
 6427 5134 0000D4E5 		ldrb	r0, [r4, #0]	@ zero_extendqisi2
 6428 5138 FEFFFFEB 		bl	uart1_transmit
 6429 513c 0000D5E5 		ldrb	r0, [r5, #0]	@ zero_extendqisi2
 6430 5140 FEFFFFEB 		bl	uart1_transmit
 6431              	.L308:
 6432 5144 B4251FE5 		ldr	r2, .L444+80
 6433 5148 0030D2E5 		ldrb	r3, [r2, #0]	@ zero_extendqisi2
 6434 514c 360053E3 		cmp	r3, #54
 6435 5150 EB14001A 		bne	.L312
 6436 5154 1200A0E3 		mov	r0, #18
 6437 5158 FEFFFFEB 		bl	uart1_check_free_space
 6438 515c FF0010E3 		tst	r0, #255
 6439 5160 BC251F05 		ldreq	r2, .L444+100
 6440 5164 0030D205 		ldreqb	r3, [r2, #0]	@ zero_extendqisi2
 6441 5168 01308302 		addeq	r3, r3, #1
 6442 516c 0030C205 		streqb	r3, [r2, #0]
 6443 5170 EB14000A 		beq	.L312
 6444 5174 90151FE5 		ldr	r1, .L444+164
 6445 5178 90C51FE5 		ldr	ip, .L444+168
 6446 517c B030D1E1 		ldrh	r3, [r1, #0]
 6447 5180 B020DCE1 		ldrh	r2, [ip, #0]
 6448 5184 123083E2 		add	r3, r3, #18
 6449 5188 012082E2 		add	r2, r2, #1
 6450 518c B030C1E1 		strh	r3, [r1, #0]	@ movhi 
 6451 5190 B020CCE1 		strh	r2, [ip, #0]	@ movhi 
 6452 5194 9900A0E3 		mov	r0, #153
 6453 5198 AC451FE5 		ldr	r4, .L444+172
 6454 519c FEFFFFEB 		bl	uart1_transmit
 6455 51a0 1200A0E3 		mov	r0, #18
 6456 51a4 B4551FE5 		ldr	r5, .L444+176
 6457 51a8 FEFFFFEB 		bl	uart1_transmit
 6458 51ac 1C30A0E3 		mov	r3, #28
 6459 51b0 0030C4E5 		strb	r3, [r4, #0]
 6460 51b4 123083E2 		add	r3, r3, #18
 6461 51b8 0A00A0E3 		mov	r0, #10
 6462 51bc 0030C5E5 		strb	r3, [r5, #0]
 6463 51c0 FEFFFFEB 		bl	uart1_transmit
 6464 51c4 0030D4E5 		ldrb	r3, [r4, #0]	@ zero_extendqisi2
 6465 51c8 063083E2 		add	r3, r3, #6
 6466 51cc 0030C4E5 		strb	r3, [r4, #0]
 6467 51d0 0030D5E5 		ldrb	r3, [r5, #0]	@ zero_extendqisi2
 6468 51d4 0020D4E5 		ldrb	r2, [r4, #0]	@ zero_extendqisi2
 6469 51d8 44661FE5 		ldr	r6, .L444+84
 6470 51dc 023083E0 		add	r3, r3, r2
 6471 51e0 0600A0E3 		mov	r0, #6
 6472 51e4 0030C5E5 		strb	r3, [r5, #0]
 6473 51e8 FEFFFFEB 		bl	uart1_transmit
 6474 51ec 0000D6E5 		ldrb	r0, [r6, #0]	@ zero_extendqisi2
 6475 51f0 0030D4E5 		ldrb	r3, [r4, #0]	@ zero_extendqisi2
 6476 51f4 033080E0 		add	r3, r0, r3
 6477 51f8 0030C4E5 		strb	r3, [r4, #0]
 6478 51fc 0030D5E5 		ldrb	r3, [r5, #0]	@ zero_extendqisi2
 6479 5200 0020D4E5 		ldrb	r2, [r4, #0]	@ zero_extendqisi2
 6480 5204 023083E0 		add	r3, r3, r2
 6481 5208 0030C5E5 		strb	r3, [r5, #0]
 6482 520c FEFFFFEB 		bl	uart1_transmit
 6483 5210 0100D6E5 		ldrb	r0, [r6, #1]	@ zero_extendqisi2
 6484 5214 0030D4E5 		ldrb	r3, [r4, #0]	@ zero_extendqisi2
 6485 5218 033080E0 		add	r3, r0, r3
 6486 521c 0030C4E5 		strb	r3, [r4, #0]
 6487 5220 0030D5E5 		ldrb	r3, [r5, #0]	@ zero_extendqisi2
 6488 5224 0020D4E5 		ldrb	r2, [r4, #0]	@ zero_extendqisi2
 6489 5228 023083E0 		add	r3, r3, r2
 6490 522c 0030C5E5 		strb	r3, [r5, #0]
 6491 5230 FEFFFFEB 		bl	uart1_transmit
 6492 5234 0200D6E5 		ldrb	r0, [r6, #2]	@ zero_extendqisi2
 6493 5238 0030D4E5 		ldrb	r3, [r4, #0]	@ zero_extendqisi2
 6494 523c 033080E0 		add	r3, r0, r3
 6495 5240 0030C4E5 		strb	r3, [r4, #0]
 6496 5244 0030D5E5 		ldrb	r3, [r5, #0]	@ zero_extendqisi2
 6497 5248 0020D4E5 		ldrb	r2, [r4, #0]	@ zero_extendqisi2
 6498 524c 023083E0 		add	r3, r3, r2
 6499 5250 0030C5E5 		strb	r3, [r5, #0]
 6500 5254 FEFFFFEB 		bl	uart1_transmit
 6501 5258 0300D6E5 		ldrb	r0, [r6, #3]	@ zero_extendqisi2
 6502 525c 0030D4E5 		ldrb	r3, [r4, #0]	@ zero_extendqisi2
 6503 5260 033080E0 		add	r3, r0, r3
 6504 5264 0030C4E5 		strb	r3, [r4, #0]
 6505 5268 0030D5E5 		ldrb	r3, [r5, #0]	@ zero_extendqisi2
 6506 526c 0020D4E5 		ldrb	r2, [r4, #0]	@ zero_extendqisi2
 6507 5270 D8661FE5 		ldr	r6, .L444+88
 6508 5274 023083E0 		add	r3, r3, r2
 6509 5278 0030C5E5 		strb	r3, [r5, #0]
 6510 527c FEFFFFEB 		bl	uart1_transmit
 6511 5280 0000D6E5 		ldrb	r0, [r6, #0]	@ zero_extendqisi2
 6512 5284 0030D4E5 		ldrb	r3, [r4, #0]	@ zero_extendqisi2
 6513 5288 033080E0 		add	r3, r0, r3
 6514 528c 0030C4E5 		strb	r3, [r4, #0]
 6515 5290 0030D5E5 		ldrb	r3, [r5, #0]	@ zero_extendqisi2
 6516 5294 0020D4E5 		ldrb	r2, [r4, #0]	@ zero_extendqisi2
 6517 5298 023083E0 		add	r3, r3, r2
 6518 529c 0030C5E5 		strb	r3, [r5, #0]
 6519 52a0 FEFFFFEB 		bl	uart1_transmit
 6520 52a4 0100D6E5 		ldrb	r0, [r6, #1]	@ zero_extendqisi2
 6521 52a8 0030D4E5 		ldrb	r3, [r4, #0]	@ zero_extendqisi2
 6522 52ac 033080E0 		add	r3, r0, r3
 6523 52b0 0030C4E5 		strb	r3, [r4, #0]
 6524 52b4 0030D5E5 		ldrb	r3, [r5, #0]	@ zero_extendqisi2
 6525 52b8 0020D4E5 		ldrb	r2, [r4, #0]	@ zero_extendqisi2
 6526 52bc 023083E0 		add	r3, r3, r2
 6527 52c0 0030C5E5 		strb	r3, [r5, #0]
 6528 52c4 FEFFFFEB 		bl	uart1_transmit
 6529 52c8 0200D6E5 		ldrb	r0, [r6, #2]	@ zero_extendqisi2
 6530 52cc 0030D4E5 		ldrb	r3, [r4, #0]	@ zero_extendqisi2
 6531 52d0 033080E0 		add	r3, r0, r3
 6532 52d4 0030C4E5 		strb	r3, [r4, #0]
 6533 52d8 0030D5E5 		ldrb	r3, [r5, #0]	@ zero_extendqisi2
 6534 52dc 0020D4E5 		ldrb	r2, [r4, #0]	@ zero_extendqisi2
 6535 52e0 023083E0 		add	r3, r3, r2
 6536 52e4 0030C5E5 		strb	r3, [r5, #0]
 6537 52e8 FEFFFFEB 		bl	uart1_transmit
 6538 52ec 0300D6E5 		ldrb	r0, [r6, #3]	@ zero_extendqisi2
 6539 52f0 0030D4E5 		ldrb	r3, [r4, #0]	@ zero_extendqisi2
 6540 52f4 033080E0 		add	r3, r0, r3
 6541 52f8 0030C4E5 		strb	r3, [r4, #0]
 6542 52fc 0030D5E5 		ldrb	r3, [r5, #0]	@ zero_extendqisi2
 6543 5300 0020D4E5 		ldrb	r2, [r4, #0]	@ zero_extendqisi2
 6544 5304 68671FE5 		ldr	r6, .L444+92
 6545 5308 023083E0 		add	r3, r3, r2
 6546 530c 0030C5E5 		strb	r3, [r5, #0]
 6547 5310 FEFFFFEB 		bl	uart1_transmit
 6548 5314 0000D6E5 		ldrb	r0, [r6, #0]	@ zero_extendqisi2
 6549 5318 0030D4E5 		ldrb	r3, [r4, #0]	@ zero_extendqisi2
 6550 531c 033080E0 		add	r3, r0, r3
 6551 5320 0030C4E5 		strb	r3, [r4, #0]
 6552 5324 0030D5E5 		ldrb	r3, [r5, #0]	@ zero_extendqisi2
 6553 5328 0020D4E5 		ldrb	r2, [r4, #0]	@ zero_extendqisi2
 6554 532c 023083E0 		add	r3, r3, r2
 6555 5330 0030C5E5 		strb	r3, [r5, #0]
 6556 5334 FEFFFFEB 		bl	uart1_transmit
 6557 5338 0100D6E5 		ldrb	r0, [r6, #1]	@ zero_extendqisi2
 6558 533c 0030D4E5 		ldrb	r3, [r4, #0]	@ zero_extendqisi2
 6559 5340 033080E0 		add	r3, r0, r3
 6560 5344 0030C4E5 		strb	r3, [r4, #0]
 6561 5348 0030D5E5 		ldrb	r3, [r5, #0]	@ zero_extendqisi2
 6562 534c 0020D4E5 		ldrb	r2, [r4, #0]	@ zero_extendqisi2
 6563 5350 023083E0 		add	r3, r3, r2
 6564 5354 0030C5E5 		strb	r3, [r5, #0]
 6565 5358 FEFFFFEB 		bl	uart1_transmit
 6566 535c 0200D6E5 		ldrb	r0, [r6, #2]	@ zero_extendqisi2
 6567 5360 0030D4E5 		ldrb	r3, [r4, #0]	@ zero_extendqisi2
 6568 5364 033080E0 		add	r3, r0, r3
 6569 5368 0030C4E5 		strb	r3, [r4, #0]
 6570 536c 0030D5E5 		ldrb	r3, [r5, #0]	@ zero_extendqisi2
 6571 5370 0020D4E5 		ldrb	r2, [r4, #0]	@ zero_extendqisi2
 6572 5374 023083E0 		add	r3, r3, r2
 6573 5378 0030C5E5 		strb	r3, [r5, #0]
 6574 537c FEFFFFEB 		bl	uart1_transmit
 6575 5380 0300D6E5 		ldrb	r0, [r6, #3]	@ zero_extendqisi2
 6576 5384 0030D4E5 		ldrb	r3, [r4, #0]	@ zero_extendqisi2
 6577 5388 033080E0 		add	r3, r0, r3
 6578 538c 0030C4E5 		strb	r3, [r4, #0]
 6579 5390 0030D5E5 		ldrb	r3, [r5, #0]	@ zero_extendqisi2
 6580 5394 0020D4E5 		ldrb	r2, [r4, #0]	@ zero_extendqisi2
 6581 5398 023083E0 		add	r3, r3, r2
 6582 539c 0030C5E5 		strb	r3, [r5, #0]
 6583 53a0 FEFFFFEB 		bl	uart1_transmit
 6584 53a4 0000D4E5 		ldrb	r0, [r4, #0]	@ zero_extendqisi2
 6585 53a8 FEFFFFEB 		bl	uart1_transmit
 6586 53ac 0000D5E5 		ldrb	r0, [r5, #0]	@ zero_extendqisi2
 6587 53b0 FEFFFFEB 		bl	uart1_transmit
 6588              	.L312:
 6589 53b4 14281FE5 		ldr	r2, .L444+96
 6590 53b8 0030D2E5 		ldrb	r3, [r2, #0]	@ zero_extendqisi2
 6591 53bc 3C0053E3 		cmp	r3, #60
 6592 53c0 1B16001A 		bne	.L315
 6593 53c4 2200A0E3 		mov	r0, #34
 6594 53c8 FEFFFFEB 		bl	uart1_check_free_space
 6595 53cc FF0010E3 		tst	r0, #255
 6596 53d0 2C281F05 		ldreq	r2, .L444+100
 6597 53d4 0030D205 		ldreqb	r3, [r2, #0]	@ zero_extendqisi2
 6598 53d8 01308302 		addeq	r3, r3, #1
 6599 53dc 0030C205 		streqb	r3, [r2, #0]
 6600 53e0 1B16000A 		beq	.L315
 6601 53e4 00181FE5 		ldr	r1, .L444+164
 6602 53e8 00C81FE5 		ldr	ip, .L444+168
 6603 53ec B030D1E1 		ldrh	r3, [r1, #0]
 6604 53f0 B020DCE1 		ldrh	r2, [ip, #0]
 6605 53f4 223083E2 		add	r3, r3, #34
 6606 53f8 012082E2 		add	r2, r2, #1
 6607 53fc B030C1E1 		strh	r3, [r1, #0]	@ movhi 
 6608 5400 B020CCE1 		strh	r2, [ip, #0]	@ movhi 
 6609 5404 9900A0E3 		mov	r0, #153
 6610 5408 1C481FE5 		ldr	r4, .L444+172
 6611 540c FEFFFFEB 		bl	uart1_transmit
 6612 5410 2200A0E3 		mov	r0, #34
 6613 5414 24581FE5 		ldr	r5, .L444+176
 6614 5418 FEFFFFEB 		bl	uart1_transmit
 6615 541c 2C30A0E3 		mov	r3, #44
 6616 5420 0030C4E5 		strb	r3, [r4, #0]
 6617 5424 223083E2 		add	r3, r3, #34
 6618 5428 0A00A0E3 		mov	r0, #10
 6619 542c 0030C5E5 		strb	r3, [r5, #0]
 6620 5430 FEFFFFEB 		bl	uart1_transmit
 6621 5434 0030D4E5 		ldrb	r3, [r4, #0]	@ zero_extendqisi2
 6622 5438 103083E2 		add	r3, r3, #16
 6623 543c 0030C4E5 		strb	r3, [r4, #0]
 6624 5440 0030D5E5 		ldrb	r3, [r5, #0]	@ zero_extendqisi2
 6625 5444 0020D4E5 		ldrb	r2, [r4, #0]	@ zero_extendqisi2
 6626 5448 A0681FE5 		ldr	r6, .L444+104
 6627 544c 023083E0 		add	r3, r3, r2
 6628 5450 1000A0E3 		mov	r0, #16
 6629 5454 0030C5E5 		strb	r3, [r5, #0]
 6630 5458 FEFFFFEB 		bl	uart1_transmit
 6631 545c 0000D6E5 		ldrb	r0, [r6, #0]	@ zero_extendqisi2
 6632 5460 0030D4E5 		ldrb	r3, [r4, #0]	@ zero_extendqisi2
 6633 5464 033080E0 		add	r3, r0, r3
 6634 5468 0030C4E5 		strb	r3, [r4, #0]
 6635 546c 0030D5E5 		ldrb	r3, [r5, #0]	@ zero_extendqisi2
 6636 5470 0020D4E5 		ldrb	r2, [r4, #0]	@ zero_extendqisi2
 6637 5474 023083E0 		add	r3, r3, r2
 6638 5478 0030C5E5 		strb	r3, [r5, #0]
 6639 547c FEFFFFEB 		bl	uart1_transmit
 6640 5480 0100D6E5 		ldrb	r0, [r6, #1]	@ zero_extendqisi2
 6641 5484 0030D4E5 		ldrb	r3, [r4, #0]	@ zero_extendqisi2
 6642 5488 033080E0 		add	r3, r0, r3
 6643 548c 0030C4E5 		strb	r3, [r4, #0]
 6644 5490 0030D5E5 		ldrb	r3, [r5, #0]	@ zero_extendqisi2
 6645 5494 0020D4E5 		ldrb	r2, [r4, #0]	@ zero_extendqisi2
 6646 5498 023083E0 		add	r3, r3, r2
 6647 549c 0030C5E5 		strb	r3, [r5, #0]
 6648 54a0 FEFFFFEB 		bl	uart1_transmit
 6649 54a4 0200D6E5 		ldrb	r0, [r6, #2]	@ zero_extendqisi2
 6650 54a8 0030D4E5 		ldrb	r3, [r4, #0]	@ zero_extendqisi2
 6651 54ac 033080E0 		add	r3, r0, r3
 6652 54b0 0030C4E5 		strb	r3, [r4, #0]
 6653 54b4 0030D5E5 		ldrb	r3, [r5, #0]	@ zero_extendqisi2
 6654 54b8 0020D4E5 		ldrb	r2, [r4, #0]	@ zero_extendqisi2
 6655 54bc 023083E0 		add	r3, r3, r2
 6656 54c0 0030C5E5 		strb	r3, [r5, #0]
 6657 54c4 FEFFFFEB 		bl	uart1_transmit
 6658 54c8 0300D6E5 		ldrb	r0, [r6, #3]	@ zero_extendqisi2
 6659 54cc 0030D4E5 		ldrb	r3, [r4, #0]	@ zero_extendqisi2
 6660 54d0 033080E0 		add	r3, r0, r3
 6661 54d4 0030C4E5 		strb	r3, [r4, #0]
 6662 54d8 0030D5E5 		ldrb	r3, [r5, #0]	@ zero_extendqisi2
 6663 54dc 0020D4E5 		ldrb	r2, [r4, #0]	@ zero_extendqisi2
 6664 54e0 34691FE5 		ldr	r6, .L444+108
 6665 54e4 023083E0 		add	r3, r3, r2
 6666 54e8 0030C5E5 		strb	r3, [r5, #0]
 6667 54ec FEFFFFEB 		bl	uart1_transmit
 6668 54f0 0000D6E5 		ldrb	r0, [r6, #0]	@ zero_extendqisi2
 6669 54f4 0030D4E5 		ldrb	r3, [r4, #0]	@ zero_extendqisi2
 6670 54f8 033080E0 		add	r3, r0, r3
 6671 54fc 0030C4E5 		strb	r3, [r4, #0]
 6672 5500 0030D5E5 		ldrb	r3, [r5, #0]	@ zero_extendqisi2
 6673 5504 0020D4E5 		ldrb	r2, [r4, #0]	@ zero_extendqisi2
 6674 5508 023083E0 		add	r3, r3, r2
 6675 550c 0030C5E5 		strb	r3, [r5, #0]
 6676 5510 FEFFFFEB 		bl	uart1_transmit
 6677 5514 0100D6E5 		ldrb	r0, [r6, #1]	@ zero_extendqisi2
 6678 5518 0030D4E5 		ldrb	r3, [r4, #0]	@ zero_extendqisi2
 6679 551c 033080E0 		add	r3, r0, r3
 6680 5520 0030C4E5 		strb	r3, [r4, #0]
 6681 5524 0030D5E5 		ldrb	r3, [r5, #0]	@ zero_extendqisi2
 6682 5528 0020D4E5 		ldrb	r2, [r4, #0]	@ zero_extendqisi2
 6683 552c 023083E0 		add	r3, r3, r2
 6684 5530 0030C5E5 		strb	r3, [r5, #0]
 6685 5534 FEFFFFEB 		bl	uart1_transmit
 6686 5538 0200D6E5 		ldrb	r0, [r6, #2]	@ zero_extendqisi2
 6687 553c 0030D4E5 		ldrb	r3, [r4, #0]	@ zero_extendqisi2
 6688 5540 033080E0 		add	r3, r0, r3
 6689 5544 0030C4E5 		strb	r3, [r4, #0]
 6690 5548 0030D5E5 		ldrb	r3, [r5, #0]	@ zero_extendqisi2
 6691 554c 0020D4E5 		ldrb	r2, [r4, #0]	@ zero_extendqisi2
 6692 5550 023083E0 		add	r3, r3, r2
 6693 5554 0030C5E5 		strb	r3, [r5, #0]
 6694 5558 FEFFFFEB 		bl	uart1_transmit
 6695 555c 0300D6E5 		ldrb	r0, [r6, #3]	@ zero_extendqisi2
 6696 5560 0030D4E5 		ldrb	r3, [r4, #0]	@ zero_extendqisi2
 6697 5564 033080E0 		add	r3, r0, r3
 6698 5568 0030C4E5 		strb	r3, [r4, #0]
 6699 556c 0030D5E5 		ldrb	r3, [r5, #0]	@ zero_extendqisi2
 6700 5570 0020D4E5 		ldrb	r2, [r4, #0]	@ zero_extendqisi2
 6701 5574 C4691FE5 		ldr	r6, .L444+112
 6702 5578 023083E0 		add	r3, r3, r2
 6703 557c 0030C5E5 		strb	r3, [r5, #0]
 6704 5580 FEFFFFEB 		bl	uart1_transmit
 6705 5584 0000D6E5 		ldrb	r0, [r6, #0]	@ zero_extendqisi2
 6706 5588 0030D4E5 		ldrb	r3, [r4, #0]	@ zero_extendqisi2
 6707 558c 033080E0 		add	r3, r0, r3
 6708 5590 0030C4E5 		strb	r3, [r4, #0]
 6709 5594 0030D5E5 		ldrb	r3, [r5, #0]	@ zero_extendqisi2
 6710 5598 0020D4E5 		ldrb	r2, [r4, #0]	@ zero_extendqisi2
 6711 559c 023083E0 		add	r3, r3, r2
 6712 55a0 0030C5E5 		strb	r3, [r5, #0]
 6713 55a4 FEFFFFEB 		bl	uart1_transmit
 6714 55a8 0100D6E5 		ldrb	r0, [r6, #1]	@ zero_extendqisi2
 6715 55ac 0030D4E5 		ldrb	r3, [r4, #0]	@ zero_extendqisi2
 6716 55b0 033080E0 		add	r3, r0, r3
 6717 55b4 0030C4E5 		strb	r3, [r4, #0]
 6718 55b8 0030D5E5 		ldrb	r3, [r5, #0]	@ zero_extendqisi2
 6719 55bc 0020D4E5 		ldrb	r2, [r4, #0]	@ zero_extendqisi2
 6720 55c0 023083E0 		add	r3, r3, r2
 6721 55c4 0030C5E5 		strb	r3, [r5, #0]
 6722 55c8 FEFFFFEB 		bl	uart1_transmit
 6723 55cc 0200D6E5 		ldrb	r0, [r6, #2]	@ zero_extendqisi2
 6724 55d0 0030D4E5 		ldrb	r3, [r4, #0]	@ zero_extendqisi2
 6725 55d4 033080E0 		add	r3, r0, r3
 6726 55d8 0030C4E5 		strb	r3, [r4, #0]
 6727 55dc 0030D5E5 		ldrb	r3, [r5, #0]	@ zero_extendqisi2
 6728 55e0 0020D4E5 		ldrb	r2, [r4, #0]	@ zero_extendqisi2
 6729 55e4 023083E0 		add	r3, r3, r2
 6730 55e8 0030C5E5 		strb	r3, [r5, #0]
 6731 55ec FEFFFFEB 		bl	uart1_transmit
 6732 55f0 0300D6E5 		ldrb	r0, [r6, #3]	@ zero_extendqisi2
 6733 55f4 0030D4E5 		ldrb	r3, [r4, #0]	@ zero_extendqisi2
 6734 55f8 033080E0 		add	r3, r0, r3
 6735 55fc 0030C4E5 		strb	r3, [r4, #0]
 6736 5600 0030D5E5 		ldrb	r3, [r5, #0]	@ zero_extendqisi2
 6737 5604 0020D4E5 		ldrb	r2, [r4, #0]	@ zero_extendqisi2
 6738 5608 546A1FE5 		ldr	r6, .L444+116
 6739 560c 023083E0 		add	r3, r3, r2
 6740 5610 0030C5E5 		strb	r3, [r5, #0]
 6741 5614 FEFFFFEB 		bl	uart1_transmit
 6742 5618 0000D6E5 		ldrb	r0, [r6, #0]	@ zero_extendqisi2
 6743 561c 0030D4E5 		ldrb	r3, [r4, #0]	@ zero_extendqisi2
 6744 5620 033080E0 		add	r3, r0, r3
 6745 5624 0030C4E5 		strb	r3, [r4, #0]
 6746 5628 0030D5E5 		ldrb	r3, [r5, #0]	@ zero_extendqisi2
 6747 562c 0020D4E5 		ldrb	r2, [r4, #0]	@ zero_extendqisi2
 6748 5630 023083E0 		add	r3, r3, r2
 6749 5634 0030C5E5 		strb	r3, [r5, #0]
 6750 5638 FEFFFFEB 		bl	uart1_transmit
 6751 563c 0100D6E5 		ldrb	r0, [r6, #1]	@ zero_extendqisi2
 6752 5640 0030D4E5 		ldrb	r3, [r4, #0]	@ zero_extendqisi2
 6753 5644 033080E0 		add	r3, r0, r3
 6754 5648 0030C4E5 		strb	r3, [r4, #0]
 6755 564c 0030D5E5 		ldrb	r3, [r5, #0]	@ zero_extendqisi2
 6756 5650 0020D4E5 		ldrb	r2, [r4, #0]	@ zero_extendqisi2
 6757 5654 023083E0 		add	r3, r3, r2
 6758 5658 0030C5E5 		strb	r3, [r5, #0]
 6759 565c FEFFFFEB 		bl	uart1_transmit
 6760 5660 0200D6E5 		ldrb	r0, [r6, #2]	@ zero_extendqisi2
 6761 5664 0030D4E5 		ldrb	r3, [r4, #0]	@ zero_extendqisi2
 6762 5668 033080E0 		add	r3, r0, r3
 6763 566c 0030C4E5 		strb	r3, [r4, #0]
 6764 5670 0030D5E5 		ldrb	r3, [r5, #0]	@ zero_extendqisi2
 6765 5674 0020D4E5 		ldrb	r2, [r4, #0]	@ zero_extendqisi2
 6766 5678 023083E0 		add	r3, r3, r2
 6767 567c 0030C5E5 		strb	r3, [r5, #0]
 6768 5680 FEFFFFEB 		bl	uart1_transmit
 6769 5684 0300D6E5 		ldrb	r0, [r6, #3]	@ zero_extendqisi2
 6770 5688 0030D4E5 		ldrb	r3, [r4, #0]	@ zero_extendqisi2
 6771 568c 033080E0 		add	r3, r0, r3
 6772 5690 0030C4E5 		strb	r3, [r4, #0]
 6773 5694 0030D5E5 		ldrb	r3, [r5, #0]	@ zero_extendqisi2
 6774 5698 0020D4E5 		ldrb	r2, [r4, #0]	@ zero_extendqisi2
 6775 569c E46A1FE5 		ldr	r6, .L444+120
 6776 56a0 023083E0 		add	r3, r3, r2
 6777 56a4 0030C5E5 		strb	r3, [r5, #0]
 6778 56a8 FEFFFFEB 		bl	uart1_transmit
 6779 56ac 0000D6E5 		ldrb	r0, [r6, #0]	@ zero_extendqisi2
 6780 56b0 0030D4E5 		ldrb	r3, [r4, #0]	@ zero_extendqisi2
 6781 56b4 033080E0 		add	r3, r0, r3
 6782 56b8 0030C4E5 		strb	r3, [r4, #0]
 6783 56bc 0030D5E5 		ldrb	r3, [r5, #0]	@ zero_extendqisi2
 6784 56c0 0020D4E5 		ldrb	r2, [r4, #0]	@ zero_extendqisi2
 6785 56c4 023083E0 		add	r3, r3, r2
 6786 56c8 0030C5E5 		strb	r3, [r5, #0]
 6787 56cc FEFFFFEB 		bl	uart1_transmit
 6788 56d0 0100D6E5 		ldrb	r0, [r6, #1]	@ zero_extendqisi2
 6789 56d4 0030D4E5 		ldrb	r3, [r4, #0]	@ zero_extendqisi2
 6790 56d8 033080E0 		add	r3, r0, r3
 6791 56dc 0030C4E5 		strb	r3, [r4, #0]
 6792 56e0 0030D5E5 		ldrb	r3, [r5, #0]	@ zero_extendqisi2
 6793 56e4 0020D4E5 		ldrb	r2, [r4, #0]	@ zero_extendqisi2
 6794 56e8 023083E0 		add	r3, r3, r2
 6795 56ec 0030C5E5 		strb	r3, [r5, #0]
 6796 56f0 FEFFFFEB 		bl	uart1_transmit
 6797 56f4 0200D6E5 		ldrb	r0, [r6, #2]	@ zero_extendqisi2
 6798 56f8 0030D4E5 		ldrb	r3, [r4, #0]	@ zero_extendqisi2
 6799 56fc 033080E0 		add	r3, r0, r3
 6800 5700 0030C4E5 		strb	r3, [r4, #0]
 6801 5704 0030D5E5 		ldrb	r3, [r5, #0]	@ zero_extendqisi2
 6802 5708 0020D4E5 		ldrb	r2, [r4, #0]	@ zero_extendqisi2
 6803 570c 023083E0 		add	r3, r3, r2
 6804 5710 0030C5E5 		strb	r3, [r5, #0]
 6805 5714 FEFFFFEB 		bl	uart1_transmit
 6806 5718 0300D6E5 		ldrb	r0, [r6, #3]	@ zero_extendqisi2
 6807 571c 0030D4E5 		ldrb	r3, [r4, #0]	@ zero_extendqisi2
 6808 5720 033080E0 		add	r3, r0, r3
 6809 5724 0030C4E5 		strb	r3, [r4, #0]
 6810 5728 0030D5E5 		ldrb	r3, [r5, #0]	@ zero_extendqisi2
 6811 572c 0020D4E5 		ldrb	r2, [r4, #0]	@ zero_extendqisi2
 6812 5730 746B1FE5 		ldr	r6, .L444+124
 6813 5734 023083E0 		add	r3, r3, r2
 6814 5738 0030C5E5 		strb	r3, [r5, #0]
 6815 573c FEFFFFEB 		bl	uart1_transmit
 6816 5740 0000D6E5 		ldrb	r0, [r6, #0]	@ zero_extendqisi2
 6817 5744 0030D4E5 		ldrb	r3, [r4, #0]	@ zero_extendqisi2
 6818 5748 033080E0 		add	r3, r0, r3
 6819 574c 0030C4E5 		strb	r3, [r4, #0]
 6820 5750 0030D5E5 		ldrb	r3, [r5, #0]	@ zero_extendqisi2
 6821 5754 0020D4E5 		ldrb	r2, [r4, #0]	@ zero_extendqisi2
 6822 5758 023083E0 		add	r3, r3, r2
 6823 575c 0030C5E5 		strb	r3, [r5, #0]
 6824 5760 FEFFFFEB 		bl	uart1_transmit
 6825 5764 0100D6E5 		ldrb	r0, [r6, #1]	@ zero_extendqisi2
 6826 5768 0030D4E5 		ldrb	r3, [r4, #0]	@ zero_extendqisi2
 6827 576c 033080E0 		add	r3, r0, r3
 6828 5770 0030C4E5 		strb	r3, [r4, #0]
 6829 5774 0030D5E5 		ldrb	r3, [r5, #0]	@ zero_extendqisi2
 6830 5778 0020D4E5 		ldrb	r2, [r4, #0]	@ zero_extendqisi2
 6831 577c 023083E0 		add	r3, r3, r2
 6832 5780 0030C5E5 		strb	r3, [r5, #0]
 6833 5784 FEFFFFEB 		bl	uart1_transmit
 6834 5788 0200D6E5 		ldrb	r0, [r6, #2]	@ zero_extendqisi2
 6835 578c 0030D4E5 		ldrb	r3, [r4, #0]	@ zero_extendqisi2
 6836 5790 033080E0 		add	r3, r0, r3
 6837 5794 0030C4E5 		strb	r3, [r4, #0]
 6838 5798 0030D5E5 		ldrb	r3, [r5, #0]	@ zero_extendqisi2
 6839 579c 0020D4E5 		ldrb	r2, [r4, #0]	@ zero_extendqisi2
 6840 57a0 023083E0 		add	r3, r3, r2
 6841 57a4 0030C5E5 		strb	r3, [r5, #0]
 6842 57a8 FEFFFFEB 		bl	uart1_transmit
 6843 57ac 0300D6E5 		ldrb	r0, [r6, #3]	@ zero_extendqisi2
 6844 57b0 0030D4E5 		ldrb	r3, [r4, #0]	@ zero_extendqisi2
 6845 57b4 033080E0 		add	r3, r0, r3
 6846 57b8 0030C4E5 		strb	r3, [r4, #0]
 6847 57bc 0030D5E5 		ldrb	r3, [r5, #0]	@ zero_extendqisi2
 6848 57c0 0020D4E5 		ldrb	r2, [r4, #0]	@ zero_extendqisi2
 6849 57c4 046C1FE5 		ldr	r6, .L444+128
 6850 57c8 023083E0 		add	r3, r3, r2
 6851 57cc 0030C5E5 		strb	r3, [r5, #0]
 6852 57d0 FEFFFFEB 		bl	uart1_transmit
 6853 57d4 0000D6E5 		ldrb	r0, [r6, #0]	@ zero_extendqisi2
 6854 57d8 0030D4E5 		ldrb	r3, [r4, #0]	@ zero_extendqisi2
 6855 57dc 033080E0 		add	r3, r0, r3
 6856 57e0 0030C4E5 		strb	r3, [r4, #0]
 6857 57e4 0030D5E5 		ldrb	r3, [r5, #0]	@ zero_extendqisi2
 6858 57e8 0020D4E5 		ldrb	r2, [r4, #0]	@ zero_extendqisi2
 6859 57ec 023083E0 		add	r3, r3, r2
 6860 57f0 0030C5E5 		strb	r3, [r5, #0]
 6861 57f4 FEFFFFEB 		bl	uart1_transmit
 6862 57f8 0100D6E5 		ldrb	r0, [r6, #1]	@ zero_extendqisi2
 6863 57fc 0030D4E5 		ldrb	r3, [r4, #0]	@ zero_extendqisi2
 6864 5800 033080E0 		add	r3, r0, r3
 6865 5804 0030C4E5 		strb	r3, [r4, #0]
 6866 5808 0030D5E5 		ldrb	r3, [r5, #0]	@ zero_extendqisi2
 6867 580c 0020D4E5 		ldrb	r2, [r4, #0]	@ zero_extendqisi2
 6868 5810 023083E0 		add	r3, r3, r2
 6869 5814 0030C5E5 		strb	r3, [r5, #0]
 6870 5818 FEFFFFEB 		bl	uart1_transmit
 6871 581c 0200D6E5 		ldrb	r0, [r6, #2]	@ zero_extendqisi2
 6872 5820 0030D4E5 		ldrb	r3, [r4, #0]	@ zero_extendqisi2
 6873 5824 033080E0 		add	r3, r0, r3
 6874 5828 0030C4E5 		strb	r3, [r4, #0]
 6875 582c 0030D5E5 		ldrb	r3, [r5, #0]	@ zero_extendqisi2
 6876 5830 0020D4E5 		ldrb	r2, [r4, #0]	@ zero_extendqisi2
 6877 5834 023083E0 		add	r3, r3, r2
 6878 5838 0030C5E5 		strb	r3, [r5, #0]
 6879 583c FEFFFFEB 		bl	uart1_transmit
 6880 5840 0300D6E5 		ldrb	r0, [r6, #3]	@ zero_extendqisi2
 6881 5844 0030D4E5 		ldrb	r3, [r4, #0]	@ zero_extendqisi2
 6882 5848 033080E0 		add	r3, r0, r3
 6883 584c 0030C4E5 		strb	r3, [r4, #0]
 6884 5850 0030D5E5 		ldrb	r3, [r5, #0]	@ zero_extendqisi2
 6885 5854 0020D4E5 		ldrb	r2, [r4, #0]	@ zero_extendqisi2
 6886 5858 023083E0 		add	r3, r3, r2
 6887 585c 0030C5E5 		strb	r3, [r5, #0]
 6888 5860 FEFFFFEB 		bl	uart1_transmit
 6889 5864 0000D4E5 		ldrb	r0, [r4, #0]	@ zero_extendqisi2
 6890 5868 FEFFFFEB 		bl	uart1_transmit
 6891 586c 0000D5E5 		ldrb	r0, [r5, #0]	@ zero_extendqisi2
 6892 5870 FEFFFFEB 		bl	uart1_transmit
 6893              	.L315:
 6894 5874 B02C1FE5 		ldr	r2, .L444+132
 6895 5878 B030D2E1 		ldrh	r3, [r2, #0]
 6896 587c 420053E3 		cmp	r3, #66
 6897 5880 5C16001A 		bne	.L318
 6898 5884 1700A0E3 		mov	r0, #23
 6899 5888 FEFFFFEB 		bl	uart1_check_free_space
 6900 588c FF0010E3 		tst	r0, #255
 6901 5890 4317000A 		beq	.L331
 6902 5894 B01C1FE5 		ldr	r1, .L444+164
 6903 5898 B0CC1FE5 		ldr	ip, .L444+168
 6904 589c B030D1E1 		ldrh	r3, [r1, #0]
 6905 58a0 B020DCE1 		ldrh	r2, [ip, #0]
 6906 58a4 173083E2 		add	r3, r3, #23
 6907 58a8 012082E2 		add	r2, r2, #1
 6908 58ac B030C1E1 		strh	r3, [r1, #0]	@ movhi 
 6909 58b0 B020CCE1 		strh	r2, [ip, #0]	@ movhi 
 6910 58b4 9900A0E3 		mov	r0, #153
 6911 58b8 CC4C1FE5 		ldr	r4, .L444+172
 6912 58bc FEFFFFEB 		bl	uart1_transmit
 6913 58c0 1700A0E3 		mov	r0, #23
 6914 58c4 FEFFFFEB 		bl	uart1_transmit
 6915 58c8 D86C1FE5 		ldr	r6, .L444+176
 6916 58cc 2130A0E3 		mov	r3, #33
 6917 58d0 0030C4E5 		strb	r3, [r4, #0]
 6918 58d4 173083E2 		add	r3, r3, #23
 6919 58d8 0A00A0E3 		mov	r0, #10
 6920 58dc 0030C6E5 		strb	r3, [r6, #0]
 6921 58e0 FEFFFFEB 		bl	uart1_transmit
 6922 58e4 0030D4E5 		ldrb	r3, [r4, #0]	@ zero_extendqisi2
 6923 58e8 023083E2 		add	r3, r3, #2
 6924 58ec 0030C4E5 		strb	r3, [r4, #0]
 6925 58f0 0030D6E5 		ldrb	r3, [r6, #0]	@ zero_extendqisi2
 6926 58f4 0020D4E5 		ldrb	r2, [r4, #0]	@ zero_extendqisi2
 6927 58f8 023083E0 		add	r3, r3, r2
 6928 58fc 0200A0E3 		mov	r0, #2
 6929 5900 0030C6E5 		strb	r3, [r6, #0]
 6930 5904 FEFFFFEB 		bl	uart1_transmit
 6931 5908 0030D4E5 		ldrb	r3, [r4, #0]	@ zero_extendqisi2
 6932 590c 103083E2 		add	r3, r3, #16
 6933 5910 0030C4E5 		strb	r3, [r4, #0]
 6934 5914 0030D6E5 		ldrb	r3, [r6, #0]	@ zero_extendqisi2
 6935 5918 0020D4E5 		ldrb	r2, [r4, #0]	@ zero_extendqisi2
 6936 591c 023083E0 		add	r3, r3, r2
 6937 5920 1000A0E3 		mov	r0, #16
 6938 5924 0030C6E5 		strb	r3, [r6, #0]
 6939 5928 FEFFFFEB 		bl	uart1_transmit
 6940 592c 0050A0E3 		mov	r5, #0
 6941              	.L323:
 6942 5930 683D1FE5 		ldr	r3, .L444+136
 6943 5934 0300D5E7 		ldrb	r0, [r5, r3]	@ zero_extendqisi2
 6944 5938 0030D4E5 		ldrb	r3, [r4, #0]	@ zero_extendqisi2
 6945 593c 033080E0 		add	r3, r0, r3
 6946 5940 0030C4E5 		strb	r3, [r4, #0]
 6947 5944 0030D6E5 		ldrb	r3, [r6, #0]	@ zero_extendqisi2
 6948 5948 0020D4E5 		ldrb	r2, [r4, #0]	@ zero_extendqisi2
 6949 594c 023083E0 		add	r3, r3, r2
 6950 5950 0030C6E5 		strb	r3, [r6, #0]
 6951 5954 FEFFFFEB 		bl	uart1_transmit
 6952 5958 013085E2 		add	r3, r5, #1
 6953 595c FF5003E2 		and	r5, r3, #255
 6954 5960 0F0055E3 		cmp	r5, #15
 6955 5964 4A16009A 		bls	.L323
 6956 5968 0000D4E5 		ldrb	r0, [r4, #0]	@ zero_extendqisi2
 6957 596c FEFFFFEB 		bl	uart1_transmit
 6958 5970 0000D6E5 		ldrb	r0, [r6, #0]	@ zero_extendqisi2
 6959 5974 411700EA 		b	.L419
 6960              	.L318:
 6961 5978 480053E3 		cmp	r3, #72
 6962 597c B316001A 		bne	.L326
 6963 5980 0C00A0E3 		mov	r0, #12
 6964 5984 FEFFFFEB 		bl	uart1_check_free_space
 6965 5988 FF0010E3 		tst	r0, #255
 6966 598c 4317000A 		beq	.L331
 6967 5990 AC1D1FE5 		ldr	r1, .L444+164
 6968 5994 ACCD1FE5 		ldr	ip, .L444+168
 6969 5998 B030D1E1 		ldrh	r3, [r1, #0]
 6970 599c B020DCE1 		ldrh	r2, [ip, #0]
 6971 59a0 0C3083E2 		add	r3, r3, #12
 6972 59a4 012082E2 		add	r2, r2, #1
 6973 59a8 B030C1E1 		strh	r3, [r1, #0]	@ movhi 
 6974 59ac B020CCE1 		strh	r2, [ip, #0]	@ movhi 
 6975 59b0 9900A0E3 		mov	r0, #153
 6976 59b4 C84D1FE5 		ldr	r4, .L444+172
 6977 59b8 FEFFFFEB 		bl	uart1_transmit
 6978 59bc 0C00A0E3 		mov	r0, #12
 6979 59c0 D05D1FE5 		ldr	r5, .L444+176
 6980 59c4 FEFFFFEB 		bl	uart1_transmit
 6981 59c8 1630A0E3 		mov	r3, #22
 6982 59cc 0030C4E5 		strb	r3, [r4, #0]
 6983 59d0 0C3083E2 		add	r3, r3, #12
 6984 59d4 0A00A0E3 		mov	r0, #10
 6985 59d8 0030C5E5 		strb	r3, [r5, #0]
 6986 59dc FEFFFFEB 		bl	uart1_transmit
 6987 59e0 0030D4E5 		ldrb	r3, [r4, #0]	@ zero_extendqisi2
 6988 59e4 0B3083E2 		add	r3, r3, #11
 6989 59e8 0030C4E5 		strb	r3, [r4, #0]
 6990 59ec 0030D5E5 		ldrb	r3, [r5, #0]	@ zero_extendqisi2
 6991 59f0 0020D4E5 		ldrb	r2, [r4, #0]	@ zero_extendqisi2
 6992 59f4 023083E0 		add	r3, r3, r2
 6993 59f8 0B00A0E3 		mov	r0, #11
 6994 59fc 0030C5E5 		strb	r3, [r5, #0]
 6995 5a00 FEFFFFEB 		bl	uart1_transmit
 6996 5a04 383E1FE5 		ldr	r3, .L444+140
 6997 5a08 0000D3E5 		ldrb	r0, [r3, #0]	@ zero_extendqisi2
 6998 5a0c 0030D4E5 		ldrb	r3, [r4, #0]	@ zero_extendqisi2
 6999 5a10 033080E0 		add	r3, r0, r3
 7000 5a14 0030C4E5 		strb	r3, [r4, #0]
 7001 5a18 0030D5E5 		ldrb	r3, [r5, #0]	@ zero_extendqisi2
 7002 5a1c 0020D4E5 		ldrb	r2, [r4, #0]	@ zero_extendqisi2
 7003 5a20 023083E0 		add	r3, r3, r2
 7004 5a24 0030C5E5 		strb	r3, [r5, #0]
 7005 5a28 FEFFFFEB 		bl	uart1_transmit
 7006 5a2c 5C3E1FE5 		ldr	r3, .L444+144
 7007 5a30 0000D3E5 		ldrb	r0, [r3, #0]	@ zero_extendqisi2
 7008 5a34 0030D4E5 		ldrb	r3, [r4, #0]	@ zero_extendqisi2
 7009 5a38 033080E0 		add	r3, r0, r3
 7010 5a3c 0030C4E5 		strb	r3, [r4, #0]
 7011 5a40 0030D5E5 		ldrb	r3, [r5, #0]	@ zero_extendqisi2
 7012 5a44 0020D4E5 		ldrb	r2, [r4, #0]	@ zero_extendqisi2
 7013 5a48 023083E0 		add	r3, r3, r2
 7014 5a4c 0030C5E5 		strb	r3, [r5, #0]
 7015 5a50 FEFFFFEB 		bl	uart1_transmit
 7016 5a54 803E1FE5 		ldr	r3, .L444+148
 7017 5a58 0000D3E5 		ldrb	r0, [r3, #0]	@ zero_extendqisi2
 7018 5a5c 0030D4E5 		ldrb	r3, [r4, #0]	@ zero_extendqisi2
 7019 5a60 033080E0 		add	r3, r0, r3
 7020 5a64 0030C4E5 		strb	r3, [r4, #0]
 7021 5a68 0030D5E5 		ldrb	r3, [r5, #0]	@ zero_extendqisi2
 7022 5a6c 0020D4E5 		ldrb	r2, [r4, #0]	@ zero_extendqisi2
 7023 5a70 023083E0 		add	r3, r3, r2
 7024 5a74 0030C5E5 		strb	r3, [r5, #0]
 7025 5a78 FEFFFFEB 		bl	uart1_transmit
 7026 5a7c A43E1FE5 		ldr	r3, .L444+152
 7027 5a80 0000D3E5 		ldrb	r0, [r3, #0]	@ zero_extendqisi2
 7028 5a84 0030D4E5 		ldrb	r3, [r4, #0]	@ zero_extendqisi2
 7029 5a88 033080E0 		add	r3, r0, r3
 7030 5a8c 0030C4E5 		strb	r3, [r4, #0]
 7031 5a90 0030D5E5 		ldrb	r3, [r5, #0]	@ zero_extendqisi2
 7032 5a94 0020D4E5 		ldrb	r2, [r4, #0]	@ zero_extendqisi2
 7033 5a98 023083E0 		add	r3, r3, r2
 7034 5a9c 0030C5E5 		strb	r3, [r5, #0]
 7035 5aa0 FEFFFFEB 		bl	uart1_transmit
 7036 5aa4 C83E1FE5 		ldr	r3, .L444+156
 7037 5aa8 0000D3E5 		ldrb	r0, [r3, #0]	@ zero_extendqisi2
 7038 5aac 0030D4E5 		ldrb	r3, [r4, #0]	@ zero_extendqisi2
 7039 5ab0 033080E0 		add	r3, r0, r3
 7040 5ab4 0030C4E5 		strb	r3, [r4, #0]
 7041 5ab8 0030D5E5 		ldrb	r3, [r5, #0]	@ zero_extendqisi2
 7042 5abc 0020D4E5 		ldrb	r2, [r4, #0]	@ zero_extendqisi2
 7043 5ac0 023083E0 		add	r3, r3, r2
 7044 5ac4 0030C5E5 		strb	r3, [r5, #0]
 7045 5ac8 FEFFFFEB 		bl	uart1_transmit
 7046 5acc EC3E1FE5 		ldr	r3, .L444+160
 7047 5ad0 351700EA 		b	.L418
 7048              	.L326:
 7049 5ad4 4E0053E3 		cmp	r3, #78
 7050 5ad8 4717001A 		bne	.L325
 7051 5adc 1100A0E3 		mov	r0, #17
 7052 5ae0 FEFFFFEB 		bl	uart1_check_free_space
 7053 5ae4 FF0010E3 		tst	r0, #255
 7054 5ae8 4317000A 		beq	.L331
 7055 5aec 081F1FE5 		ldr	r1, .L444+164
 7056 5af0 08CF1FE5 		ldr	ip, .L444+168
 7057 5af4 B030D1E1 		ldrh	r3, [r1, #0]
 7058 5af8 B020DCE1 		ldrh	r2, [ip, #0]
 7059 5afc 113083E2 		add	r3, r3, #17
 7060 5b00 012082E2 		add	r2, r2, #1
 7061 5b04 B030C1E1 		strh	r3, [r1, #0]	@ movhi 
 7062 5b08 B020CCE1 		strh	r2, [ip, #0]	@ movhi 
 7063 5b0c 1170A0E3 		mov	r7, #17
 7064 5b10 9900A0E3 		mov	r0, #153
 7065 5b14 284F1FE5 		ldr	r4, .L444+172
 7066 5b18 FEFFFFEB 		bl	uart1_transmit
 7067 5b1c 0700A0E1 		mov	r0, r7
 7068 5b20 305F1FE5 		ldr	r5, .L444+176
 7069 5b24 FEFFFFEB 		bl	uart1_transmit
 7070 5b28 1B30A0E3 		mov	r3, #27
 7071 5b2c 0030C4E5 		strb	r3, [r4, #0]
 7072 5b30 073083E0 		add	r3, r3, r7
 7073 5b34 0A00A0E3 		mov	r0, #10
 7074 5b38 0030C5E5 		strb	r3, [r5, #0]
 7075 5b3c FEFFFFEB 		bl	uart1_transmit
 7076 5b40 0030D4E5 		ldrb	r3, [r4, #0]	@ zero_extendqisi2
 7077 5b44 073083E0 		add	r3, r3, r7
 7078 5b48 0030C4E5 		strb	r3, [r4, #0]
 7079 5b4c 0030D5E5 		ldrb	r3, [r5, #0]	@ zero_extendqisi2
 7080 5b50 0020D4E5 		ldrb	r2, [r4, #0]	@ zero_extendqisi2
 7081 5b54 606F1FE5 		ldr	r6, .L444+180
 7082 5b58 023083E0 		add	r3, r3, r2
 7083 5b5c 0700A0E1 		mov	r0, r7
 7084 5b60 0030C5E5 		strb	r3, [r5, #0]
 7085 5b64 FEFFFFEB 		bl	uart1_transmit
 7086 5b68 0000D6E5 		ldrb	r0, [r6, #0]	@ zero_extendqisi2
 7087 5b6c 0030D4E5 		ldrb	r3, [r4, #0]	@ zero_extendqisi2
 7088 5b70 033080E0 		add	r3, r0, r3
 7089 5b74 0030C4E5 		strb	r3, [r4, #0]
 7090 5b78 0030D5E5 		ldrb	r3, [r5, #0]	@ zero_extendqisi2
 7091 5b7c 0020D4E5 		ldrb	r2, [r4, #0]	@ zero_extendqisi2
 7092 5b80 023083E0 		add	r3, r3, r2
 7093 5b84 0030C5E5 		strb	r3, [r5, #0]
 7094 5b88 FEFFFFEB 		bl	uart1_transmit
 7095 5b8c 0100D6E5 		ldrb	r0, [r6, #1]	@ zero_extendqisi2
 7096 5b90 0030D4E5 		ldrb	r3, [r4, #0]	@ zero_extendqisi2
 7097 5b94 033080E0 		add	r3, r0, r3
 7098 5b98 0030C4E5 		strb	r3, [r4, #0]
 7099 5b9c 0030D5E5 		ldrb	r3, [r5, #0]	@ zero_extendqisi2
 7100 5ba0 0020D4E5 		ldrb	r2, [r4, #0]	@ zero_extendqisi2
 7101 5ba4 023083E0 		add	r3, r3, r2
 7102 5ba8 0030C5E5 		strb	r3, [r5, #0]
 7103 5bac FEFFFFEB 		bl	uart1_transmit
 7104 5bb0 0200D6E5 		ldrb	r0, [r6, #2]	@ zero_extendqisi2
 7105 5bb4 0030D4E5 		ldrb	r3, [r4, #0]	@ zero_extendqisi2
 7106 5bb8 033080E0 		add	r3, r0, r3
 7107 5bbc 0030C4E5 		strb	r3, [r4, #0]
 7108 5bc0 0030D5E5 		ldrb	r3, [r5, #0]	@ zero_extendqisi2
 7109 5bc4 0020D4E5 		ldrb	r2, [r4, #0]	@ zero_extendqisi2
 7110 5bc8 023083E0 		add	r3, r3, r2
 7111 5bcc 0030C5E5 		strb	r3, [r5, #0]
 7112 5bd0 FEFFFFEB 		bl	uart1_transmit
 7113 5bd4 0300D6E5 		ldrb	r0, [r6, #3]	@ zero_extendqisi2
 7114 5bd8 0030D4E5 		ldrb	r3, [r4, #0]	@ zero_extendqisi2
 7115 5bdc 033080E0 		add	r3, r0, r3
 7116 5be0 0030C4E5 		strb	r3, [r4, #0]
 7117 5be4 0030D5E5 		ldrb	r3, [r5, #0]	@ zero_extendqisi2
 7118 5be8 0020D4E5 		ldrb	r2, [r4, #0]	@ zero_extendqisi2
 7119 5bec F46F1FE5 		ldr	r6, .L444+184
 7120 5bf0 023083E0 		add	r3, r3, r2
 7121 5bf4 0030C5E5 		strb	r3, [r5, #0]
 7122 5bf8 FEFFFFEB 		bl	uart1_transmit
 7123 5bfc 0000D6E5 		ldrb	r0, [r6, #0]	@ zero_extendqisi2
 7124 5c00 0030D4E5 		ldrb	r3, [r4, #0]	@ zero_extendqisi2
 7125 5c04 033080E0 		add	r3, r0, r3
 7126 5c08 0030C4E5 		strb	r3, [r4, #0]
 7127 5c0c 0030D5E5 		ldrb	r3, [r5, #0]	@ zero_extendqisi2
 7128 5c10 0020D4E5 		ldrb	r2, [r4, #0]	@ zero_extendqisi2
 7129 5c14 023083E0 		add	r3, r3, r2
 7130 5c18 0030C5E5 		strb	r3, [r5, #0]
 7131 5c1c FEFFFFEB 		bl	uart1_transmit
 7132 5c20 0100D6E5 		ldrb	r0, [r6, #1]	@ zero_extendqisi2
 7133 5c24 0030D4E5 		ldrb	r3, [r4, #0]	@ zero_extendqisi2
 7134 5c28 033080E0 		add	r3, r0, r3
 7135 5c2c 0030C4E5 		strb	r3, [r4, #0]
 7136 5c30 0030D5E5 		ldrb	r3, [r5, #0]	@ zero_extendqisi2
 7137 5c34 0020D4E5 		ldrb	r2, [r4, #0]	@ zero_extendqisi2
 7138 5c38 023083E0 		add	r3, r3, r2
 7139 5c3c 0030C5E5 		strb	r3, [r5, #0]
 7140 5c40 FEFFFFEB 		bl	uart1_transmit
 7141 5c44 0200D6E5 		ldrb	r0, [r6, #2]	@ zero_extendqisi2
 7142 5c48 0030D4E5 		ldrb	r3, [r4, #0]	@ zero_extendqisi2
 7143 5c4c 033080E0 		add	r3, r0, r3
 7144 5c50 0030C4E5 		strb	r3, [r4, #0]
 7145 5c54 0030D5E5 		ldrb	r3, [r5, #0]	@ zero_extendqisi2
 7146 5c58 0020D4E5 		ldrb	r2, [r4, #0]	@ zero_extendqisi2
 7147 5c5c 023083E0 		add	r3, r3, r2
 7148 5c60 0030C5E5 		strb	r3, [r5, #0]
 7149 5c64 FEFFFFEB 		bl	uart1_transmit
 7150 5c68 0300D6E5 		ldrb	r0, [r6, #3]	@ zero_extendqisi2
 7151 5c6c 0030D4E5 		ldrb	r3, [r4, #0]	@ zero_extendqisi2
 7152 5c70 033080E0 		add	r3, r0, r3
 7153 5c74 0030C4E5 		strb	r3, [r4, #0]
 7154 5c78 0030D5E5 		ldrb	r3, [r5, #0]	@ zero_extendqisi2
 7155 5c7c 0020D4E5 		ldrb	r2, [r4, #0]	@ zero_extendqisi2
 7156 5c80 E0619FE5 		ldr	r6, .L447
 7157 5c84 023083E0 		add	r3, r3, r2
 7158 5c88 0030C5E5 		strb	r3, [r5, #0]
 7159 5c8c FEFFFFEB 		bl	uart1_transmit
 7160 5c90 0000D6E5 		ldrb	r0, [r6, #0]	@ zero_extendqisi2
 7161 5c94 0030D4E5 		ldrb	r3, [r4, #0]	@ zero_extendqisi2
 7162 5c98 033080E0 		add	r3, r0, r3
 7163 5c9c 0030C4E5 		strb	r3, [r4, #0]
 7164 5ca0 0030D5E5 		ldrb	r3, [r5, #0]	@ zero_extendqisi2
 7165 5ca4 0020D4E5 		ldrb	r2, [r4, #0]	@ zero_extendqisi2
 7166 5ca8 023083E0 		add	r3, r3, r2
 7167 5cac 0030C5E5 		strb	r3, [r5, #0]
 7168 5cb0 FEFFFFEB 		bl	uart1_transmit
 7169 5cb4 0100D6E5 		ldrb	r0, [r6, #1]	@ zero_extendqisi2
 7170 5cb8 0030D4E5 		ldrb	r3, [r4, #0]	@ zero_extendqisi2
 7171 5cbc 033080E0 		add	r3, r0, r3
 7172 5cc0 0030C4E5 		strb	r3, [r4, #0]
 7173 5cc4 0030D5E5 		ldrb	r3, [r5, #0]	@ zero_extendqisi2
 7174 5cc8 0020D4E5 		ldrb	r2, [r4, #0]	@ zero_extendqisi2
 7175 5ccc 023083E0 		add	r3, r3, r2
 7176 5cd0 0030C5E5 		strb	r3, [r5, #0]
 7177 5cd4 FEFFFFEB 		bl	uart1_transmit
 7178 5cd8 8C319FE5 		ldr	r3, .L447+4
 7179              	.L418:
 7180 5cdc 0000D3E5 		ldrb	r0, [r3, #0]	@ zero_extendqisi2
 7181 5ce0 0030D4E5 		ldrb	r3, [r4, #0]	@ zero_extendqisi2
 7182 5ce4 033080E0 		add	r3, r0, r3
 7183 5ce8 0030C4E5 		strb	r3, [r4, #0]
 7184 5cec 0030D5E5 		ldrb	r3, [r5, #0]	@ zero_extendqisi2
 7185 5cf0 0020D4E5 		ldrb	r2, [r4, #0]	@ zero_extendqisi2
 7186 5cf4 023083E0 		add	r3, r3, r2
 7187 5cf8 0030C5E5 		strb	r3, [r5, #0]
 7188 5cfc FEFFFFEB 		bl	uart1_transmit
 7189 5d00 0000D4E5 		ldrb	r0, [r4, #0]	@ zero_extendqisi2
 7190 5d04 FEFFFFEB 		bl	uart1_transmit
 7191 5d08 0000D5E5 		ldrb	r0, [r5, #0]	@ zero_extendqisi2
 7192              	.L419:
 7193 5d0c FEFFFFEB 		bl	uart1_transmit
 7194 5d10 471700EA 		b	.L325
 7195              	.L331:
 7196 5d14 B0219FE5 		ldr	r2, .L447+100
 7197 5d18 0030D2E5 		ldrb	r3, [r2, #0]	@ zero_extendqisi2
 7198 5d1c 013083E2 		add	r3, r3, #1
 7199 5d20 0030C2E5 		strb	r3, [r2, #0]
 7200              	.L325:
 7201 5d24 44219FE5 		ldr	r2, .L447+8
 7202 5d28 B030D2E1 		ldrh	r3, [r2, #0]
 7203 5d2c 540053E3 		cmp	r3, #84
 7204 5d30 BB17001A 		bne	.L333
 7205 5d34 0B00A0E3 		mov	r0, #11
 7206 5d38 FEFFFFEB 		bl	uart1_check_free_space
 7207 5d3c FF0010E3 		tst	r0, #255
 7208 5d40 84219F05 		ldreq	r2, .L447+100
 7209 5d44 0030D205 		ldreqb	r3, [r2, #0]	@ zero_extendqisi2
 7210 5d48 01308302 		addeq	r3, r3, #1
 7211 5d4c 0030C205 		streqb	r3, [r2, #0]
 7212 5d50 1E18000A 		beq	.L336
 7213 5d54 74119FE5 		ldr	r1, .L447+104
 7214 5d58 74C19FE5 		ldr	ip, .L447+108
 7215 5d5c B030D1E1 		ldrh	r3, [r1, #0]
 7216 5d60 B020DCE1 		ldrh	r2, [ip, #0]
 7217 5d64 0B3083E2 		add	r3, r3, #11
 7218 5d68 012082E2 		add	r2, r2, #1
 7219 5d6c B030C1E1 		strh	r3, [r1, #0]	@ movhi 
 7220 5d70 B020CCE1 		strh	r2, [ip, #0]	@ movhi 
 7221 5d74 9900A0E3 		mov	r0, #153
 7222 5d78 58419FE5 		ldr	r4, .L447+112
 7223 5d7c FEFFFFEB 		bl	uart1_transmit
 7224 5d80 0B00A0E3 		mov	r0, #11
 7225 5d84 50519FE5 		ldr	r5, .L447+116
 7226 5d88 FEFFFFEB 		bl	uart1_transmit
 7227 5d8c 1530A0E3 		mov	r3, #21
 7228 5d90 0030C4E5 		strb	r3, [r4, #0]
 7229 5d94 0B3083E2 		add	r3, r3, #11
 7230 5d98 0A00A0E3 		mov	r0, #10
 7231 5d9c 0030C5E5 		strb	r3, [r5, #0]
 7232 5da0 FEFFFFEB 		bl	uart1_transmit
 7233 5da4 0030D4E5 		ldrb	r3, [r4, #0]	@ zero_extendqisi2
 7234 5da8 0E3083E2 		add	r3, r3, #14
 7235 5dac 0030C4E5 		strb	r3, [r4, #0]
 7236 5db0 0030D5E5 		ldrb	r3, [r5, #0]	@ zero_extendqisi2
 7237 5db4 0020D4E5 		ldrb	r2, [r4, #0]	@ zero_extendqisi2
 7238 5db8 B4609FE5 		ldr	r6, .L447+12
 7239 5dbc 023083E0 		add	r3, r3, r2
 7240 5dc0 0E00A0E3 		mov	r0, #14
 7241 5dc4 0030C5E5 		strb	r3, [r5, #0]
 7242 5dc8 FEFFFFEB 		bl	uart1_transmit
 7243 5dcc 0000D6E5 		ldrb	r0, [r6, #0]	@ zero_extendqisi2
 7244 5dd0 0030D4E5 		ldrb	r3, [r4, #0]	@ zero_extendqisi2
 7245 5dd4 033080E0 		add	r3, r0, r3
 7246 5dd8 0030C4E5 		strb	r3, [r4, #0]
 7247 5ddc 0030D5E5 		ldrb	r3, [r5, #0]	@ zero_extendqisi2
 7248 5de0 0020D4E5 		ldrb	r2, [r4, #0]	@ zero_extendqisi2
 7249 5de4 023083E0 		add	r3, r3, r2
 7250 5de8 0030C5E5 		strb	r3, [r5, #0]
 7251 5dec FEFFFFEB 		bl	uart1_transmit
 7252 5df0 0100D6E5 		ldrb	r0, [r6, #1]	@ zero_extendqisi2
 7253 5df4 0030D4E5 		ldrb	r3, [r4, #0]	@ zero_extendqisi2
 7254 5df8 033080E0 		add	r3, r0, r3
 7255 5dfc 0030C4E5 		strb	r3, [r4, #0]
 7256 5e00 0030D5E5 		ldrb	r3, [r5, #0]	@ zero_extendqisi2
 7257 5e04 0020D4E5 		ldrb	r2, [r4, #0]	@ zero_extendqisi2
 7258 5e08 023083E0 		add	r3, r3, r2
 7259 5e0c 0030C5E5 		strb	r3, [r5, #0]
 7260 5e10 FEFFFFEB 		bl	uart1_transmit
 7261 5e14 0200D6E5 		ldrb	r0, [r6, #2]	@ zero_extendqisi2
 7262 5e18 0030D4E5 		ldrb	r3, [r4, #0]	@ zero_extendqisi2
 7263 5e1c 033080E0 		add	r3, r0, r3
 7264 5e20 0030C4E5 		strb	r3, [r4, #0]
 7265 5e24 0030D5E5 		ldrb	r3, [r5, #0]	@ zero_extendqisi2
 7266 5e28 0020D4E5 		ldrb	r2, [r4, #0]	@ zero_extendqisi2
 7267 5e2c 023083E0 		add	r3, r3, r2
 7268 5e30 0030C5E5 		strb	r3, [r5, #0]
 7269 5e34 FEFFFFEB 		bl	uart1_transmit
 7270 5e38 0300D6E5 		ldrb	r0, [r6, #3]	@ zero_extendqisi2
 7271 5e3c 0030D4E5 		ldrb	r3, [r4, #0]	@ zero_extendqisi2
 7272 5e40 033080E0 		add	r3, r0, r3
 7273 5e44 0030C4E5 		strb	r3, [r4, #0]
 7274 5e48 0030D5E5 		ldrb	r3, [r5, #0]	@ zero_extendqisi2
 7275 5e4c 0020D4E5 		ldrb	r2, [r4, #0]	@ zero_extendqisi2
 7276 5e50 023083E0 		add	r3, r3, r2
 7277 5e54 0030C5E5 		strb	r3, [r5, #0]
 7278 5e58 FEFFFFEB 		bl	uart1_transmit
 7279 5e5c 14309FE5 		ldr	r3, .L447+16
 7280 5e60 0000D3E5 		ldrb	r0, [r3, #0]	@ zero_extendqisi2
 7281 5e64 121800EA 		b	.L420
 7282              	.L448:
 7283              		.align	2
 7284              	.L447:
 7285 5e68 00000000 		.word	gps_PDOP
 7286 5e6c 00000000 		.word	gps_numSV
 7287 5e70 00000000 		.word	i306.42
 7288 5e74 00000000 		.word	v_ctl_auto_throttle_sum_err
 7289 5e78 00000000 		.word	v_ctl_auto_throttle_submode
 7290 5e7c 00000000 		.word	last.48
 7291 5e80 00000000 		.word	i540.44
 7292 5e84 00000000 		.word	nav_utm_east0
 7293 5e88 00000000 		.word	nav_utm_north0
 7294 5e8c 00000000 		.word	nav_utm_zone0
 7295 5e90 00000000 		.word	telemetry_mode_Ap_DefaultChannel
 7296 5e94 00000000 		.word	i300.49
 7297 5e98 00000000 		.word	i306.50
 7298 5e9c 00000000 		.word	i318.51
 7299 5ea0 31010000 		.word	305
 7300 5ea4 3D010000 		.word	317
 7301 5ea8 00000000 		.word	i324.52
 7302 5eac 49010000 		.word	329
 7303 5eb0 00000000 		.word	i330.53
 7304 5eb4 55010000 		.word	341
 7305 5eb8 00000000 		.word	i342.54
 7306 5ebc 5D020000 		.word	605
 7307 5ec0 00000000 		.word	i606.55
 7308 5ec4 00000000 		.word	i612.56
 7309 5ec8 00000000 		.word	.LC0
 7310 5ecc 00000000 		.word	downlink_nb_ovrn
 7311 5ed0 00000000 		.word	downlink_nb_bytes
 7312 5ed4 00000000 		.word	downlink_nb_msgs
 7313 5ed8 00000000 		.word	ck_a
 7314 5edc 00000000 		.word	ck_b
 7315 5ee0 00000000 		.word	estimator_z
 7316 5ee4 00000000 		.word	estimator_z_dot
 7317 5ee8 00000000 		.word	nav_circle_radians
 7318 5eec 66661440 		.word	1075078758
 7319 5ef0 66666666 		.word	1717986918
 7320              	.L333:
 7321 5ef4 5A0053E3 		cmp	r3, #90
 7322 5ef8 1E18001A 		bne	.L336
 7323 5efc 88401FE5 		ldr	r4, .L447+20
 7324 5f00 38701FE5 		ldr	r7, .L447+104
 7325 5f04 B000D4E1 		ldrh	r0, [r4, #0]
 7326 5f08 B050D7E1 		ldrh	r5, [r7, #0]
 7327 5f0c 050060E0 		rsb	r0, r0, r5
 7328 5f10 FEFFFFEB 		bl	__floatsidf
 7329 5f14 30204FE2 		adr	r2, .L447+132
 7330 5f18 0C0092E8 		ldmia	r2, {r2-r3}
 7331 5f1c FEFFFFEB 		bl	__divdf3
 7332 5f20 FEFFFFEB 		bl	__fixunsdfsi
 7333 5f24 BA034BE1 		strh	r0, [fp, #-58]	@ movhi 
 7334 5f28 0B00A0E3 		mov	r0, #11
 7335 5f2c B050C4E1 		strh	r5, [r4, #0]	@ movhi 
 7336 5f30 FEFFFFEB 		bl	uart1_check_free_space
 7337 5f34 70A01FE5 		ldr	sl, .L447+100
 7338 5f38 FF0010E3 		tst	r0, #255
 7339 5f3c 0030DA05 		ldreqb	r3, [sl, #0]	@ zero_extendqisi2
 7340 5f40 01308302 		addeq	r3, r3, #1
 7341 5f44 0030CA05 		streqb	r3, [sl, #0]
 7342 5f48 1E18000A 		beq	.L336
 7343 5f4c 80601FE5 		ldr	r6, .L447+108
 7344 5f50 B030D7E1 		ldrh	r3, [r7, #0]
 7345 5f54 B020D6E1 		ldrh	r2, [r6, #0]
 7346 5f58 0B3083E2 		add	r3, r3, #11
 7347 5f5c 012082E2 		add	r2, r2, #1
 7348 5f60 B020C6E1 		strh	r2, [r6, #0]	@ movhi 
 7349 5f64 B030C7E1 		strh	r3, [r7, #0]	@ movhi 
 7350 5f68 9900A0E3 		mov	r0, #153
 7351 5f6c 9C401FE5 		ldr	r4, .L447+112
 7352 5f70 FEFFFFEB 		bl	uart1_transmit
 7353 5f74 0B00A0E3 		mov	r0, #11
 7354 5f78 A4501FE5 		ldr	r5, .L447+116
 7355 5f7c FEFFFFEB 		bl	uart1_transmit
 7356 5f80 1530A0E3 		mov	r3, #21
 7357 5f84 0030C4E5 		strb	r3, [r4, #0]
 7358 5f88 0B3083E2 		add	r3, r3, #11
 7359 5f8c 0A00A0E3 		mov	r0, #10
 7360 5f90 0030C5E5 		strb	r3, [r5, #0]
 7361 5f94 FEFFFFEB 		bl	uart1_transmit
 7362 5f98 0030D4E5 		ldrb	r3, [r4, #0]	@ zero_extendqisi2
 7363 5f9c 1E3083E2 		add	r3, r3, #30
 7364 5fa0 0030C4E5 		strb	r3, [r4, #0]
 7365 5fa4 0030D5E5 		ldrb	r3, [r5, #0]	@ zero_extendqisi2
 7366 5fa8 0020D4E5 		ldrb	r2, [r4, #0]	@ zero_extendqisi2
 7367 5fac 023083E0 		add	r3, r3, r2
 7368 5fb0 1E00A0E3 		mov	r0, #30
 7369 5fb4 0030C5E5 		strb	r3, [r5, #0]
 7370 5fb8 FEFFFFEB 		bl	uart1_transmit
 7371 5fbc 0000DAE5 		ldrb	r0, [sl, #0]	@ zero_extendqisi2
 7372 5fc0 0030D4E5 		ldrb	r3, [r4, #0]	@ zero_extendqisi2
 7373 5fc4 033080E0 		add	r3, r0, r3
 7374 5fc8 0030C4E5 		strb	r3, [r4, #0]
 7375 5fcc 0030D5E5 		ldrb	r3, [r5, #0]	@ zero_extendqisi2
 7376 5fd0 0020D4E5 		ldrb	r2, [r4, #0]	@ zero_extendqisi2
 7377 5fd4 023083E0 		add	r3, r3, r2
 7378 5fd8 0030C5E5 		strb	r3, [r5, #0]
 7379 5fdc FEFFFFEB 		bl	uart1_transmit
 7380 5fe0 3A005BE5 		ldrb	r0, [fp, #-58]	@ zero_extendqisi2
 7381 5fe4 0030D4E5 		ldrb	r3, [r4, #0]	@ zero_extendqisi2
 7382 5fe8 033080E0 		add	r3, r0, r3
 7383 5fec 0030C4E5 		strb	r3, [r4, #0]
 7384 5ff0 0030D5E5 		ldrb	r3, [r5, #0]	@ zero_extendqisi2
 7385 5ff4 0020D4E5 		ldrb	r2, [r4, #0]	@ zero_extendqisi2
 7386 5ff8 023083E0 		add	r3, r3, r2
 7387 5ffc 0030C5E5 		strb	r3, [r5, #0]
 7388 6000 FEFFFFEB 		bl	uart1_transmit
 7389 6004 39005BE5 		ldrb	r0, [fp, #-57]	@ zero_extendqisi2
 7390 6008 0030D4E5 		ldrb	r3, [r4, #0]	@ zero_extendqisi2
 7391 600c 033080E0 		add	r3, r0, r3
 7392 6010 0030C4E5 		strb	r3, [r4, #0]
 7393 6014 0030D5E5 		ldrb	r3, [r5, #0]	@ zero_extendqisi2
 7394 6018 0020D4E5 		ldrb	r2, [r4, #0]	@ zero_extendqisi2
 7395 601c 023083E0 		add	r3, r3, r2
 7396 6020 0030C5E5 		strb	r3, [r5, #0]
 7397 6024 FEFFFFEB 		bl	uart1_transmit
 7398 6028 0000D6E5 		ldrb	r0, [r6, #0]	@ zero_extendqisi2
 7399 602c 0030D4E5 		ldrb	r3, [r4, #0]	@ zero_extendqisi2
 7400 6030 033080E0 		add	r3, r0, r3
 7401 6034 0030C4E5 		strb	r3, [r4, #0]
 7402 6038 0030D5E5 		ldrb	r3, [r5, #0]	@ zero_extendqisi2
 7403 603c 0020D4E5 		ldrb	r2, [r4, #0]	@ zero_extendqisi2
 7404 6040 023083E0 		add	r3, r3, r2
 7405 6044 0030C5E5 		strb	r3, [r5, #0]
 7406 6048 FEFFFFEB 		bl	uart1_transmit
 7407 604c 0100D6E5 		ldrb	r0, [r6, #1]	@ zero_extendqisi2
 7408              	.L420:
 7409 6050 0030D4E5 		ldrb	r3, [r4, #0]	@ zero_extendqisi2
 7410 6054 033080E0 		add	r3, r0, r3
 7411 6058 0030C4E5 		strb	r3, [r4, #0]
 7412 605c 0030D5E5 		ldrb	r3, [r5, #0]	@ zero_extendqisi2
 7413 6060 0020D4E5 		ldrb	r2, [r4, #0]	@ zero_extendqisi2
 7414 6064 023083E0 		add	r3, r3, r2
 7415 6068 0030C5E5 		strb	r3, [r5, #0]
 7416 606c FEFFFFEB 		bl	uart1_transmit
 7417 6070 0000D4E5 		ldrb	r0, [r4, #0]	@ zero_extendqisi2
 7418 6074 FEFFFFEB 		bl	uart1_transmit
 7419 6078 0000D5E5 		ldrb	r0, [r5, #0]	@ zero_extendqisi2
 7420 607c FEFFFFEB 		bl	uart1_transmit
 7421              	.L336:
 7422 6080 08221FE5 		ldr	r2, .L447+24
 7423 6084 B030D2E1 		ldrh	r3, [r2, #0]
 7424 6088 660053E3 		cmp	r3, #102
 7425 608c 9F18001A 		bne	.L206
 7426 6090 0F00A0E3 		mov	r0, #15
 7427 6094 FEFFFFEB 		bl	uart1_check_free_space
 7428 6098 FF0010E3 		tst	r0, #255
 7429 609c D8211F05 		ldreq	r2, .L447+100
 7430 60a0 0030D205 		ldreqb	r3, [r2, #0]	@ zero_extendqisi2
 7431 60a4 01308302 		addeq	r3, r3, #1
 7432 60a8 0030C205 		streqb	r3, [r2, #0]
 7433 60ac 9F18000A 		beq	.L206
 7434 60b0 E8111FE5 		ldr	r1, .L447+104
 7435 60b4 E8C11FE5 		ldr	ip, .L447+108
 7436 60b8 B030D1E1 		ldrh	r3, [r1, #0]
 7437 60bc B020DCE1 		ldrh	r2, [ip, #0]
 7438 60c0 0F3083E2 		add	r3, r3, #15
 7439 60c4 012082E2 		add	r2, r2, #1
 7440 60c8 B030C1E1 		strh	r3, [r1, #0]	@ movhi 
 7441 60cc B020CCE1 		strh	r2, [ip, #0]	@ movhi 
 7442 60d0 9900A0E3 		mov	r0, #153
 7443 60d4 04421FE5 		ldr	r4, .L447+112
 7444 60d8 FEFFFFEB 		bl	uart1_transmit
 7445 60dc 0F00A0E3 		mov	r0, #15
 7446 60e0 0C521FE5 		ldr	r5, .L447+116
 7447 60e4 FEFFFFEB 		bl	uart1_transmit
 7448 60e8 1930A0E3 		mov	r3, #25
 7449 60ec 0030C4E5 		strb	r3, [r4, #0]
 7450 60f0 0F3083E2 		add	r3, r3, #15
 7451 60f4 0A00A0E3 		mov	r0, #10
 7452 60f8 0030C5E5 		strb	r3, [r5, #0]
 7453 60fc FEFFFFEB 		bl	uart1_transmit
 7454 6100 0030D4E5 		ldrb	r3, [r4, #0]	@ zero_extendqisi2
 7455 6104 093083E2 		add	r3, r3, #9
 7456 6108 0030C4E5 		strb	r3, [r4, #0]
 7457 610c 0030D5E5 		ldrb	r3, [r5, #0]	@ zero_extendqisi2
 7458 6110 0020D4E5 		ldrb	r2, [r4, #0]	@ zero_extendqisi2
 7459 6114 98621FE5 		ldr	r6, .L447+28
 7460 6118 023083E0 		add	r3, r3, r2
 7461 611c 0900A0E3 		mov	r0, #9
 7462 6120 0030C5E5 		strb	r3, [r5, #0]
 7463 6124 FEFFFFEB 		bl	uart1_transmit
 7464 6128 0000D6E5 		ldrb	r0, [r6, #0]	@ zero_extendqisi2
 7465 612c 0030D4E5 		ldrb	r3, [r4, #0]	@ zero_extendqisi2
 7466 6130 033080E0 		add	r3, r0, r3
 7467 6134 0030C4E5 		strb	r3, [r4, #0]
 7468 6138 0030D5E5 		ldrb	r3, [r5, #0]	@ zero_extendqisi2
 7469 613c 0020D4E5 		ldrb	r2, [r4, #0]	@ zero_extendqisi2
 7470 6140 023083E0 		add	r3, r3, r2
 7471 6144 0030C5E5 		strb	r3, [r5, #0]
 7472 6148 FEFFFFEB 		bl	uart1_transmit
 7473 614c 0100D6E5 		ldrb	r0, [r6, #1]	@ zero_extendqisi2
 7474 6150 0030D4E5 		ldrb	r3, [r4, #0]	@ zero_extendqisi2
 7475 6154 033080E0 		add	r3, r0, r3
 7476 6158 0030C4E5 		strb	r3, [r4, #0]
 7477 615c 0030D5E5 		ldrb	r3, [r5, #0]	@ zero_extendqisi2
 7478 6160 0020D4E5 		ldrb	r2, [r4, #0]	@ zero_extendqisi2
 7479 6164 023083E0 		add	r3, r3, r2
 7480 6168 0030C5E5 		strb	r3, [r5, #0]
 7481 616c FEFFFFEB 		bl	uart1_transmit
 7482 6170 0200D6E5 		ldrb	r0, [r6, #2]	@ zero_extendqisi2
 7483 6174 0030D4E5 		ldrb	r3, [r4, #0]	@ zero_extendqisi2
 7484 6178 033080E0 		add	r3, r0, r3
 7485 617c 0030C4E5 		strb	r3, [r4, #0]
 7486 6180 0030D5E5 		ldrb	r3, [r5, #0]	@ zero_extendqisi2
 7487 6184 0020D4E5 		ldrb	r2, [r4, #0]	@ zero_extendqisi2
 7488 6188 023083E0 		add	r3, r3, r2
 7489 618c 0030C5E5 		strb	r3, [r5, #0]
 7490 6190 FEFFFFEB 		bl	uart1_transmit
 7491 6194 0300D6E5 		ldrb	r0, [r6, #3]	@ zero_extendqisi2
 7492 6198 0030D4E5 		ldrb	r3, [r4, #0]	@ zero_extendqisi2
 7493 619c 033080E0 		add	r3, r0, r3
 7494 61a0 0030C4E5 		strb	r3, [r4, #0]
 7495 61a4 0030D5E5 		ldrb	r3, [r5, #0]	@ zero_extendqisi2
 7496 61a8 0020D4E5 		ldrb	r2, [r4, #0]	@ zero_extendqisi2
 7497 61ac 2C631FE5 		ldr	r6, .L447+32
 7498 61b0 023083E0 		add	r3, r3, r2
 7499 61b4 0030C5E5 		strb	r3, [r5, #0]
 7500 61b8 FEFFFFEB 		bl	uart1_transmit
 7501 61bc 0000D6E5 		ldrb	r0, [r6, #0]	@ zero_extendqisi2
 7502 61c0 0030D4E5 		ldrb	r3, [r4, #0]	@ zero_extendqisi2
 7503 61c4 033080E0 		add	r3, r0, r3
 7504 61c8 0030C4E5 		strb	r3, [r4, #0]
 7505 61cc 0030D5E5 		ldrb	r3, [r5, #0]	@ zero_extendqisi2
 7506 61d0 0020D4E5 		ldrb	r2, [r4, #0]	@ zero_extendqisi2
 7507 61d4 023083E0 		add	r3, r3, r2
 7508 61d8 0030C5E5 		strb	r3, [r5, #0]
 7509 61dc FEFFFFEB 		bl	uart1_transmit
 7510 61e0 0100D6E5 		ldrb	r0, [r6, #1]	@ zero_extendqisi2
 7511 61e4 0030D4E5 		ldrb	r3, [r4, #0]	@ zero_extendqisi2
 7512 61e8 033080E0 		add	r3, r0, r3
 7513 61ec 0030C4E5 		strb	r3, [r4, #0]
 7514 61f0 0030D5E5 		ldrb	r3, [r5, #0]	@ zero_extendqisi2
 7515 61f4 0020D4E5 		ldrb	r2, [r4, #0]	@ zero_extendqisi2
 7516 61f8 023083E0 		add	r3, r3, r2
 7517 61fc 0030C5E5 		strb	r3, [r5, #0]
 7518 6200 FEFFFFEB 		bl	uart1_transmit
 7519 6204 0200D6E5 		ldrb	r0, [r6, #2]	@ zero_extendqisi2
 7520 6208 0030D4E5 		ldrb	r3, [r4, #0]	@ zero_extendqisi2
 7521 620c 033080E0 		add	r3, r0, r3
 7522 6210 0030C4E5 		strb	r3, [r4, #0]
 7523 6214 0030D5E5 		ldrb	r3, [r5, #0]	@ zero_extendqisi2
 7524 6218 0020D4E5 		ldrb	r2, [r4, #0]	@ zero_extendqisi2
 7525 621c 023083E0 		add	r3, r3, r2
 7526 6220 0030C5E5 		strb	r3, [r5, #0]
 7527 6224 FEFFFFEB 		bl	uart1_transmit
 7528 6228 0300D6E5 		ldrb	r0, [r6, #3]	@ zero_extendqisi2
 7529 622c 0030D4E5 		ldrb	r3, [r4, #0]	@ zero_extendqisi2
 7530 6230 033080E0 		add	r3, r0, r3
 7531 6234 0030C4E5 		strb	r3, [r4, #0]
 7532 6238 0030D5E5 		ldrb	r3, [r5, #0]	@ zero_extendqisi2
 7533 623c 0020D4E5 		ldrb	r2, [r4, #0]	@ zero_extendqisi2
 7534 6240 023083E0 		add	r3, r3, r2
 7535 6244 0030C5E5 		strb	r3, [r5, #0]
 7536 6248 FEFFFFEB 		bl	uart1_transmit
 7537 624c C8331FE5 		ldr	r3, .L447+36
 7538 6250 0000D3E5 		ldrb	r0, [r3, #0]	@ zero_extendqisi2
 7539 6254 0030D4E5 		ldrb	r3, [r4, #0]	@ zero_extendqisi2
 7540 6258 033080E0 		add	r3, r0, r3
 7541 625c 0030C4E5 		strb	r3, [r4, #0]
 7542 6260 0030D5E5 		ldrb	r3, [r5, #0]	@ zero_extendqisi2
 7543 6264 0020D4E5 		ldrb	r2, [r4, #0]	@ zero_extendqisi2
 7544 6268 023083E0 		add	r3, r3, r2
 7545 626c 0030C5E5 		strb	r3, [r5, #0]
 7546 6270 FEFFFFEB 		bl	uart1_transmit
 7547 6274 0000D4E5 		ldrb	r0, [r4, #0]	@ zero_extendqisi2
 7548 6278 FEFFFFEB 		bl	uart1_transmit
 7549 627c 0000D5E5 		ldrb	r0, [r5, #0]	@ zero_extendqisi2
 7550 6280 FEFFFFEB 		bl	uart1_transmit
 7551              	.L206:
 7552 6284 FC331FE5 		ldr	r3, .L447+40
 7553 6288 00A0D3E5 		ldrb	sl, [r3, #0]	@ zero_extendqisi2
 7554 628c 02005AE3 		cmp	sl, #2
 7555 6290 781D001A 		bne	.L380
 7556 6294 08141FE5 		ldr	r1, .L447+44
 7557 6298 B030D1E1 		ldrh	r3, [r1, #0]
 7558 629c 013083E2 		add	r3, r3, #1
 7559 62a0 B030C1E1 		strh	r3, [r1, #0]	@ movhi 
 7560 62a4 B030D1E1 		ldrh	r3, [r1, #0]
 7561 62a8 18841FE5 		ldr	r8, .L447+48
 7562 62ac 4B0F53E3 		cmp	r3, #300
 7563 62b0 0030A023 		movcs	r3, #0	@ movhi
 7564 62b4 B030C121 		strcsh	r3, [r1, #0]	@ movhi 
 7565 62b8 B030D8E1 		ldrh	r3, [r8, #0]
 7566 62bc 013083E2 		add	r3, r3, #1
 7567 62c0 B030C8E1 		strh	r3, [r8, #0]	@ movhi 
 7568 62c4 30741FE5 		ldr	r7, .L447+52
 7569 62c8 B020D8E1 		ldrh	r2, [r8, #0]
 7570 62cc 34341FE5 		ldr	r3, .L447+56
 7571 62d0 030052E1 		cmp	r2, r3
 7572 62d4 B030D7E1 		ldrh	r3, [r7, #0]
 7573 62d8 013083E2 		add	r3, r3, #1
 7574 62dc B030C7E1 		strh	r3, [r7, #0]	@ movhi 
 7575 62e0 0020A083 		movhi	r2, #0	@ movhi
 7576 62e4 48341FE5 		ldr	r3, .L447+60
 7577 62e8 B020C881 		strhih	r2, [r8, #0]	@ movhi 
 7578 62ec B020D7E1 		ldrh	r2, [r7, #0]
 7579 62f0 50941FE5 		ldr	r9, .L447+64
 7580 62f4 030052E1 		cmp	r2, r3
 7581 62f8 0030A083 		movhi	r3, #0	@ movhi
 7582 62fc B030C781 		strhih	r3, [r7, #0]	@ movhi 
 7583 6300 B030D9E1 		ldrh	r3, [r9, #0]
 7584 6304 013083E2 		add	r3, r3, #1
 7585 6308 B030C9E1 		strh	r3, [r9, #0]	@ movhi 
 7586 630c B030D9E1 		ldrh	r3, [r9, #0]
 7587 6310 510F53E3 		cmp	r3, #324
 7588 6314 0020A023 		movcs	r2, #0	@ movhi
 7589 6318 B020C921 		strcsh	r2, [r9, #0]	@ movhi 
 7590 631c 74241FE5 		ldr	r2, .L447+72
 7591 6320 B030D2E1 		ldrh	r3, [r2, #0]
 7592 6324 013083E2 		add	r3, r3, #1
 7593 6328 B030C2E1 		strh	r3, [r2, #0]	@ movhi 
 7594 632c 88341FE5 		ldr	r3, .L447+68
 7595 6330 B020D2E1 		ldrh	r2, [r2, #0]
 7596 6334 030052E1 		cmp	r2, r3
 7597 6338 90341F85 		ldrhi	r3, .L447+72
 7598 633c 0020A083 		movhi	r2, #0	@ movhi
 7599 6340 B020C381 		strhih	r2, [r3, #0]	@ movhi 
 7600 6344 94241FE5 		ldr	r2, .L447+80
 7601 6348 B030D2E1 		ldrh	r3, [r2, #0]
 7602 634c 013083E2 		add	r3, r3, #1
 7603 6350 B030C2E1 		strh	r3, [r2, #0]	@ movhi 
 7604 6354 A8341FE5 		ldr	r3, .L447+76
 7605 6358 B020D2E1 		ldrh	r2, [r2, #0]
 7606 635c 030052E1 		cmp	r2, r3
 7607 6360 B0341F85 		ldrhi	r3, .L447+80
 7608 6364 0020A083 		movhi	r2, #0	@ movhi
 7609 6368 B020C381 		strhih	r2, [r3, #0]	@ movhi 
 7610 636c B4241FE5 		ldr	r2, .L447+88
 7611 6370 B030D2E1 		ldrh	r3, [r2, #0]
 7612 6374 013083E2 		add	r3, r3, #1
 7613 6378 B030C2E1 		strh	r3, [r2, #0]	@ movhi 
 7614 637c C8341FE5 		ldr	r3, .L447+84
 7615 6380 B020D2E1 		ldrh	r2, [r2, #0]
 7616 6384 030052E1 		cmp	r2, r3
 7617 6388 D0341F85 		ldrhi	r3, .L447+88
 7618 638c 0020A083 		movhi	r2, #0	@ movhi
 7619 6390 B020C381 		strhih	r2, [r3, #0]	@ movhi 
 7620 6394 D8241FE5 		ldr	r2, .L447+92
 7621 6398 B030D2E1 		ldrh	r3, [r2, #0]
 7622 639c 013083E2 		add	r3, r3, #1
 7623 63a0 B030C2E1 		strh	r3, [r2, #0]	@ movhi 
 7624 63a4 B030D2E1 		ldrh	r3, [r2, #0]
 7625 63a8 B050D1E1 		ldrh	r5, [r1, #0]
 7626 63ac 990F53E3 		cmp	r3, #612
 7627 63b0 0030A023 		movcs	r3, #0	@ movhi
 7628 63b4 B030C221 		strcsh	r3, [r2, #0]	@ movhi 
 7629 63b8 000055E3 		cmp	r5, #0
 7630 63bc 2E19001A 		bne	.L354
 7631 63c0 1700A0E3 		mov	r0, #23
 7632 63c4 FEFFFFEB 		bl	uart1_check_free_space
 7633 63c8 FF0010E3 		tst	r0, #255
 7634 63cc 08251F05 		ldreq	r2, .L447+100
 7635 63d0 0030D205 		ldreqb	r3, [r2, #0]	@ zero_extendqisi2
 7636 63d4 01308302 		addeq	r3, r3, #1
 7637 63d8 0030C205 		streqb	r3, [r2, #0]
 7638 63dc 2E19000A 		beq	.L354
 7639 63e0 18151FE5 		ldr	r1, .L447+104
 7640 63e4 18C51FE5 		ldr	ip, .L447+108
 7641 63e8 B030D1E1 		ldrh	r3, [r1, #0]
 7642 63ec B020DCE1 		ldrh	r2, [ip, #0]
 7643 63f0 173083E2 		add	r3, r3, #23
 7644 63f4 012082E2 		add	r2, r2, #1
 7645 63f8 B030C1E1 		strh	r3, [r1, #0]	@ movhi 
 7646 63fc B020CCE1 		strh	r2, [ip, #0]	@ movhi 
 7647 6400 9900A0E3 		mov	r0, #153
 7648 6404 34451FE5 		ldr	r4, .L447+112
 7649 6408 FEFFFFEB 		bl	uart1_transmit
 7650 640c 1700A0E3 		mov	r0, #23
 7651 6410 FEFFFFEB 		bl	uart1_transmit
 7652 6414 40651FE5 		ldr	r6, .L447+116
 7653 6418 2130A0E3 		mov	r3, #33
 7654 641c 0030C4E5 		strb	r3, [r4, #0]
 7655 6420 173083E2 		add	r3, r3, #23
 7656 6424 0A00A0E3 		mov	r0, #10
 7657 6428 0030C6E5 		strb	r3, [r6, #0]
 7658 642c FEFFFFEB 		bl	uart1_transmit
 7659 6430 0030D4E5 		ldrb	r3, [r4, #0]	@ zero_extendqisi2
 7660 6434 023083E2 		add	r3, r3, #2
 7661 6438 0030C4E5 		strb	r3, [r4, #0]
 7662 643c 0030D6E5 		ldrb	r3, [r6, #0]	@ zero_extendqisi2
 7663 6440 0020D4E5 		ldrb	r2, [r4, #0]	@ zero_extendqisi2
 7664 6444 023083E0 		add	r3, r3, r2
 7665 6448 0A00A0E1 		mov	r0, sl
 7666 644c 0030C6E5 		strb	r3, [r6, #0]
 7667 6450 FEFFFFEB 		bl	uart1_transmit
 7668 6454 0030D4E5 		ldrb	r3, [r4, #0]	@ zero_extendqisi2
 7669 6458 103083E2 		add	r3, r3, #16
 7670 645c 0030C4E5 		strb	r3, [r4, #0]
 7671 6460 0030D6E5 		ldrb	r3, [r6, #0]	@ zero_extendqisi2
 7672 6464 0020D4E5 		ldrb	r2, [r4, #0]	@ zero_extendqisi2
 7673 6468 023083E0 		add	r3, r3, r2
 7674 646c 1000A0E3 		mov	r0, #16
 7675 6470 0030C6E5 		strb	r3, [r6, #0]
 7676 6474 FEFFFFEB 		bl	uart1_transmit
 7677              	.L359:
 7678 6478 B8351FE5 		ldr	r3, .L447+96
 7679 647c 0300D5E7 		ldrb	r0, [r5, r3]	@ zero_extendqisi2
 7680 6480 0030D4E5 		ldrb	r3, [r4, #0]	@ zero_extendqisi2
 7681 6484 033080E0 		add	r3, r0, r3
 7682 6488 0030C4E5 		strb	r3, [r4, #0]
 7683 648c 0030D6E5 		ldrb	r3, [r6, #0]	@ zero_extendqisi2
 7684 6490 0020D4E5 		ldrb	r2, [r4, #0]	@ zero_extendqisi2
 7685 6494 023083E0 		add	r3, r3, r2
 7686 6498 0030C6E5 		strb	r3, [r6, #0]
 7687 649c FEFFFFEB 		bl	uart1_transmit
 7688 64a0 013085E2 		add	r3, r5, #1
 7689 64a4 FF5003E2 		and	r5, r3, #255
 7690 64a8 0F0055E3 		cmp	r5, #15
 7691 64ac 1C19009A 		bls	.L359
 7692 64b0 0000D4E5 		ldrb	r0, [r4, #0]	@ zero_extendqisi2
 7693 64b4 FEFFFFEB 		bl	uart1_transmit
 7694 64b8 0000D6E5 		ldrb	r0, [r6, #0]	@ zero_extendqisi2
 7695 64bc FEFFFFEB 		bl	uart1_transmit
 7696              	.L354:
 7697 64c0 B030D8E1 		ldrh	r3, [r8, #0]
 7698 64c4 060053E3 		cmp	r3, #6
 7699 64c8 FEFFFF0B 		bleq	gps_send
 7700              	.L361:
 7701 64cc B030D7E1 		ldrh	r3, [r7, #0]
 7702 64d0 0C0053E3 		cmp	r3, #12
 7703 64d4 A719001A 		bne	.L362
 7704 64d8 0E00A0E3 		mov	r0, #14
 7705 64dc FEFFFFEB 		bl	uart1_check_free_space
 7706 64e0 FF0010E3 		tst	r0, #255
 7707 64e4 20261F05 		ldreq	r2, .L447+100
 7708 64e8 0030D205 		ldreqb	r3, [r2, #0]	@ zero_extendqisi2
 7709 64ec 01308302 		addeq	r3, r3, #1
 7710 64f0 0030C205 		streqb	r3, [r2, #0]
 7711 64f4 A719000A 		beq	.L362
 7712 64f8 30161FE5 		ldr	r1, .L447+104
 7713 64fc 30C61FE5 		ldr	ip, .L447+108
 7714 6500 B030D1E1 		ldrh	r3, [r1, #0]
 7715 6504 B020DCE1 		ldrh	r2, [ip, #0]
 7716 6508 0E3083E2 		add	r3, r3, #14
 7717 650c 012082E2 		add	r2, r2, #1
 7718 6510 B030C1E1 		strh	r3, [r1, #0]	@ movhi 
 7719 6514 B020CCE1 		strh	r2, [ip, #0]	@ movhi 
 7720 6518 9900A0E3 		mov	r0, #153
 7721 651c 4C461FE5 		ldr	r4, .L447+112
 7722 6520 FEFFFFEB 		bl	uart1_transmit
 7723 6524 0E00A0E3 		mov	r0, #14
 7724 6528 54561FE5 		ldr	r5, .L447+116
 7725 652c FEFFFFEB 		bl	uart1_transmit
 7726 6530 1830A0E3 		mov	r3, #24
 7727 6534 0030C4E5 		strb	r3, [r4, #0]
 7728 6538 0E3083E2 		add	r3, r3, #14
 7729 653c 0A00A0E3 		mov	r0, #10
 7730 6540 0030C5E5 		strb	r3, [r5, #0]
 7731 6544 FEFFFFEB 		bl	uart1_transmit
 7732 6548 0030D4E5 		ldrb	r3, [r4, #0]	@ zero_extendqisi2
 7733 654c 2A3083E2 		add	r3, r3, #42
 7734 6550 0030C4E5 		strb	r3, [r4, #0]
 7735 6554 0030D5E5 		ldrb	r3, [r5, #0]	@ zero_extendqisi2
 7736 6558 0020D4E5 		ldrb	r2, [r4, #0]	@ zero_extendqisi2
 7737 655c 84661FE5 		ldr	r6, .L447+120
 7738 6560 023083E0 		add	r3, r3, r2
 7739 6564 2A00A0E3 		mov	r0, #42
 7740 6568 0030C5E5 		strb	r3, [r5, #0]
 7741 656c FEFFFFEB 		bl	uart1_transmit
 7742 6570 0000D6E5 		ldrb	r0, [r6, #0]	@ zero_extendqisi2
 7743 6574 0030D4E5 		ldrb	r3, [r4, #0]	@ zero_extendqisi2
 7744 6578 033080E0 		add	r3, r0, r3
 7745 657c 0030C4E5 		strb	r3, [r4, #0]
 7746 6580 0030D5E5 		ldrb	r3, [r5, #0]	@ zero_extendqisi2
 7747 6584 0020D4E5 		ldrb	r2, [r4, #0]	@ zero_extendqisi2
 7748 6588 023083E0 		add	r3, r3, r2
 7749 658c 0030C5E5 		strb	r3, [r5, #0]
 7750 6590 FEFFFFEB 		bl	uart1_transmit
 7751 6594 0100D6E5 		ldrb	r0, [r6, #1]	@ zero_extendqisi2
 7752 6598 0030D4E5 		ldrb	r3, [r4, #0]	@ zero_extendqisi2
 7753 659c 033080E0 		add	r3, r0, r3
 7754 65a0 0030C4E5 		strb	r3, [r4, #0]
 7755 65a4 0030D5E5 		ldrb	r3, [r5, #0]	@ zero_extendqisi2
 7756 65a8 0020D4E5 		ldrb	r2, [r4, #0]	@ zero_extendqisi2
 7757 65ac 023083E0 		add	r3, r3, r2
 7758 65b0 0030C5E5 		strb	r3, [r5, #0]
 7759 65b4 FEFFFFEB 		bl	uart1_transmit
 7760 65b8 0200D6E5 		ldrb	r0, [r6, #2]	@ zero_extendqisi2
 7761 65bc 0030D4E5 		ldrb	r3, [r4, #0]	@ zero_extendqisi2
 7762 65c0 033080E0 		add	r3, r0, r3
 7763 65c4 0030C4E5 		strb	r3, [r4, #0]
 7764 65c8 0030D5E5 		ldrb	r3, [r5, #0]	@ zero_extendqisi2
 7765 65cc 0020D4E5 		ldrb	r2, [r4, #0]	@ zero_extendqisi2
 7766 65d0 023083E0 		add	r3, r3, r2
 7767 65d4 0030C5E5 		strb	r3, [r5, #0]
 7768 65d8 FEFFFFEB 		bl	uart1_transmit
 7769 65dc 0300D6E5 		ldrb	r0, [r6, #3]	@ zero_extendqisi2
 7770 65e0 0030D4E5 		ldrb	r3, [r4, #0]	@ zero_extendqisi2
 7771 65e4 033080E0 		add	r3, r0, r3
 7772 65e8 0030C4E5 		strb	r3, [r4, #0]
 7773 65ec 0030D5E5 		ldrb	r3, [r5, #0]	@ zero_extendqisi2
 7774 65f0 0020D4E5 		ldrb	r2, [r4, #0]	@ zero_extendqisi2
 7775 65f4 18671FE5 		ldr	r6, .L447+124
 7776 65f8 023083E0 		add	r3, r3, r2
 7777 65fc 0030C5E5 		strb	r3, [r5, #0]
 7778 6600 FEFFFFEB 		bl	uart1_transmit
 7779 6604 0000D6E5 		ldrb	r0, [r6, #0]	@ zero_extendqisi2
 7780 6608 0030D4E5 		ldrb	r3, [r4, #0]	@ zero_extendqisi2
 7781 660c 033080E0 		add	r3, r0, r3
 7782 6610 0030C4E5 		strb	r3, [r4, #0]
 7783 6614 0030D5E5 		ldrb	r3, [r5, #0]	@ zero_extendqisi2
 7784 6618 0020D4E5 		ldrb	r2, [r4, #0]	@ zero_extendqisi2
 7785 661c 023083E0 		add	r3, r3, r2
 7786 6620 0030C5E5 		strb	r3, [r5, #0]
 7787 6624 FEFFFFEB 		bl	uart1_transmit
 7788 6628 0100D6E5 		ldrb	r0, [r6, #1]	@ zero_extendqisi2
 7789 662c 0030D4E5 		ldrb	r3, [r4, #0]	@ zero_extendqisi2
 7790 6630 033080E0 		add	r3, r0, r3
 7791 6634 0030C4E5 		strb	r3, [r4, #0]
 7792 6638 0030D5E5 		ldrb	r3, [r5, #0]	@ zero_extendqisi2
 7793 663c 0020D4E5 		ldrb	r2, [r4, #0]	@ zero_extendqisi2
 7794 6640 023083E0 		add	r3, r3, r2
 7795 6644 0030C5E5 		strb	r3, [r5, #0]
 7796 6648 FEFFFFEB 		bl	uart1_transmit
 7797 664c 0200D6E5 		ldrb	r0, [r6, #2]	@ zero_extendqisi2
 7798 6650 0030D4E5 		ldrb	r3, [r4, #0]	@ zero_extendqisi2
 7799 6654 033080E0 		add	r3, r0, r3
 7800 6658 0030C4E5 		strb	r3, [r4, #0]
 7801 665c 0030D5E5 		ldrb	r3, [r5, #0]	@ zero_extendqisi2
 7802 6660 0020D4E5 		ldrb	r2, [r4, #0]	@ zero_extendqisi2
 7803 6664 023083E0 		add	r3, r3, r2
 7804 6668 0030C5E5 		strb	r3, [r5, #0]
 7805 666c FEFFFFEB 		bl	uart1_transmit
 7806 6670 0300D6E5 		ldrb	r0, [r6, #3]	@ zero_extendqisi2
 7807 6674 0030D4E5 		ldrb	r3, [r4, #0]	@ zero_extendqisi2
 7808 6678 033080E0 		add	r3, r0, r3
 7809 667c 0030C4E5 		strb	r3, [r4, #0]
 7810 6680 0030D5E5 		ldrb	r3, [r5, #0]	@ zero_extendqisi2
 7811 6684 0020D4E5 		ldrb	r2, [r4, #0]	@ zero_extendqisi2
 7812 6688 023083E0 		add	r3, r3, r2
 7813 668c 0030C5E5 		strb	r3, [r5, #0]
 7814 6690 FEFFFFEB 		bl	uart1_transmit
 7815 6694 0000D4E5 		ldrb	r0, [r4, #0]	@ zero_extendqisi2
 7816 6698 FEFFFFEB 		bl	uart1_transmit
 7817 669c 0000D5E5 		ldrb	r0, [r5, #0]	@ zero_extendqisi2
 7818 66a0 FEFFFFEB 		bl	uart1_transmit
 7819              	.L362:
 7820 66a4 B030D9E1 		ldrh	r3, [r9, #0]
 7821 66a8 120053E3 		cmp	r3, #18
 7822 66ac 971A001A 		bne	.L365
 7823 66b0 D0371FE5 		ldr	r3, .L447+128
 7824 66b4 003093E5 		ldr	r3, [r3, #0]
 7825 66b8 0201C3E3 		bic	r0, r3, #-2147483648
 7826 66bc FEFFFFEB 		bl	__extendsfdf2
 7827 66c0 3F2E8FE2 		adr	r2, .L449
 7828 66c4 0C0092E8 		ldmia	r2, {r2-r3}
 7829 66c8 FEFFFFEB 		bl	__divdf3
 7830 66cc FEFFFFEB 		bl	__fixunsdfsi
 7831 66d0 3B004BE5 		strb	r0, [fp, #-59]
 7832 66d4 1A00A0E3 		mov	r0, #26
 7833 66d8 FEFFFFEB 		bl	uart1_check_free_space
 7834 66dc FF0010E3 		tst	r0, #255
 7835 66e0 34249F05 		ldreq	r2, .L449+100
 7836 66e4 0030D205 		ldreqb	r3, [r2, #0]	@ zero_extendqisi2
 7837 66e8 01308302 		addeq	r3, r3, #1
 7838 66ec 0030C205 		streqb	r3, [r2, #0]
 7839 66f0 971A000A 		beq	.L365
 7840 66f4 24149FE5 		ldr	r1, .L449+104
 7841 66f8 24C49FE5 		ldr	ip, .L449+108
 7842 66fc B030D1E1 		ldrh	r3, [r1, #0]
 7843 6700 B020DCE1 		ldrh	r2, [ip, #0]
 7844 6704 1A3083E2 		add	r3, r3, #26
 7845 6708 012082E2 		add	r2, r2, #1
 7846 670c B030C1E1 		strh	r3, [r1, #0]	@ movhi 
 7847 6710 B020CCE1 		strh	r2, [ip, #0]	@ movhi 
 7848 6714 9900A0E3 		mov	r0, #153
 7849 6718 08449FE5 		ldr	r4, .L449+112
 7850 671c FEFFFFEB 		bl	uart1_transmit
 7851 6720 1A00A0E3 		mov	r0, #26
 7852 6724 00549FE5 		ldr	r5, .L449+116
 7853 6728 FEFFFFEB 		bl	uart1_transmit
 7854 672c 2430A0E3 		mov	r3, #36
 7855 6730 0030C4E5 		strb	r3, [r4, #0]
 7856 6734 1A3083E2 		add	r3, r3, #26
 7857 6738 0A00A0E3 		mov	r0, #10
 7858 673c 0030C5E5 		strb	r3, [r5, #0]
 7859 6740 FEFFFFEB 		bl	uart1_transmit
 7860 6744 0030D4E5 		ldrb	r3, [r4, #0]	@ zero_extendqisi2
 7861 6748 0A3083E2 		add	r3, r3, #10
 7862 674c 0030C4E5 		strb	r3, [r4, #0]
 7863 6750 0030D5E5 		ldrb	r3, [r5, #0]	@ zero_extendqisi2
 7864 6754 0020D4E5 		ldrb	r2, [r4, #0]	@ zero_extendqisi2
 7865 6758 023083E0 		add	r3, r3, r2
 7866 675c 0A00A0E3 		mov	r0, #10
 7867 6760 0030C5E5 		strb	r3, [r5, #0]
 7868 6764 FEFFFFEB 		bl	uart1_transmit
 7869 6768 50339FE5 		ldr	r3, .L449+8
 7870 676c 0000D3E5 		ldrb	r0, [r3, #0]	@ zero_extendqisi2
 7871 6770 0030D4E5 		ldrb	r3, [r4, #0]	@ zero_extendqisi2
 7872 6774 033080E0 		add	r3, r0, r3
 7873 6778 0030C4E5 		strb	r3, [r4, #0]
 7874 677c 0030D5E5 		ldrb	r3, [r5, #0]	@ zero_extendqisi2
 7875 6780 0020D4E5 		ldrb	r2, [r4, #0]	@ zero_extendqisi2
 7876 6784 023083E0 		add	r3, r3, r2
 7877 6788 0030C5E5 		strb	r3, [r5, #0]
 7878 678c FEFFFFEB 		bl	uart1_transmit
 7879 6790 2C339FE5 		ldr	r3, .L449+12
 7880 6794 0000D3E5 		ldrb	r0, [r3, #0]	@ zero_extendqisi2
 7881 6798 0030D4E5 		ldrb	r3, [r4, #0]	@ zero_extendqisi2
 7882 679c 033080E0 		add	r3, r0, r3
 7883 67a0 0030C4E5 		strb	r3, [r4, #0]
 7884 67a4 0030D5E5 		ldrb	r3, [r5, #0]	@ zero_extendqisi2
 7885 67a8 0020D4E5 		ldrb	r2, [r4, #0]	@ zero_extendqisi2
 7886 67ac 14639FE5 		ldr	r6, .L449+16
 7887 67b0 023083E0 		add	r3, r3, r2
 7888 67b4 0030C5E5 		strb	r3, [r5, #0]
 7889 67b8 FEFFFFEB 		bl	uart1_transmit
 7890 67bc 0000D6E5 		ldrb	r0, [r6, #0]	@ zero_extendqisi2
 7891 67c0 0030D4E5 		ldrb	r3, [r4, #0]	@ zero_extendqisi2
 7892 67c4 033080E0 		add	r3, r0, r3
 7893 67c8 0030C4E5 		strb	r3, [r4, #0]
 7894 67cc 0030D5E5 		ldrb	r3, [r5, #0]	@ zero_extendqisi2
 7895 67d0 0020D4E5 		ldrb	r2, [r4, #0]	@ zero_extendqisi2
 7896 67d4 023083E0 		add	r3, r3, r2
 7897 67d8 0030C5E5 		strb	r3, [r5, #0]
 7898 67dc FEFFFFEB 		bl	uart1_transmit
 7899 67e0 0100D6E5 		ldrb	r0, [r6, #1]	@ zero_extendqisi2
 7900 67e4 0030D4E5 		ldrb	r3, [r4, #0]	@ zero_extendqisi2
 7901 67e8 033080E0 		add	r3, r0, r3
 7902 67ec 0030C4E5 		strb	r3, [r4, #0]
 7903 67f0 0030D5E5 		ldrb	r3, [r5, #0]	@ zero_extendqisi2
 7904 67f4 0020D4E5 		ldrb	r2, [r4, #0]	@ zero_extendqisi2
 7905 67f8 023083E0 		add	r3, r3, r2
 7906 67fc 0030C5E5 		strb	r3, [r5, #0]
 7907 6800 FEFFFFEB 		bl	uart1_transmit
 7908 6804 0200D6E5 		ldrb	r0, [r6, #2]	@ zero_extendqisi2
 7909 6808 0030D4E5 		ldrb	r3, [r4, #0]	@ zero_extendqisi2
 7910 680c 033080E0 		add	r3, r0, r3
 7911 6810 0030C4E5 		strb	r3, [r4, #0]
 7912 6814 0030D5E5 		ldrb	r3, [r5, #0]	@ zero_extendqisi2
 7913 6818 0020D4E5 		ldrb	r2, [r4, #0]	@ zero_extendqisi2
 7914 681c 023083E0 		add	r3, r3, r2
 7915 6820 0030C5E5 		strb	r3, [r5, #0]
 7916 6824 FEFFFFEB 		bl	uart1_transmit
 7917 6828 0300D6E5 		ldrb	r0, [r6, #3]	@ zero_extendqisi2
 7918 682c 0030D4E5 		ldrb	r3, [r4, #0]	@ zero_extendqisi2
 7919 6830 033080E0 		add	r3, r0, r3
 7920 6834 0030C4E5 		strb	r3, [r4, #0]
 7921 6838 0030D5E5 		ldrb	r3, [r5, #0]	@ zero_extendqisi2
 7922 683c 0020D4E5 		ldrb	r2, [r4, #0]	@ zero_extendqisi2
 7923 6840 84629FE5 		ldr	r6, .L449+20
 7924 6844 023083E0 		add	r3, r3, r2
 7925 6848 0030C5E5 		strb	r3, [r5, #0]
 7926 684c FEFFFFEB 		bl	uart1_transmit
 7927 6850 0000D6E5 		ldrb	r0, [r6, #0]	@ zero_extendqisi2
 7928 6854 0030D4E5 		ldrb	r3, [r4, #0]	@ zero_extendqisi2
 7929 6858 033080E0 		add	r3, r0, r3
 7930 685c 0030C4E5 		strb	r3, [r4, #0]
 7931 6860 0030D5E5 		ldrb	r3, [r5, #0]	@ zero_extendqisi2
 7932 6864 0020D4E5 		ldrb	r2, [r4, #0]	@ zero_extendqisi2
 7933 6868 023083E0 		add	r3, r3, r2
 7934 686c 0030C5E5 		strb	r3, [r5, #0]
 7935 6870 FEFFFFEB 		bl	uart1_transmit
 7936 6874 0100D6E5 		ldrb	r0, [r6, #1]	@ zero_extendqisi2
 7937 6878 0030D4E5 		ldrb	r3, [r4, #0]	@ zero_extendqisi2
 7938 687c 033080E0 		add	r3, r0, r3
 7939 6880 0030C4E5 		strb	r3, [r4, #0]
 7940 6884 0030D5E5 		ldrb	r3, [r5, #0]	@ zero_extendqisi2
 7941 6888 0020D4E5 		ldrb	r2, [r4, #0]	@ zero_extendqisi2
 7942 688c 023083E0 		add	r3, r3, r2
 7943 6890 0030C5E5 		strb	r3, [r5, #0]
 7944 6894 FEFFFFEB 		bl	uart1_transmit
 7945 6898 0200D6E5 		ldrb	r0, [r6, #2]	@ zero_extendqisi2
 7946 689c 0030D4E5 		ldrb	r3, [r4, #0]	@ zero_extendqisi2
 7947 68a0 033080E0 		add	r3, r0, r3
 7948 68a4 0030C4E5 		strb	r3, [r4, #0]
 7949 68a8 0030D5E5 		ldrb	r3, [r5, #0]	@ zero_extendqisi2
 7950 68ac 0020D4E5 		ldrb	r2, [r4, #0]	@ zero_extendqisi2
 7951 68b0 023083E0 		add	r3, r3, r2
 7952 68b4 0030C5E5 		strb	r3, [r5, #0]
 7953 68b8 FEFFFFEB 		bl	uart1_transmit
 7954 68bc 0300D6E5 		ldrb	r0, [r6, #3]	@ zero_extendqisi2
 7955 68c0 0030D4E5 		ldrb	r3, [r4, #0]	@ zero_extendqisi2
 7956 68c4 033080E0 		add	r3, r0, r3
 7957 68c8 0030C4E5 		strb	r3, [r4, #0]
 7958 68cc 0030D5E5 		ldrb	r3, [r5, #0]	@ zero_extendqisi2
 7959 68d0 0020D4E5 		ldrb	r2, [r4, #0]	@ zero_extendqisi2
 7960 68d4 F4619FE5 		ldr	r6, .L449+24
 7961 68d8 023083E0 		add	r3, r3, r2
 7962 68dc 0030C5E5 		strb	r3, [r5, #0]
 7963 68e0 FEFFFFEB 		bl	uart1_transmit
 7964 68e4 0000D6E5 		ldrb	r0, [r6, #0]	@ zero_extendqisi2
 7965 68e8 0030D4E5 		ldrb	r3, [r4, #0]	@ zero_extendqisi2
 7966 68ec 033080E0 		add	r3, r0, r3
 7967 68f0 0030C4E5 		strb	r3, [r4, #0]
 7968 68f4 0030D5E5 		ldrb	r3, [r5, #0]	@ zero_extendqisi2
 7969 68f8 0020D4E5 		ldrb	r2, [r4, #0]	@ zero_extendqisi2
 7970 68fc 023083E0 		add	r3, r3, r2
 7971 6900 0030C5E5 		strb	r3, [r5, #0]
 7972 6904 FEFFFFEB 		bl	uart1_transmit
 7973 6908 0100D6E5 		ldrb	r0, [r6, #1]	@ zero_extendqisi2
 7974 690c 0030D4E5 		ldrb	r3, [r4, #0]	@ zero_extendqisi2
 7975 6910 033080E0 		add	r3, r0, r3
 7976 6914 0030C4E5 		strb	r3, [r4, #0]
 7977 6918 0030D5E5 		ldrb	r3, [r5, #0]	@ zero_extendqisi2
 7978 691c 0020D4E5 		ldrb	r2, [r4, #0]	@ zero_extendqisi2
 7979 6920 023083E0 		add	r3, r3, r2
 7980 6924 0030C5E5 		strb	r3, [r5, #0]
 7981 6928 FEFFFFEB 		bl	uart1_transmit
 7982 692c 0200D6E5 		ldrb	r0, [r6, #2]	@ zero_extendqisi2
 7983 6930 0030D4E5 		ldrb	r3, [r4, #0]	@ zero_extendqisi2
 7984 6934 033080E0 		add	r3, r0, r3
 7985 6938 0030C4E5 		strb	r3, [r4, #0]
 7986 693c 0030D5E5 		ldrb	r3, [r5, #0]	@ zero_extendqisi2
 7987 6940 0020D4E5 		ldrb	r2, [r4, #0]	@ zero_extendqisi2
 7988 6944 023083E0 		add	r3, r3, r2
 7989 6948 0030C5E5 		strb	r3, [r5, #0]
 7990 694c FEFFFFEB 		bl	uart1_transmit
 7991 6950 0300D6E5 		ldrb	r0, [r6, #3]	@ zero_extendqisi2
 7992 6954 0030D4E5 		ldrb	r3, [r4, #0]	@ zero_extendqisi2
 7993 6958 033080E0 		add	r3, r0, r3
 7994 695c 0030C4E5 		strb	r3, [r4, #0]
 7995 6960 0030D5E5 		ldrb	r3, [r5, #0]	@ zero_extendqisi2
 7996 6964 0020D4E5 		ldrb	r2, [r4, #0]	@ zero_extendqisi2
 7997 6968 64619FE5 		ldr	r6, .L449+28
 7998 696c 023083E0 		add	r3, r3, r2
 7999 6970 0030C5E5 		strb	r3, [r5, #0]
 8000 6974 FEFFFFEB 		bl	uart1_transmit
 8001 6978 0000D6E5 		ldrb	r0, [r6, #0]	@ zero_extendqisi2
 8002 697c 0030D4E5 		ldrb	r3, [r4, #0]	@ zero_extendqisi2
 8003 6980 033080E0 		add	r3, r0, r3
 8004 6984 0030C4E5 		strb	r3, [r4, #0]
 8005 6988 0030D5E5 		ldrb	r3, [r5, #0]	@ zero_extendqisi2
 8006 698c 0020D4E5 		ldrb	r2, [r4, #0]	@ zero_extendqisi2
 8007 6990 023083E0 		add	r3, r3, r2
 8008 6994 0030C5E5 		strb	r3, [r5, #0]
 8009 6998 FEFFFFEB 		bl	uart1_transmit
 8010 699c 0100D6E5 		ldrb	r0, [r6, #1]	@ zero_extendqisi2
 8011 69a0 0030D4E5 		ldrb	r3, [r4, #0]	@ zero_extendqisi2
 8012 69a4 033080E0 		add	r3, r0, r3
 8013 69a8 0030C4E5 		strb	r3, [r4, #0]
 8014 69ac 0030D5E5 		ldrb	r3, [r5, #0]	@ zero_extendqisi2
 8015 69b0 0020D4E5 		ldrb	r2, [r4, #0]	@ zero_extendqisi2
 8016 69b4 023083E0 		add	r3, r3, r2
 8017 69b8 0030C5E5 		strb	r3, [r5, #0]
 8018 69bc FEFFFFEB 		bl	uart1_transmit
 8019 69c0 0200D6E5 		ldrb	r0, [r6, #2]	@ zero_extendqisi2
 8020 69c4 0030D4E5 		ldrb	r3, [r4, #0]	@ zero_extendqisi2
 8021 69c8 033080E0 		add	r3, r0, r3
 8022 69cc 0030C4E5 		strb	r3, [r4, #0]
 8023 69d0 0030D5E5 		ldrb	r3, [r5, #0]	@ zero_extendqisi2
 8024 69d4 0020D4E5 		ldrb	r2, [r4, #0]	@ zero_extendqisi2
 8025 69d8 023083E0 		add	r3, r3, r2
 8026 69dc 0030C5E5 		strb	r3, [r5, #0]
 8027 69e0 FEFFFFEB 		bl	uart1_transmit
 8028 69e4 0300D6E5 		ldrb	r0, [r6, #3]	@ zero_extendqisi2
 8029 69e8 0030D4E5 		ldrb	r3, [r4, #0]	@ zero_extendqisi2
 8030 69ec 033080E0 		add	r3, r0, r3
 8031 69f0 0030C4E5 		strb	r3, [r4, #0]
 8032 69f4 0030D5E5 		ldrb	r3, [r5, #0]	@ zero_extendqisi2
 8033 69f8 0020D4E5 		ldrb	r2, [r4, #0]	@ zero_extendqisi2
 8034 69fc 023083E0 		add	r3, r3, r2
 8035 6a00 0030C5E5 		strb	r3, [r5, #0]
 8036 6a04 FEFFFFEB 		bl	uart1_transmit
 8037 6a08 3B005BE5 		ldrb	r0, [fp, #-59]	@ zero_extendqisi2
 8038 6a0c 0030D4E5 		ldrb	r3, [r4, #0]	@ zero_extendqisi2
 8039 6a10 033080E0 		add	r3, r0, r3
 8040 6a14 0030C4E5 		strb	r3, [r4, #0]
 8041 6a18 0030D5E5 		ldrb	r3, [r5, #0]	@ zero_extendqisi2
 8042 6a1c 0020D4E5 		ldrb	r2, [r4, #0]	@ zero_extendqisi2
 8043 6a20 023083E0 		add	r3, r3, r2
 8044 6a24 0030C5E5 		strb	r3, [r5, #0]
 8045 6a28 FEFFFFEB 		bl	uart1_transmit
 8046 6a2c A4309FE5 		ldr	r3, .L449+32
 8047 6a30 0000D3E5 		ldrb	r0, [r3, #0]	@ zero_extendqisi2
 8048 6a34 0030D4E5 		ldrb	r3, [r4, #0]	@ zero_extendqisi2
 8049 6a38 033080E0 		add	r3, r0, r3
 8050 6a3c 0030C4E5 		strb	r3, [r4, #0]
 8051 6a40 0030D5E5 		ldrb	r3, [r5, #0]	@ zero_extendqisi2
 8052 6a44 0020D4E5 		ldrb	r2, [r4, #0]	@ zero_extendqisi2
 8053 6a48 023083E0 		add	r3, r3, r2
 8054 6a4c 0030C5E5 		strb	r3, [r5, #0]
 8055 6a50 FEFFFFEB 		bl	uart1_transmit
 8056 6a54 0000D4E5 		ldrb	r0, [r4, #0]	@ zero_extendqisi2
 8057 6a58 FEFFFFEB 		bl	uart1_transmit
 8058 6a5c 0000D5E5 		ldrb	r0, [r5, #0]	@ zero_extendqisi2
 8059 6a60 FEFFFFEB 		bl	uart1_transmit
 8060              	.L365:
 8061 6a64 70209FE5 		ldr	r2, .L449+36
 8062 6a68 B030D2E1 		ldrh	r3, [r2, #0]
 8063 6a6c 180053E3 		cmp	r3, #24
 8064 6a70 2C1B001A 		bne	.L368
 8065 6a74 0C00A0E3 		mov	r0, #12
 8066 6a78 FEFFFFEB 		bl	uart1_check_free_space
 8067 6a7c FF0010E3 		tst	r0, #255
 8068 6a80 94209F05 		ldreq	r2, .L449+100
 8069 6a84 0030D205 		ldreqb	r3, [r2, #0]	@ zero_extendqisi2
 8070 6a88 01308302 		addeq	r3, r3, #1
 8071 6a8c 0030C205 		streqb	r3, [r2, #0]
 8072 6a90 2C1B000A 		beq	.L368
 8073 6a94 84109FE5 		ldr	r1, .L449+104
 8074 6a98 84C09FE5 		ldr	ip, .L449+108
 8075 6a9c B030D1E1 		ldrh	r3, [r1, #0]
 8076 6aa0 B020DCE1 		ldrh	r2, [ip, #0]
 8077 6aa4 0C3083E2 		add	r3, r3, #12
 8078 6aa8 012082E2 		add	r2, r2, #1
 8079 6aac B030C1E1 		strh	r3, [r1, #0]	@ movhi 
 8080 6ab0 B020CCE1 		strh	r2, [ip, #0]	@ movhi 
 8081 6ab4 D71A00EA 		b	.L450
 8082              	.L451:
 8083              		.align	2
 8084              	.L449:
 8085 6ab8 FB211940 		.word	1075388923
 8086 6abc 182D4454 		.word	1413754136
 8087 6ac0 00000000 		.word	nav_block
 8088 6ac4 00000000 		.word	nav_stage
 8089 6ac8 00000000 		.word	estimator_x
 8090 6acc 00000000 		.word	estimator_y
 8091 6ad0 00000000 		.word	dist2_to_wp
 8092 6ad4 00000000 		.word	dist2_to_home
 8093 6ad8 00000000 		.word	nav_oval_count
 8094 6adc 00000000 		.word	i330.53
 8095 6ae0 00000000 		.word	pprz_mode
 8096 6ae4 00000000 		.word	v_ctl_mode
 8097 6ae8 00000000 		.word	lateral_mode
 8098 6aec 00000000 		.word	horizontal_mode
 8099 6af0 00000000 		.word	rc_settings_mode
 8100 6af4 00000000 		.word	mcu1_status
 8101 6af8 00000000 		.word	i342.54
 8102 6afc 00000000 		.word	last.57
 8103 6b00 00000000 		.word	i606.55
 8104 6b04 00000000 		.word	energy
 8105 6b08 00000000 		.word	v_ctl_throttle_slewed
 8106 6b0c 00000000 		.word	kill_throttle
 8107 6b10 00000000 		.word	block_time
 8108 6b14 00000000 		.word	stage_time
 8109 6b18 00000000 		.word	i612.56
 8110 6b1c 00000000 		.word	downlink_nb_ovrn
 8111 6b20 00000000 		.word	downlink_nb_bytes
 8112 6b24 00000000 		.word	downlink_nb_msgs
 8113 6b28 00000000 		.word	ck_a
 8114 6b2c 00000000 		.word	ck_b
 8115 6b30 00000000 		.word	h_ctl_roll_setpoint
 8116 6b34 00000000 		.word	h_ctl_pitch_loop_setpoint
 8117 6b38 00000000 		.word	h_ctl_course_setpoint
 8118 6b3c 00000000 		.word	desired_x
 8119 6b40 00000000 		.word	desired_y
 8120 6b44 00000000 		.word	v_ctl_altitude_setpoint
 8121 6b48 00000000 		.word	v_ctl_climb_setpoint
 8122 6b4c 00000000 		.word	_1Hz.8
 8123 6b50 00000000 		.word	estimator_flight_time
 8124 6b54 00000000 		.word	datalink_time
 8125 6b58 00000000 		.word	vsupply
 8126 6b5c 66661440 		.word	1075078758
 8127 6b60 66666666 		.word	1717986918
 8128              	.L450:
 8129 6b64 9900A0E3 		mov	r0, #153
 8130 6b68 48401FE5 		ldr	r4, .L449+112
 8131 6b6c FEFFFFEB 		bl	uart1_transmit
 8132 6b70 0C00A0E3 		mov	r0, #12
 8133 6b74 50501FE5 		ldr	r5, .L449+116
 8134 6b78 FEFFFFEB 		bl	uart1_transmit
 8135 6b7c 1630A0E3 		mov	r3, #22
 8136 6b80 0030C4E5 		strb	r3, [r4, #0]
 8137 6b84 0C3083E2 		add	r3, r3, #12
 8138 6b88 0A00A0E3 		mov	r0, #10
 8139 6b8c 0030C5E5 		strb	r3, [r5, #0]
 8140 6b90 FEFFFFEB 		bl	uart1_transmit
 8141 6b94 0030D4E5 		ldrb	r3, [r4, #0]	@ zero_extendqisi2
 8142 6b98 0B3083E2 		add	r3, r3, #11
 8143 6b9c 0030C4E5 		strb	r3, [r4, #0]
 8144 6ba0 0030D5E5 		ldrb	r3, [r5, #0]	@ zero_extendqisi2
 8145 6ba4 0020D4E5 		ldrb	r2, [r4, #0]	@ zero_extendqisi2
 8146 6ba8 023083E0 		add	r3, r3, r2
 8147 6bac 0B00A0E3 		mov	r0, #11
 8148 6bb0 0030C5E5 		strb	r3, [r5, #0]
 8149 6bb4 FEFFFFEB 		bl	uart1_transmit
 8150 6bb8 E0301FE5 		ldr	r3, .L449+40
 8151 6bbc 0000D3E5 		ldrb	r0, [r3, #0]	@ zero_extendqisi2
 8152 6bc0 0030D4E5 		ldrb	r3, [r4, #0]	@ zero_extendqisi2
 8153 6bc4 033080E0 		add	r3, r0, r3
 8154 6bc8 0030C4E5 		strb	r3, [r4, #0]
 8155 6bcc 0030D5E5 		ldrb	r3, [r5, #0]	@ zero_extendqisi2
 8156 6bd0 0020D4E5 		ldrb	r2, [r4, #0]	@ zero_extendqisi2
 8157 6bd4 023083E0 		add	r3, r3, r2
 8158 6bd8 0030C5E5 		strb	r3, [r5, #0]
 8159 6bdc FEFFFFEB 		bl	uart1_transmit
 8160 6be0 04311FE5 		ldr	r3, .L449+44
 8161 6be4 0000D3E5 		ldrb	r0, [r3, #0]	@ zero_extendqisi2
 8162 6be8 0030D4E5 		ldrb	r3, [r4, #0]	@ zero_extendqisi2
 8163 6bec 033080E0 		add	r3, r0, r3
 8164 6bf0 0030C4E5 		strb	r3, [r4, #0]
 8165 6bf4 0030D5E5 		ldrb	r3, [r5, #0]	@ zero_extendqisi2
 8166 6bf8 0020D4E5 		ldrb	r2, [r4, #0]	@ zero_extendqisi2
 8167 6bfc 023083E0 		add	r3, r3, r2
 8168 6c00 0030C5E5 		strb	r3, [r5, #0]
 8169 6c04 FEFFFFEB 		bl	uart1_transmit
 8170 6c08 28311FE5 		ldr	r3, .L449+48
 8171 6c0c 0000D3E5 		ldrb	r0, [r3, #0]	@ zero_extendqisi2
 8172 6c10 0030D4E5 		ldrb	r3, [r4, #0]	@ zero_extendqisi2
 8173 6c14 033080E0 		add	r3, r0, r3
 8174 6c18 0030C4E5 		strb	r3, [r4, #0]
 8175 6c1c 0030D5E5 		ldrb	r3, [r5, #0]	@ zero_extendqisi2
 8176 6c20 0020D4E5 		ldrb	r2, [r4, #0]	@ zero_extendqisi2
 8177 6c24 023083E0 		add	r3, r3, r2
 8178 6c28 0030C5E5 		strb	r3, [r5, #0]
 8179 6c2c FEFFFFEB 		bl	uart1_transmit
 8180 6c30 4C311FE5 		ldr	r3, .L449+52
 8181 6c34 0000D3E5 		ldrb	r0, [r3, #0]	@ zero_extendqisi2
 8182 6c38 0030D4E5 		ldrb	r3, [r4, #0]	@ zero_extendqisi2
 8183 6c3c 033080E0 		add	r3, r0, r3
 8184 6c40 0030C4E5 		strb	r3, [r4, #0]
 8185 6c44 0030D5E5 		ldrb	r3, [r5, #0]	@ zero_extendqisi2
 8186 6c48 0020D4E5 		ldrb	r2, [r4, #0]	@ zero_extendqisi2
 8187 6c4c 023083E0 		add	r3, r3, r2
 8188 6c50 0030C5E5 		strb	r3, [r5, #0]
 8189 6c54 FEFFFFEB 		bl	uart1_transmit
 8190 6c58 70311FE5 		ldr	r3, .L449+56
 8191 6c5c 0000D3E5 		ldrb	r0, [r3, #0]	@ zero_extendqisi2
 8192 6c60 0030D4E5 		ldrb	r3, [r4, #0]	@ zero_extendqisi2
 8193 6c64 033080E0 		add	r3, r0, r3
 8194 6c68 0030C4E5 		strb	r3, [r4, #0]
 8195 6c6c 0030D5E5 		ldrb	r3, [r5, #0]	@ zero_extendqisi2
 8196 6c70 0020D4E5 		ldrb	r2, [r4, #0]	@ zero_extendqisi2
 8197 6c74 023083E0 		add	r3, r3, r2
 8198 6c78 0030C5E5 		strb	r3, [r5, #0]
 8199 6c7c FEFFFFEB 		bl	uart1_transmit
 8200 6c80 94311FE5 		ldr	r3, .L449+60
 8201 6c84 0000D3E5 		ldrb	r0, [r3, #0]	@ zero_extendqisi2
 8202 6c88 0030D4E5 		ldrb	r3, [r4, #0]	@ zero_extendqisi2
 8203 6c8c 033080E0 		add	r3, r0, r3
 8204 6c90 0030C4E5 		strb	r3, [r4, #0]
 8205 6c94 0030D5E5 		ldrb	r3, [r5, #0]	@ zero_extendqisi2
 8206 6c98 0020D4E5 		ldrb	r2, [r4, #0]	@ zero_extendqisi2
 8207 6c9c 023083E0 		add	r3, r3, r2
 8208 6ca0 0030C5E5 		strb	r3, [r5, #0]
 8209 6ca4 FEFFFFEB 		bl	uart1_transmit
 8210 6ca8 0000D4E5 		ldrb	r0, [r4, #0]	@ zero_extendqisi2
 8211 6cac FEFFFFEB 		bl	uart1_transmit
 8212 6cb0 0000D5E5 		ldrb	r0, [r5, #0]	@ zero_extendqisi2
 8213 6cb4 FEFFFFEB 		bl	uart1_transmit
 8214              	.L368:
 8215 6cb8 C8311FE5 		ldr	r3, .L449+64
 8216 6cbc B080D3E1 		ldrh	r8, [r3, #0]
 8217 6cc0 1E0058E3 		cmp	r8, #30
 8218 6cc4 911B001A 		bne	.L371
 8219 6cc8 D4411FE5 		ldr	r4, .L449+68
 8220 6ccc B4711FE5 		ldr	r7, .L449+104
 8221 6cd0 B000D4E1 		ldrh	r0, [r4, #0]
 8222 6cd4 B050D7E1 		ldrh	r5, [r7, #0]
 8223 6cd8 050060E0 		rsb	r0, r0, r5
 8224 6cdc FEFFFFEB 		bl	__floatsidf
 8225 6ce0 632F4FE2 		adr	r2, .L449+164
 8226 6ce4 0C0092E8 		ldmia	r2, {r2-r3}
 8227 6ce8 FEFFFFEB 		bl	__divdf3
 8228 6cec FEFFFFEB 		bl	__fixunsdfsi
 8229 6cf0 BE034BE1 		strh	r0, [fp, #-62]	@ movhi 
 8230 6cf4 0B00A0E3 		mov	r0, #11
 8231 6cf8 B050C4E1 		strh	r5, [r4, #0]	@ movhi 
 8232 6cfc FEFFFFEB 		bl	uart1_check_free_space
 8233 6d00 ECA11FE5 		ldr	sl, .L449+100
 8234 6d04 FF0010E3 		tst	r0, #255
 8235 6d08 0030DA05 		ldreqb	r3, [sl, #0]	@ zero_extendqisi2
 8236 6d0c 01308302 		addeq	r3, r3, #1
 8237 6d10 0030CA05 		streqb	r3, [sl, #0]
 8238 6d14 911B000A 		beq	.L371
 8239 6d18 FC611FE5 		ldr	r6, .L449+108
 8240 6d1c B030D7E1 		ldrh	r3, [r7, #0]
 8241 6d20 B020D6E1 		ldrh	r2, [r6, #0]
 8242 6d24 0B3083E2 		add	r3, r3, #11
 8243 6d28 012082E2 		add	r2, r2, #1
 8244 6d2c B020C6E1 		strh	r2, [r6, #0]	@ movhi 
 8245 6d30 B030C7E1 		strh	r3, [r7, #0]	@ movhi 
 8246 6d34 9900A0E3 		mov	r0, #153
 8247 6d38 18421FE5 		ldr	r4, .L449+112
 8248 6d3c FEFFFFEB 		bl	uart1_transmit
 8249 6d40 0B00A0E3 		mov	r0, #11
 8250 6d44 20521FE5 		ldr	r5, .L449+116
 8251 6d48 FEFFFFEB 		bl	uart1_transmit
 8252 6d4c 1530A0E3 		mov	r3, #21
 8253 6d50 0030C4E5 		strb	r3, [r4, #0]
 8254 6d54 0B3083E2 		add	r3, r3, #11
 8255 6d58 0A00A0E3 		mov	r0, #10
 8256 6d5c 0030C5E5 		strb	r3, [r5, #0]
 8257 6d60 FEFFFFEB 		bl	uart1_transmit
 8258 6d64 0030D4E5 		ldrb	r3, [r4, #0]	@ zero_extendqisi2
 8259 6d68 1E3083E2 		add	r3, r3, #30
 8260 6d6c 0030C4E5 		strb	r3, [r4, #0]
 8261 6d70 0030D5E5 		ldrb	r3, [r5, #0]	@ zero_extendqisi2
 8262 6d74 0020D4E5 		ldrb	r2, [r4, #0]	@ zero_extendqisi2
 8263 6d78 023083E0 		add	r3, r3, r2
 8264 6d7c 0800A0E1 		mov	r0, r8
 8265 6d80 0030C5E5 		strb	r3, [r5, #0]
 8266 6d84 FEFFFFEB 		bl	uart1_transmit
 8267 6d88 0000DAE5 		ldrb	r0, [sl, #0]	@ zero_extendqisi2
 8268 6d8c 0030D4E5 		ldrb	r3, [r4, #0]	@ zero_extendqisi2
 8269 6d90 033080E0 		add	r3, r0, r3
 8270 6d94 0030C4E5 		strb	r3, [r4, #0]
 8271 6d98 0030D5E5 		ldrb	r3, [r5, #0]	@ zero_extendqisi2
 8272 6d9c 0020D4E5 		ldrb	r2, [r4, #0]	@ zero_extendqisi2
 8273 6da0 023083E0 		add	r3, r3, r2
 8274 6da4 0030C5E5 		strb	r3, [r5, #0]
 8275 6da8 FEFFFFEB 		bl	uart1_transmit
 8276 6dac 3E005BE5 		ldrb	r0, [fp, #-62]	@ zero_extendqisi2
 8277 6db0 0030D4E5 		ldrb	r3, [r4, #0]	@ zero_extendqisi2
 8278 6db4 033080E0 		add	r3, r0, r3
 8279 6db8 0030C4E5 		strb	r3, [r4, #0]
 8280 6dbc 0030D5E5 		ldrb	r3, [r5, #0]	@ zero_extendqisi2
 8281 6dc0 0020D4E5 		ldrb	r2, [r4, #0]	@ zero_extendqisi2
 8282 6dc4 023083E0 		add	r3, r3, r2
 8283 6dc8 0030C5E5 		strb	r3, [r5, #0]
 8284 6dcc FEFFFFEB 		bl	uart1_transmit
 8285 6dd0 3D005BE5 		ldrb	r0, [fp, #-61]	@ zero_extendqisi2
 8286 6dd4 0030D4E5 		ldrb	r3, [r4, #0]	@ zero_extendqisi2
 8287 6dd8 033080E0 		add	r3, r0, r3
 8288 6ddc 0030C4E5 		strb	r3, [r4, #0]
 8289 6de0 0030D5E5 		ldrb	r3, [r5, #0]	@ zero_extendqisi2
 8290 6de4 0020D4E5 		ldrb	r2, [r4, #0]	@ zero_extendqisi2
 8291 6de8 023083E0 		add	r3, r3, r2
 8292 6dec 0030C5E5 		strb	r3, [r5, #0]
 8293 6df0 FEFFFFEB 		bl	uart1_transmit
 8294 6df4 0000D6E5 		ldrb	r0, [r6, #0]	@ zero_extendqisi2
 8295 6df8 0030D4E5 		ldrb	r3, [r4, #0]	@ zero_extendqisi2
 8296 6dfc 033080E0 		add	r3, r0, r3
 8297 6e00 0030C4E5 		strb	r3, [r4, #0]
 8298 6e04 0030D5E5 		ldrb	r3, [r5, #0]	@ zero_extendqisi2
 8299 6e08 0020D4E5 		ldrb	r2, [r4, #0]	@ zero_extendqisi2
 8300 6e0c 023083E0 		add	r3, r3, r2
 8301 6e10 0030C5E5 		strb	r3, [r5, #0]
 8302 6e14 FEFFFFEB 		bl	uart1_transmit
 8303 6e18 0100D6E5 		ldrb	r0, [r6, #1]	@ zero_extendqisi2
 8304 6e1c 0030D4E5 		ldrb	r3, [r4, #0]	@ zero_extendqisi2
 8305 6e20 033080E0 		add	r3, r0, r3
 8306 6e24 0030C4E5 		strb	r3, [r4, #0]
 8307 6e28 0030D5E5 		ldrb	r3, [r5, #0]	@ zero_extendqisi2
 8308 6e2c 0020D4E5 		ldrb	r2, [r4, #0]	@ zero_extendqisi2
 8309 6e30 023083E0 		add	r3, r3, r2
 8310 6e34 0030C5E5 		strb	r3, [r5, #0]
 8311 6e38 FEFFFFEB 		bl	uart1_transmit
 8312 6e3c 0000D4E5 		ldrb	r0, [r4, #0]	@ zero_extendqisi2
 8313 6e40 FEFFFFEB 		bl	uart1_transmit
 8314 6e44 0000D5E5 		ldrb	r0, [r5, #0]	@ zero_extendqisi2
 8315 6e48 FEFFFFEB 		bl	uart1_transmit
 8316              	.L371:
 8317 6e4c 54231FE5 		ldr	r2, .L449+72
 8318 6e50 B030D2E1 		ldrh	r3, [r2, #0]
 8319 6e54 240053E3 		cmp	r3, #36
 8320 6e58 481C001A 		bne	.L374
 8321 6e5c 60331FE5 		ldr	r3, .L449+76
 8322 6e60 000093E5 		ldr	r0, [r3, #0]	@ float
 8323 6e64 0030A0E3 		mov	r3, #0	@ movhi
 8324 6e68 B0344BE1 		strh	r3, [fp, #-64]	@ movhi 
 8325 6e6c FEFFFFEB 		bl	__fixsfsi
 8326 6e70 B2044BE1 		strh	r0, [fp, #-66]	@ movhi 
 8327 6e74 1400A0E3 		mov	r0, #20
 8328 6e78 FEFFFFEB 		bl	uart1_check_free_space
 8329 6e7c FF0010E3 		tst	r0, #255
 8330 6e80 6C231F05 		ldreq	r2, .L449+100
 8331 6e84 0030D205 		ldreqb	r3, [r2, #0]	@ zero_extendqisi2
 8332 6e88 01308302 		addeq	r3, r3, #1
 8333 6e8c 0030C205 		streqb	r3, [r2, #0]
 8334 6e90 481C000A 		beq	.L374
 8335 6e94 7C131FE5 		ldr	r1, .L449+104
 8336 6e98 7CC31FE5 		ldr	ip, .L449+108
 8337 6e9c B030D1E1 		ldrh	r3, [r1, #0]
 8338 6ea0 B020DCE1 		ldrh	r2, [ip, #0]
 8339 6ea4 143083E2 		add	r3, r3, #20
 8340 6ea8 012082E2 		add	r2, r2, #1
 8341 6eac B030C1E1 		strh	r3, [r1, #0]	@ movhi 
 8342 6eb0 B020CCE1 		strh	r2, [ip, #0]	@ movhi 
 8343 6eb4 9900A0E3 		mov	r0, #153
 8344 6eb8 98431FE5 		ldr	r4, .L449+112
 8345 6ebc FEFFFFEB 		bl	uart1_transmit
 8346 6ec0 1400A0E3 		mov	r0, #20
 8347 6ec4 A0531FE5 		ldr	r5, .L449+116
 8348 6ec8 FEFFFFEB 		bl	uart1_transmit
 8349 6ecc 1E30A0E3 		mov	r3, #30
 8350 6ed0 0030C4E5 		strb	r3, [r4, #0]
 8351 6ed4 143083E2 		add	r3, r3, #20
 8352 6ed8 0A00A0E3 		mov	r0, #10
 8353 6edc 0030C5E5 		strb	r3, [r5, #0]
 8354 6ee0 FEFFFFEB 		bl	uart1_transmit
 8355 6ee4 0030D4E5 		ldrb	r3, [r4, #0]	@ zero_extendqisi2
 8356 6ee8 0C3083E2 		add	r3, r3, #12
 8357 6eec 0030C4E5 		strb	r3, [r4, #0]
 8358 6ef0 0030D5E5 		ldrb	r3, [r5, #0]	@ zero_extendqisi2
 8359 6ef4 0020D4E5 		ldrb	r2, [r4, #0]	@ zero_extendqisi2
 8360 6ef8 F8631FE5 		ldr	r6, .L449+80
 8361 6efc 023083E0 		add	r3, r3, r2
 8362 6f00 0C00A0E3 		mov	r0, #12
 8363 6f04 0030C5E5 		strb	r3, [r5, #0]
 8364 6f08 FEFFFFEB 		bl	uart1_transmit
 8365 6f0c 0000D6E5 		ldrb	r0, [r6, #0]	@ zero_extendqisi2
 8366 6f10 0030D4E5 		ldrb	r3, [r4, #0]	@ zero_extendqisi2
 8367 6f14 033080E0 		add	r3, r0, r3
 8368 6f18 0030C4E5 		strb	r3, [r4, #0]
 8369 6f1c 0030D5E5 		ldrb	r3, [r5, #0]	@ zero_extendqisi2
 8370 6f20 0020D4E5 		ldrb	r2, [r4, #0]	@ zero_extendqisi2
 8371 6f24 023083E0 		add	r3, r3, r2
 8372 6f28 0030C5E5 		strb	r3, [r5, #0]
 8373 6f2c FEFFFFEB 		bl	uart1_transmit
 8374 6f30 0100D6E5 		ldrb	r0, [r6, #1]	@ zero_extendqisi2
 8375 6f34 0030D4E5 		ldrb	r3, [r4, #0]	@ zero_extendqisi2
 8376 6f38 033080E0 		add	r3, r0, r3
 8377 6f3c 0030C4E5 		strb	r3, [r4, #0]
 8378 6f40 0030D5E5 		ldrb	r3, [r5, #0]	@ zero_extendqisi2
 8379 6f44 0020D4E5 		ldrb	r2, [r4, #0]	@ zero_extendqisi2
 8380 6f48 023083E0 		add	r3, r3, r2
 8381 6f4c 0030C5E5 		strb	r3, [r5, #0]
 8382 6f50 FEFFFFEB 		bl	uart1_transmit
 8383 6f54 04341FE5 		ldr	r3, .L449+160
 8384 6f58 0000D3E5 		ldrb	r0, [r3, #0]	@ zero_extendqisi2
 8385 6f5c 0030D4E5 		ldrb	r3, [r4, #0]	@ zero_extendqisi2
 8386 6f60 033080E0 		add	r3, r0, r3
 8387 6f64 0030C4E5 		strb	r3, [r4, #0]
 8388 6f68 0030D5E5 		ldrb	r3, [r5, #0]	@ zero_extendqisi2
 8389 6f6c 0020D4E5 		ldrb	r2, [r4, #0]	@ zero_extendqisi2
 8390 6f70 023083E0 		add	r3, r3, r2
 8391 6f74 0030C5E5 		strb	r3, [r5, #0]
 8392 6f78 FEFFFFEB 		bl	uart1_transmit
 8393 6f7c 40005BE5 		ldrb	r0, [fp, #-64]	@ zero_extendqisi2
 8394 6f80 0030D4E5 		ldrb	r3, [r4, #0]	@ zero_extendqisi2
 8395 6f84 033080E0 		add	r3, r0, r3
 8396 6f88 0030C4E5 		strb	r3, [r4, #0]
 8397 6f8c 0030D5E5 		ldrb	r3, [r5, #0]	@ zero_extendqisi2
 8398 6f90 0020D4E5 		ldrb	r2, [r4, #0]	@ zero_extendqisi2
 8399 6f94 023083E0 		add	r3, r3, r2
 8400 6f98 0030C5E5 		strb	r3, [r5, #0]
 8401 6f9c FEFFFFEB 		bl	uart1_transmit
 8402 6fa0 3F005BE5 		ldrb	r0, [fp, #-63]	@ zero_extendqisi2
 8403 6fa4 0030D4E5 		ldrb	r3, [r4, #0]	@ zero_extendqisi2
 8404 6fa8 033080E0 		add	r3, r0, r3
 8405 6fac 0030C4E5 		strb	r3, [r4, #0]
 8406 6fb0 0030D5E5 		ldrb	r3, [r5, #0]	@ zero_extendqisi2
 8407 6fb4 0020D4E5 		ldrb	r2, [r4, #0]	@ zero_extendqisi2
 8408 6fb8 70641FE5 		ldr	r6, .L449+152
 8409 6fbc 023083E0 		add	r3, r3, r2
 8410 6fc0 0030C5E5 		strb	r3, [r5, #0]
 8411 6fc4 FEFFFFEB 		bl	uart1_transmit
 8412 6fc8 0000D6E5 		ldrb	r0, [r6, #0]	@ zero_extendqisi2
 8413 6fcc 0030D4E5 		ldrb	r3, [r4, #0]	@ zero_extendqisi2
 8414 6fd0 033080E0 		add	r3, r0, r3
 8415 6fd4 0030C4E5 		strb	r3, [r4, #0]
 8416 6fd8 0030D5E5 		ldrb	r3, [r5, #0]	@ zero_extendqisi2
 8417 6fdc 0020D4E5 		ldrb	r2, [r4, #0]	@ zero_extendqisi2
 8418 6fe0 023083E0 		add	r3, r3, r2
 8419 6fe4 0030C5E5 		strb	r3, [r5, #0]
 8420 6fe8 FEFFFFEB 		bl	uart1_transmit
 8421 6fec 0100D6E5 		ldrb	r0, [r6, #1]	@ zero_extendqisi2
 8422 6ff0 0030D4E5 		ldrb	r3, [r4, #0]	@ zero_extendqisi2
 8423 6ff4 033080E0 		add	r3, r0, r3
 8424 6ff8 0030C4E5 		strb	r3, [r4, #0]
 8425 6ffc 0030D5E5 		ldrb	r3, [r5, #0]	@ zero_extendqisi2
 8426 7000 0020D4E5 		ldrb	r2, [r4, #0]	@ zero_extendqisi2
 8427 7004 023083E0 		add	r3, r3, r2
 8428 7008 0030C5E5 		strb	r3, [r5, #0]
 8429 700c FEFFFFEB 		bl	uart1_transmit
 8430 7010 0C351FE5 		ldr	r3, .L449+84
 8431 7014 0000D3E5 		ldrb	r0, [r3, #0]	@ zero_extendqisi2
 8432 7018 0030D4E5 		ldrb	r3, [r4, #0]	@ zero_extendqisi2
 8433 701c 033080E0 		add	r3, r0, r3
 8434 7020 0030C4E5 		strb	r3, [r4, #0]
 8435 7024 0030D5E5 		ldrb	r3, [r5, #0]	@ zero_extendqisi2
 8436 7028 0020D4E5 		ldrb	r2, [r4, #0]	@ zero_extendqisi2
 8437 702c 24651FE5 		ldr	r6, .L449+88
 8438 7030 023083E0 		add	r3, r3, r2
 8439 7034 0030C5E5 		strb	r3, [r5, #0]
 8440 7038 FEFFFFEB 		bl	uart1_transmit
 8441 703c 0000D6E5 		ldrb	r0, [r6, #0]	@ zero_extendqisi2
 8442 7040 0030D4E5 		ldrb	r3, [r4, #0]	@ zero_extendqisi2
 8443 7044 033080E0 		add	r3, r0, r3
 8444 7048 0030C4E5 		strb	r3, [r4, #0]
 8445 704c 0030D5E5 		ldrb	r3, [r5, #0]	@ zero_extendqisi2
 8446 7050 0020D4E5 		ldrb	r2, [r4, #0]	@ zero_extendqisi2
 8447 7054 023083E0 		add	r3, r3, r2
 8448 7058 0030C5E5 		strb	r3, [r5, #0]
 8449 705c FEFFFFEB 		bl	uart1_transmit
 8450 7060 0100D6E5 		ldrb	r0, [r6, #1]	@ zero_extendqisi2
 8451 7064 0030D4E5 		ldrb	r3, [r4, #0]	@ zero_extendqisi2
 8452 7068 033080E0 		add	r3, r0, r3
 8453 706c 0030C4E5 		strb	r3, [r4, #0]
 8454 7070 0030D5E5 		ldrb	r3, [r5, #0]	@ zero_extendqisi2
 8455 7074 0020D4E5 		ldrb	r2, [r4, #0]	@ zero_extendqisi2
 8456 7078 6C651FE5 		ldr	r6, .L449+92
 8457 707c 023083E0 		add	r3, r3, r2
 8458 7080 0030C5E5 		strb	r3, [r5, #0]
 8459 7084 FEFFFFEB 		bl	uart1_transmit
 8460 7088 0000D6E5 		ldrb	r0, [r6, #0]	@ zero_extendqisi2
 8461 708c 0030D4E5 		ldrb	r3, [r4, #0]	@ zero_extendqisi2
 8462 7090 033080E0 		add	r3, r0, r3
 8463 7094 0030C4E5 		strb	r3, [r4, #0]
 8464 7098 0030D5E5 		ldrb	r3, [r5, #0]	@ zero_extendqisi2
 8465 709c 0020D4E5 		ldrb	r2, [r4, #0]	@ zero_extendqisi2
 8466 70a0 023083E0 		add	r3, r3, r2
 8467 70a4 0030C5E5 		strb	r3, [r5, #0]
 8468 70a8 FEFFFFEB 		bl	uart1_transmit
 8469 70ac 0100D6E5 		ldrb	r0, [r6, #1]	@ zero_extendqisi2
 8470 70b0 0030D4E5 		ldrb	r3, [r4, #0]	@ zero_extendqisi2
 8471 70b4 033080E0 		add	r3, r0, r3
 8472 70b8 0030C4E5 		strb	r3, [r4, #0]
 8473 70bc 0030D5E5 		ldrb	r3, [r5, #0]	@ zero_extendqisi2
 8474 70c0 0020D4E5 		ldrb	r2, [r4, #0]	@ zero_extendqisi2
 8475 70c4 023083E0 		add	r3, r3, r2
 8476 70c8 0030C5E5 		strb	r3, [r5, #0]
 8477 70cc FEFFFFEB 		bl	uart1_transmit
 8478 70d0 42005BE5 		ldrb	r0, [fp, #-66]	@ zero_extendqisi2
 8479 70d4 0030D4E5 		ldrb	r3, [r4, #0]	@ zero_extendqisi2
 8480 70d8 033080E0 		add	r3, r0, r3
 8481 70dc 0030C4E5 		strb	r3, [r4, #0]
 8482 70e0 0030D5E5 		ldrb	r3, [r5, #0]	@ zero_extendqisi2
 8483 70e4 0020D4E5 		ldrb	r2, [r4, #0]	@ zero_extendqisi2
 8484 70e8 023083E0 		add	r3, r3, r2
 8485 70ec 0030C5E5 		strb	r3, [r5, #0]
 8486 70f0 FEFFFFEB 		bl	uart1_transmit
 8487 70f4 41005BE5 		ldrb	r0, [fp, #-65]	@ zero_extendqisi2
 8488 70f8 0030D4E5 		ldrb	r3, [r4, #0]	@ zero_extendqisi2
 8489 70fc 033080E0 		add	r3, r0, r3
 8490 7100 0030C4E5 		strb	r3, [r4, #0]
 8491 7104 0030D5E5 		ldrb	r3, [r5, #0]	@ zero_extendqisi2
 8492 7108 0020D4E5 		ldrb	r2, [r4, #0]	@ zero_extendqisi2
 8493 710c 023083E0 		add	r3, r3, r2
 8494 7110 0030C5E5 		strb	r3, [r5, #0]
 8495 7114 FEFFFFEB 		bl	uart1_transmit
 8496 7118 0000D4E5 		ldrb	r0, [r4, #0]	@ zero_extendqisi2
 8497 711c FEFFFFEB 		bl	uart1_transmit
 8498 7120 0000D5E5 		ldrb	r0, [r5, #0]	@ zero_extendqisi2
 8499 7124 FEFFFFEB 		bl	uart1_transmit
 8500              	.L374:
 8501 7128 18261FE5 		ldr	r2, .L449+96
 8502 712c B030D2E1 		ldrh	r3, [r2, #0]
 8503 7130 2A0053E3 		cmp	r3, #42
 8504 7134 781D001A 		bne	.L380
 8505 7138 2200A0E3 		mov	r0, #34
 8506 713c FEFFFFEB 		bl	uart1_check_free_space
 8507 7140 FF0010E3 		tst	r0, #255
 8508 7144 30261F05 		ldreq	r2, .L449+100
 8509 7148 0030D205 		ldreqb	r3, [r2, #0]	@ zero_extendqisi2
 8510 714c 01308302 		addeq	r3, r3, #1
 8511 7150 0030C205 		streqb	r3, [r2, #0]
 8512 7154 781D000A 		beq	.L380
 8513 7158 40161FE5 		ldr	r1, .L449+104
 8514 715c 40C61FE5 		ldr	ip, .L449+108
 8515 7160 B030D1E1 		ldrh	r3, [r1, #0]
 8516 7164 B020DCE1 		ldrh	r2, [ip, #0]
 8517 7168 223083E2 		add	r3, r3, #34
 8518 716c 012082E2 		add	r2, r2, #1
 8519 7170 B030C1E1 		strh	r3, [r1, #0]	@ movhi 
 8520 7174 B020CCE1 		strh	r2, [ip, #0]	@ movhi 
 8521 7178 9900A0E3 		mov	r0, #153
 8522 717c 5C461FE5 		ldr	r4, .L449+112
 8523 7180 FEFFFFEB 		bl	uart1_transmit
 8524 7184 2200A0E3 		mov	r0, #34
 8525 7188 64561FE5 		ldr	r5, .L449+116
 8526 718c FEFFFFEB 		bl	uart1_transmit
 8527 7190 2C30A0E3 		mov	r3, #44
 8528 7194 0030C4E5 		strb	r3, [r4, #0]
 8529 7198 223083E2 		add	r3, r3, #34
 8530 719c 0A00A0E3 		mov	r0, #10
 8531 71a0 0030C5E5 		strb	r3, [r5, #0]
 8532 71a4 FEFFFFEB 		bl	uart1_transmit
 8533 71a8 0030D4E5 		ldrb	r3, [r4, #0]	@ zero_extendqisi2
 8534 71ac 103083E2 		add	r3, r3, #16
 8535 71b0 0030C4E5 		strb	r3, [r4, #0]
 8536 71b4 0030D5E5 		ldrb	r3, [r5, #0]	@ zero_extendqisi2
 8537 71b8 0020D4E5 		ldrb	r2, [r4, #0]	@ zero_extendqisi2
 8538 71bc 94661FE5 		ldr	r6, .L449+120
 8539 71c0 023083E0 		add	r3, r3, r2
 8540 71c4 1000A0E3 		mov	r0, #16
 8541 71c8 0030C5E5 		strb	r3, [r5, #0]
 8542 71cc FEFFFFEB 		bl	uart1_transmit
 8543 71d0 0000D6E5 		ldrb	r0, [r6, #0]	@ zero_extendqisi2
 8544 71d4 0030D4E5 		ldrb	r3, [r4, #0]	@ zero_extendqisi2
 8545 71d8 033080E0 		add	r3, r0, r3
 8546 71dc 0030C4E5 		strb	r3, [r4, #0]
 8547 71e0 0030D5E5 		ldrb	r3, [r5, #0]	@ zero_extendqisi2
 8548 71e4 0020D4E5 		ldrb	r2, [r4, #0]	@ zero_extendqisi2
 8549 71e8 023083E0 		add	r3, r3, r2
 8550 71ec 0030C5E5 		strb	r3, [r5, #0]
 8551 71f0 FEFFFFEB 		bl	uart1_transmit
 8552 71f4 0100D6E5 		ldrb	r0, [r6, #1]	@ zero_extendqisi2
 8553 71f8 0030D4E5 		ldrb	r3, [r4, #0]	@ zero_extendqisi2
 8554 71fc 033080E0 		add	r3, r0, r3
 8555 7200 0030C4E5 		strb	r3, [r4, #0]
 8556 7204 0030D5E5 		ldrb	r3, [r5, #0]	@ zero_extendqisi2
 8557 7208 0020D4E5 		ldrb	r2, [r4, #0]	@ zero_extendqisi2
 8558 720c 023083E0 		add	r3, r3, r2
 8559 7210 0030C5E5 		strb	r3, [r5, #0]
 8560 7214 FEFFFFEB 		bl	uart1_transmit
 8561 7218 0200D6E5 		ldrb	r0, [r6, #2]	@ zero_extendqisi2
 8562 721c 0030D4E5 		ldrb	r3, [r4, #0]	@ zero_extendqisi2
 8563 7220 033080E0 		add	r3, r0, r3
 8564 7224 0030C4E5 		strb	r3, [r4, #0]
 8565 7228 0030D5E5 		ldrb	r3, [r5, #0]	@ zero_extendqisi2
 8566 722c 0020D4E5 		ldrb	r2, [r4, #0]	@ zero_extendqisi2
 8567 7230 023083E0 		add	r3, r3, r2
 8568 7234 0030C5E5 		strb	r3, [r5, #0]
 8569 7238 FEFFFFEB 		bl	uart1_transmit
 8570 723c 0300D6E5 		ldrb	r0, [r6, #3]	@ zero_extendqisi2
 8571 7240 0030D4E5 		ldrb	r3, [r4, #0]	@ zero_extendqisi2
 8572 7244 033080E0 		add	r3, r0, r3
 8573 7248 0030C4E5 		strb	r3, [r4, #0]
 8574 724c 0030D5E5 		ldrb	r3, [r5, #0]	@ zero_extendqisi2
 8575 7250 0020D4E5 		ldrb	r2, [r4, #0]	@ zero_extendqisi2
 8576 7254 28671FE5 		ldr	r6, .L449+124
 8577 7258 023083E0 		add	r3, r3, r2
 8578 725c 0030C5E5 		strb	r3, [r5, #0]
 8579 7260 FEFFFFEB 		bl	uart1_transmit
 8580 7264 0000D6E5 		ldrb	r0, [r6, #0]	@ zero_extendqisi2
 8581 7268 0030D4E5 		ldrb	r3, [r4, #0]	@ zero_extendqisi2
 8582 726c 033080E0 		add	r3, r0, r3
 8583 7270 0030C4E5 		strb	r3, [r4, #0]
 8584 7274 0030D5E5 		ldrb	r3, [r5, #0]	@ zero_extendqisi2
 8585 7278 0020D4E5 		ldrb	r2, [r4, #0]	@ zero_extendqisi2
 8586 727c 023083E0 		add	r3, r3, r2
 8587 7280 0030C5E5 		strb	r3, [r5, #0]
 8588 7284 FEFFFFEB 		bl	uart1_transmit
 8589 7288 0100D6E5 		ldrb	r0, [r6, #1]	@ zero_extendqisi2
 8590 728c 0030D4E5 		ldrb	r3, [r4, #0]	@ zero_extendqisi2
 8591 7290 033080E0 		add	r3, r0, r3
 8592 7294 0030C4E5 		strb	r3, [r4, #0]
 8593 7298 0030D5E5 		ldrb	r3, [r5, #0]	@ zero_extendqisi2
 8594 729c 0020D4E5 		ldrb	r2, [r4, #0]	@ zero_extendqisi2
 8595 72a0 023083E0 		add	r3, r3, r2
 8596 72a4 0030C5E5 		strb	r3, [r5, #0]
 8597 72a8 FEFFFFEB 		bl	uart1_transmit
 8598 72ac 0200D6E5 		ldrb	r0, [r6, #2]	@ zero_extendqisi2
 8599 72b0 0030D4E5 		ldrb	r3, [r4, #0]	@ zero_extendqisi2
 8600 72b4 033080E0 		add	r3, r0, r3
 8601 72b8 0030C4E5 		strb	r3, [r4, #0]
 8602 72bc 0030D5E5 		ldrb	r3, [r5, #0]	@ zero_extendqisi2
 8603 72c0 0020D4E5 		ldrb	r2, [r4, #0]	@ zero_extendqisi2
 8604 72c4 023083E0 		add	r3, r3, r2
 8605 72c8 0030C5E5 		strb	r3, [r5, #0]
 8606 72cc FEFFFFEB 		bl	uart1_transmit
 8607 72d0 0300D6E5 		ldrb	r0, [r6, #3]	@ zero_extendqisi2
 8608 72d4 0030D4E5 		ldrb	r3, [r4, #0]	@ zero_extendqisi2
 8609 72d8 033080E0 		add	r3, r0, r3
 8610 72dc 0030C4E5 		strb	r3, [r4, #0]
 8611 72e0 0030D5E5 		ldrb	r3, [r5, #0]	@ zero_extendqisi2
 8612 72e4 0020D4E5 		ldrb	r2, [r4, #0]	@ zero_extendqisi2
 8613 72e8 B8671FE5 		ldr	r6, .L449+128
 8614 72ec 023083E0 		add	r3, r3, r2
 8615 72f0 0030C5E5 		strb	r3, [r5, #0]
 8616 72f4 FEFFFFEB 		bl	uart1_transmit
 8617 72f8 0000D6E5 		ldrb	r0, [r6, #0]	@ zero_extendqisi2
 8618 72fc 0030D4E5 		ldrb	r3, [r4, #0]	@ zero_extendqisi2
 8619 7300 033080E0 		add	r3, r0, r3
 8620 7304 0030C4E5 		strb	r3, [r4, #0]
 8621 7308 0030D5E5 		ldrb	r3, [r5, #0]	@ zero_extendqisi2
 8622 730c 0020D4E5 		ldrb	r2, [r4, #0]	@ zero_extendqisi2
 8623 7310 023083E0 		add	r3, r3, r2
 8624 7314 0030C5E5 		strb	r3, [r5, #0]
 8625 7318 FEFFFFEB 		bl	uart1_transmit
 8626 731c 0100D6E5 		ldrb	r0, [r6, #1]	@ zero_extendqisi2
 8627 7320 0030D4E5 		ldrb	r3, [r4, #0]	@ zero_extendqisi2
 8628 7324 033080E0 		add	r3, r0, r3
 8629 7328 0030C4E5 		strb	r3, [r4, #0]
 8630 732c 0030D5E5 		ldrb	r3, [r5, #0]	@ zero_extendqisi2
 8631 7330 0020D4E5 		ldrb	r2, [r4, #0]	@ zero_extendqisi2
 8632 7334 023083E0 		add	r3, r3, r2
 8633 7338 0030C5E5 		strb	r3, [r5, #0]
 8634 733c FEFFFFEB 		bl	uart1_transmit
 8635 7340 0200D6E5 		ldrb	r0, [r6, #2]	@ zero_extendqisi2
 8636 7344 0030D4E5 		ldrb	r3, [r4, #0]	@ zero_extendqisi2
 8637 7348 033080E0 		add	r3, r0, r3
 8638 734c 0030C4E5 		strb	r3, [r4, #0]
 8639 7350 0030D5E5 		ldrb	r3, [r5, #0]	@ zero_extendqisi2
 8640 7354 0020D4E5 		ldrb	r2, [r4, #0]	@ zero_extendqisi2
 8641 7358 023083E0 		add	r3, r3, r2
 8642 735c 0030C5E5 		strb	r3, [r5, #0]
 8643 7360 FEFFFFEB 		bl	uart1_transmit
 8644 7364 0300D6E5 		ldrb	r0, [r6, #3]	@ zero_extendqisi2
 8645 7368 0030D4E5 		ldrb	r3, [r4, #0]	@ zero_extendqisi2
 8646 736c 033080E0 		add	r3, r0, r3
 8647 7370 0030C4E5 		strb	r3, [r4, #0]
 8648 7374 0030D5E5 		ldrb	r3, [r5, #0]	@ zero_extendqisi2
 8649 7378 0020D4E5 		ldrb	r2, [r4, #0]	@ zero_extendqisi2
 8650 737c 48681FE5 		ldr	r6, .L449+132
 8651 7380 023083E0 		add	r3, r3, r2
 8652 7384 0030C5E5 		strb	r3, [r5, #0]
 8653 7388 FEFFFFEB 		bl	uart1_transmit
 8654 738c 0000D6E5 		ldrb	r0, [r6, #0]	@ zero_extendqisi2
 8655 7390 0030D4E5 		ldrb	r3, [r4, #0]	@ zero_extendqisi2
 8656 7394 033080E0 		add	r3, r0, r3
 8657 7398 0030C4E5 		strb	r3, [r4, #0]
 8658 739c 0030D5E5 		ldrb	r3, [r5, #0]	@ zero_extendqisi2
 8659 73a0 0020D4E5 		ldrb	r2, [r4, #0]	@ zero_extendqisi2
 8660 73a4 023083E0 		add	r3, r3, r2
 8661 73a8 0030C5E5 		strb	r3, [r5, #0]
 8662 73ac FEFFFFEB 		bl	uart1_transmit
 8663 73b0 0100D6E5 		ldrb	r0, [r6, #1]	@ zero_extendqisi2
 8664 73b4 0030D4E5 		ldrb	r3, [r4, #0]	@ zero_extendqisi2
 8665 73b8 033080E0 		add	r3, r0, r3
 8666 73bc 0030C4E5 		strb	r3, [r4, #0]
 8667 73c0 0030D5E5 		ldrb	r3, [r5, #0]	@ zero_extendqisi2
 8668 73c4 0020D4E5 		ldrb	r2, [r4, #0]	@ zero_extendqisi2
 8669 73c8 023083E0 		add	r3, r3, r2
 8670 73cc 0030C5E5 		strb	r3, [r5, #0]
 8671 73d0 FEFFFFEB 		bl	uart1_transmit
 8672 73d4 0200D6E5 		ldrb	r0, [r6, #2]	@ zero_extendqisi2
 8673 73d8 0030D4E5 		ldrb	r3, [r4, #0]	@ zero_extendqisi2
 8674 73dc 033080E0 		add	r3, r0, r3
 8675 73e0 0030C4E5 		strb	r3, [r4, #0]
 8676 73e4 0030D5E5 		ldrb	r3, [r5, #0]	@ zero_extendqisi2
 8677 73e8 0020D4E5 		ldrb	r2, [r4, #0]	@ zero_extendqisi2
 8678 73ec 023083E0 		add	r3, r3, r2
 8679 73f0 0030C5E5 		strb	r3, [r5, #0]
 8680 73f4 FEFFFFEB 		bl	uart1_transmit
 8681 73f8 0300D6E5 		ldrb	r0, [r6, #3]	@ zero_extendqisi2
 8682 73fc 0030D4E5 		ldrb	r3, [r4, #0]	@ zero_extendqisi2
 8683 7400 033080E0 		add	r3, r0, r3
 8684 7404 0030C4E5 		strb	r3, [r4, #0]
 8685 7408 0030D5E5 		ldrb	r3, [r5, #0]	@ zero_extendqisi2
 8686 740c 0020D4E5 		ldrb	r2, [r4, #0]	@ zero_extendqisi2
 8687 7410 D8681FE5 		ldr	r6, .L449+136
 8688 7414 023083E0 		add	r3, r3, r2
 8689 7418 0030C5E5 		strb	r3, [r5, #0]
 8690 741c FEFFFFEB 		bl	uart1_transmit
 8691 7420 0000D6E5 		ldrb	r0, [r6, #0]	@ zero_extendqisi2
 8692 7424 0030D4E5 		ldrb	r3, [r4, #0]	@ zero_extendqisi2
 8693 7428 033080E0 		add	r3, r0, r3
 8694 742c 0030C4E5 		strb	r3, [r4, #0]
 8695 7430 0030D5E5 		ldrb	r3, [r5, #0]	@ zero_extendqisi2
 8696 7434 0020D4E5 		ldrb	r2, [r4, #0]	@ zero_extendqisi2
 8697 7438 023083E0 		add	r3, r3, r2
 8698 743c 0030C5E5 		strb	r3, [r5, #0]
 8699 7440 FEFFFFEB 		bl	uart1_transmit
 8700 7444 0100D6E5 		ldrb	r0, [r6, #1]	@ zero_extendqisi2
 8701 7448 0030D4E5 		ldrb	r3, [r4, #0]	@ zero_extendqisi2
 8702 744c 033080E0 		add	r3, r0, r3
 8703 7450 0030C4E5 		strb	r3, [r4, #0]
 8704 7454 0030D5E5 		ldrb	r3, [r5, #0]	@ zero_extendqisi2
 8705 7458 0020D4E5 		ldrb	r2, [r4, #0]	@ zero_extendqisi2
 8706 745c 023083E0 		add	r3, r3, r2
 8707 7460 0030C5E5 		strb	r3, [r5, #0]
 8708 7464 FEFFFFEB 		bl	uart1_transmit
 8709 7468 0200D6E5 		ldrb	r0, [r6, #2]	@ zero_extendqisi2
 8710 746c 0030D4E5 		ldrb	r3, [r4, #0]	@ zero_extendqisi2
 8711 7470 033080E0 		add	r3, r0, r3
 8712 7474 0030C4E5 		strb	r3, [r4, #0]
 8713 7478 0030D5E5 		ldrb	r3, [r5, #0]	@ zero_extendqisi2
 8714 747c 0020D4E5 		ldrb	r2, [r4, #0]	@ zero_extendqisi2
 8715 7480 023083E0 		add	r3, r3, r2
 8716 7484 0030C5E5 		strb	r3, [r5, #0]
 8717 7488 FEFFFFEB 		bl	uart1_transmit
 8718 748c 0300D6E5 		ldrb	r0, [r6, #3]	@ zero_extendqisi2
 8719 7490 0030D4E5 		ldrb	r3, [r4, #0]	@ zero_extendqisi2
 8720 7494 033080E0 		add	r3, r0, r3
 8721 7498 0030C4E5 		strb	r3, [r4, #0]
 8722 749c 0030D5E5 		ldrb	r3, [r5, #0]	@ zero_extendqisi2
 8723 74a0 0020D4E5 		ldrb	r2, [r4, #0]	@ zero_extendqisi2
 8724 74a4 68691FE5 		ldr	r6, .L449+140
 8725 74a8 023083E0 		add	r3, r3, r2
 8726 74ac 0030C5E5 		strb	r3, [r5, #0]
 8727 74b0 FEFFFFEB 		bl	uart1_transmit
 8728 74b4 0000D6E5 		ldrb	r0, [r6, #0]	@ zero_extendqisi2
 8729 74b8 0030D4E5 		ldrb	r3, [r4, #0]	@ zero_extendqisi2
 8730 74bc 033080E0 		add	r3, r0, r3
 8731 74c0 0030C4E5 		strb	r3, [r4, #0]
 8732 74c4 0030D5E5 		ldrb	r3, [r5, #0]	@ zero_extendqisi2
 8733 74c8 0020D4E5 		ldrb	r2, [r4, #0]	@ zero_extendqisi2
 8734 74cc 023083E0 		add	r3, r3, r2
 8735 74d0 0030C5E5 		strb	r3, [r5, #0]
 8736 74d4 FEFFFFEB 		bl	uart1_transmit
 8737 74d8 0100D6E5 		ldrb	r0, [r6, #1]	@ zero_extendqisi2
 8738 74dc 0030D4E5 		ldrb	r3, [r4, #0]	@ zero_extendqisi2
 8739 74e0 033080E0 		add	r3, r0, r3
 8740 74e4 0030C4E5 		strb	r3, [r4, #0]
 8741 74e8 0030D5E5 		ldrb	r3, [r5, #0]	@ zero_extendqisi2
 8742 74ec 0020D4E5 		ldrb	r2, [r4, #0]	@ zero_extendqisi2
 8743 74f0 023083E0 		add	r3, r3, r2
 8744 74f4 0030C5E5 		strb	r3, [r5, #0]
 8745 74f8 FEFFFFEB 		bl	uart1_transmit
 8746 74fc 0200D6E5 		ldrb	r0, [r6, #2]	@ zero_extendqisi2
 8747 7500 0030D4E5 		ldrb	r3, [r4, #0]	@ zero_extendqisi2
 8748 7504 033080E0 		add	r3, r0, r3
 8749 7508 0030C4E5 		strb	r3, [r4, #0]
 8750 750c 0030D5E5 		ldrb	r3, [r5, #0]	@ zero_extendqisi2
 8751 7510 0020D4E5 		ldrb	r2, [r4, #0]	@ zero_extendqisi2
 8752 7514 023083E0 		add	r3, r3, r2
 8753 7518 0030C5E5 		strb	r3, [r5, #0]
 8754 751c FEFFFFEB 		bl	uart1_transmit
 8755 7520 0300D6E5 		ldrb	r0, [r6, #3]	@ zero_extendqisi2
 8756 7524 0030D4E5 		ldrb	r3, [r4, #0]	@ zero_extendqisi2
 8757 7528 033080E0 		add	r3, r0, r3
 8758 752c 0030C4E5 		strb	r3, [r4, #0]
 8759 7530 0030D5E5 		ldrb	r3, [r5, #0]	@ zero_extendqisi2
 8760 7534 0020D4E5 		ldrb	r2, [r4, #0]	@ zero_extendqisi2
 8761 7538 F8691FE5 		ldr	r6, .L449+144
 8762 753c 023083E0 		add	r3, r3, r2
 8763 7540 0030C5E5 		strb	r3, [r5, #0]
 8764 7544 FEFFFFEB 		bl	uart1_transmit
 8765 7548 0000D6E5 		ldrb	r0, [r6, #0]	@ zero_extendqisi2
 8766 754c 0030D4E5 		ldrb	r3, [r4, #0]	@ zero_extendqisi2
 8767 7550 033080E0 		add	r3, r0, r3
 8768 7554 0030C4E5 		strb	r3, [r4, #0]
 8769 7558 0030D5E5 		ldrb	r3, [r5, #0]	@ zero_extendqisi2
 8770 755c 0020D4E5 		ldrb	r2, [r4, #0]	@ zero_extendqisi2
 8771 7560 023083E0 		add	r3, r3, r2
 8772 7564 0030C5E5 		strb	r3, [r5, #0]
 8773 7568 FEFFFFEB 		bl	uart1_transmit
 8774 756c 0100D6E5 		ldrb	r0, [r6, #1]	@ zero_extendqisi2
 8775 7570 0030D4E5 		ldrb	r3, [r4, #0]	@ zero_extendqisi2
 8776 7574 033080E0 		add	r3, r0, r3
 8777 7578 0030C4E5 		strb	r3, [r4, #0]
 8778 757c 0030D5E5 		ldrb	r3, [r5, #0]	@ zero_extendqisi2
 8779 7580 0020D4E5 		ldrb	r2, [r4, #0]	@ zero_extendqisi2
 8780 7584 023083E0 		add	r3, r3, r2
 8781 7588 0030C5E5 		strb	r3, [r5, #0]
 8782 758c FEFFFFEB 		bl	uart1_transmit
 8783 7590 0200D6E5 		ldrb	r0, [r6, #2]	@ zero_extendqisi2
 8784 7594 0030D4E5 		ldrb	r3, [r4, #0]	@ zero_extendqisi2
 8785 7598 033080E0 		add	r3, r0, r3
 8786 759c 0030C4E5 		strb	r3, [r4, #0]
 8787 75a0 0030D5E5 		ldrb	r3, [r5, #0]	@ zero_extendqisi2
 8788 75a4 0020D4E5 		ldrb	r2, [r4, #0]	@ zero_extendqisi2
 8789 75a8 023083E0 		add	r3, r3, r2
 8790 75ac 0030C5E5 		strb	r3, [r5, #0]
 8791 75b0 FEFFFFEB 		bl	uart1_transmit
 8792 75b4 0300D6E5 		ldrb	r0, [r6, #3]	@ zero_extendqisi2
 8793 75b8 0030D4E5 		ldrb	r3, [r4, #0]	@ zero_extendqisi2
 8794 75bc 033080E0 		add	r3, r0, r3
 8795 75c0 0030C4E5 		strb	r3, [r4, #0]
 8796 75c4 0030D5E5 		ldrb	r3, [r5, #0]	@ zero_extendqisi2
 8797 75c8 0020D4E5 		ldrb	r2, [r4, #0]	@ zero_extendqisi2
 8798 75cc 023083E0 		add	r3, r3, r2
 8799 75d0 0030C5E5 		strb	r3, [r5, #0]
 8800 75d4 FEFFFFEB 		bl	uart1_transmit
 8801 75d8 0000D4E5 		ldrb	r0, [r4, #0]	@ zero_extendqisi2
 8802 75dc FEFFFFEB 		bl	uart1_transmit
 8803 75e0 0000D5E5 		ldrb	r0, [r5, #0]	@ zero_extendqisi2
 8804 75e4 FEFFFFEB 		bl	uart1_transmit
 8805              	.L380:
 8806 75e8 A43A1FE5 		ldr	r3, .L449+148
 8807 75ec 0040D3E5 		ldrb	r4, [r3, #0]	@ zero_extendqisi2
 8808 75f0 000054E3 		cmp	r4, #0
 8809 75f4 A81D001A 		bne	.L381
 8810 75f8 B02A1FE5 		ldr	r2, .L449+152
 8811 75fc B030D2E1 		ldrh	r3, [r2, #0]
 8812 7600 000053E3 		cmp	r3, #0
 8813 7604 01308312 		addne	r3, r3, #1
 8814 7608 B030C211 		strneh	r3, [r2, #0]	@ movhi 
 8815 760c C03A1FE5 		ldr	r3, .L449+156
 8816 7610 B020D3E1 		ldrh	r2, [r3, #0]
 8817 7614 C41A1FE5 		ldr	r1, .L449+160
 8818 7618 012082E2 		add	r2, r2, #1
 8819 761c B020C3E1 		strh	r2, [r3, #0]	@ movhi 
 8820 7620 0000D1E5 		ldrb	r0, [r1, #0]	@ zero_extendqisi2
 8821 7624 FEFFFFEB 		bl	__floatsidf
 8822 7628 A32F8FE2 		adr	r2, .L452
 8823 762c 0C0092E8 		ldmia	r2, {r2-r3}
 8824 7630 FEFFFFEB 		bl	__ltdf2
 8825 7634 88229FE5 		ldr	r2, .L452+8
 8826 7638 000050E3 		cmp	r0, #0
 8827 763c 0030D2B5 		ldrltb	r3, [r2, #0]	@ zero_extendqisi2
 8828 7640 013083B2 		addlt	r3, r3, #1
 8829 7644 0030C2B5 		strltb	r3, [r2, #0]
 8830 7648 78329FE5 		ldr	r3, .L452+12
 8831 764c 0040C2A5 		strgeb	r4, [r2, #0]
 8832 7650 74029FE5 		ldr	r0, .L452+16
 8833 7654 0010D3E5 		ldrb	r1, [r3, #0]	@ zero_extendqisi2
 8834 7658 64329FE5 		ldr	r3, .L452+8
 8835 765c 0020D3E5 		ldrb	r2, [r3, #0]	@ zero_extendqisi2
 8836 7660 0030D0E5 		ldrb	r3, [r0, #0]	@ zero_extendqisi2
 8837 7664 60629FE5 		ldr	r6, .L452+16
 8838 7668 040052E3 		cmp	r2, #4
 8839 766c 01308383 		orrhi	r3, r3, #1
 8840 7670 000051E3 		cmp	r1, #0
 8841 7674 0030C0E5 		strb	r3, [r0, #0]
 8842 7678 0650A0E1 		mov	r5, r6
 8843 767c 0040A0E3 		mov	r4, #0
 8844 7680 A51D000A 		beq	.L386
 8845 7684 44329FE5 		ldr	r3, .L452+20
 8846 7688 44129FE5 		ldr	r1, .L452+24
 8847 768c 000093E5 		ldr	r0, [r3, #0]	@ float
 8848 7690 FEFFFFEB 		bl	__gtsf2
 8849 7694 000050E3 		cmp	r0, #0
 8850 7698 0140A0C3 		movgt	r4, #1
 8851              	.L386:
 8852 769c 0030D5E5 		ldrb	r3, [r5, #0]	@ zero_extendqisi2
 8853 76a0 043083E1 		orr	r3, r3, r4
 8854 76a4 0030C6E5 		strb	r3, [r6, #0]
 8855              	.L381:
 8856 76a8 28229FE5 		ldr	r2, .L452+28
 8857 76ac 0040D2E5 		ldrb	r4, [r2, #0]	@ zero_extendqisi2
 8858 76b0 000054E3 		cmp	r4, #0
 8859 76b4 AF1D000A 		beq	.L389
 8860 76b8 010054E3 		cmp	r4, #1
 8861 76bc B21D000A 		beq	.L390
 8862 76c0 FB1D00EA 		b	.L388
 8863              	.L389:
 8864 76c4 FEFFFFEB 		bl	estimator_propagate_state
 8865 76c8 FEFFFFEB 		bl	navigation_task
 8866 76cc FB1D00EA 		b	.L388
 8867              	.L390:
 8868 76d0 04529FE5 		ldr	r5, .L452+32
 8869 76d4 B030D5E1 		ldrh	r3, [r5, #0]
 8870 76d8 000053E3 		cmp	r3, #0
 8871 76dc FB1D001A 		bne	.L388
 8872 76e0 F8319FE5 		ldr	r3, .L452+36
 8873 76e4 F8119FE5 		ldr	r1, .L452+40
 8874 76e8 000093E5 		ldr	r0, [r3, #0]	@ float
 8875 76ec FEFFFFEB 		bl	__gtsf2
 8876 76f0 000050E3 		cmp	r0, #0
 8877 76f4 FB1D00DA 		ble	.L388
 8878 76f8 C8319FE5 		ldr	r3, .L452+12
 8879 76fc 0800A0E3 		mov	r0, #8
 8880 7700 0040C3E5 		strb	r4, [r3, #0]
 8881 7704 B040C5E1 		strh	r4, [r5, #0]	@ movhi 
 8882 7708 FEFFFFEB 		bl	uart1_check_free_space
 8883 770c FF0010E3 		tst	r0, #255
 8884 7710 D0219F05 		ldreq	r2, .L452+44
 8885 7714 0030D205 		ldreqb	r3, [r2, #0]	@ zero_extendqisi2
 8886 7718 01308302 		addeq	r3, r3, #1
 8887 771c 0030C205 		streqb	r3, [r2, #0]
 8888 7720 FB1D000A 		beq	.L388
 8889 7724 C0119FE5 		ldr	r1, .L452+48
 8890 7728 C0C19FE5 		ldr	ip, .L452+52
 8891 772c B030D1E1 		ldrh	r3, [r1, #0]
 8892 7730 B020DCE1 		ldrh	r2, [ip, #0]
 8893 7734 083083E2 		add	r3, r3, #8
 8894 7738 012082E2 		add	r2, r2, #1
 8895 773c B030C1E1 		strh	r3, [r1, #0]	@ movhi 
 8896 7740 B020CCE1 		strh	r2, [ip, #0]	@ movhi 
 8897 7744 9900A0E3 		mov	r0, #153
 8898 7748 A4419FE5 		ldr	r4, .L452+56
 8899 774c FEFFFFEB 		bl	uart1_transmit
 8900 7750 0800A0E3 		mov	r0, #8
 8901 7754 9C519FE5 		ldr	r5, .L452+60
 8902 7758 FEFFFFEB 		bl	uart1_transmit
 8903 775c 1230A0E3 		mov	r3, #18
 8904 7760 0030C4E5 		strb	r3, [r4, #0]
 8905 7764 083083E2 		add	r3, r3, #8
 8906 7768 0A00A0E3 		mov	r0, #10
 8907 776c 0030C5E5 		strb	r3, [r5, #0]
 8908 7770 FEFFFFEB 		bl	uart1_transmit
 8909 7774 0030D4E5 		ldrb	r3, [r4, #0]	@ zero_extendqisi2
 8910 7778 043083E2 		add	r3, r3, #4
 8911 777c 0030C4E5 		strb	r3, [r4, #0]
 8912 7780 0030D5E5 		ldrb	r3, [r5, #0]	@ zero_extendqisi2
 8913 7784 0020D4E5 		ldrb	r2, [r4, #0]	@ zero_extendqisi2
 8914 7788 6C619FE5 		ldr	r6, .L452+64
 8915 778c 023083E0 		add	r3, r3, r2
 8916 7790 0400A0E3 		mov	r0, #4
 8917 7794 0030C5E5 		strb	r3, [r5, #0]
 8918 7798 FEFFFFEB 		bl	uart1_transmit
 8919 779c 0000D6E5 		ldrb	r0, [r6, #0]	@ zero_extendqisi2
 8920 77a0 0030D4E5 		ldrb	r3, [r4, #0]	@ zero_extendqisi2
 8921 77a4 033080E0 		add	r3, r0, r3
 8922 77a8 0030C4E5 		strb	r3, [r4, #0]
 8923 77ac 0030D5E5 		ldrb	r3, [r5, #0]	@ zero_extendqisi2
 8924 77b0 0020D4E5 		ldrb	r2, [r4, #0]	@ zero_extendqisi2
 8925 77b4 023083E0 		add	r3, r3, r2
 8926 77b8 0030C5E5 		strb	r3, [r5, #0]
 8927 77bc FEFFFFEB 		bl	uart1_transmit
 8928 77c0 0100D6E5 		ldrb	r0, [r6, #1]	@ zero_extendqisi2
 8929 77c4 0030D4E5 		ldrb	r3, [r4, #0]	@ zero_extendqisi2
 8930 77c8 033080E0 		add	r3, r0, r3
 8931 77cc 0030C4E5 		strb	r3, [r4, #0]
 8932 77d0 0030D5E5 		ldrb	r3, [r5, #0]	@ zero_extendqisi2
 8933 77d4 0020D4E5 		ldrb	r2, [r4, #0]	@ zero_extendqisi2
 8934 77d8 023083E0 		add	r3, r3, r2
 8935 77dc 0030C5E5 		strb	r3, [r5, #0]
 8936 77e0 FEFFFFEB 		bl	uart1_transmit
 8937 77e4 0000D4E5 		ldrb	r0, [r4, #0]	@ zero_extendqisi2
 8938 77e8 FEFFFFEB 		bl	uart1_transmit
 8939 77ec 0000D5E5 		ldrb	r0, [r5, #0]	@ zero_extendqisi2
 8940 77f0 FEFFFFEB 		bl	uart1_transmit
 8941              	.L388:
 8942 77f4 FEFFFFEB 		bl	h_ctl_attitude_loop
 8943 77f8 FEFFFFEB 		bl	v_ctl_throttle_slew
 8944 77fc FC309FE5 		ldr	r3, .L452+68
 8945 7800 002093E5 		ldr	r2, [r3, #0]
 8946 7804 F8309FE5 		ldr	r3, .L452+72
 8947 7808 F8009FE5 		ldr	r0, .L452+76
 8948 780c B030D3E1 		ldrh	r3, [r3, #0]
 8949 7810 0010D0E5 		ldrb	r1, [r0, #0]	@ zero_extendqisi2
 8950 7814 B030C2E1 		strh	r3, [r2, #0]	@ movhi 
 8951 7818 EC309FE5 		ldr	r3, .L452+80
 8952 781c B030D3E1 		ldrh	r3, [r3, #0]
 8953 7820 B230C2E1 		strh	r3, [r2, #2]	@ movhi 
 8954 7824 E4309FE5 		ldr	r3, .L452+84
 8955 7828 B030D3E1 		ldrh	r3, [r3, #0]
 8956 782c 011081E2 		add	r1, r1, #1
 8957 7830 B430C2E1 		strh	r3, [r2, #4]	@ movhi 
 8958 7834 0010C0E5 		strb	r1, [r0, #0]
 8959 7838 0030D0E5 		ldrb	r3, [r0, #0]	@ zero_extendqisi2
 8960 783c 000053E3 		cmp	r3, #0
 8961 7840 CC309FE5 		ldr	r3, .L452+88
 8962 7844 CC509FE5 		ldr	r5, .L452+92
 8963 7848 0120A0E3 		mov	r2, #1
 8964 784c 0020C3E5 		strb	r2, [r3, #0]
 8965 7850 0030A013 		movne	r3, #0
 8966 7854 0030C015 		strneb	r3, [r0, #0]
 8967 7858 0030D5E5 		ldrb	r3, [r5, #0]	@ zero_extendqisi2
 8968 785c 013083E2 		add	r3, r3, #1
 8969 7860 0030C5E5 		strb	r3, [r5, #0]
 8970 7864 0030D5E5 		ldrb	r3, [r5, #0]	@ zero_extendqisi2
 8971 7868 AC409FE5 		ldr	r4, .L452+96
 8972 786c 050053E3 		cmp	r3, #5
 8973 7870 0030A083 		movhi	r3, #0
 8974 7874 0030C585 		strhib	r3, [r5, #0]
 8975 7878 0030D4E5 		ldrb	r3, [r4, #0]	@ zero_extendqisi2
 8976 787c 013083E2 		add	r3, r3, #1
 8977 7880 0030C4E5 		strb	r3, [r4, #0]
 8978 7884 0030D4E5 		ldrb	r3, [r4, #0]	@ zero_extendqisi2
 8979 7888 0E0053E3 		cmp	r3, #14
 8980 788c 0030A083 		movhi	r3, #0
 8981 7890 0030C485 		strhib	r3, [r4, #0]
 8982 7894 FEFFFFEB 		bl	ArduIMU_periodic
 8983 7898 0030D5E5 		ldrb	r3, [r5, #0]	@ zero_extendqisi2
 8984 789c 000053E3 		cmp	r3, #0
 8985 78a0 FEFFFF0B 		bleq	airspeed_ets_read_periodic
 8986              	.L400:
 8987 78a4 0030D4E5 		ldrb	r3, [r4, #0]	@ zero_extendqisi2
 8988 78a8 030053E3 		cmp	r3, #3
 8989 78ac FEFFFF0B 		bleq	ArduIMU_periodicGPS
 8990              	.L39:
 8991 78b0 28D04BE2 		sub	sp, fp, #40
 8992 78b4 F06F9DE8 		ldmfd	sp, {r4, r5, r6, r7, r8, r9, sl, fp, sp, lr}
 8993 78b8 1EFF2FE1 		bx	lr
 8994              	.L453:
 8995              		.align	2
 8996              	.L452:
 8997 78bc 00805B40 		.word	1079738368
 8998 78c0 00000000 		.word	0
 8999 78c4 00000000 		.word	t.9
 9000 78c8 00000000 		.word	launch
 9001 78cc 00000000 		.word	kill_throttle
 9002 78d0 00000000 		.word	dist2_to_home
 9003 78d4 A1CE2D4C 		.word	1278070433
 9004 78d8 00000000 		.word	_4Hz.7
 9005 78dc 00000000 		.word	estimator_flight_time
 9006 78e0 00000000 		.word	estimator_hspeed_mod
 9007 78e4 0000A040 		.word	1084227584
 9008 78e8 00000000 		.word	downlink_nb_ovrn
 9009 78ec 00000000 		.word	downlink_nb_bytes
 9010 78f0 00000000 		.word	downlink_nb_msgs
 9011 78f4 00000000 		.word	ck_a
 9012 78f8 00000000 		.word	ck_b
 9013 78fc 00000000 		.word	cpu_time_sec
 9014 7900 00000000 		.word	ap_state
 9015 7904 00000000 		.word	v_ctl_throttle_slewed
 9016 7908 00000000 		.word	i1.59
 9017 790c 00000000 		.word	h_ctl_aileron_setpoint
 9018 7910 00000000 		.word	h_ctl_elevator_setpoint
 9019 7914 00000000 		.word	inter_mcu_received_ap
 9020 7918 00000000 		.word	i6.60
 9021 791c 00000000 		.word	i15.61
 9023              		.global	__adddf3
 9024              		.section	.text.init_ap,"ax",%progbits
 9025              		.align	2
 9026              		.global	init_ap
 9028              	init_ap:
 9029              		@ Function supports interworking.
 9030              		@ args = 0, pretend = 0, frame = 0
 9031              		@ frame_needed = 1, uses_anonymous_args = 0
 9032 0000 0DC0A0E1 		mov	ip, sp
 9033 0004 00D82DE9 		stmfd	sp!, {fp, ip, lr, pc}
 9034 0008 04B04CE2 		sub	fp, ip, #4
 9035 000c FEFFFFEB 		bl	gps_init
 9036 0010 FEFFFFEB 		bl	h_ctl_init
 9037 0014 FEFFFFEB 		bl	v_ctl_init
 9038 0018 FEFFFFEB 		bl	estimator_init
 9039 001c FEFFFFEB 		bl	alt_kalman_init
 9040 0020 FEFFFFEB 		bl	nav_init
 9041 0024 FEFFFFEB 		bl	airspeed_ets_init
 9042 0028 FEFFFFEB 		bl	ArduIMU_init
 9043 002c FEFFFFEB 		bl	settings_init
 9044 0030 FEFFFFEB 		bl	enableIRQ
 9045 0034 30309FE5 		ldr	r3, .L461
 9046 0038 30109FE5 		ldr	r1, .L461+4
 9047 003c 082093E5 		ldr	r2, [r3, #8]
 9048              	.L457:
 9049 0040 24309FE5 		ldr	r3, .L461
 9050 0044 083093E5 		ldr	r3, [r3, #8]
 9051 0048 033062E0 		rsb	r3, r2, r3
 9052 004c 010053E1 		cmp	r3, r1
 9053 0050 0E00003A 		bcc	.L457
 9054 0054 18309FE5 		ldr	r3, .L461+8
 9055 0058 0020A0E3 		mov	r2, #0
 9056 005c 0020C3E5 		strb	r2, [r3, #0]
 9057 0060 FEFFFFEB 		bl	traffic_info_init
 9058 0064 00689DE8 		ldmfd	sp, {fp, sp, lr}
 9059 0068 1EFF2FE1 		bx	lr
 9060              	.L462:
 9061              		.align	2
 9062              	.L461:
 9063 006c 004000E0 		.word	-536854528
 9064 0070 E0707200 		.word	7500000
 9065 0074 00000000 		.word	power_switch
 9067              		.section	.data.pprz_status.0,"aw",%progbits
 9070              	pprz_status.0:
 9071 0000 00       		.byte	0
 9072              		.section	.bss._ck_a.1,"aw",%nobits
 9075              	_ck_a.1:
 9076 0000 00       		.space	1
 9077              		.section	.bss._ck_b.2,"aw",%nobits
 9080              	_ck_b.2:
 9081 0000 00       		.space	1
 9082              		.section	.bss.payload_idx.3,"aw",%nobits
 9085              	payload_idx.3:
 9086 0000 00       		.space	1
 9087              		.global	__truncdfsf2
 9088              		.section	.text.event_task_ap,"ax",%progbits
 9089              		.align	2
 9090              		.global	event_task_ap
 9092              	event_task_ap:
 9093              		@ Function supports interworking.
 9094              		@ args = 0, pretend = 0, frame = 0
 9095              		@ frame_needed = 1, uses_anonymous_args = 0
 9096 0000 0DC0A0E1 		mov	ip, sp
 9097 0004 F0D82DE9 		stmfd	sp!, {r4, r5, r6, r7, fp, ip, lr, pc}
 9098 0008 04B04CE2 		sub	fp, ip, #4
 9099 000c BC569FE5 		ldr	r5, .L536+24
 9100 0010 BCC69FE5 		ldr	ip, .L536+28
 9101 0014 B020D5E1 		ldrh	r2, [r5, #0]
 9102 0018 B030DCE1 		ldrh	r3, [ip, #0]
 9103 001c 030052E1 		cmp	r2, r3
 9104 0020 1700000A 		beq	.L464
 9105 0024 AC469FE5 		ldr	r4, .L536+32
 9106              	.L530:
 9107 0028 0030D4E5 		ldrb	r3, [r4, #0]	@ zero_extendqisi2
 9108 002c 000053E3 		cmp	r3, #0
 9109 0030 1700001A 		bne	.L464
 9110 0034 B010DCE1 		ldrh	r1, [ip, #0]
 9111 0038 9C269FE5 		ldr	r2, .L536+36
 9112 003c 013081E2 		add	r3, r1, #1
 9113 0040 7F3003E2 		and	r3, r3, #127
 9114 0044 B030CCE1 		strh	r3, [ip, #0]	@ movhi 
 9115 0048 0100D2E7 		ldrb	r0, [r2, r1]	@ zero_extendqisi2
 9116 004c FEFFFFEB 		bl	parse_ubx
 9117 0050 7CC69FE5 		ldr	ip, .L536+28
 9118 0054 B020D5E1 		ldrh	r2, [r5, #0]
 9119 0058 B030DCE1 		ldrh	r3, [ip, #0]
 9120 005c 030052E1 		cmp	r2, r3
 9121 0060 0800001A 		bne	.L530
 9122              	.L464:
 9123 0064 6C469FE5 		ldr	r4, .L536+32
 9124 0068 0030D4E5 		ldrb	r3, [r4, #0]	@ zero_extendqisi2
 9125 006c 000053E3 		cmp	r3, #0
 9126 0070 3B00000A 		beq	.L468
 9127 0074 64569FE5 		ldr	r5, .L536+40
 9128 0078 FEFFFFEB 		bl	parse_gps_msg
 9129 007c 0030D5E5 		ldrb	r3, [r5, #0]	@ zero_extendqisi2
 9130 0080 000053E3 		cmp	r3, #0
 9131 0084 0030A0E3 		mov	r3, #0
 9132 0088 0030C4E5 		strb	r3, [r4, #0]
 9133 008c 3B00000A 		beq	.L468
 9134 0090 4C369FE5 		ldr	r3, .L536+44
 9135 0094 0020D3E5 		ldrb	r2, [r3, #0]	@ zero_extendqisi2
 9136 0098 48369FE5 		ldr	r3, .L536+48
 9137 009c 0030D3E5 		ldrb	r3, [r3, #0]	@ zero_extendqisi2
 9138 00a0 012072E2 		rsbs	r2, r2, #1
 9139 00a4 0020A033 		movcc	r2, #0
 9140 00a8 030053E3 		cmp	r3, #3
 9141 00ac 38369FE5 		ldr	r3, .L536+52
 9142 00b0 0020C3E5 		strb	r2, [r3, #0]
 9143 00b4 3800001A 		bne	.L470
 9144 00b8 30369FE5 		ldr	r3, .L536+56
 9145 00bc 30269FE5 		ldr	r2, .L536+60
 9146 00c0 B030D3E1 		ldrh	r3, [r3, #0]
 9147 00c4 B030C2E1 		strh	r3, [r2, #0]	@ movhi 
 9148 00c8 FEFFFFEB 		bl	estimator_update_state_gps
 9149 00cc 24269FE5 		ldr	r2, .L536+64
 9150 00d0 103092E5 		ldr	r3, [r2, #16]
 9151 00d4 010813E3 		tst	r3, #65536
 9152 00d8 0138A013 		movne	r3, #65536
 9153 00dc 0138A003 		moveq	r3, #65536
 9154 00e0 1C308215 		strne	r3, [r2, #28]
 9155 00e4 14308205 		streq	r3, [r2, #20]
 9156              	.L470:
 9157 00e8 FEFFFFEB 		bl	gps_downlink
 9158 00ec 0030A0E3 		mov	r3, #0
 9159 00f0 0030C5E5 		strb	r3, [r5, #0]
 9160              	.L468:
 9161 00f4 00769FE5 		ldr	r7, .L536+68
 9162 00f8 00069FE5 		ldr	r0, .L536+72
 9163 00fc B030D7E1 		ldrh	r3, [r7, #0]
 9164 0100 B010D0E1 		ldrh	r1, [r0, #0]
 9165 0104 010053E1 		cmp	r3, r1
 9166 0108 B200000A 		beq	.L473
 9167              	.L531:
 9168 010c F0359FE5 		ldr	r3, .L536+76
 9169 0110 0030D3E5 		ldrb	r3, [r3, #0]	@ zero_extendqisi2
 9170 0114 000053E3 		cmp	r3, #0
 9171 0118 9B00001A 		bne	.L475
 9172 011c E4659FE5 		ldr	r6, .L536+80
 9173 0120 013081E2 		add	r3, r1, #1
 9174 0124 7F3003E2 		and	r3, r3, #127
 9175 0128 B030C0E1 		strh	r3, [r0, #0]	@ movhi 
 9176 012c 0020D6E5 		ldrb	r2, [r6, #0]	@ zero_extendqisi2
 9177 0130 D4359FE5 		ldr	r3, .L536+84
 9178 0134 0150D3E7 		ldrb	r5, [r3, r1]	@ zero_extendqisi2
 9179 0138 040052E3 		cmp	r2, #4
 9180 013c 02F19F97 		ldrls	pc, [pc, r2, asl #2]
 9181 0140 8F0000EA 		b	.L481
 9182              		.p2align 2
 9183              	.L490:
 9184 0144 58010000 		.word	.L477
 9185 0148 60010000 		.word	.L479
 9186 014c B8010000 		.word	.L482
 9187 0150 0C020000 		.word	.L484
 9188 0154 28020000 		.word	.L486
 9189              	.L477:
 9190 0158 990055E3 		cmp	r5, #153
 9191 015c 7F0000EA 		b	.L535
 9192              	.L479:
 9193 0160 9C359FE5 		ldr	r3, .L536+76
 9194 0164 0030D3E5 		ldrb	r3, [r3, #0]	@ zero_extendqisi2
 9195 0168 FF0003E2 		and	r0, r3, #255
 9196 016c 000050E3 		cmp	r0, #0
 9197 0170 98259F15 		ldrne	r2, .L536+88
 9198 0174 0030D215 		ldrneb	r3, [r2, #0]	@ zero_extendqisi2
 9199 0178 01308312 		addne	r3, r3, #1
 9200 017c 0030C215 		strneb	r3, [r2, #0]
 9201 0180 8F00001A 		bne	.L481
 9202 0184 88359FE5 		ldr	r3, .L536+92
 9203 0188 041045E2 		sub	r1, r5, #4
 9204 018c 0010C3E5 		strb	r1, [r3, #0]
 9205 0190 80359FE5 		ldr	r3, .L536+96
 9206 0194 0050C3E5 		strb	r5, [r3, #0]
 9207 0198 7C359FE5 		ldr	r3, .L536+100
 9208 019c 0020D6E5 		ldrb	r2, [r6, #0]	@ zero_extendqisi2
 9209 01a0 0000C3E5 		strb	r0, [r3, #0]
 9210 01a4 74359FE5 		ldr	r3, .L536+104
 9211 01a8 012082E2 		add	r2, r2, #1
 9212 01ac 0020C6E5 		strb	r2, [r6, #0]
 9213 01b0 0050C3E5 		strb	r5, [r3, #0]
 9214 01b4 950000EA 		b	.L474
 9215              	.L482:
 9216 01b8 58259FE5 		ldr	r2, .L536+96
 9217 01bc 58059FE5 		ldr	r0, .L536+100
 9218 01c0 0030D2E5 		ldrb	r3, [r2, #0]	@ zero_extendqisi2
 9219 01c4 0040D0E5 		ldrb	r4, [r0, #0]	@ zero_extendqisi2
 9220 01c8 033085E0 		add	r3, r5, r3
 9221 01cc 0030C2E5 		strb	r3, [r2, #0]
 9222 01d0 48C59FE5 		ldr	ip, .L536+104
 9223 01d4 38359FE5 		ldr	r3, .L536+92
 9224 01d8 011084E2 		add	r1, r4, #1
 9225 01dc 0010C0E5 		strb	r1, [r0, #0]
 9226 01e0 00E0D2E5 		ldrb	lr, [r2, #0]	@ zero_extendqisi2
 9227 01e4 0010D3E5 		ldrb	r1, [r3, #0]	@ zero_extendqisi2
 9228 01e8 0030DCE5 		ldrb	r3, [ip, #0]	@ zero_extendqisi2
 9229 01ec 0E3083E0 		add	r3, r3, lr
 9230 01f0 0030CCE5 		strb	r3, [ip, #0]
 9231 01f4 28359FE5 		ldr	r3, .L536+108
 9232 01f8 0020D0E5 		ldrb	r2, [r0, #0]	@ zero_extendqisi2
 9233 01fc 0450C3E7 		strb	r5, [r3, r4]
 9234 0200 010052E1 		cmp	r2, r1
 9235              	.L535:
 9236 0204 9500001A 		bne	.L474
 9237 0208 850000EA 		b	.L534
 9238              	.L484:
 9239 020c 04359FE5 		ldr	r3, .L536+96
 9240 0210 0030D3E5 		ldrb	r3, [r3, #0]	@ zero_extendqisi2
 9241 0214 050053E1 		cmp	r3, r5
 9242 0218 8F00001A 		bne	.L481
 9243              	.L534:
 9244 021c 0030D6E5 		ldrb	r3, [r6, #0]	@ zero_extendqisi2
 9245 0220 013083E2 		add	r3, r3, #1
 9246 0224 940000EA 		b	.L532
 9247              	.L486:
 9248 0228 F0349FE5 		ldr	r3, .L536+104
 9249 022c 0030D3E5 		ldrb	r3, [r3, #0]	@ zero_extendqisi2
 9250 0230 050053E1 		cmp	r3, r5
 9251 0234 C8349F05 		ldreq	r3, .L536+76
 9252 0238 0120A003 		moveq	r2, #1
 9253 023c 0020C305 		streqb	r2, [r3, #0]
 9254 0240 9300000A 		beq	.L488
 9255              	.L481:
 9256 0244 DC249FE5 		ldr	r2, .L536+112
 9257 0248 0030D2E5 		ldrb	r3, [r2, #0]	@ zero_extendqisi2
 9258 024c 013083E2 		add	r3, r3, #1
 9259 0250 0030C2E5 		strb	r3, [r2, #0]
 9260              	.L488:
 9261 0254 0030A0E3 		mov	r3, #0
 9262              	.L532:
 9263 0258 0030C6E5 		strb	r3, [r6, #0]
 9264              	.L474:
 9265 025c 9C349FE5 		ldr	r3, .L536+72
 9266 0260 B010D3E1 		ldrh	r1, [r3, #0]
 9267 0264 B030D7E1 		ldrh	r3, [r7, #0]
 9268 0268 010053E1 		cmp	r3, r1
 9269 026c 8C049FE5 		ldr	r0, .L536+72
 9270 0270 4100001A 		bne	.L531
 9271              	.L475:
 9272 0274 88449FE5 		ldr	r4, .L536+76
 9273 0278 0030D4E5 		ldrb	r3, [r4, #0]	@ zero_extendqisi2
 9274 027c 000053E3 		cmp	r3, #0
 9275 0280 B200000A 		beq	.L473
 9276 0284 88E49FE5 		ldr	lr, .L536+92
 9277 0288 0030DEE5 		ldrb	r3, [lr, #0]	@ zero_extendqisi2
 9278 028c 000053E3 		cmp	r3, #0
 9279 0290 00C0A0E3 		mov	ip, #0
 9280 0294 AD00000A 		beq	.L529
 9281              	.L497:
 9282 0298 84349FE5 		ldr	r3, .L536+108
 9283 029c 0C20D3E7 		ldrb	r2, [r3, ip]	@ zero_extendqisi2
 9284 02a0 84349FE5 		ldr	r3, .L536+116
 9285 02a4 01108CE2 		add	r1, ip, #1
 9286 02a8 0000DEE5 		ldrb	r0, [lr, #0]	@ zero_extendqisi2
 9287 02ac 0C20C3E7 		strb	r2, [r3, ip]
 9288 02b0 FFC001E2 		and	ip, r1, #255
 9289 02b4 0C0050E1 		cmp	r0, ip
 9290 02b8 A400008A 		bhi	.L497
 9291              	.L529:
 9292 02bc 6C249FE5 		ldr	r2, .L536+120
 9293 02c0 0130A0E3 		mov	r3, #1
 9294 02c4 0030C2E5 		strb	r3, [r2, #0]
 9295 02c8 013043E2 		sub	r3, r3, #1
 9296 02cc 0030C4E5 		strb	r3, [r4, #0]
 9297              	.L473:
 9298 02d0 58449FE5 		ldr	r4, .L536+120
 9299 02d4 0030D4E5 		ldrb	r3, [r4, #0]	@ zero_extendqisi2
 9300 02d8 000053E3 		cmp	r3, #0
 9301 02dc B900000A 		beq	.L499
 9302 02e0 FEFFFFEB 		bl	dl_parse_msg
 9303 02e4 0030A0E3 		mov	r3, #0
 9304 02e8 0030C4E5 		strb	r3, [r4, #0]
 9305              	.L499:
 9306 02ec 40249FE5 		ldr	r2, .L536+124
 9307 02f0 0030D2E5 		ldrb	r3, [r2, #0]	@ zero_extendqisi2
 9308 02f4 000053E3 		cmp	r3, #0
 9309 02f8 A501000A 		beq	.L500
 9310 02fc 34749FE5 		ldr	r7, .L536+128
 9311 0300 0030A0E3 		mov	r3, #0
 9312 0304 0030C2E5 		strb	r3, [r2, #0]
 9313 0308 002097E5 		ldr	r2, [r7, #0]
 9314 030c 0F20D2E5 		ldrb	r2, [r2, #15]	@ zero_extendqisi2
 9315 0310 020012E3 		tst	r2, #2
 9316 0314 0300A0E1 		mov	r0, r3
 9317 0318 0320A0E1 		mov	r2, r3
 9318 031c CB00000A 		beq	.L502
 9319 0320 14349FE5 		ldr	r3, .L536+132
 9320 0324 0030D3E5 		ldrb	r3, [r3, #0]	@ zero_extendqisi2
 9321 0328 010053E3 		cmp	r3, #1
 9322 032c 0020A083 		movhi	r2, #0
 9323 0330 0120A093 		movls	r2, #1
 9324              	.L502:
 9325 0334 00149FE5 		ldr	r1, .L536+132
 9326 0338 0030D1E5 		ldrb	r3, [r1, #0]	@ zero_extendqisi2
 9327 033c 033043E2 		sub	r3, r3, #3
 9328 0340 010053E3 		cmp	r3, #1
 9329 0344 DE00009A 		bls	.L503
 9330 0348 94339FE5 		ldr	r3, .L536+44
 9331 034c 0030D3E5 		ldrb	r3, [r3, #0]	@ zero_extendqisi2
 9332 0350 000053E3 		cmp	r3, #0
 9333 0354 DE00000A 		beq	.L503
 9334 0358 E0339FE5 		ldr	r3, .L536+136
 9335 035c 0030D3E5 		ldrb	r3, [r3, #0]	@ zero_extendqisi2
 9336 0360 000053E3 		cmp	r3, #0
 9337 0364 0330A013 		movne	r3, #3
 9338 0368 0030C115 		strneb	r3, [r1, #0]
 9339 036c 0100A013 		movne	r0, #1
 9340 0370 000052E3 		cmp	r2, #0
 9341 0374 0330A013 		movne	r3, #3
 9342 0378 0030C115 		strneb	r3, [r1, #0]
 9343 037c 0100A013 		movne	r0, #1
 9344              	.L503:
 9345 0380 002097E5 		ldr	r2, [r7, #0]
 9346 0384 0F30D2E5 		ldrb	r3, [r2, #15]	@ zero_extendqisi2
 9347 0388 100013E3 		tst	r3, #16
 9348 038c F500000A 		beq	.L506
 9349 0390 0030D1E5 		ldrb	r3, [r1, #0]	@ zero_extendqisi2
 9350 0394 033043E2 		sub	r3, r3, #3
 9351 0398 010053E3 		cmp	r3, #1
 9352 039c 0030A093 		movls	r3, #0
 9353 03a0 F400009A 		bls	.L512
 9354 03a4 FC30D2E1 		ldrsh	r3, [r2, #12]
 9355 03a8 4B0D53E3 		cmp	r3, #4800
 9356 03ac 0220A0C3 		movgt	r2, #2
 9357 03b0 EE0000CA 		bgt	.L509
 9358 03b4 4B0D73E3 		cmn	r3, #4800
 9359 03b8 0020A0D3 		movle	r2, #0
 9360 03bc 0120A0C3 		movgt	r2, #1
 9361              	.L509:
 9362 03c0 0030D1E5 		ldrb	r3, [r1, #0]	@ zero_extendqisi2
 9363 03c4 020053E1 		cmp	r3, r2
 9364 03c8 0130A013 		movne	r3, #1
 9365 03cc 0030A003 		moveq	r3, #0
 9366 03d0 0020C115 		strneb	r2, [r1, #0]
 9367 03d4 FF3003E2 		and	r3, r3, #255
 9368              	.L512:
 9369 03d8 030080E1 		orr	r0, r0, r3
 9370              	.L506:
 9371 03dc 003097E5 		ldr	r3, [r7, #0]
 9372 03e0 5C639FE5 		ldr	r6, .L536+140
 9373 03e4 0F30D3E5 		ldrb	r3, [r3, #15]	@ zero_extendqisi2
 9374 03e8 0020D6E5 		ldrb	r2, [r6, #0]	@ zero_extendqisi2
 9375 03ec FF1003E2 		and	r1, r3, #255
 9376 03f0 010052E1 		cmp	r2, r1
 9377 03f4 0020A003 		moveq	r2, #0
 9378 03f8 0201000A 		beq	.L515
 9379 03fc 0F2002E2 		and	r2, r2, #15
 9380 0400 0F3003E2 		and	r3, r3, #15
 9381 0404 0010C6E5 		strb	r1, [r6, #0]
 9382 0408 032052E0 		subs	r2, r2, r3
 9383 040c 0120A013 		movne	r2, #1
 9384              	.L515:
 9385 0410 020090E1 		orrs	r0, r0, r2
 9386 0414 6801000A 		beq	.L516
 9387 0418 0C00A0E3 		mov	r0, #12
 9388 041c FEFFFFEB 		bl	uart1_check_free_space
 9389 0420 FF0010E3 		tst	r0, #255
 9390 0424 1C239F05 		ldreq	r2, .L536+144
 9391 0428 0030D205 		ldreqb	r3, [r2, #0]	@ zero_extendqisi2
 9392 042c 01308302 		addeq	r3, r3, #1
 9393 0430 0030C205 		streqb	r3, [r2, #0]
 9394 0434 6801000A 		beq	.L516
 9395 0438 0C139FE5 		ldr	r1, .L536+148
 9396 043c 0CC39FE5 		ldr	ip, .L536+152
 9397 0440 B030D1E1 		ldrh	r3, [r1, #0]
 9398 0444 B020DCE1 		ldrh	r2, [ip, #0]
 9399 0448 0C3083E2 		add	r3, r3, #12
 9400 044c 012082E2 		add	r2, r2, #1
 9401 0450 B030C1E1 		strh	r3, [r1, #0]	@ movhi 
 9402 0454 B020CCE1 		strh	r2, [ip, #0]	@ movhi 
 9403 0458 9900A0E3 		mov	r0, #153
 9404 045c F0429FE5 		ldr	r4, .L536+156
 9405 0460 FEFFFFEB 		bl	uart1_transmit
 9406 0464 0C00A0E3 		mov	r0, #12
 9407 0468 E8529FE5 		ldr	r5, .L536+160
 9408 046c FEFFFFEB 		bl	uart1_transmit
 9409 0470 1630A0E3 		mov	r3, #22
 9410 0474 0030C4E5 		strb	r3, [r4, #0]
 9411 0478 0C3083E2 		add	r3, r3, #12
 9412 047c 0A00A0E3 		mov	r0, #10
 9413 0480 0030C5E5 		strb	r3, [r5, #0]
 9414 0484 FEFFFFEB 		bl	uart1_transmit
 9415 0488 0030D4E5 		ldrb	r3, [r4, #0]	@ zero_extendqisi2
 9416 048c 0B3083E2 		add	r3, r3, #11
 9417 0490 0030C4E5 		strb	r3, [r4, #0]
 9418 0494 0030D5E5 		ldrb	r3, [r5, #0]	@ zero_extendqisi2
 9419 0498 0020D4E5 		ldrb	r2, [r4, #0]	@ zero_extendqisi2
 9420 049c 023083E0 		add	r3, r3, r2
 9421 04a0 0B00A0E3 		mov	r0, #11
 9422 04a4 0030C5E5 		strb	r3, [r5, #0]
 9423 04a8 FEFFFFEB 		bl	uart1_transmit
 9424 04ac 88329FE5 		ldr	r3, .L536+132
 9425 04b0 0000D3E5 		ldrb	r0, [r3, #0]	@ zero_extendqisi2
 9426 04b4 0030D4E5 		ldrb	r3, [r4, #0]	@ zero_extendqisi2
 9427 04b8 033080E0 		add	r3, r0, r3
 9428 04bc 0030C4E5 		strb	r3, [r4, #0]
 9429 04c0 0030D5E5 		ldrb	r3, [r5, #0]	@ zero_extendqisi2
 9430 04c4 0020D4E5 		ldrb	r2, [r4, #0]	@ zero_extendqisi2
 9431 04c8 023083E0 		add	r3, r3, r2
 9432 04cc 0030C5E5 		strb	r3, [r5, #0]
 9433 04d0 FEFFFFEB 		bl	uart1_transmit
 9434 04d4 80329FE5 		ldr	r3, .L536+164
 9435 04d8 0000D3E5 		ldrb	r0, [r3, #0]	@ zero_extendqisi2
 9436 04dc 0030D4E5 		ldrb	r3, [r4, #0]	@ zero_extendqisi2
 9437 04e0 033080E0 		add	r3, r0, r3
 9438 04e4 0030C4E5 		strb	r3, [r4, #0]
 9439 04e8 0030D5E5 		ldrb	r3, [r5, #0]	@ zero_extendqisi2
 9440 04ec 0020D4E5 		ldrb	r2, [r4, #0]	@ zero_extendqisi2
 9441 04f0 023083E0 		add	r3, r3, r2
 9442 04f4 0030C5E5 		strb	r3, [r5, #0]
 9443 04f8 FEFFFFEB 		bl	uart1_transmit
 9444 04fc 5C329FE5 		ldr	r3, .L536+168
 9445 0500 0000D3E5 		ldrb	r0, [r3, #0]	@ zero_extendqisi2
 9446 0504 0030D4E5 		ldrb	r3, [r4, #0]	@ zero_extendqisi2
 9447 0508 033080E0 		add	r3, r0, r3
 9448 050c 0030C4E5 		strb	r3, [r4, #0]
 9449 0510 0030D5E5 		ldrb	r3, [r5, #0]	@ zero_extendqisi2
 9450 0514 0020D4E5 		ldrb	r2, [r4, #0]	@ zero_extendqisi2
 9451 0518 023083E0 		add	r3, r3, r2
 9452 051c 0030C5E5 		strb	r3, [r5, #0]
 9453 0520 FEFFFFEB 		bl	uart1_transmit
 9454 0524 38329FE5 		ldr	r3, .L536+172
 9455 0528 0000D3E5 		ldrb	r0, [r3, #0]	@ zero_extendqisi2
 9456 052c 0030D4E5 		ldrb	r3, [r4, #0]	@ zero_extendqisi2
 9457 0530 033080E0 		add	r3, r0, r3
 9458 0534 0030C4E5 		strb	r3, [r4, #0]
 9459 0538 0030D5E5 		ldrb	r3, [r5, #0]	@ zero_extendqisi2
 9460 053c 0020D4E5 		ldrb	r2, [r4, #0]	@ zero_extendqisi2
 9461 0540 023083E0 		add	r3, r3, r2
 9462 0544 0030C5E5 		strb	r3, [r5, #0]
 9463 0548 FEFFFFEB 		bl	uart1_transmit
 9464 054c 14329FE5 		ldr	r3, .L536+176
 9465 0550 0000D3E5 		ldrb	r0, [r3, #0]	@ zero_extendqisi2
 9466 0554 0030D4E5 		ldrb	r3, [r4, #0]	@ zero_extendqisi2
 9467 0558 033080E0 		add	r3, r0, r3
 9468 055c 0030C4E5 		strb	r3, [r4, #0]
 9469 0560 0030D5E5 		ldrb	r3, [r5, #0]	@ zero_extendqisi2
 9470 0564 0020D4E5 		ldrb	r2, [r4, #0]	@ zero_extendqisi2
 9471 0568 023083E0 		add	r3, r3, r2
 9472 056c 0030C5E5 		strb	r3, [r5, #0]
 9473 0570 FEFFFFEB 		bl	uart1_transmit
 9474 0574 0000D6E5 		ldrb	r0, [r6, #0]	@ zero_extendqisi2
 9475 0578 0030D4E5 		ldrb	r3, [r4, #0]	@ zero_extendqisi2
 9476 057c 033080E0 		add	r3, r0, r3
 9477 0580 0030C4E5 		strb	r3, [r4, #0]
 9478 0584 0030D5E5 		ldrb	r3, [r5, #0]	@ zero_extendqisi2
 9479 0588 0020D4E5 		ldrb	r2, [r4, #0]	@ zero_extendqisi2
 9480 058c 023083E0 		add	r3, r3, r2
 9481 0590 0030C5E5 		strb	r3, [r5, #0]
 9482 0594 FEFFFFEB 		bl	uart1_transmit
 9483 0598 0000D4E5 		ldrb	r0, [r4, #0]	@ zero_extendqisi2
 9484 059c FEFFFFEB 		bl	uart1_transmit
 9485 05a0 0000D5E5 		ldrb	r0, [r5, #0]	@ zero_extendqisi2
 9486 05a4 FEFFFFEB 		bl	uart1_transmit
 9487              	.L516:
 9488 05a8 8C319FE5 		ldr	r3, .L536+132
 9489 05ac 0050D3E5 		ldrb	r5, [r3, #0]	@ zero_extendqisi2
 9490 05b0 010055E3 		cmp	r5, #1
 9491 05b4 8901001A 		bne	.L519
 9492 05b8 004097E5 		ldr	r4, [r7, #0]
 9493 05bc F000D4E1 		ldrsh	r0, [r4, #0]
 9494 05c0 FEFFFFEB 		bl	__floatsisf
 9495 05c4 A0119FE5 		ldr	r1, .L536+180
 9496 05c8 FEFFFFEB 		bl	__divsf3
 9497 05cc FEFFFFEB 		bl	__extendsfdf2
 9498 05d0 E0208FE2 		adr	r2, .L536
 9499 05d4 0C0092E8 		ldmia	r2, {r2-r3}
 9500 05d8 FEFFFFEB 		bl	__muldf3
 9501 05dc DC208FE2 		adr	r2, .L536+8
 9502 05e0 0C0092E8 		ldmia	r2, {r2-r3}
 9503 05e4 FEFFFFEB 		bl	__adddf3
 9504 05e8 FEFFFFEB 		bl	__truncdfsf2
 9505 05ec 7C319FE5 		ldr	r3, .L536+184
 9506 05f0 000083E5 		str	r0, [r3, #0]	@ float
 9507 05f4 F200D4E1 		ldrsh	r0, [r4, #2]
 9508 05f8 FEFFFFEB 		bl	__floatsisf
 9509 05fc 68119FE5 		ldr	r1, .L536+180
 9510 0600 FEFFFFEB 		bl	__divsf3
 9511 0604 FEFFFFEB 		bl	__extendsfdf2
 9512 0608 B8208FE2 		adr	r2, .L536+16
 9513 060c 0C0092E8 		ldmia	r2, {r2-r3}
 9514 0610 FEFFFFEB 		bl	__muldf3
 9515 0614 A4208FE2 		adr	r2, .L536+8
 9516 0618 0C0092E8 		ldmia	r2, {r2-r3}
 9517 061c FEFFFFEB 		bl	__adddf3
 9518 0620 FEFFFFEB 		bl	__truncdfsf2
 9519 0624 48319FE5 		ldr	r3, .L536+188
 9520 0628 000083E5 		str	r0, [r3, #0]	@ float
 9521              	.L519:
 9522 062c 010055E3 		cmp	r5, #1
 9523 0630 00319F95 		ldrls	r3, .L536+128
 9524 0634 00209395 		ldrls	r2, [r3, #0]
 9525 0638 38319F95 		ldrls	r3, .L536+192
 9526 063c B620D291 		ldrlsh	r2, [r2, #6]
 9527 0640 B020C391 		strlsh	r2, [r3, #0]	@ movhi 
 9528 0644 EC309FE5 		ldr	r3, .L536+128
 9529 0648 001093E5 		ldr	r1, [r3, #0]
 9530 064c 28319FE5 		ldr	r3, .L536+196
 9531 0650 0E20D1E5 		ldrb	r2, [r1, #14]	@ zero_extendqisi2
 9532 0654 0020C3E5 		strb	r2, [r3, #0]
 9533 0658 20319FE5 		ldr	r3, .L536+200
 9534 065c 1120D1E5 		ldrb	r2, [r1, #17]	@ zero_extendqisi2
 9535 0660 0020C3E5 		strb	r2, [r3, #0]
 9536 0664 18319FE5 		ldr	r3, .L536+204
 9537 0668 B030D3E1 		ldrh	r3, [r3, #0]
 9538 066c 142091E5 		ldr	r2, [r1, #20]
 9539 0670 000053E3 		cmp	r3, #0
 9540 0674 0C319FE5 		ldr	r3, .L536+208
 9541 0678 002083E5 		str	r2, [r3, #0]
 9542 067c A501001A 		bne	.L500
 9543 0680 020055E3 		cmp	r5, #2
 9544 0684 A501001A 		bne	.L500
 9545 0688 F630D1E1 		ldrsh	r3, [r1, #6]
 9546 068c 870D53E3 		cmp	r3, #8640
 9547 0690 4C309FC5 		ldrgt	r3, .L536+44
 9548 0694 0120A0C3 		movgt	r2, #1
 9549 0698 0020C3C5 		strgtb	r2, [r3, #0]
 9550              	.L500:
 9551 069c E8309FE5 		ldr	r3, .L536+212
 9552 06a0 2C3093E5 		ldr	r3, [r3, #44]
 9553 06a4 020053E3 		cmp	r3, #2
 9554 06a8 FEFFFF0B 		bleq	airspeed_ets_read_event
 9555              	.L524:
 9556 06ac FEFFFFEB 		bl	ArduIMU_event
 9557 06b0 F0689DE8 		ldmfd	sp, {r4, r5, r6, r7, fp, sp, lr}
 9558 06b4 1EFF2FE1 		bx	lr
 9559              	.L537:
 9560              		.align	2
 9561              	.L536:
 9562 06b8 6666E6BF 		.word	-1075419546
 9563 06bc 66666666 		.word	1717986918
 9564 06c0 00000000 		.word	0
 9565 06c4 00000000 		.word	0
 9566 06c8 3333E33F 		.word	1071854387
 9567 06cc 33333333 		.word	858993459
 9568 06d0 00000000 		.word	uart0_rx_insert_idx
 9569 06d4 00000000 		.word	uart0_rx_extract_idx
 9570 06d8 00000000 		.word	gps_msg_received
 9571 06dc 00000000 		.word	uart0_rx_buffer
 9572 06e0 00000000 		.word	gps_pos_available
 9573 06e4 00000000 		.word	launch
 9574 06e8 00000000 		.word	gps_mode
 9575 06ec 00000000 		.word	gps_verbose_downlink
 9576 06f0 00000000 		.word	cpu_time_sec
 9577 06f4 00000000 		.word	last_gps_msg_t
 9578 06f8 008002E0 		.word	-536707072
 9579 06fc 00000000 		.word	uart1_rx_insert_idx
 9580 0700 00000000 		.word	uart1_rx_extract_idx
 9581 0704 00000000 		.word	pprz_msg_received
 9582 0708 00000000 		.word	pprz_status.0
 9583 070c 00000000 		.word	uart1_rx_buffer
 9584 0710 00000000 		.word	pprz_ovrn
 9585 0714 00000000 		.word	pprz_payload_len
 9586 0718 00000000 		.word	_ck_a.1
 9587 071c 00000000 		.word	payload_idx.3
 9588 0720 00000000 		.word	_ck_b.2
 9589 0724 00000000 		.word	pprz_payload
 9590 0728 00000000 		.word	pprz_error
 9591 072c 00000000 		.word	dl_buffer
 9592 0730 00000000 		.word	dl_msg_available
 9593 0734 00000000 		.word	inter_mcu_received_fbw
 9594 0738 00000000 		.word	fbw_state
 9595 073c 00000000 		.word	pprz_mode
 9596 0740 00000000 		.word	too_far_from_home
 9597 0744 00000000 		.word	mcu1_status
 9598 0748 00000000 		.word	downlink_nb_ovrn
 9599 074c 00000000 		.word	downlink_nb_bytes
 9600 0750 00000000 		.word	downlink_nb_msgs
 9601 0754 00000000 		.word	ck_a
 9602 0758 00000000 		.word	ck_b
 9603 075c 00000000 		.word	v_ctl_mode
 9604 0760 00000000 		.word	lateral_mode
 9605 0764 00000000 		.word	horizontal_mode
 9606 0768 00000000 		.word	rc_settings_mode
 9607 076c 00001646 		.word	1175846912
 9608 0770 00000000 		.word	h_ctl_roll_setpoint
 9609 0774 00000000 		.word	h_ctl_pitch_setpoint
 9610 0778 00000000 		.word	v_ctl_throttle_setpoint
 9611 077c 00000000 		.word	mcu1_ppm_cpt
 9612 0780 00000000 		.word	vsupply
 9613 0784 00000000 		.word	estimator_flight_time
 9614 0788 00000000 		.word	current
 9615 078c 00000000 		.word	airspeed_ets_i2c_trans
 9617              		.global	vsupply
 9618              		.section	.bss.vsupply,"aw",%nobits
 9621              	vsupply:
 9622 0000 00       		.space	1
 9623              		.global	slider_1_val
 9624              		.section	.bss.slider_1_val,"aw",%nobits
 9625              		.align	2
 9628              	slider_1_val:
 9629 0000 00000000 		.space	4
 9630              		.global	slider_2_val
 9631              		.section	.bss.slider_2_val,"aw",%nobits
 9632              		.align	2
 9635              	slider_2_val:
 9636 0000 00000000 		.space	4
 9637              		.global	power_switch
 9638              		.section	.bss.power_switch,"aw",%nobits
 9641              	power_switch:
 9642 0000 00       		.space	1
 9643              		.section	.bss.mcu1_status,"aw",%nobits
 9646              	mcu1_status:
 9647 0000 00       		.space	1
 9648              		.section	.bss.mcu1_ppm_cpt,"aw",%nobits
 9651              	mcu1_ppm_cpt:
 9652 0000 00       		.space	1
 9653              		.section	.bss.current,"aw",%nobits
 9654              		.align	2
 9657              	current:
 9658 0000 00000000 		.space	4
 9659              		.global	energy
 9660              		.section	.bss.energy,"aw",%nobits
 9661              		.align	2
 9664              	energy:
 9665 0000 00000000 		.space	4
 9666              		.ident	"GCC: (GNU) 3.4.4"
DEFINED SYMBOLS
                            *ABS*:00000000 main_ap.c
     /tmp/cccMsjmr.s:6      .data.ac_ident:00000000 ac_ident
     /tmp/cccMsjmr.s:12     .data.gps_lost:00000000 gps_lost
     /tmp/cccMsjmr.s:18     .data.launch:00000000 launch
     /tmp/cccMsjmr.s:24     .data.kill_throttle:00000000 kill_throttle
     /tmp/cccMsjmr.s:30     .data.lateral_mode:00000000 lateral_mode
     /tmp/cccMsjmr.s:36     .data.pprz_mode:00000000 pprz_mode
     /tmp/cccMsjmr.s:42     .data.fatal_error_nb:00000000 fatal_error_nb
     /tmp/cccMsjmr.s:48     .data.rc_settings_mode:00000000 rc_settings_mode
     /tmp/cccMsjmr.s:54     .rodata.version:00000000 version
     /tmp/cccMsjmr.s:59     .bss.last_pprz_mode.58:00000000 last_pprz_mode.58
     /tmp/cccMsjmr.s:77     .text.navigation_task:00000000 navigation_task
     /tmp/cccMsjmr.s:81     .text.navigation_task:00000000 $a
     /tmp/cccMsjmr.s:337    .text.navigation_task:000003e4 $d
     /tmp/cccMsjmr.s:9646   .bss.mcu1_status:00000000 mcu1_status
     /tmp/cccMsjmr.s:9621   .bss.vsupply:00000000 vsupply
     /tmp/cccMsjmr.s:367    .text.navigation_task:00000458 $a
     /tmp/cccMsjmr.s:729    .text.navigation_task:000009c4 $d
     /tmp/cccMsjmr.s:9657   .bss.current:00000000 current
     /tmp/cccMsjmr.s:9664   .bss.energy:00000000 energy
     /tmp/cccMsjmr.s:746    .data._60Hz.4:00000000 _60Hz.4
     /tmp/cccMsjmr.s:751    .data._20Hz.5:00000000 _20Hz.5
     /tmp/cccMsjmr.s:756    .data._10Hz.6:00000000 _10Hz.6
     /tmp/cccMsjmr.s:761    .data._4Hz.7:00000000 _4Hz.7
     /tmp/cccMsjmr.s:766    .data._1Hz.8:00000000 _1Hz.8
     /tmp/cccMsjmr.s:771    .data.boot.10:00000000 boot.10
     /tmp/cccMsjmr.s:776    .data.i6.11:00000000 i6.11
     /tmp/cccMsjmr.s:781    .data.i15.12:00000000 i15.12
     /tmp/cccMsjmr.s:786    .data.i30.13:00000000 i30.13
     /tmp/cccMsjmr.s:791    .data.i36.14:00000000 i36.14
     /tmp/cccMsjmr.s:796    .data.i48.15:00000000 i48.15
     /tmp/cccMsjmr.s:801    .data.i60.16:00000000 i60.16
     /tmp/cccMsjmr.s:806    .data.i63.17:00000000 i63.17
     /tmp/cccMsjmr.s:811    .data.i66.18:00000000 i66.18
     /tmp/cccMsjmr.s:816    .data.i72.19:00000000 i72.19
     /tmp/cccMsjmr.s:821    .data.i90.20:00000000 i90.20
     /tmp/cccMsjmr.s:826    .data.i120.21:00000000 i120.21
     /tmp/cccMsjmr.s:831    .data.i126.22:00000000 i126.22
     /tmp/cccMsjmr.s:836    .data.i150.23:00000000 i150.23
     /tmp/cccMsjmr.s:842    .data.i300.24:00000000 i300.24
     /tmp/cccMsjmr.s:848    .data.i306.25:00000000 i306.25
     /tmp/cccMsjmr.s:854    .data.i540.26:00000000 i540.26
     /tmp/cccMsjmr.s:859    .bss.i.27:00000000 i.27
     /tmp/cccMsjmr.s:865    .bss.i.28:00000000 i.28
     /tmp/cccMsjmr.s:871    .bss.last.29:00000000 last.29
     /tmp/cccMsjmr.s:876    .data.i63.30:00000000 i63.30
     /tmp/cccMsjmr.s:881    .data.i66.31:00000000 i66.31
     /tmp/cccMsjmr.s:886    .data.i78.32:00000000 i78.32
     /tmp/cccMsjmr.s:891    .data.i84.33:00000000 i84.33
     /tmp/cccMsjmr.s:896    .data.i90.34:00000000 i90.34
     /tmp/cccMsjmr.s:901    .data.i126.35:00000000 i126.35
     /tmp/cccMsjmr.s:906    .data.i180.36:00000000 i180.36
     /tmp/cccMsjmr.s:911    .data.i183.37:00000000 i183.37
     /tmp/cccMsjmr.s:916    .data.i192.38:00000000 i192.38
     /tmp/cccMsjmr.s:921    .data.i240.39:00000000 i240.39
     /tmp/cccMsjmr.s:926    .data.i243.40:00000000 i243.40
     /tmp/cccMsjmr.s:932    .data.i300.41:00000000 i300.41
     /tmp/cccMsjmr.s:938    .data.i306.42:00000000 i306.42
     /tmp/cccMsjmr.s:944    .data.i312.43:00000000 i312.43
     /tmp/cccMsjmr.s:950    .data.i540.44:00000000 i540.44
     /tmp/cccMsjmr.s:956    .data.i606.45:00000000 i606.45
     /tmp/cccMsjmr.s:961    .bss.i.46:00000000 i.46
     /tmp/cccMsjmr.s:966    .bss.i.47:00000000 i.47
     /tmp/cccMsjmr.s:972    .bss.last.48:00000000 last.48
     /tmp/cccMsjmr.s:978    .data.i300.49:00000000 i300.49
     /tmp/cccMsjmr.s:984    .data.i306.50:00000000 i306.50
     /tmp/cccMsjmr.s:990    .data.i318.51:00000000 i318.51
     /tmp/cccMsjmr.s:996    .data.i324.52:00000000 i324.52
     /tmp/cccMsjmr.s:1002   .data.i330.53:00000000 i330.53
     /tmp/cccMsjmr.s:1008   .data.i342.54:00000000 i342.54
     /tmp/cccMsjmr.s:1014   .data.i606.55:00000000 i606.55
     /tmp/cccMsjmr.s:1020   .data.i612.56:00000000 i612.56
     /tmp/cccMsjmr.s:1026   .bss.last.57:00000000 last.57
     /tmp/cccMsjmr.s:1031   .data.t.9:00000000 t.9
     /tmp/cccMsjmr.s:1037   .bss.i1.59:00000000 i1.59
     /tmp/cccMsjmr.s:1042   .bss.i6.60:00000000 i6.60
     /tmp/cccMsjmr.s:1047   .bss.i15.61:00000000 i15.61
     /tmp/cccMsjmr.s:1057   .text.periodic_task_ap:00000000 periodic_task_ap
     /tmp/cccMsjmr.s:1061   .text.periodic_task_ap:00000000 $a
     /tmp/cccMsjmr.s:1952   .text.periodic_task_ap:00000dc0 $d
     /tmp/cccMsjmr.s:2031   .text.periodic_task_ap:00000ef8 $a
     /tmp/cccMsjmr.s:3092   .text.periodic_task_ap:00001f60 $d
     /tmp/cccMsjmr.s:3140   .text.periodic_task_ap:0000201c $a
     /tmp/cccMsjmr.s:4091   .text.periodic_task_ap:00002df0 $d
     /tmp/cccMsjmr.s:4207   .text.periodic_task_ap:00002fbc $a
     /tmp/cccMsjmr.s:5212   .text.periodic_task_ap:00003f44 $d
     /tmp/cccMsjmr.s:5260   .text.periodic_task_ap:00004000 $a
     /tmp/cccMsjmr.s:5424   .text.periodic_task_ap:000041b8 $d
     /tmp/cccMsjmr.s:5486   .text.periodic_task_ap:000042ac $a
     /tmp/cccMsjmr.s:6046   .text.periodic_task_ap:00004b48 $d
     /tmp/cccMsjmr.s:6094   .text.periodic_task_ap:00004c04 $a
     /tmp/cccMsjmr.s:7285   .text.periodic_task_ap:00005e68 $d
     /tmp/cccMsjmr.s:7321   .text.periodic_task_ap:00005ef4 $a
     /tmp/cccMsjmr.s:8085   .text.periodic_task_ap:00006ab8 $d
     /tmp/cccMsjmr.s:8129   .text.periodic_task_ap:00006b64 $a
     /tmp/cccMsjmr.s:8997   .text.periodic_task_ap:000078bc $d
     /tmp/cccMsjmr.s:9028   .text.init_ap:00000000 init_ap
     /tmp/cccMsjmr.s:9032   .text.init_ap:00000000 $a
     /tmp/cccMsjmr.s:9063   .text.init_ap:0000006c $d
     /tmp/cccMsjmr.s:9641   .bss.power_switch:00000000 power_switch
     /tmp/cccMsjmr.s:9070   .data.pprz_status.0:00000000 pprz_status.0
     /tmp/cccMsjmr.s:9075   .bss._ck_a.1:00000000 _ck_a.1
     /tmp/cccMsjmr.s:9080   .bss._ck_b.2:00000000 _ck_b.2
     /tmp/cccMsjmr.s:9085   .bss.payload_idx.3:00000000 payload_idx.3
     /tmp/cccMsjmr.s:9092   .text.event_task_ap:00000000 event_task_ap
     /tmp/cccMsjmr.s:9096   .text.event_task_ap:00000000 $a
     /tmp/cccMsjmr.s:9184   .text.event_task_ap:00000144 $d
     /tmp/cccMsjmr.s:9190   .text.event_task_ap:00000158 $a
     /tmp/cccMsjmr.s:9562   .text.event_task_ap:000006b8 $d
     /tmp/cccMsjmr.s:9651   .bss.mcu1_ppm_cpt:00000000 mcu1_ppm_cpt
     /tmp/cccMsjmr.s:9628   .bss.slider_1_val:00000000 slider_1_val
     /tmp/cccMsjmr.s:9635   .bss.slider_2_val:00000000 slider_2_val

UNDEFINED SYMBOLS
__extendsfdf2
__divdf3
__fixunsdfsi
__floatsidf
__gtdf2
__floatsisf
__addsf3
__muldf3
__fixdfsi
__gtsf2
__ltsf2
__divsf3
__mulsf3
uart1_check_free_space
uart1_transmit
common_nav_periodic_task_4Hz
nav_home
nav_without_gps
cpu_time_sec
last_gps_msg_t
horizontal_mode
nav_circle_radians
downlink_nb_ovrn
downlink_nb_bytes
downlink_nb_msgs
ck_a
ck_b
nav_block
nav_stage
estimator_x
estimator_y
dist2_to_wp
dist2_to_home
nav_oval_count
v_ctl_mode
nav_throttle_setpoint
v_ctl_throttle_setpoint
nav_periodic_task
v_ctl_altitude_loop
h_ctl_course_loop
v_ctl_climb_loop
nav_pitch
h_ctl_pitch_setpoint
estimator_flight_time
__fixsfsi
__ltdf2
gps_send
telemetry_mode_Ap_DefaultChannel
estimator_phi
estimator_psi
estimator_theta
estimator_z
estimator_z_dot
nb_waypoint
nav_utm_east0
waypoints
nav_utm_north0
nav_utm_zone0
estimator_airspeed
v_ctl_auto_airspeed_setpoint
v_ctl_auto_airspeed_controlled
v_ctl_auto_groundspeed_setpoint
nav_in_circle
nav_circle_x
nav_circle_y
nav_circle_radius
h_ctl_roll_setpoint
h_ctl_pitch_loop_setpoint
h_ctl_course_setpoint
desired_x
desired_y
v_ctl_altitude_setpoint
v_ctl_climb_setpoint
v_ctl_throttle_slewed
block_time
stage_time
nav_in_segment
nav_segment_x_1
nav_segment_y_1
nav_segment_x_2
nav_segment_y_2
flight_altitude
wind_east
wind_north
alt_kalman_enabled
telemetry_mode_Fbw_DefaultChannel
gps_reset
ins_roll_neutral
ins_pitch_neutral
h_ctl_roll_pgain
h_ctl_roll_max_setpoint
h_ctl_pitch_pgain
h_ctl_pitch_dgain
h_ctl_elevator_of_roll
h_ctl_aileron_of_throttle
h_ctl_roll_attitude_gain
h_ctl_roll_rate_gain
v_ctl_altitude_pgain
v_ctl_auto_throttle_cruise_throttle
v_ctl_auto_throttle_pgain
v_ctl_auto_throttle_igain
v_ctl_auto_throttle_dgain
v_ctl_auto_throttle_climb_throttle_increment
v_ctl_auto_throttle_pitch_of_vz_pgain
v_ctl_auto_throttle_pitch_of_vz_dgain
v_ctl_auto_pitch_pgain
v_ctl_auto_pitch_igain
h_ctl_course_pgain
h_ctl_course_dgain
h_ctl_course_pre_bank_correction
nav_glide_pitch_trim
h_ctl_roll_slew
nav_radius
nav_course
nav_mode
nav_climb
fp_pitch
nav_shift
nav_ground_speed_setpoint
nav_ground_speed_pgain
nav_survey_shift
gps_Pacc
gps_Sacc
gps_PDOP
gps_numSV
v_ctl_auto_throttle_sum_err
v_ctl_auto_throttle_submode
nav_survey_active
nav_survey_east
nav_survey_north
nav_survey_west
nav_survey_south
datalink_time
estimator_propagate_state
h_ctl_attitude_loop
v_ctl_throttle_slew
ArduIMU_periodic
airspeed_ets_read_periodic
ArduIMU_periodicGPS
estimator_hspeed_mod
ap_state
h_ctl_aileron_setpoint
h_ctl_elevator_setpoint
inter_mcu_received_ap
__adddf3
gps_init
h_ctl_init
v_ctl_init
estimator_init
alt_kalman_init
nav_init
airspeed_ets_init
ArduIMU_init
settings_init
enableIRQ
traffic_info_init
__truncdfsf2
parse_ubx
parse_gps_msg
estimator_update_state_gps
gps_downlink
dl_parse_msg
airspeed_ets_read_event
ArduIMU_event
uart0_rx_insert_idx
uart0_rx_extract_idx
gps_msg_received
uart0_rx_buffer
gps_pos_available
gps_mode
gps_verbose_downlink
uart1_rx_insert_idx
uart1_rx_extract_idx
pprz_msg_received
uart1_rx_buffer
pprz_ovrn
pprz_payload_len
pprz_payload
pprz_error
dl_buffer
dl_msg_available
inter_mcu_received_fbw
fbw_state
too_far_from_home
airspeed_ets_i2c_trans
